
KL36_Update.elf:     file format elf32-littlearm
KL36_Update.elf
architecture: arm, flags 0x00000112:
EXEC_P, HAS_SYMS, D_PAGED
start address 0x0000b4e9

Program Header:
    LOAD off    0x00000000 vaddr 0x00008000 paddr 0x00008000 align 2**15
         filesz 0x000030c0 memsz 0x000030c0 flags r--
    LOAD off    0x00003400 vaddr 0x0000b400 paddr 0x0000b400 align 2**15
         filesz 0x00000010 memsz 0x00000010 flags r--
    LOAD off    0x00003410 vaddr 0x0000b410 paddr 0x0000b410 align 2**15
         filesz 0x000045c0 memsz 0x000045c0 flags rwx
    LOAD off    0x00007c00 vaddr 0x0000fc00 paddr 0x0000fc00 align 2**15
         filesz 0x000000ac memsz 0x000000ac flags r--
    LOAD off    0x0000f800 vaddr 0x1ffff800 paddr 0x0000fcac align 2**15
         filesz 0x00000068 memsz 0x00000a78 flags rw-
private flags = 5000002: [Version5 EABI] [has entry point]

Sections:
Idx Name          Size      VMA       LMA       File off  Algn  Flags
  0 .interrupts   000000c0  0000b000  0000b000  00003000  2**2  CONTENTS, ALLOC, LOAD, READONLY, DATA
  1 .flash_config 00000010  0000b400  0000b400  00003400  2**0  CONTENTS, ALLOC, LOAD, READONLY, DATA
  2 .text         000045b0  0000b410  0000b410  00003410  2**3  CONTENTS, ALLOC, LOAD, READONLY, CODE
  3 .ARM          00000008  0000f9c0  0000f9c0  000079c0  2**2  CONTENTS, ALLOC, LOAD, READONLY, DATA
  4 .init_array   00000004  0000f9c8  0000f9c8  000079c8  2**2  CONTENTS, ALLOC, LOAD, DATA
  5 .fini_array   00000004  0000f9cc  0000f9cc  000079cc  2**2  CONTENTS, ALLOC, LOAD, DATA
  6 .mac_config   000000ac  0000fc00  0000fc00  00007c00  2**2  CONTENTS, ALLOC, LOAD, READONLY, DATA
  7 .data         00000068  1ffff800  0000fcac  0000f800  2**2  CONTENTS, ALLOC, LOAD, DATA
  8 .bss          0000070c  1ffff868  0000fd14  0000f868  2**2  ALLOC
  9 .heap         00000204  1fffff74  00010420  0000f868  2**0  ALLOC
 10 .stack        00000100  20000178  00010624  0000f868  2**0  ALLOC
 11 .ARM.attributes 00000028  00000000  00000000  0000f868  2**0  CONTENTS, READONLY
 12 .debug_info   00004929  00000000  00000000  0000f890  2**0  CONTENTS, READONLY, DEBUGGING
 13 .debug_abbrev 000009dd  00000000  00000000  000141b9  2**0  CONTENTS, READONLY, DEBUGGING
 14 .debug_aranges 000001f0  00000000  00000000  00014b98  2**3  CONTENTS, READONLY, DEBUGGING
 15 .debug_ranges 00000160  00000000  00000000  00014d88  2**0  CONTENTS, READONLY, DEBUGGING
 16 .debug_macro  0000ee58  00000000  00000000  00014ee8  2**0  CONTENTS, READONLY, DEBUGGING
 17 .debug_line   0000330b  00000000  00000000  00023d40  2**0  CONTENTS, READONLY, DEBUGGING
 18 .debug_str    0004e35f  00000000  00000000  0002704b  2**0  CONTENTS, READONLY, DEBUGGING
 19 .comment      00000070  00000000  00000000  000753aa  2**0  CONTENTS, READONLY
 20 .debug_frame  0000094c  00000000  00000000  0007541c  2**2  CONTENTS, READONLY, DEBUGGING
SYMBOL TABLE:
0000b000 l    d  .interrupts	00000000 .interrupts
0000b400 l    d  .flash_config	00000000 .flash_config
0000b410 l    d  .text	00000000 .text
0000f9c0 l    d  .ARM	00000000 .ARM
0000f9c8 l    d  .init_array	00000000 .init_array
0000f9cc l    d  .fini_array	00000000 .fini_array
0000fc00 l    d  .mac_config	00000000 .mac_config
1ffff800 l    d  .data	00000000 .data
1ffff868 l    d  .bss	00000000 .bss
1fffff74 l    d  .heap	00000000 .heap
20000178 l    d  .stack	00000000 .stack
00000000 l    d  .ARM.attributes	00000000 .ARM.attributes
00000000 l    d  .debug_info	00000000 .debug_info
00000000 l    d  .debug_abbrev	00000000 .debug_abbrev
00000000 l    d  .debug_aranges	00000000 .debug_aranges
00000000 l    d  .debug_ranges	00000000 .debug_ranges
00000000 l    d  .debug_macro	00000000 .debug_macro
00000000 l    d  .debug_line	00000000 .debug_line
00000000 l    d  .debug_str	00000000 .debug_str
00000000 l    d  .comment	00000000 .comment
00000000 l    d  .debug_frame	00000000 .debug_frame
00000000 l    df *ABS*	00000000 ./03_MCU/startup/startup_MKL36Z4.o
00000000 l    df *ABS*	00000000 crtstuff.c
0000f9a8 l     O .text	00000000 __EH_FRAME_BEGIN__
1ffff864 l     O .data	00000000 __JCR_LIST__
0000b410 l     F .text	00000000 __do_global_dtors_aux
1ffff868 l       .bss	00000000 completed.7863
0000f9cc l     O .fini_array	00000000 __do_global_dtors_aux_fini_array_entry
0000b438 l     F .text	00000000 frame_dummy
1ffff86c l       .bss	00000000 object.7868
0000f9c8 l     O .init_array	00000000 __frame_dummy_init_array_entry
00000000 l    df *ABS*	00000000 c:/program/kds/toolchain/bin/../lib/gcc/arm-none-eabi/4.8.4/../../../../arm-none-eabi/lib/armv6-m/crt0.o
00000000 l    df *ABS*	00000000 _udivsi3.o
0000b538 l       .text	00000000 .udivsi3_skip_div0_test
00000000 l    df *ABS*	00000000 _dvmd_tls.o
00000000 l    df *ABS*	00000000 _arm_cmpdf2.o
00000000 l    df *ABS*	00000000 _aeabi_uldivmod.o
00000000 l    df *ABS*	00000000 libgcc2.c
00000000 l    df *ABS*	00000000 bpabi.c
00000000 l    df *ABS*	00000000 adddf3.c
00000000 l    df *ABS*	00000000 divdf3.c
00000000 l    df *ABS*	00000000 eqdf2.c
00000000 l    df *ABS*	00000000 gedf2.c
00000000 l    df *ABS*	00000000 ledf2.c
00000000 l    df *ABS*	00000000 muldf3.c
00000000 l    df *ABS*	00000000 subdf3.c
00000000 l    df *ABS*	00000000 fixdfsi.c
00000000 l    df *ABS*	00000000 floatsidf.c
00000000 l    df *ABS*	00000000 _clzsi2.o
00000000 l    df *ABS*	00000000 libgcc2.c
00000000 l    df *ABS*	00000000 libgcc2.c
00000000 l    df *ABS*	00000000 isr.c
1ffff884 l     O .bss	00000001 count.6585
00000000 l    df *ABS*	00000000 main.c
1ffff800 l     O .data	00000004 sn.6646
00000000 l    df *ABS*	00000000 valueType.c
00000000 l    df *ABS*	00000000 common.c
00000000 l    df *ABS*	00000000 light.c
00000000 l    df *ABS*	00000000 system_MKL36Z4.c
00000000 l    df *ABS*	00000000 wdog.c
00000000 l    df *ABS*	00000000 exit.c
00000000 l    df *ABS*	00000000 init.c
00000000 l    df *ABS*	00000000 memcpy-stub.c
00000000 l    df *ABS*	00000000 memset.c
00000000 l    df *ABS*	00000000 strcat.c
00000000 l    df *ABS*	00000000 strlen.c
00000000 l    df *ABS*	00000000 strncpy.c
00000000 l    df *ABS*	00000000 _exit.c
00000000 l    df *ABS*	00000000 impure.c
1ffff804 l     O .data	00000060 impure_data
00000000 l    df *ABS*	00000000 c:/program/kds/toolchain/bin/../lib/gcc/arm-none-eabi/4.8.4/armv6-m/crti.o
00000000 l    df *ABS*	00000000 c:/program/kds/toolchain/bin/../lib/gcc/arm-none-eabi/4.8.4/armv6-m/crtn.o
00000000 l    df *ABS*	00000000 crtstuff.c
1ffff864 l     O .data	00000000 __JCR_END__
00000000 l    df *ABS*	00000000 
00000100 l       *ABS*	00000000 STACK_SIZE
20000178 l       .heap	00000000 __HeapLimit
1fffff78 l       .heap	00000000 end
00000200 l       *ABS*	00000000 HEAP_SIZE
00000000 l       *UND*	00000000 _printf_float
0000f9cc l       .init_array	00000000 __init_array_end
0000f9c8 l       .init_array	00000000 __preinit_array_end
0000fcac l       .mac_config	00000000 __DATA_ROM
20001700 l       *ABS*	00000000 __StackLimit
0000f9c8 l       .init_array	00000000 __init_array_start
0000f9c8 l       .init_array	00000000 __preinit_array_start
1ffff888 g     O .bss	00000004 flash_write
1fffff78 g       .heap	00000000 __HeapBase
0000b614 g     F .text	00000012 .hidden __aeabi_dcmple
0000b70c g     F .text	00000032 .hidden __gnu_uldivmod_helper
1ffff88c g     O .bss	00000004 gpio_get_int
1ffff890 g     O .bss	00000004 flash_read_physical
0000c3cc g     F .text	00000094 .hidden __eqdf2
0000d300 g     F .text	000003b8 .hidden __divdi3
1ffff894 g     O .bss	00000004 gpio_drive_strength
1ffff800 g       .data	00000000 __data_start__
0000b52c  w    F .text	00000004 I2C0_IRQHandler
1ffff898 g     O .bss	00000004 uecom_config
1ffff89c g     O .bss	00000004 uecom_getSignalPower
0000b52c  w    F .text	00000004 HardFault_Handler
1fffff58 g     O .bss	00000004 SPI_sendN
0000b52c  w    F .text	00000004 SysTick_Handler
0000f58c g     F .text	00000030 light_init
0000b52c  w    F .text	00000004 PendSV_Handler
0000b52c  w    F .text	00000004 NMI_Handler
0000f9c8 g       .ARM	00000000 __exidx_end
0000b52c  w    F .text	00000004 PORTC_PORTD_IRQHandler
1ffff8a0 g     O .bss	00000004 uart_sendN
0000b52c  w    F .text	00000004 I2C1_IRQHandler
0000dc3c g     F .text	00000048 UART1_IRQHandler
0000c460 g     F .text	000000fc .hidden __gtdf2
0000fcac g       .mac_config	00000000 __etext
1ffff8a4 g     O .bss	00000004 disable_lptmr_int
0000b52c  w    F .text	00000004 DMA2_IRQHandler
1ffff980 g     O .bss	000000ab gFlashData
1ffff8a8 g     O .bss	00000004 uart_enable_re_int
0000b52c  w    F .text	00000004 TPM0_IRQHandler
0000b5e4 g     F .text	00000010 .hidden __aeabi_cdcmple
1ffff8ac g     O .bss	00000004 gnss_get_time
0000b52c  w    F .text	00000004 I2S0_IRQHandler
0000b52c  w    F .text	00000004 LLWU_IRQHandler
0000b52c  w    F .text	00000004 TSI0_IRQHandler
0000dbe8 g     F .text	00000054 UART0_IRQHandler
0000f7a0 g     F .text	00000012 memcpy
0000b5d4 g     F .text	00000020 .hidden __aeabi_cdrcmple
1ffff8b0 g     O .bss	00000004 flash_protect
0000c55c g     F .text	000000fc .hidden __ltdf2
0000f9c8 g       .init_array	00000000 __DTOR_END__
0000b650 g     F .text	0000003e .hidden __aeabi_uldivmod
1ffff8b4 g     O .bss	00000004 gpio_clear_allint
0000b52c  w    F .text	00000004 ADC0_IRQHandler
0000b534 g     F .text	00000088 .hidden __udivsi3
1ffff868 g       .bss	00000000 __START_BSS
1ffff8b8 g     O .bss	00000004 tsi_set_threshold
1ffff868 g       .bss	00000000 __bss_start__
1ffff8bc g     O .bss	00000004 flash_erase
0000b52c  w    F .text	00000004 SPI1_IRQHandler
1ffffa2c g     O .bss	00000400 gRecvBuf
0000b52c  w    F .text	00000004 DefaultISR
1ffff8c0 g     O .bss	00000004 uart_disable_re_int
0000b600 g     F .text	00000012 .hidden __aeabi_dcmplt
0000bd84 g     F .text	00000648 .hidden __aeabi_ddiv
0000f9c0 g       .ARM	00000000 __exidx_start
0000c658 g     F .text	00000520 .hidden __aeabi_dmul
0000f9a4 g     O .text	00000004 _global_impure_ptr
0000b690 g     F .text	00000044 .hidden __aeabi_lmul
0000f754 g     F .text	0000004c __libc_init_array
1ffff8c4 g     O .bss	00000004 flash_init
0000d6b8 g     F .text	00000382 .hidden __udivdi3
0000b470 g     F .text	00000000 _mainCRTStartup
0000f55c g     F .text	00000030 setVector
1ffff8c8 g     O .bss	00000004 enable_lptmr_int
0000f9a8 g     F .text	00000000 _init
0000b52c  w    F .text	00000004 TPM2_IRQHandler
1ffff8cc g     O .bss	00000004 uecom_getCurCommunity
1ffff8d0 g     O .bss	00000004 tsi_softsearch
00000000  w      *UND*	00000000 __libc_fini_array
0000b52c  w    F .text	00000004 RTC_IRQHandler
0000ee88 g     F .text	00000688 funPointerInit
0000b4e8  w    F .text	00000044 Reset_Handler
1fffff5c g     O .bss	00000004 SPI_disable_re_int
0000b52c  w    F .text	00000004 LCD_IRQHandler
1ffff8d4 g     O .bss	00000004 adc_read
1ffff8d8 g     O .bss	00000004 uart_get_re_int
1ffff8dc g     O .bss	00000004 uart_reN
0000b740 g     F .text	00000644 .hidden __aeabi_dadd
1ffff8e0 g     O .bss	00000004 gnss_init
0000c55c g     F .text	000000fc .hidden __ledf2
0000f7c2 g     F .text	0000001a strcat
00000000  w      *UND*	00000000 __sf_fake_stderr
0000b52c  w    F .text	00000004 RTC_Seconds_IRQHandler
00000000  w      *UND*	00000000 __deregister_frame_info
0000b52c  w    F .text	00000004 MCG_IRQHandler
1ffff8e4 g     O .bss	00000004 uart_send_string
0000b52c  w    F .text	00000004 UART2_IRQHandler
1ffff868 g       .data	00000000 __data_end__
0000f9c8 g       .init_array	00000000 __CTOR_LIST__
0000b628 g     F .text	00000012 .hidden __aeabi_dcmpgt
0000d2c4 g     F .text	0000003c .hidden __clzsi2
1ffff8e8 g     O .bss	00000004 uart_init
1ffff8ec g     O .bss	00000004 tsi_get_value16
1fffff74 g       .bss	00000000 __bss_end__
1ffff8f0 g     O .bss	00000004 gpio_get
0000b52c  w    F .text	00000004 Reserved20_IRQHandler
1fffff60 g     O .bss	00000004 SPI_receive1
0000b63c g     F .text	00000012 .hidden __aeabi_dcmpge
00000000  w      *UND*	00000000 __call_exitprocs
1ffffe2c g     O .bss	0000000e gTime
0000cb78 g     F .text	00000668 .hidden __aeabi_dsub
0000b470 g     F .text	00000000 _start
1ffff8f4 g     O .bss	00000004 uart_deint
1ffff8f8 g     O .bss	00000004 http_get
0000f7ea g     F .text	00000028 strncpy
1ffff8fc g     O .bss	00000004 tsi_disable_re_int
0000e860 g     F .text	00000024 flashData_get
1ffff900 g     O .bss	00000004 lptmr_init
00000000  w      *UND*	00000000 software_init_hook
1fffff64 g     O .bss	00000004 SPI_receiveN
1ffff904 g     O .bss	00000004 uecom_send
0000d248 g     F .text	0000007c .hidden __aeabi_i2d
0000fc00 g     O .mac_config	000000ab flashInit
1ffff908 g     O .bss	00000004 gpio_disable_int
0000ecf0 g     F .text	00000194 myItoa
1ffff90c g     O .bss	00000004 gnss_get_location
0000b5d0  w    F .text	00000002 .hidden __aeabi_ldiv0
1ffff910 g     O .bss	00000004 flash_read_logic
1fffff68 g     O .bss	00000004 SPI_send1
1ffff914 g     O .bss	00000004 uart_re1
1ffff918 g     O .bss	00000004 uecom_getIMEI
1ffff91c g     O .bss	00000004 gnss_get_attitude
0000da3c g     F .text	00000120 LPTMR0_IRQ
00000000  w      *UND*	00000000 __sf_fake_stdin
1ffff920 g     O .bss	00000004 gpio_clear_int
0000f5bc g     F .text	00000024 light_change
0000f7b2 g     F .text	00000010 memset
0000b000 g       .interrupts	000000c0 __isr_vector
0000dc88 g     F .text	00000bd4 main
0000f510 g     F .text	0000004c cpy_nvic
0000b52c  w    F .text	00000004 PIT_IRQHandler
1ffff924 g     O .bss	00000004 gnss_get_speed
1ffffe3c g     O .bss	00000117 gUserData
0000b534 g     F .text	00000000 .hidden __aeabi_uidiv
0000b52c  w    F .text	00000004 SVC_Handler
1ffff800 g       .data	00000000 __DATA_RAM
00000000  w      *UND*	00000000 hardware_init_hook
1ffff928 g     O .bss	00000004 tsi_enable_re_int
1ffff92c g     O .bss	00000004 lptmr_reset
1fffff78 g       .heap	00000000 __end__
1ffff930 g     O .bss	00000004 uecom_getUEIP
0000f9c8 g       .init_array	00000000 __CTOR_END__
0000b52c  w    F .text	00000004 DMA3_IRQHandler
0000f9c8 g       .init_array	00000000 __DTOR_LIST__
1fffff74 g       .bss	00000000 __END_BSS
0000f5e0 g     F .text	00000124 SystemInit
0000b52c  w    F .text	00000004 DMA0_IRQHandler
0000c3cc g     F .text	00000094 .hidden __nedf2
0000f9b4 g     F .text	00000000 _fini
1ffff934 g     O .bss	00000004 uecom_deInit
0000b52c  w    F .text	00000004 DAC0_IRQHandler
00000000  w      *UND*	00000000 atexit
20001800 g       *ABS*	00000000 __StackTop
1ffff938 g     O .bss	00000004 adc_init
1ffff93c g     O .bss	00000004 uecom_interrupt
1ffff800 g       .data	00000000 _mtb_end
1ffff940 g     O .bss	00000004 tsi_init
0000fd14 g       .mac_config	00000000 __DATA_END
1ffff944 g     O .bss	00000004 flash_isempty
1ffff948 g     O .bss	00000004 gpio_enable_int
0000b52c  w    F .text	00000004 TPM1_IRQHandler
20001800 g       *ABS*	00000000 __stack
0000b5bc g     F .text	00000012 .hidden __aeabi_uidivmod
0000b5f4 g     F .text	0000000c .hidden __aeabi_dcmpeq
0000b52c  w    F .text	00000004 LVD_LVW_IRQHandler
1fffff54 g     O .bss	00000002 gFrameCmd
1ffff94c g     O .bss	00000004 gpio_pull
0000b52c  w    F .text	00000004 SPI0_IRQHandler
0000b52c  w    F .text	00000004 PORTA_IRQHandler
0000b000 g       .interrupts	00000000 __VECTOR_TABLE
1fffff6c g     O .bss	00000004 SPI_init
0000f728 g     F .text	0000002c exit
0000b52c  w    F .text	00000004 FTFA_IRQHandler
1ffff950 g     O .bss	00000004 uecom_switch
0000d1e0 g     F .text	00000068 .hidden __aeabi_d2iz
1ffff800 g       .data	00000000 _mtb_start
00000000  w      *UND*	00000000 __sf_fake_stdout
0000b52c  w    F .text	00000004 Reserved40_IRQHandler
1ffff954 g     O .bss	00000004 uecom_default_delay_ms
0000e884 g     F .text	00000270 userData_init
0000b5d0  w    F .text	00000002 .hidden __aeabi_idiv0
0000f814 g     F .text	00000002 _exit
0000b52c  w    F .text	00000004 LPTMR0_IRQHandler
0000b690 g     F .text	00000044 .hidden __muldi3
0000f7dc g     F .text	0000000e strlen
0000b5e4 g     F .text	00000010 .hidden __aeabi_cdcmpeq
0000c460 g     F .text	000000fc .hidden __gedf2
1ffff958 g     O .bss	00000004 uart_send1
1ffff95c g     O .bss	00000004 systemTimeGet
1ffff960 g     O .bss	00000004 uecom_fast_init
0000f704 g     F .text	00000024 wdog_stop
1ffff964 g     O .bss	00000004 gpio_set
0000b6d4 g     F .text	00000036 .hidden __gnu_ldivmod_helper
1ffff968 g     O .bss	00000004 uecom_getBSNum
1ffff96c g     O .bss	00000004 gpio_reverse
1ffff970 g     O .bss	00000004 uecom_getFirmVer
1ffff974 g     O .bss	00000004 uecom_init
1ffff978 g     O .bss	00000004 gpio_init
0000ece8 g     F .text	00000008 LCD_ShowFlash
1fffff70 g     O .bss	00000004 SPI_enable_re_int
00000000  w      *UND*	00000000 _Jv_RegisterClasses
1ffff97c g     O .bss	00000004 uecom_getIMSI
0000b52c  w    F .text	00000004 CMP0_IRQHandler
0000db5c g     F .text	0000008c TSI0_IRQ
0000eaf8 g     F .text	000001ec userData_get
1fffff56 g     O .bss	00000002 gRecvLength
00000000  w      *UND*	00000000 __register_frame_info
0000b52c  w    F .text	00000004 DMA1_IRQHandler



Disassembly of section .text:

0000b410 <__do_global_dtors_aux>:
$t():
    b410:	b510      	push	{r4, lr}
    b412:	4c06      	ldr	r4, [pc, #24]	; (b42c <__do_global_dtors_aux+0x1c>)
    b414:	7823      	ldrb	r3, [r4, #0]
    b416:	2b00      	cmp	r3, #0
    b418:	d107      	bne.n	b42a <__do_global_dtors_aux+0x1a>
    b41a:	4b05      	ldr	r3, [pc, #20]	; (b430 <__do_global_dtors_aux+0x20>)
    b41c:	2b00      	cmp	r3, #0
    b41e:	d002      	beq.n	b426 <__do_global_dtors_aux+0x16>
    b420:	4804      	ldr	r0, [pc, #16]	; (b434 <__do_global_dtors_aux+0x24>)
    b422:	e000      	b.n	b426 <__do_global_dtors_aux+0x16>
    b424:	bf00      	nop
    b426:	2301      	movs	r3, #1
    b428:	7023      	strb	r3, [r4, #0]
    b42a:	bd10      	pop	{r4, pc}
$d():
    b42c:	1ffff868 	.word	0x1ffff868
    b430:	00000000 	.word	0x00000000
    b434:	0000f9a8 	.word	0x0000f9a8

0000b438 <frame_dummy>:
$t():
    b438:	b508      	push	{r3, lr}
    b43a:	4b08      	ldr	r3, [pc, #32]	; (b45c <frame_dummy+0x24>)
    b43c:	2b00      	cmp	r3, #0
    b43e:	d003      	beq.n	b448 <frame_dummy+0x10>
    b440:	4807      	ldr	r0, [pc, #28]	; (b460 <frame_dummy+0x28>)
    b442:	4908      	ldr	r1, [pc, #32]	; (b464 <frame_dummy+0x2c>)
    b444:	e000      	b.n	b448 <frame_dummy+0x10>
    b446:	bf00      	nop
    b448:	4807      	ldr	r0, [pc, #28]	; (b468 <frame_dummy+0x30>)
    b44a:	6803      	ldr	r3, [r0, #0]
    b44c:	2b00      	cmp	r3, #0
    b44e:	d003      	beq.n	b458 <frame_dummy+0x20>
    b450:	4b06      	ldr	r3, [pc, #24]	; (b46c <frame_dummy+0x34>)
    b452:	2b00      	cmp	r3, #0
    b454:	d000      	beq.n	b458 <frame_dummy+0x20>
    b456:	4798      	blx	r3
    b458:	bd08      	pop	{r3, pc}
    b45a:	46c0      	nop			; (mov r8, r8)
$d():
    b45c:	00000000 	.word	0x00000000
    b460:	0000f9a8 	.word	0x0000f9a8
    b464:	1ffff86c 	.word	0x1ffff86c
    b468:	1ffff864 	.word	0x1ffff864
    b46c:	00000000 	.word	0x00000000

0000b470 <_mainCRTStartup>:
$t():
    b470:	4b16      	ldr	r3, [pc, #88]	; (b4cc <_mainCRTStartup+0x5c>)
    b472:	2b00      	cmp	r3, #0
    b474:	d100      	bne.n	b478 <_mainCRTStartup+0x8>
    b476:	4b14      	ldr	r3, [pc, #80]	; (b4c8 <_mainCRTStartup+0x58>)
    b478:	469d      	mov	sp, r3
    b47a:	2240      	movs	r2, #64	; 0x40
    b47c:	0292      	lsls	r2, r2, #10
    b47e:	1a9a      	subs	r2, r3, r2
    b480:	4692      	mov	sl, r2
    b482:	2100      	movs	r1, #0
    b484:	468b      	mov	fp, r1
    b486:	460f      	mov	r7, r1
    b488:	4813      	ldr	r0, [pc, #76]	; (b4d8 <_mainCRTStartup+0x68>)
    b48a:	4a14      	ldr	r2, [pc, #80]	; (b4dc <_mainCRTStartup+0x6c>)
    b48c:	1a12      	subs	r2, r2, r0
    b48e:	f004 f990 	bl	f7b2 <memset>
    b492:	4b0f      	ldr	r3, [pc, #60]	; (b4d0 <_mainCRTStartup+0x60>)
    b494:	2b00      	cmp	r3, #0
    b496:	d000      	beq.n	b49a <_mainCRTStartup+0x2a>
    b498:	4798      	blx	r3
    b49a:	4b0e      	ldr	r3, [pc, #56]	; (b4d4 <_mainCRTStartup+0x64>)
    b49c:	2b00      	cmp	r3, #0
    b49e:	d000      	beq.n	b4a2 <_mainCRTStartup+0x32>
    b4a0:	4798      	blx	r3
    b4a2:	2000      	movs	r0, #0
    b4a4:	2100      	movs	r1, #0
    b4a6:	0004      	movs	r4, r0
    b4a8:	000d      	movs	r5, r1
    b4aa:	480d      	ldr	r0, [pc, #52]	; (b4e0 <_mainCRTStartup+0x70>)
    b4ac:	2800      	cmp	r0, #0
    b4ae:	d002      	beq.n	b4b6 <_mainCRTStartup+0x46>
    b4b0:	480c      	ldr	r0, [pc, #48]	; (b4e4 <_mainCRTStartup+0x74>)
    b4b2:	e000      	b.n	b4b6 <_mainCRTStartup+0x46>
    b4b4:	bf00      	nop
    b4b6:	f004 f94d 	bl	f754 <__libc_init_array>
    b4ba:	0020      	movs	r0, r4
    b4bc:	0029      	movs	r1, r5
    b4be:	f002 fbe3 	bl	dc88 <main>
    b4c2:	f004 f931 	bl	f728 <exit>
    b4c6:	46c0      	nop			; (mov r8, r8)
$d():
    b4c8:	00080000 	.word	0x00080000
    b4cc:	20001800 	.word	0x20001800
	...
    b4d8:	1ffff868 	.word	0x1ffff868
    b4dc:	1fffff74 	.word	0x1fffff74
	...

0000b4e8 <Reset_Handler>:
Reset_Handler():
E:\2017-2018\03_Graduation Project\04_Software\04_wangshi\03_UpdateSoftware-180625\02_UEUser\KL36_Update-180627\Debug/../03_MCU/startup/startup_MKL36Z4.S:118
    .align 2
    .globl   Reset_Handler
    .weak    Reset_Handler
    .type    Reset_Handler, %function
Reset_Handler:
    cpsid   i               /* Mask interrupts */
    b4e8:	b672      	cpsid	i
E:\2017-2018\03_Graduation Project\04_Software\04_wangshi\03_UpdateSoftware-180625\02_UEUser\KL36_Update-180627\Debug/../03_MCU/startup/startup_MKL36Z4.S:120
#ifndef __NO_SYSTEM_INIT
    bl SystemInit
    b4ea:	f004 f879 	bl	f5e0 <SystemInit>
E:\2017-2018\03_Graduation Project\04_Software\04_wangshi\03_UpdateSoftware-180625\02_UEUser\KL36_Update-180627\Debug/../03_MCU/startup/startup_MKL36Z4.S:122
#endif
    cpsie   i               /* Unmask interrupts */
    b4ee:	b662      	cpsie	i
E:\2017-2018\03_Graduation Project\04_Software\04_wangshi\03_UpdateSoftware-180625\02_UEUser\KL36_Update-180627\Debug/../03_MCU/startup/startup_MKL36Z4.S:130
 *      linker script.
 *      __etext: End of code section, i.e., begin of data sections to copy from.
 *      __data_start__/__data_end__: RAM address range that data should be
 *      copied to. Both must be aligned to 4 bytes boundary.  */

    ldr    r1, =__etext
    b4f0:	4909      	ldr	r1, [pc, #36]	; (b518 <Reset_Handler+0x30>)
E:\2017-2018\03_Graduation Project\04_Software\04_wangshi\03_UpdateSoftware-180625\02_UEUser\KL36_Update-180627\Debug/../03_MCU/startup/startup_MKL36Z4.S:131
    ldr    r2, =__data_start__
    b4f2:	4a0a      	ldr	r2, [pc, #40]	; (b51c <Reset_Handler+0x34>)
E:\2017-2018\03_Graduation Project\04_Software\04_wangshi\03_UpdateSoftware-180625\02_UEUser\KL36_Update-180627\Debug/../03_MCU/startup/startup_MKL36Z4.S:132
    ldr    r3, =__data_end__
    b4f4:	4b0a      	ldr	r3, [pc, #40]	; (b520 <Reset_Handler+0x38>)
E:\2017-2018\03_Graduation Project\04_Software\04_wangshi\03_UpdateSoftware-180625\02_UEUser\KL36_Update-180627\Debug/../03_MCU/startup/startup_MKL36Z4.S:134

    subs    r3, r2
    b4f6:	1a9b      	subs	r3, r3, r2
E:\2017-2018\03_Graduation Project\04_Software\04_wangshi\03_UpdateSoftware-180625\02_UEUser\KL36_Update-180627\Debug/../03_MCU/startup/startup_MKL36Z4.S:135
    ble     .LC0
    b4f8:	dd03      	ble.n	b502 <Reset_Handler+0x1a>
E:\2017-2018\03_Graduation Project\04_Software\04_wangshi\03_UpdateSoftware-180625\02_UEUser\KL36_Update-180627\Debug/../03_MCU/startup/startup_MKL36Z4.S:138

.LC1:
    subs    r3, 4
    b4fa:	3b04      	subs	r3, #4
E:\2017-2018\03_Graduation Project\04_Software\04_wangshi\03_UpdateSoftware-180625\02_UEUser\KL36_Update-180627\Debug/../03_MCU/startup/startup_MKL36Z4.S:139
    ldr    r0, [r1,r3]
    b4fc:	58c8      	ldr	r0, [r1, r3]
E:\2017-2018\03_Graduation Project\04_Software\04_wangshi\03_UpdateSoftware-180625\02_UEUser\KL36_Update-180627\Debug/../03_MCU/startup/startup_MKL36Z4.S:140
    str    r0, [r2,r3]
    b4fe:	50d0      	str	r0, [r2, r3]
E:\2017-2018\03_Graduation Project\04_Software\04_wangshi\03_UpdateSoftware-180625\02_UEUser\KL36_Update-180627\Debug/../03_MCU/startup/startup_MKL36Z4.S:141
    bgt    .LC1
    b500:	dcfb      	bgt.n	b4fa <Reset_Handler+0x12>
E:\2017-2018\03_Graduation Project\04_Software\04_wangshi\03_UpdateSoftware-180625\02_UEUser\KL36_Update-180627\Debug/../03_MCU/startup/startup_MKL36Z4.S:154
 *     Loop to zero out BSS section, which uses following symbols
 *     in linker script:
 *      __bss_start__: start of BSS section. Must align to 4
 *      __bss_end__: end of BSS section. Must align to 4
 */
    ldr r1, =__bss_start__
    b502:	4908      	ldr	r1, [pc, #32]	; (b524 <Reset_Handler+0x3c>)
E:\2017-2018\03_Graduation Project\04_Software\04_wangshi\03_UpdateSoftware-180625\02_UEUser\KL36_Update-180627\Debug/../03_MCU/startup/startup_MKL36Z4.S:155
    ldr r2, =__bss_end__
    b504:	4a08      	ldr	r2, [pc, #32]	; (b528 <Reset_Handler+0x40>)
E:\2017-2018\03_Graduation Project\04_Software\04_wangshi\03_UpdateSoftware-180625\02_UEUser\KL36_Update-180627\Debug/../03_MCU/startup/startup_MKL36Z4.S:157

    subs    r2, r1
    b506:	1a52      	subs	r2, r2, r1
E:\2017-2018\03_Graduation Project\04_Software\04_wangshi\03_UpdateSoftware-180625\02_UEUser\KL36_Update-180627\Debug/../03_MCU/startup/startup_MKL36Z4.S:158
    ble .LC3
    b508:	dd03      	ble.n	b512 <Reset_Handler+0x2a>
E:\2017-2018\03_Graduation Project\04_Software\04_wangshi\03_UpdateSoftware-180625\02_UEUser\KL36_Update-180627\Debug/../03_MCU/startup/startup_MKL36Z4.S:160

    movs    r0, 0
    b50a:	2000      	movs	r0, #0
E:\2017-2018\03_Graduation Project\04_Software\04_wangshi\03_UpdateSoftware-180625\02_UEUser\KL36_Update-180627\Debug/../03_MCU/startup/startup_MKL36Z4.S:162
.LC2:
    str r0, [r1, r2]
    b50c:	5088      	str	r0, [r1, r2]
E:\2017-2018\03_Graduation Project\04_Software\04_wangshi\03_UpdateSoftware-180625\02_UEUser\KL36_Update-180627\Debug/../03_MCU/startup/startup_MKL36Z4.S:163
    subs    r2, 4
    b50e:	3a04      	subs	r2, #4
E:\2017-2018\03_Graduation Project\04_Software\04_wangshi\03_UpdateSoftware-180625\02_UEUser\KL36_Update-180627\Debug/../03_MCU/startup/startup_MKL36Z4.S:164
    bge .LC2
    b510:	dafc      	bge.n	b50c <Reset_Handler+0x24>
E:\2017-2018\03_Graduation Project\04_Software\04_wangshi\03_UpdateSoftware-180625\02_UEUser\KL36_Update-180627\Debug/../03_MCU/startup/startup_MKL36Z4.S:170
.LC3:
#endif
#ifndef __START
#define __START _start
#endif
    bl    __START
    b512:	f7ff ffad 	bl	b470 <_mainCRTStartup>
    b516:	0000      	.short	0x0000
E:\2017-2018\03_Graduation Project\04_Software\04_wangshi\03_UpdateSoftware-180625\02_UEUser\KL36_Update-180627\Debug/../03_MCU/startup/startup_MKL36Z4.S:130
 *      linker script.
 *      __etext: End of code section, i.e., begin of data sections to copy from.
 *      __data_start__/__data_end__: RAM address range that data should be
 *      copied to. Both must be aligned to 4 bytes boundary.  */

    ldr    r1, =__etext
    b518:	0000fcac 	.word	0x0000fcac
E:\2017-2018\03_Graduation Project\04_Software\04_wangshi\03_UpdateSoftware-180625\02_UEUser\KL36_Update-180627\Debug/../03_MCU/startup/startup_MKL36Z4.S:131
    ldr    r2, =__data_start__
    b51c:	1ffff800 	.word	0x1ffff800
E:\2017-2018\03_Graduation Project\04_Software\04_wangshi\03_UpdateSoftware-180625\02_UEUser\KL36_Update-180627\Debug/../03_MCU/startup/startup_MKL36Z4.S:132
    ldr    r3, =__data_end__
    b520:	1ffff868 	.word	0x1ffff868
E:\2017-2018\03_Graduation Project\04_Software\04_wangshi\03_UpdateSoftware-180625\02_UEUser\KL36_Update-180627\Debug/../03_MCU/startup/startup_MKL36Z4.S:154
 *     Loop to zero out BSS section, which uses following symbols
 *     in linker script:
 *      __bss_start__: start of BSS section. Must align to 4
 *      __bss_end__: end of BSS section. Must align to 4
 */
    ldr r1, =__bss_start__
    b524:	1ffff868 	.word	0x1ffff868
E:\2017-2018\03_Graduation Project\04_Software\04_wangshi\03_UpdateSoftware-180625\02_UEUser\KL36_Update-180627\Debug/../03_MCU/startup/startup_MKL36Z4.S:155
    ldr r2, =__bss_end__
    b528:	1fffff74 	.word	0x1fffff74

0000b52c <ADC0_IRQHandler>:
I2C0_IRQHandler():
E:\2017-2018\03_Graduation Project\04_Software\04_wangshi\03_UpdateSoftware-180625\02_UEUser\KL36_Update-180627\Debug/../03_MCU/startup/startup_MKL36Z4.S:179
    .align    1
    .thumb_func
    .weak DefaultISR
    .type DefaultISR, %function
DefaultISR:
    ldr    r0, =DefaultISR
    b52c:	4800      	ldr	r0, [pc, #0]	; (b530 <ADC0_IRQHandler+0x4>)
E:\2017-2018\03_Graduation Project\04_Software\04_wangshi\03_UpdateSoftware-180625\02_UEUser\KL36_Update-180627\Debug/../03_MCU/startup/startup_MKL36Z4.S:180
    bx r0
    b52e:	4700      	bx	r0
$d():
E:\2017-2018\03_Graduation Project\04_Software\04_wangshi\03_UpdateSoftware-180625\02_UEUser\KL36_Update-180627\Debug/../03_MCU/startup/startup_MKL36Z4.S:179
    .align    1
    .thumb_func
    .weak DefaultISR
    .type DefaultISR, %function
DefaultISR:
    ldr    r0, =DefaultISR
    b530:	0000b52d 	.word	0x0000b52d

0000b534 <__aeabi_uidiv>:
__udivsi3():
    b534:	2900      	cmp	r1, #0
    b536:	d034      	beq.n	b5a2 <.udivsi3_skip_div0_test+0x6a>

0000b538 <.udivsi3_skip_div0_test>:
    b538:	2301      	movs	r3, #1
    b53a:	2200      	movs	r2, #0
    b53c:	b410      	push	{r4}
    b53e:	4288      	cmp	r0, r1
    b540:	d32c      	bcc.n	b59c <.udivsi3_skip_div0_test+0x64>
    b542:	2401      	movs	r4, #1
    b544:	0724      	lsls	r4, r4, #28
    b546:	42a1      	cmp	r1, r4
    b548:	d204      	bcs.n	b554 <.udivsi3_skip_div0_test+0x1c>
    b54a:	4281      	cmp	r1, r0
    b54c:	d202      	bcs.n	b554 <.udivsi3_skip_div0_test+0x1c>
    b54e:	0109      	lsls	r1, r1, #4
    b550:	011b      	lsls	r3, r3, #4
    b552:	e7f8      	b.n	b546 <.udivsi3_skip_div0_test+0xe>
    b554:	00e4      	lsls	r4, r4, #3
    b556:	42a1      	cmp	r1, r4
    b558:	d204      	bcs.n	b564 <.udivsi3_skip_div0_test+0x2c>
    b55a:	4281      	cmp	r1, r0
    b55c:	d202      	bcs.n	b564 <.udivsi3_skip_div0_test+0x2c>
    b55e:	0049      	lsls	r1, r1, #1
    b560:	005b      	lsls	r3, r3, #1
    b562:	e7f8      	b.n	b556 <.udivsi3_skip_div0_test+0x1e>
    b564:	4288      	cmp	r0, r1
    b566:	d301      	bcc.n	b56c <.udivsi3_skip_div0_test+0x34>
    b568:	1a40      	subs	r0, r0, r1
    b56a:	431a      	orrs	r2, r3
    b56c:	084c      	lsrs	r4, r1, #1
    b56e:	42a0      	cmp	r0, r4
    b570:	d302      	bcc.n	b578 <.udivsi3_skip_div0_test+0x40>
    b572:	1b00      	subs	r0, r0, r4
    b574:	085c      	lsrs	r4, r3, #1
    b576:	4322      	orrs	r2, r4
    b578:	088c      	lsrs	r4, r1, #2
    b57a:	42a0      	cmp	r0, r4
    b57c:	d302      	bcc.n	b584 <.udivsi3_skip_div0_test+0x4c>
    b57e:	1b00      	subs	r0, r0, r4
    b580:	089c      	lsrs	r4, r3, #2
    b582:	4322      	orrs	r2, r4
    b584:	08cc      	lsrs	r4, r1, #3
    b586:	42a0      	cmp	r0, r4
    b588:	d302      	bcc.n	b590 <.udivsi3_skip_div0_test+0x58>
    b58a:	1b00      	subs	r0, r0, r4
    b58c:	08dc      	lsrs	r4, r3, #3
    b58e:	4322      	orrs	r2, r4
    b590:	2800      	cmp	r0, #0
    b592:	d003      	beq.n	b59c <.udivsi3_skip_div0_test+0x64>
    b594:	091b      	lsrs	r3, r3, #4
    b596:	d001      	beq.n	b59c <.udivsi3_skip_div0_test+0x64>
    b598:	0909      	lsrs	r1, r1, #4
    b59a:	e7e3      	b.n	b564 <.udivsi3_skip_div0_test+0x2c>
    b59c:	1c10      	adds	r0, r2, #0
    b59e:	bc10      	pop	{r4}
    b5a0:	4770      	bx	lr
    b5a2:	2800      	cmp	r0, #0
    b5a4:	d001      	beq.n	b5aa <.udivsi3_skip_div0_test+0x72>
    b5a6:	2000      	movs	r0, #0
    b5a8:	43c0      	mvns	r0, r0
    b5aa:	b407      	push	{r0, r1, r2}
    b5ac:	4802      	ldr	r0, [pc, #8]	; (b5b8 <.udivsi3_skip_div0_test+0x80>)
    b5ae:	a102      	add	r1, pc, #8	; (adr r1, b5b8 <.udivsi3_skip_div0_test+0x80>)
    b5b0:	1840      	adds	r0, r0, r1
    b5b2:	9002      	str	r0, [sp, #8]
    b5b4:	bd03      	pop	{r0, r1, pc}
    b5b6:	46c0      	nop			; (mov r8, r8)
    b5b8:	00000019 	.word	0x00000019

0000b5bc <__aeabi_uidivmod>:
__aeabi_uidivmod():
    b5bc:	2900      	cmp	r1, #0
    b5be:	d0f0      	beq.n	b5a2 <.udivsi3_skip_div0_test+0x6a>
    b5c0:	b503      	push	{r0, r1, lr}
    b5c2:	f7ff ffb9 	bl	b538 <.udivsi3_skip_div0_test>
    b5c6:	bc0e      	pop	{r1, r2, r3}
    b5c8:	4342      	muls	r2, r0
    b5ca:	1a89      	subs	r1, r1, r2
    b5cc:	4718      	bx	r3
    b5ce:	46c0      	nop			; (mov r8, r8)

0000b5d0 <__aeabi_idiv0>:
__aeabi_ldiv0():
    b5d0:	4770      	bx	lr
    b5d2:	46c0      	nop			; (mov r8, r8)

0000b5d4 <__aeabi_cdrcmple>:
__aeabi_cdrcmple():
    b5d4:	4684      	mov	ip, r0
    b5d6:	1c10      	adds	r0, r2, #0
    b5d8:	4662      	mov	r2, ip
    b5da:	468c      	mov	ip, r1
    b5dc:	1c19      	adds	r1, r3, #0
    b5de:	4663      	mov	r3, ip
    b5e0:	e000      	b.n	b5e4 <__aeabi_cdcmpeq>
    b5e2:	46c0      	nop			; (mov r8, r8)

0000b5e4 <__aeabi_cdcmpeq>:
    b5e4:	b51f      	push	{r0, r1, r2, r3, r4, lr}
    b5e6:	f000 ffb9 	bl	c55c <__ledf2>
    b5ea:	2800      	cmp	r0, #0
    b5ec:	d401      	bmi.n	b5f2 <__aeabi_cdcmpeq+0xe>
    b5ee:	2100      	movs	r1, #0
    b5f0:	42c8      	cmn	r0, r1
    b5f2:	bd1f      	pop	{r0, r1, r2, r3, r4, pc}

0000b5f4 <__aeabi_dcmpeq>:
__aeabi_dcmpeq():
    b5f4:	b510      	push	{r4, lr}
    b5f6:	f000 fee9 	bl	c3cc <__eqdf2>
    b5fa:	4240      	negs	r0, r0
    b5fc:	3001      	adds	r0, #1
    b5fe:	bd10      	pop	{r4, pc}

0000b600 <__aeabi_dcmplt>:
__aeabi_dcmplt():
    b600:	b510      	push	{r4, lr}
    b602:	f000 ffab 	bl	c55c <__ledf2>
    b606:	2800      	cmp	r0, #0
    b608:	db01      	blt.n	b60e <__aeabi_dcmplt+0xe>
    b60a:	2000      	movs	r0, #0
    b60c:	bd10      	pop	{r4, pc}
    b60e:	2001      	movs	r0, #1
    b610:	bd10      	pop	{r4, pc}
    b612:	46c0      	nop			; (mov r8, r8)

0000b614 <__aeabi_dcmple>:
__aeabi_dcmple():
    b614:	b510      	push	{r4, lr}
    b616:	f000 ffa1 	bl	c55c <__ledf2>
    b61a:	2800      	cmp	r0, #0
    b61c:	dd01      	ble.n	b622 <__aeabi_dcmple+0xe>
    b61e:	2000      	movs	r0, #0
    b620:	bd10      	pop	{r4, pc}
    b622:	2001      	movs	r0, #1
    b624:	bd10      	pop	{r4, pc}
    b626:	46c0      	nop			; (mov r8, r8)

0000b628 <__aeabi_dcmpgt>:
__aeabi_dcmpgt():
    b628:	b510      	push	{r4, lr}
    b62a:	f000 ff19 	bl	c460 <__gedf2>
    b62e:	2800      	cmp	r0, #0
    b630:	dc01      	bgt.n	b636 <__aeabi_dcmpgt+0xe>
    b632:	2000      	movs	r0, #0
    b634:	bd10      	pop	{r4, pc}
    b636:	2001      	movs	r0, #1
    b638:	bd10      	pop	{r4, pc}
    b63a:	46c0      	nop			; (mov r8, r8)

0000b63c <__aeabi_dcmpge>:
__aeabi_dcmpge():
    b63c:	b510      	push	{r4, lr}
    b63e:	f000 ff0f 	bl	c460 <__gedf2>
    b642:	2800      	cmp	r0, #0
    b644:	da01      	bge.n	b64a <__aeabi_dcmpge+0xe>
    b646:	2000      	movs	r0, #0
    b648:	bd10      	pop	{r4, pc}
    b64a:	2001      	movs	r0, #1
    b64c:	bd10      	pop	{r4, pc}
    b64e:	46c0      	nop			; (mov r8, r8)

0000b650 <__aeabi_uldivmod>:
__aeabi_uldivmod():
    b650:	2b00      	cmp	r3, #0
    b652:	d111      	bne.n	b678 <__aeabi_uldivmod+0x28>
    b654:	2a00      	cmp	r2, #0
    b656:	d10f      	bne.n	b678 <__aeabi_uldivmod+0x28>
    b658:	2900      	cmp	r1, #0
    b65a:	d100      	bne.n	b65e <__aeabi_uldivmod+0xe>
    b65c:	2800      	cmp	r0, #0
    b65e:	d002      	beq.n	b666 <__aeabi_uldivmod+0x16>
    b660:	2100      	movs	r1, #0
    b662:	43c9      	mvns	r1, r1
    b664:	1c08      	adds	r0, r1, #0
    b666:	b407      	push	{r0, r1, r2}
    b668:	4802      	ldr	r0, [pc, #8]	; (b674 <__aeabi_uldivmod+0x24>)
    b66a:	a102      	add	r1, pc, #8	; (adr r1, b674 <__aeabi_uldivmod+0x24>)
    b66c:	1840      	adds	r0, r0, r1
    b66e:	9002      	str	r0, [sp, #8]
    b670:	bd03      	pop	{r0, r1, pc}
    b672:	46c0      	nop			; (mov r8, r8)
    b674:	ffffff5d 	.word	0xffffff5d
    b678:	b403      	push	{r0, r1}
    b67a:	4668      	mov	r0, sp
    b67c:	b501      	push	{r0, lr}
    b67e:	9802      	ldr	r0, [sp, #8]
    b680:	f000 f844 	bl	b70c <__gnu_uldivmod_helper>
    b684:	9b01      	ldr	r3, [sp, #4]
    b686:	469e      	mov	lr, r3
    b688:	b002      	add	sp, #8
    b68a:	bc0c      	pop	{r2, r3}
    b68c:	4770      	bx	lr
$t():
    b68e:	46c0      	nop			; (mov r8, r8)

0000b690 <__aeabi_lmul>:
__aeabi_lmul():
    b690:	469c      	mov	ip, r3
    b692:	0403      	lsls	r3, r0, #16
    b694:	b5f0      	push	{r4, r5, r6, r7, lr}
    b696:	0c1b      	lsrs	r3, r3, #16
    b698:	0417      	lsls	r7, r2, #16
    b69a:	0c3f      	lsrs	r7, r7, #16
    b69c:	0c15      	lsrs	r5, r2, #16
    b69e:	1c1e      	adds	r6, r3, #0
    b6a0:	1c04      	adds	r4, r0, #0
    b6a2:	0c00      	lsrs	r0, r0, #16
    b6a4:	437e      	muls	r6, r7
    b6a6:	436b      	muls	r3, r5
    b6a8:	4347      	muls	r7, r0
    b6aa:	4345      	muls	r5, r0
    b6ac:	18fb      	adds	r3, r7, r3
    b6ae:	0c30      	lsrs	r0, r6, #16
    b6b0:	1818      	adds	r0, r3, r0
    b6b2:	4287      	cmp	r7, r0
    b6b4:	d902      	bls.n	b6bc <__aeabi_lmul+0x2c>
    b6b6:	2380      	movs	r3, #128	; 0x80
    b6b8:	025b      	lsls	r3, r3, #9
    b6ba:	18ed      	adds	r5, r5, r3
    b6bc:	0c03      	lsrs	r3, r0, #16
    b6be:	18ed      	adds	r5, r5, r3
    b6c0:	4663      	mov	r3, ip
    b6c2:	435c      	muls	r4, r3
    b6c4:	434a      	muls	r2, r1
    b6c6:	0436      	lsls	r6, r6, #16
    b6c8:	0c36      	lsrs	r6, r6, #16
    b6ca:	18a1      	adds	r1, r4, r2
    b6cc:	0400      	lsls	r0, r0, #16
    b6ce:	1980      	adds	r0, r0, r6
    b6d0:	1949      	adds	r1, r1, r5
    b6d2:	bdf0      	pop	{r4, r5, r6, r7, pc}

0000b6d4 <__gnu_ldivmod_helper>:
__gnu_ldivmod_helper():
    b6d4:	b5f0      	push	{r4, r5, r6, r7, lr}
    b6d6:	b083      	sub	sp, #12
    b6d8:	1c16      	adds	r6, r2, #0
    b6da:	1c1f      	adds	r7, r3, #0
    b6dc:	9000      	str	r0, [sp, #0]
    b6de:	9101      	str	r1, [sp, #4]
    b6e0:	f001 fe0e 	bl	d300 <__divdi3>
    b6e4:	1c04      	adds	r4, r0, #0
    b6e6:	1c0d      	adds	r5, r1, #0
    b6e8:	1c22      	adds	r2, r4, #0
    b6ea:	1c2b      	adds	r3, r5, #0
    b6ec:	1c30      	adds	r0, r6, #0
    b6ee:	1c39      	adds	r1, r7, #0
    b6f0:	f7ff ffce 	bl	b690 <__aeabi_lmul>
    b6f4:	9a00      	ldr	r2, [sp, #0]
    b6f6:	9b01      	ldr	r3, [sp, #4]
    b6f8:	1a12      	subs	r2, r2, r0
    b6fa:	418b      	sbcs	r3, r1
    b6fc:	9908      	ldr	r1, [sp, #32]
    b6fe:	1c20      	adds	r0, r4, #0
    b700:	600a      	str	r2, [r1, #0]
    b702:	604b      	str	r3, [r1, #4]
    b704:	1c29      	adds	r1, r5, #0
    b706:	b003      	add	sp, #12
    b708:	bdf0      	pop	{r4, r5, r6, r7, pc}
    b70a:	46c0      	nop			; (mov r8, r8)

0000b70c <__gnu_uldivmod_helper>:
__gnu_uldivmod_helper():
    b70c:	b5f0      	push	{r4, r5, r6, r7, lr}
    b70e:	b083      	sub	sp, #12
    b710:	1c14      	adds	r4, r2, #0
    b712:	1c1d      	adds	r5, r3, #0
    b714:	9000      	str	r0, [sp, #0]
    b716:	9101      	str	r1, [sp, #4]
    b718:	f001 ffce 	bl	d6b8 <__udivdi3>
    b71c:	1c22      	adds	r2, r4, #0
    b71e:	1c2b      	adds	r3, r5, #0
    b720:	1c06      	adds	r6, r0, #0
    b722:	1c0f      	adds	r7, r1, #0
    b724:	f7ff ffb4 	bl	b690 <__aeabi_lmul>
    b728:	9a00      	ldr	r2, [sp, #0]
    b72a:	9b01      	ldr	r3, [sp, #4]
    b72c:	1a12      	subs	r2, r2, r0
    b72e:	418b      	sbcs	r3, r1
    b730:	9908      	ldr	r1, [sp, #32]
    b732:	1c30      	adds	r0, r6, #0
    b734:	600a      	str	r2, [r1, #0]
    b736:	604b      	str	r3, [r1, #4]
    b738:	1c39      	adds	r1, r7, #0
    b73a:	b003      	add	sp, #12
    b73c:	bdf0      	pop	{r4, r5, r6, r7, pc}
    b73e:	46c0      	nop			; (mov r8, r8)

0000b740 <__aeabi_dadd>:
__aeabi_dadd():
    b740:	b5f8      	push	{r3, r4, r5, r6, r7, lr}
    b742:	465f      	mov	r7, fp
    b744:	4656      	mov	r6, sl
    b746:	4644      	mov	r4, r8
    b748:	464d      	mov	r5, r9
    b74a:	b4f0      	push	{r4, r5, r6, r7}
    b74c:	030c      	lsls	r4, r1, #12
    b74e:	004d      	lsls	r5, r1, #1
    b750:	0fce      	lsrs	r6, r1, #31
    b752:	0a61      	lsrs	r1, r4, #9
    b754:	0f44      	lsrs	r4, r0, #29
    b756:	4321      	orrs	r1, r4
    b758:	00c4      	lsls	r4, r0, #3
    b75a:	0318      	lsls	r0, r3, #12
    b75c:	4680      	mov	r8, r0
    b75e:	0058      	lsls	r0, r3, #1
    b760:	0d40      	lsrs	r0, r0, #21
    b762:	4682      	mov	sl, r0
    b764:	0fd8      	lsrs	r0, r3, #31
    b766:	4684      	mov	ip, r0
    b768:	4640      	mov	r0, r8
    b76a:	0a40      	lsrs	r0, r0, #9
    b76c:	0f53      	lsrs	r3, r2, #29
    b76e:	4303      	orrs	r3, r0
    b770:	00d0      	lsls	r0, r2, #3
    b772:	0d6d      	lsrs	r5, r5, #21
    b774:	1c37      	adds	r7, r6, #0
    b776:	4683      	mov	fp, r0
    b778:	4652      	mov	r2, sl
    b77a:	4566      	cmp	r6, ip
    b77c:	d100      	bne.n	b780 <__aeabi_dadd+0x40>
    b77e:	e0a4      	b.n	b8ca <__aeabi_dadd+0x18a>
    b780:	1aaf      	subs	r7, r5, r2
    b782:	2f00      	cmp	r7, #0
    b784:	dc00      	bgt.n	b788 <__aeabi_dadd+0x48>
    b786:	e109      	b.n	b99c <__aeabi_dadd+0x25c>
    b788:	2a00      	cmp	r2, #0
    b78a:	d13b      	bne.n	b804 <__aeabi_dadd+0xc4>
    b78c:	4318      	orrs	r0, r3
    b78e:	d000      	beq.n	b792 <__aeabi_dadd+0x52>
    b790:	e0ea      	b.n	b968 <__aeabi_dadd+0x228>
    b792:	0763      	lsls	r3, r4, #29
    b794:	d100      	bne.n	b798 <__aeabi_dadd+0x58>
    b796:	e087      	b.n	b8a8 <__aeabi_dadd+0x168>
    b798:	230f      	movs	r3, #15
    b79a:	4023      	ands	r3, r4
    b79c:	2b04      	cmp	r3, #4
    b79e:	d100      	bne.n	b7a2 <__aeabi_dadd+0x62>
    b7a0:	e082      	b.n	b8a8 <__aeabi_dadd+0x168>
    b7a2:	1d22      	adds	r2, r4, #4
    b7a4:	42a2      	cmp	r2, r4
    b7a6:	41a4      	sbcs	r4, r4
    b7a8:	4264      	negs	r4, r4
    b7aa:	2380      	movs	r3, #128	; 0x80
    b7ac:	1909      	adds	r1, r1, r4
    b7ae:	041b      	lsls	r3, r3, #16
    b7b0:	400b      	ands	r3, r1
    b7b2:	1c37      	adds	r7, r6, #0
    b7b4:	1c14      	adds	r4, r2, #0
    b7b6:	2b00      	cmp	r3, #0
    b7b8:	d100      	bne.n	b7bc <__aeabi_dadd+0x7c>
    b7ba:	e07c      	b.n	b8b6 <__aeabi_dadd+0x176>
    b7bc:	4bce      	ldr	r3, [pc, #824]	; (baf8 <__aeabi_dadd+0x3b8>)
    b7be:	3501      	adds	r5, #1
    b7c0:	429d      	cmp	r5, r3
    b7c2:	d100      	bne.n	b7c6 <__aeabi_dadd+0x86>
    b7c4:	e105      	b.n	b9d2 <__aeabi_dadd+0x292>
    b7c6:	4bcd      	ldr	r3, [pc, #820]	; (bafc <__aeabi_dadd+0x3bc>)
    b7c8:	08e4      	lsrs	r4, r4, #3
    b7ca:	4019      	ands	r1, r3
    b7cc:	0748      	lsls	r0, r1, #29
    b7ce:	0249      	lsls	r1, r1, #9
    b7d0:	4304      	orrs	r4, r0
    b7d2:	0b0b      	lsrs	r3, r1, #12
    b7d4:	2000      	movs	r0, #0
    b7d6:	2100      	movs	r1, #0
    b7d8:	031b      	lsls	r3, r3, #12
    b7da:	0b1a      	lsrs	r2, r3, #12
    b7dc:	0d0b      	lsrs	r3, r1, #20
    b7de:	056d      	lsls	r5, r5, #21
    b7e0:	051b      	lsls	r3, r3, #20
    b7e2:	4313      	orrs	r3, r2
    b7e4:	086a      	lsrs	r2, r5, #1
    b7e6:	4dc6      	ldr	r5, [pc, #792]	; (bb00 <__aeabi_dadd+0x3c0>)
    b7e8:	07ff      	lsls	r7, r7, #31
    b7ea:	401d      	ands	r5, r3
    b7ec:	4315      	orrs	r5, r2
    b7ee:	006d      	lsls	r5, r5, #1
    b7f0:	086d      	lsrs	r5, r5, #1
    b7f2:	1c29      	adds	r1, r5, #0
    b7f4:	4339      	orrs	r1, r7
    b7f6:	1c20      	adds	r0, r4, #0
    b7f8:	bc3c      	pop	{r2, r3, r4, r5}
    b7fa:	4690      	mov	r8, r2
    b7fc:	4699      	mov	r9, r3
    b7fe:	46a2      	mov	sl, r4
    b800:	46ab      	mov	fp, r5
    b802:	bdf8      	pop	{r3, r4, r5, r6, r7, pc}
    b804:	48bc      	ldr	r0, [pc, #752]	; (baf8 <__aeabi_dadd+0x3b8>)
    b806:	4285      	cmp	r5, r0
    b808:	d0c3      	beq.n	b792 <__aeabi_dadd+0x52>
    b80a:	2080      	movs	r0, #128	; 0x80
    b80c:	0400      	lsls	r0, r0, #16
    b80e:	4303      	orrs	r3, r0
    b810:	2f38      	cmp	r7, #56	; 0x38
    b812:	dd00      	ble.n	b816 <__aeabi_dadd+0xd6>
    b814:	e0f0      	b.n	b9f8 <__aeabi_dadd+0x2b8>
    b816:	2f1f      	cmp	r7, #31
    b818:	dd00      	ble.n	b81c <__aeabi_dadd+0xdc>
    b81a:	e124      	b.n	ba66 <__aeabi_dadd+0x326>
    b81c:	2020      	movs	r0, #32
    b81e:	1bc0      	subs	r0, r0, r7
    b820:	1c1a      	adds	r2, r3, #0
    b822:	4681      	mov	r9, r0
    b824:	4082      	lsls	r2, r0
    b826:	4658      	mov	r0, fp
    b828:	40f8      	lsrs	r0, r7
    b82a:	4302      	orrs	r2, r0
    b82c:	4694      	mov	ip, r2
    b82e:	4658      	mov	r0, fp
    b830:	464a      	mov	r2, r9
    b832:	4090      	lsls	r0, r2
    b834:	1e42      	subs	r2, r0, #1
    b836:	4190      	sbcs	r0, r2
    b838:	40fb      	lsrs	r3, r7
    b83a:	4662      	mov	r2, ip
    b83c:	4302      	orrs	r2, r0
    b83e:	1c1f      	adds	r7, r3, #0
    b840:	1aa2      	subs	r2, r4, r2
    b842:	4294      	cmp	r4, r2
    b844:	41a4      	sbcs	r4, r4
    b846:	4264      	negs	r4, r4
    b848:	1bc9      	subs	r1, r1, r7
    b84a:	1b09      	subs	r1, r1, r4
    b84c:	1c14      	adds	r4, r2, #0
    b84e:	020b      	lsls	r3, r1, #8
    b850:	d59f      	bpl.n	b792 <__aeabi_dadd+0x52>
    b852:	0249      	lsls	r1, r1, #9
    b854:	0a4f      	lsrs	r7, r1, #9
    b856:	2f00      	cmp	r7, #0
    b858:	d100      	bne.n	b85c <__aeabi_dadd+0x11c>
    b85a:	e0c8      	b.n	b9ee <__aeabi_dadd+0x2ae>
    b85c:	1c38      	adds	r0, r7, #0
    b85e:	f001 fd31 	bl	d2c4 <__clzsi2>
    b862:	1c02      	adds	r2, r0, #0
    b864:	3a08      	subs	r2, #8
    b866:	2a1f      	cmp	r2, #31
    b868:	dd00      	ble.n	b86c <__aeabi_dadd+0x12c>
    b86a:	e0b5      	b.n	b9d8 <__aeabi_dadd+0x298>
    b86c:	2128      	movs	r1, #40	; 0x28
    b86e:	1a09      	subs	r1, r1, r0
    b870:	1c20      	adds	r0, r4, #0
    b872:	4097      	lsls	r7, r2
    b874:	40c8      	lsrs	r0, r1
    b876:	4307      	orrs	r7, r0
    b878:	4094      	lsls	r4, r2
    b87a:	4295      	cmp	r5, r2
    b87c:	dd00      	ble.n	b880 <__aeabi_dadd+0x140>
    b87e:	e0b2      	b.n	b9e6 <__aeabi_dadd+0x2a6>
    b880:	1b55      	subs	r5, r2, r5
    b882:	1c69      	adds	r1, r5, #1
    b884:	291f      	cmp	r1, #31
    b886:	dd00      	ble.n	b88a <__aeabi_dadd+0x14a>
    b888:	e0dc      	b.n	ba44 <__aeabi_dadd+0x304>
    b88a:	221f      	movs	r2, #31
    b88c:	1b55      	subs	r5, r2, r5
    b88e:	1c3b      	adds	r3, r7, #0
    b890:	1c22      	adds	r2, r4, #0
    b892:	40ab      	lsls	r3, r5
    b894:	40ca      	lsrs	r2, r1
    b896:	40ac      	lsls	r4, r5
    b898:	1e65      	subs	r5, r4, #1
    b89a:	41ac      	sbcs	r4, r5
    b89c:	4313      	orrs	r3, r2
    b89e:	40cf      	lsrs	r7, r1
    b8a0:	431c      	orrs	r4, r3
    b8a2:	1c39      	adds	r1, r7, #0
    b8a4:	2500      	movs	r5, #0
    b8a6:	e774      	b.n	b792 <__aeabi_dadd+0x52>
    b8a8:	2380      	movs	r3, #128	; 0x80
    b8aa:	041b      	lsls	r3, r3, #16
    b8ac:	400b      	ands	r3, r1
    b8ae:	1c37      	adds	r7, r6, #0
    b8b0:	2b00      	cmp	r3, #0
    b8b2:	d000      	beq.n	b8b6 <__aeabi_dadd+0x176>
    b8b4:	e782      	b.n	b7bc <__aeabi_dadd+0x7c>
    b8b6:	4b90      	ldr	r3, [pc, #576]	; (baf8 <__aeabi_dadd+0x3b8>)
    b8b8:	0748      	lsls	r0, r1, #29
    b8ba:	08e4      	lsrs	r4, r4, #3
    b8bc:	4304      	orrs	r4, r0
    b8be:	08c9      	lsrs	r1, r1, #3
    b8c0:	429d      	cmp	r5, r3
    b8c2:	d048      	beq.n	b956 <__aeabi_dadd+0x216>
    b8c4:	0309      	lsls	r1, r1, #12
    b8c6:	0b0b      	lsrs	r3, r1, #12
    b8c8:	e784      	b.n	b7d4 <__aeabi_dadd+0x94>
    b8ca:	1aaa      	subs	r2, r5, r2
    b8cc:	4694      	mov	ip, r2
    b8ce:	2a00      	cmp	r2, #0
    b8d0:	dc00      	bgt.n	b8d4 <__aeabi_dadd+0x194>
    b8d2:	e098      	b.n	ba06 <__aeabi_dadd+0x2c6>
    b8d4:	4650      	mov	r0, sl
    b8d6:	2800      	cmp	r0, #0
    b8d8:	d052      	beq.n	b980 <__aeabi_dadd+0x240>
    b8da:	4887      	ldr	r0, [pc, #540]	; (baf8 <__aeabi_dadd+0x3b8>)
    b8dc:	4285      	cmp	r5, r0
    b8de:	d100      	bne.n	b8e2 <__aeabi_dadd+0x1a2>
    b8e0:	e757      	b.n	b792 <__aeabi_dadd+0x52>
    b8e2:	2080      	movs	r0, #128	; 0x80
    b8e4:	0400      	lsls	r0, r0, #16
    b8e6:	4303      	orrs	r3, r0
    b8e8:	4662      	mov	r2, ip
    b8ea:	2a38      	cmp	r2, #56	; 0x38
    b8ec:	dd00      	ble.n	b8f0 <__aeabi_dadd+0x1b0>
    b8ee:	e0fc      	b.n	baea <__aeabi_dadd+0x3aa>
    b8f0:	2a1f      	cmp	r2, #31
    b8f2:	dd00      	ble.n	b8f6 <__aeabi_dadd+0x1b6>
    b8f4:	e14a      	b.n	bb8c <__aeabi_dadd+0x44c>
    b8f6:	2220      	movs	r2, #32
    b8f8:	4660      	mov	r0, ip
    b8fa:	1a10      	subs	r0, r2, r0
    b8fc:	1c1a      	adds	r2, r3, #0
    b8fe:	4082      	lsls	r2, r0
    b900:	4682      	mov	sl, r0
    b902:	4691      	mov	r9, r2
    b904:	4658      	mov	r0, fp
    b906:	4662      	mov	r2, ip
    b908:	40d0      	lsrs	r0, r2
    b90a:	464a      	mov	r2, r9
    b90c:	4302      	orrs	r2, r0
    b90e:	4690      	mov	r8, r2
    b910:	4658      	mov	r0, fp
    b912:	4652      	mov	r2, sl
    b914:	4090      	lsls	r0, r2
    b916:	1e42      	subs	r2, r0, #1
    b918:	4190      	sbcs	r0, r2
    b91a:	4642      	mov	r2, r8
    b91c:	4302      	orrs	r2, r0
    b91e:	4660      	mov	r0, ip
    b920:	40c3      	lsrs	r3, r0
    b922:	1912      	adds	r2, r2, r4
    b924:	42a2      	cmp	r2, r4
    b926:	41a4      	sbcs	r4, r4
    b928:	4264      	negs	r4, r4
    b92a:	1859      	adds	r1, r3, r1
    b92c:	1909      	adds	r1, r1, r4
    b92e:	1c14      	adds	r4, r2, #0
    b930:	0208      	lsls	r0, r1, #8
    b932:	d400      	bmi.n	b936 <__aeabi_dadd+0x1f6>
    b934:	e72d      	b.n	b792 <__aeabi_dadd+0x52>
    b936:	4b70      	ldr	r3, [pc, #448]	; (baf8 <__aeabi_dadd+0x3b8>)
    b938:	3501      	adds	r5, #1
    b93a:	429d      	cmp	r5, r3
    b93c:	d100      	bne.n	b940 <__aeabi_dadd+0x200>
    b93e:	e122      	b.n	bb86 <__aeabi_dadd+0x446>
    b940:	4b6e      	ldr	r3, [pc, #440]	; (bafc <__aeabi_dadd+0x3bc>)
    b942:	0860      	lsrs	r0, r4, #1
    b944:	4019      	ands	r1, r3
    b946:	2301      	movs	r3, #1
    b948:	4023      	ands	r3, r4
    b94a:	1c1c      	adds	r4, r3, #0
    b94c:	4304      	orrs	r4, r0
    b94e:	07cb      	lsls	r3, r1, #31
    b950:	431c      	orrs	r4, r3
    b952:	0849      	lsrs	r1, r1, #1
    b954:	e71d      	b.n	b792 <__aeabi_dadd+0x52>
    b956:	1c23      	adds	r3, r4, #0
    b958:	430b      	orrs	r3, r1
    b95a:	d03a      	beq.n	b9d2 <__aeabi_dadd+0x292>
    b95c:	2380      	movs	r3, #128	; 0x80
    b95e:	031b      	lsls	r3, r3, #12
    b960:	430b      	orrs	r3, r1
    b962:	031b      	lsls	r3, r3, #12
    b964:	0b1b      	lsrs	r3, r3, #12
    b966:	e735      	b.n	b7d4 <__aeabi_dadd+0x94>
    b968:	3f01      	subs	r7, #1
    b96a:	2f00      	cmp	r7, #0
    b96c:	d165      	bne.n	ba3a <__aeabi_dadd+0x2fa>
    b96e:	4658      	mov	r0, fp
    b970:	1a22      	subs	r2, r4, r0
    b972:	4294      	cmp	r4, r2
    b974:	41a4      	sbcs	r4, r4
    b976:	4264      	negs	r4, r4
    b978:	1ac9      	subs	r1, r1, r3
    b97a:	1b09      	subs	r1, r1, r4
    b97c:	1c14      	adds	r4, r2, #0
    b97e:	e766      	b.n	b84e <__aeabi_dadd+0x10e>
    b980:	4658      	mov	r0, fp
    b982:	4318      	orrs	r0, r3
    b984:	d100      	bne.n	b988 <__aeabi_dadd+0x248>
    b986:	e704      	b.n	b792 <__aeabi_dadd+0x52>
    b988:	2201      	movs	r2, #1
    b98a:	4252      	negs	r2, r2
    b98c:	4494      	add	ip, r2
    b98e:	4660      	mov	r0, ip
    b990:	2800      	cmp	r0, #0
    b992:	d000      	beq.n	b996 <__aeabi_dadd+0x256>
    b994:	e0c5      	b.n	bb22 <__aeabi_dadd+0x3e2>
    b996:	4658      	mov	r0, fp
    b998:	1902      	adds	r2, r0, r4
    b99a:	e7c3      	b.n	b924 <__aeabi_dadd+0x1e4>
    b99c:	2f00      	cmp	r7, #0
    b99e:	d173      	bne.n	ba88 <__aeabi_dadd+0x348>
    b9a0:	1c68      	adds	r0, r5, #1
    b9a2:	0540      	lsls	r0, r0, #21
    b9a4:	0d40      	lsrs	r0, r0, #21
    b9a6:	2801      	cmp	r0, #1
    b9a8:	dc00      	bgt.n	b9ac <__aeabi_dadd+0x26c>
    b9aa:	e0de      	b.n	bb6a <__aeabi_dadd+0x42a>
    b9ac:	465a      	mov	r2, fp
    b9ae:	1aa2      	subs	r2, r4, r2
    b9b0:	4294      	cmp	r4, r2
    b9b2:	41bf      	sbcs	r7, r7
    b9b4:	1ac8      	subs	r0, r1, r3
    b9b6:	427f      	negs	r7, r7
    b9b8:	1bc7      	subs	r7, r0, r7
    b9ba:	0238      	lsls	r0, r7, #8
    b9bc:	d400      	bmi.n	b9c0 <__aeabi_dadd+0x280>
    b9be:	e089      	b.n	bad4 <__aeabi_dadd+0x394>
    b9c0:	465a      	mov	r2, fp
    b9c2:	1b14      	subs	r4, r2, r4
    b9c4:	45a3      	cmp	fp, r4
    b9c6:	4192      	sbcs	r2, r2
    b9c8:	1a59      	subs	r1, r3, r1
    b9ca:	4252      	negs	r2, r2
    b9cc:	1a8f      	subs	r7, r1, r2
    b9ce:	4666      	mov	r6, ip
    b9d0:	e741      	b.n	b856 <__aeabi_dadd+0x116>
    b9d2:	2300      	movs	r3, #0
    b9d4:	2400      	movs	r4, #0
    b9d6:	e6fd      	b.n	b7d4 <__aeabi_dadd+0x94>
    b9d8:	1c27      	adds	r7, r4, #0
    b9da:	3828      	subs	r0, #40	; 0x28
    b9dc:	4087      	lsls	r7, r0
    b9de:	2400      	movs	r4, #0
    b9e0:	4295      	cmp	r5, r2
    b9e2:	dc00      	bgt.n	b9e6 <__aeabi_dadd+0x2a6>
    b9e4:	e74c      	b.n	b880 <__aeabi_dadd+0x140>
    b9e6:	4945      	ldr	r1, [pc, #276]	; (bafc <__aeabi_dadd+0x3bc>)
    b9e8:	1aad      	subs	r5, r5, r2
    b9ea:	4039      	ands	r1, r7
    b9ec:	e6d1      	b.n	b792 <__aeabi_dadd+0x52>
    b9ee:	1c20      	adds	r0, r4, #0
    b9f0:	f001 fc68 	bl	d2c4 <__clzsi2>
    b9f4:	3020      	adds	r0, #32
    b9f6:	e734      	b.n	b862 <__aeabi_dadd+0x122>
    b9f8:	465a      	mov	r2, fp
    b9fa:	431a      	orrs	r2, r3
    b9fc:	1e53      	subs	r3, r2, #1
    b9fe:	419a      	sbcs	r2, r3
    ba00:	b2d2      	uxtb	r2, r2
    ba02:	2700      	movs	r7, #0
    ba04:	e71c      	b.n	b840 <__aeabi_dadd+0x100>
    ba06:	2a00      	cmp	r2, #0
    ba08:	d000      	beq.n	ba0c <__aeabi_dadd+0x2cc>
    ba0a:	e0dc      	b.n	bbc6 <__aeabi_dadd+0x486>
    ba0c:	1c68      	adds	r0, r5, #1
    ba0e:	0542      	lsls	r2, r0, #21
    ba10:	0d52      	lsrs	r2, r2, #21
    ba12:	2a01      	cmp	r2, #1
    ba14:	dc00      	bgt.n	ba18 <__aeabi_dadd+0x2d8>
    ba16:	e08d      	b.n	bb34 <__aeabi_dadd+0x3f4>
    ba18:	4d37      	ldr	r5, [pc, #220]	; (baf8 <__aeabi_dadd+0x3b8>)
    ba1a:	42a8      	cmp	r0, r5
    ba1c:	d100      	bne.n	ba20 <__aeabi_dadd+0x2e0>
    ba1e:	e0f3      	b.n	bc08 <__aeabi_dadd+0x4c8>
    ba20:	465d      	mov	r5, fp
    ba22:	192a      	adds	r2, r5, r4
    ba24:	42a2      	cmp	r2, r4
    ba26:	41a4      	sbcs	r4, r4
    ba28:	4264      	negs	r4, r4
    ba2a:	1859      	adds	r1, r3, r1
    ba2c:	1909      	adds	r1, r1, r4
    ba2e:	07cc      	lsls	r4, r1, #31
    ba30:	0852      	lsrs	r2, r2, #1
    ba32:	4314      	orrs	r4, r2
    ba34:	0849      	lsrs	r1, r1, #1
    ba36:	1c05      	adds	r5, r0, #0
    ba38:	e6ab      	b.n	b792 <__aeabi_dadd+0x52>
    ba3a:	482f      	ldr	r0, [pc, #188]	; (baf8 <__aeabi_dadd+0x3b8>)
    ba3c:	4285      	cmp	r5, r0
    ba3e:	d000      	beq.n	ba42 <__aeabi_dadd+0x302>
    ba40:	e6e6      	b.n	b810 <__aeabi_dadd+0xd0>
    ba42:	e6a6      	b.n	b792 <__aeabi_dadd+0x52>
    ba44:	1c2b      	adds	r3, r5, #0
    ba46:	3b1f      	subs	r3, #31
    ba48:	1c3a      	adds	r2, r7, #0
    ba4a:	40da      	lsrs	r2, r3
    ba4c:	1c13      	adds	r3, r2, #0
    ba4e:	2920      	cmp	r1, #32
    ba50:	d06c      	beq.n	bb2c <__aeabi_dadd+0x3ec>
    ba52:	223f      	movs	r2, #63	; 0x3f
    ba54:	1b55      	subs	r5, r2, r5
    ba56:	40af      	lsls	r7, r5
    ba58:	433c      	orrs	r4, r7
    ba5a:	1e60      	subs	r0, r4, #1
    ba5c:	4184      	sbcs	r4, r0
    ba5e:	431c      	orrs	r4, r3
    ba60:	2100      	movs	r1, #0
    ba62:	2500      	movs	r5, #0
    ba64:	e695      	b.n	b792 <__aeabi_dadd+0x52>
    ba66:	1c38      	adds	r0, r7, #0
    ba68:	3820      	subs	r0, #32
    ba6a:	1c1a      	adds	r2, r3, #0
    ba6c:	40c2      	lsrs	r2, r0
    ba6e:	1c10      	adds	r0, r2, #0
    ba70:	2f20      	cmp	r7, #32
    ba72:	d05d      	beq.n	bb30 <__aeabi_dadd+0x3f0>
    ba74:	2240      	movs	r2, #64	; 0x40
    ba76:	1bd7      	subs	r7, r2, r7
    ba78:	40bb      	lsls	r3, r7
    ba7a:	465a      	mov	r2, fp
    ba7c:	431a      	orrs	r2, r3
    ba7e:	1e53      	subs	r3, r2, #1
    ba80:	419a      	sbcs	r2, r3
    ba82:	4302      	orrs	r2, r0
    ba84:	2700      	movs	r7, #0
    ba86:	e6db      	b.n	b840 <__aeabi_dadd+0x100>
    ba88:	2d00      	cmp	r5, #0
    ba8a:	d03b      	beq.n	bb04 <__aeabi_dadd+0x3c4>
    ba8c:	4d1a      	ldr	r5, [pc, #104]	; (baf8 <__aeabi_dadd+0x3b8>)
    ba8e:	45aa      	cmp	sl, r5
    ba90:	d100      	bne.n	ba94 <__aeabi_dadd+0x354>
    ba92:	e093      	b.n	bbbc <__aeabi_dadd+0x47c>
    ba94:	2580      	movs	r5, #128	; 0x80
    ba96:	042d      	lsls	r5, r5, #16
    ba98:	427f      	negs	r7, r7
    ba9a:	4329      	orrs	r1, r5
    ba9c:	2f38      	cmp	r7, #56	; 0x38
    ba9e:	dd00      	ble.n	baa2 <__aeabi_dadd+0x362>
    baa0:	e0ac      	b.n	bbfc <__aeabi_dadd+0x4bc>
    baa2:	2f1f      	cmp	r7, #31
    baa4:	dd00      	ble.n	baa8 <__aeabi_dadd+0x368>
    baa6:	e129      	b.n	bcfc <__aeabi_dadd+0x5bc>
    baa8:	2520      	movs	r5, #32
    baaa:	1bed      	subs	r5, r5, r7
    baac:	1c08      	adds	r0, r1, #0
    baae:	1c26      	adds	r6, r4, #0
    bab0:	40a8      	lsls	r0, r5
    bab2:	40fe      	lsrs	r6, r7
    bab4:	40ac      	lsls	r4, r5
    bab6:	4306      	orrs	r6, r0
    bab8:	1e65      	subs	r5, r4, #1
    baba:	41ac      	sbcs	r4, r5
    babc:	4334      	orrs	r4, r6
    babe:	40f9      	lsrs	r1, r7
    bac0:	465d      	mov	r5, fp
    bac2:	1b2c      	subs	r4, r5, r4
    bac4:	45a3      	cmp	fp, r4
    bac6:	4192      	sbcs	r2, r2
    bac8:	1a5b      	subs	r3, r3, r1
    baca:	4252      	negs	r2, r2
    bacc:	1a99      	subs	r1, r3, r2
    bace:	4655      	mov	r5, sl
    bad0:	4666      	mov	r6, ip
    bad2:	e6bc      	b.n	b84e <__aeabi_dadd+0x10e>
    bad4:	1c13      	adds	r3, r2, #0
    bad6:	433b      	orrs	r3, r7
    bad8:	1c14      	adds	r4, r2, #0
    bada:	2b00      	cmp	r3, #0
    badc:	d000      	beq.n	bae0 <__aeabi_dadd+0x3a0>
    bade:	e6ba      	b.n	b856 <__aeabi_dadd+0x116>
    bae0:	2700      	movs	r7, #0
    bae2:	2100      	movs	r1, #0
    bae4:	2500      	movs	r5, #0
    bae6:	2400      	movs	r4, #0
    bae8:	e6e5      	b.n	b8b6 <__aeabi_dadd+0x176>
    baea:	465a      	mov	r2, fp
    baec:	431a      	orrs	r2, r3
    baee:	1e53      	subs	r3, r2, #1
    baf0:	419a      	sbcs	r2, r3
    baf2:	b2d2      	uxtb	r2, r2
    baf4:	2300      	movs	r3, #0
    baf6:	e714      	b.n	b922 <__aeabi_dadd+0x1e2>
    baf8:	000007ff 	.word	0x000007ff
    bafc:	ff7fffff 	.word	0xff7fffff
    bb00:	800fffff 	.word	0x800fffff
    bb04:	1c0d      	adds	r5, r1, #0
    bb06:	4325      	orrs	r5, r4
    bb08:	d058      	beq.n	bbbc <__aeabi_dadd+0x47c>
    bb0a:	43ff      	mvns	r7, r7
    bb0c:	2f00      	cmp	r7, #0
    bb0e:	d151      	bne.n	bbb4 <__aeabi_dadd+0x474>
    bb10:	1b04      	subs	r4, r0, r4
    bb12:	45a3      	cmp	fp, r4
    bb14:	4192      	sbcs	r2, r2
    bb16:	1a59      	subs	r1, r3, r1
    bb18:	4252      	negs	r2, r2
    bb1a:	1a89      	subs	r1, r1, r2
    bb1c:	4655      	mov	r5, sl
    bb1e:	4666      	mov	r6, ip
    bb20:	e695      	b.n	b84e <__aeabi_dadd+0x10e>
    bb22:	4896      	ldr	r0, [pc, #600]	; (bd7c <__aeabi_dadd+0x63c>)
    bb24:	4285      	cmp	r5, r0
    bb26:	d000      	beq.n	bb2a <__aeabi_dadd+0x3ea>
    bb28:	e6de      	b.n	b8e8 <__aeabi_dadd+0x1a8>
    bb2a:	e632      	b.n	b792 <__aeabi_dadd+0x52>
    bb2c:	2700      	movs	r7, #0
    bb2e:	e793      	b.n	ba58 <__aeabi_dadd+0x318>
    bb30:	2300      	movs	r3, #0
    bb32:	e7a2      	b.n	ba7a <__aeabi_dadd+0x33a>
    bb34:	1c08      	adds	r0, r1, #0
    bb36:	4320      	orrs	r0, r4
    bb38:	2d00      	cmp	r5, #0
    bb3a:	d000      	beq.n	bb3e <__aeabi_dadd+0x3fe>
    bb3c:	e0c4      	b.n	bcc8 <__aeabi_dadd+0x588>
    bb3e:	2800      	cmp	r0, #0
    bb40:	d100      	bne.n	bb44 <__aeabi_dadd+0x404>
    bb42:	e0f7      	b.n	bd34 <__aeabi_dadd+0x5f4>
    bb44:	4658      	mov	r0, fp
    bb46:	4318      	orrs	r0, r3
    bb48:	d100      	bne.n	bb4c <__aeabi_dadd+0x40c>
    bb4a:	e622      	b.n	b792 <__aeabi_dadd+0x52>
    bb4c:	4658      	mov	r0, fp
    bb4e:	1902      	adds	r2, r0, r4
    bb50:	42a2      	cmp	r2, r4
    bb52:	41a4      	sbcs	r4, r4
    bb54:	4264      	negs	r4, r4
    bb56:	1859      	adds	r1, r3, r1
    bb58:	1909      	adds	r1, r1, r4
    bb5a:	1c14      	adds	r4, r2, #0
    bb5c:	020a      	lsls	r2, r1, #8
    bb5e:	d400      	bmi.n	bb62 <__aeabi_dadd+0x422>
    bb60:	e617      	b.n	b792 <__aeabi_dadd+0x52>
    bb62:	4b87      	ldr	r3, [pc, #540]	; (bd80 <__aeabi_dadd+0x640>)
    bb64:	2501      	movs	r5, #1
    bb66:	4019      	ands	r1, r3
    bb68:	e613      	b.n	b792 <__aeabi_dadd+0x52>
    bb6a:	1c08      	adds	r0, r1, #0
    bb6c:	4320      	orrs	r0, r4
    bb6e:	2d00      	cmp	r5, #0
    bb70:	d139      	bne.n	bbe6 <__aeabi_dadd+0x4a6>
    bb72:	2800      	cmp	r0, #0
    bb74:	d171      	bne.n	bc5a <__aeabi_dadd+0x51a>
    bb76:	4659      	mov	r1, fp
    bb78:	4319      	orrs	r1, r3
    bb7a:	d003      	beq.n	bb84 <__aeabi_dadd+0x444>
    bb7c:	1c19      	adds	r1, r3, #0
    bb7e:	465c      	mov	r4, fp
    bb80:	4666      	mov	r6, ip
    bb82:	e606      	b.n	b792 <__aeabi_dadd+0x52>
    bb84:	2700      	movs	r7, #0
    bb86:	2100      	movs	r1, #0
    bb88:	2400      	movs	r4, #0
    bb8a:	e694      	b.n	b8b6 <__aeabi_dadd+0x176>
    bb8c:	4660      	mov	r0, ip
    bb8e:	3820      	subs	r0, #32
    bb90:	1c1a      	adds	r2, r3, #0
    bb92:	40c2      	lsrs	r2, r0
    bb94:	4660      	mov	r0, ip
    bb96:	4691      	mov	r9, r2
    bb98:	2820      	cmp	r0, #32
    bb9a:	d100      	bne.n	bb9e <__aeabi_dadd+0x45e>
    bb9c:	e0ac      	b.n	bcf8 <__aeabi_dadd+0x5b8>
    bb9e:	2240      	movs	r2, #64	; 0x40
    bba0:	1a12      	subs	r2, r2, r0
    bba2:	4093      	lsls	r3, r2
    bba4:	465a      	mov	r2, fp
    bba6:	431a      	orrs	r2, r3
    bba8:	1e53      	subs	r3, r2, #1
    bbaa:	419a      	sbcs	r2, r3
    bbac:	464b      	mov	r3, r9
    bbae:	431a      	orrs	r2, r3
    bbb0:	2300      	movs	r3, #0
    bbb2:	e6b6      	b.n	b922 <__aeabi_dadd+0x1e2>
    bbb4:	4d71      	ldr	r5, [pc, #452]	; (bd7c <__aeabi_dadd+0x63c>)
    bbb6:	45aa      	cmp	sl, r5
    bbb8:	d000      	beq.n	bbbc <__aeabi_dadd+0x47c>
    bbba:	e76f      	b.n	ba9c <__aeabi_dadd+0x35c>
    bbbc:	1c19      	adds	r1, r3, #0
    bbbe:	465c      	mov	r4, fp
    bbc0:	4655      	mov	r5, sl
    bbc2:	4666      	mov	r6, ip
    bbc4:	e5e5      	b.n	b792 <__aeabi_dadd+0x52>
    bbc6:	2d00      	cmp	r5, #0
    bbc8:	d122      	bne.n	bc10 <__aeabi_dadd+0x4d0>
    bbca:	1c0d      	adds	r5, r1, #0
    bbcc:	4325      	orrs	r5, r4
    bbce:	d077      	beq.n	bcc0 <__aeabi_dadd+0x580>
    bbd0:	43d5      	mvns	r5, r2
    bbd2:	2d00      	cmp	r5, #0
    bbd4:	d171      	bne.n	bcba <__aeabi_dadd+0x57a>
    bbd6:	445c      	add	r4, fp
    bbd8:	455c      	cmp	r4, fp
    bbda:	4192      	sbcs	r2, r2
    bbdc:	1859      	adds	r1, r3, r1
    bbde:	4252      	negs	r2, r2
    bbe0:	1889      	adds	r1, r1, r2
    bbe2:	4655      	mov	r5, sl
    bbe4:	e6a4      	b.n	b930 <__aeabi_dadd+0x1f0>
    bbe6:	2800      	cmp	r0, #0
    bbe8:	d14d      	bne.n	bc86 <__aeabi_dadd+0x546>
    bbea:	4659      	mov	r1, fp
    bbec:	4319      	orrs	r1, r3
    bbee:	d100      	bne.n	bbf2 <__aeabi_dadd+0x4b2>
    bbf0:	e094      	b.n	bd1c <__aeabi_dadd+0x5dc>
    bbf2:	1c19      	adds	r1, r3, #0
    bbf4:	465c      	mov	r4, fp
    bbf6:	4666      	mov	r6, ip
    bbf8:	4d60      	ldr	r5, [pc, #384]	; (bd7c <__aeabi_dadd+0x63c>)
    bbfa:	e5ca      	b.n	b792 <__aeabi_dadd+0x52>
    bbfc:	430c      	orrs	r4, r1
    bbfe:	1e61      	subs	r1, r4, #1
    bc00:	418c      	sbcs	r4, r1
    bc02:	b2e4      	uxtb	r4, r4
    bc04:	2100      	movs	r1, #0
    bc06:	e75b      	b.n	bac0 <__aeabi_dadd+0x380>
    bc08:	1c05      	adds	r5, r0, #0
    bc0a:	2100      	movs	r1, #0
    bc0c:	2400      	movs	r4, #0
    bc0e:	e652      	b.n	b8b6 <__aeabi_dadd+0x176>
    bc10:	4d5a      	ldr	r5, [pc, #360]	; (bd7c <__aeabi_dadd+0x63c>)
    bc12:	45aa      	cmp	sl, r5
    bc14:	d054      	beq.n	bcc0 <__aeabi_dadd+0x580>
    bc16:	4255      	negs	r5, r2
    bc18:	2280      	movs	r2, #128	; 0x80
    bc1a:	0410      	lsls	r0, r2, #16
    bc1c:	4301      	orrs	r1, r0
    bc1e:	2d38      	cmp	r5, #56	; 0x38
    bc20:	dd00      	ble.n	bc24 <__aeabi_dadd+0x4e4>
    bc22:	e081      	b.n	bd28 <__aeabi_dadd+0x5e8>
    bc24:	2d1f      	cmp	r5, #31
    bc26:	dd00      	ble.n	bc2a <__aeabi_dadd+0x4ea>
    bc28:	e092      	b.n	bd50 <__aeabi_dadd+0x610>
    bc2a:	2220      	movs	r2, #32
    bc2c:	1b50      	subs	r0, r2, r5
    bc2e:	1c0a      	adds	r2, r1, #0
    bc30:	4684      	mov	ip, r0
    bc32:	4082      	lsls	r2, r0
    bc34:	1c20      	adds	r0, r4, #0
    bc36:	40e8      	lsrs	r0, r5
    bc38:	4302      	orrs	r2, r0
    bc3a:	4690      	mov	r8, r2
    bc3c:	4662      	mov	r2, ip
    bc3e:	4094      	lsls	r4, r2
    bc40:	1e60      	subs	r0, r4, #1
    bc42:	4184      	sbcs	r4, r0
    bc44:	4642      	mov	r2, r8
    bc46:	4314      	orrs	r4, r2
    bc48:	40e9      	lsrs	r1, r5
    bc4a:	445c      	add	r4, fp
    bc4c:	455c      	cmp	r4, fp
    bc4e:	4192      	sbcs	r2, r2
    bc50:	18cb      	adds	r3, r1, r3
    bc52:	4252      	negs	r2, r2
    bc54:	1899      	adds	r1, r3, r2
    bc56:	4655      	mov	r5, sl
    bc58:	e66a      	b.n	b930 <__aeabi_dadd+0x1f0>
    bc5a:	4658      	mov	r0, fp
    bc5c:	4318      	orrs	r0, r3
    bc5e:	d100      	bne.n	bc62 <__aeabi_dadd+0x522>
    bc60:	e597      	b.n	b792 <__aeabi_dadd+0x52>
    bc62:	4658      	mov	r0, fp
    bc64:	1a27      	subs	r7, r4, r0
    bc66:	42bc      	cmp	r4, r7
    bc68:	4192      	sbcs	r2, r2
    bc6a:	1ac8      	subs	r0, r1, r3
    bc6c:	4252      	negs	r2, r2
    bc6e:	1a80      	subs	r0, r0, r2
    bc70:	0202      	lsls	r2, r0, #8
    bc72:	d566      	bpl.n	bd42 <__aeabi_dadd+0x602>
    bc74:	4658      	mov	r0, fp
    bc76:	1b04      	subs	r4, r0, r4
    bc78:	45a3      	cmp	fp, r4
    bc7a:	4192      	sbcs	r2, r2
    bc7c:	1a59      	subs	r1, r3, r1
    bc7e:	4252      	negs	r2, r2
    bc80:	1a89      	subs	r1, r1, r2
    bc82:	4666      	mov	r6, ip
    bc84:	e585      	b.n	b792 <__aeabi_dadd+0x52>
    bc86:	4658      	mov	r0, fp
    bc88:	4318      	orrs	r0, r3
    bc8a:	d033      	beq.n	bcf4 <__aeabi_dadd+0x5b4>
    bc8c:	0748      	lsls	r0, r1, #29
    bc8e:	08e4      	lsrs	r4, r4, #3
    bc90:	4304      	orrs	r4, r0
    bc92:	2080      	movs	r0, #128	; 0x80
    bc94:	08c9      	lsrs	r1, r1, #3
    bc96:	0300      	lsls	r0, r0, #12
    bc98:	4201      	tst	r1, r0
    bc9a:	d008      	beq.n	bcae <__aeabi_dadd+0x56e>
    bc9c:	08dd      	lsrs	r5, r3, #3
    bc9e:	4205      	tst	r5, r0
    bca0:	d105      	bne.n	bcae <__aeabi_dadd+0x56e>
    bca2:	4659      	mov	r1, fp
    bca4:	08ca      	lsrs	r2, r1, #3
    bca6:	075c      	lsls	r4, r3, #29
    bca8:	4314      	orrs	r4, r2
    bcaa:	1c29      	adds	r1, r5, #0
    bcac:	4666      	mov	r6, ip
    bcae:	0f63      	lsrs	r3, r4, #29
    bcb0:	00c9      	lsls	r1, r1, #3
    bcb2:	4319      	orrs	r1, r3
    bcb4:	00e4      	lsls	r4, r4, #3
    bcb6:	4d31      	ldr	r5, [pc, #196]	; (bd7c <__aeabi_dadd+0x63c>)
    bcb8:	e56b      	b.n	b792 <__aeabi_dadd+0x52>
    bcba:	4a30      	ldr	r2, [pc, #192]	; (bd7c <__aeabi_dadd+0x63c>)
    bcbc:	4592      	cmp	sl, r2
    bcbe:	d1ae      	bne.n	bc1e <__aeabi_dadd+0x4de>
    bcc0:	1c19      	adds	r1, r3, #0
    bcc2:	465c      	mov	r4, fp
    bcc4:	4655      	mov	r5, sl
    bcc6:	e564      	b.n	b792 <__aeabi_dadd+0x52>
    bcc8:	2800      	cmp	r0, #0
    bcca:	d036      	beq.n	bd3a <__aeabi_dadd+0x5fa>
    bccc:	4658      	mov	r0, fp
    bcce:	4318      	orrs	r0, r3
    bcd0:	d010      	beq.n	bcf4 <__aeabi_dadd+0x5b4>
    bcd2:	2580      	movs	r5, #128	; 0x80
    bcd4:	0748      	lsls	r0, r1, #29
    bcd6:	08e4      	lsrs	r4, r4, #3
    bcd8:	08c9      	lsrs	r1, r1, #3
    bcda:	032d      	lsls	r5, r5, #12
    bcdc:	4304      	orrs	r4, r0
    bcde:	4229      	tst	r1, r5
    bce0:	d0e5      	beq.n	bcae <__aeabi_dadd+0x56e>
    bce2:	08d8      	lsrs	r0, r3, #3
    bce4:	4228      	tst	r0, r5
    bce6:	d1e2      	bne.n	bcae <__aeabi_dadd+0x56e>
    bce8:	465d      	mov	r5, fp
    bcea:	08ea      	lsrs	r2, r5, #3
    bcec:	075c      	lsls	r4, r3, #29
    bcee:	4314      	orrs	r4, r2
    bcf0:	1c01      	adds	r1, r0, #0
    bcf2:	e7dc      	b.n	bcae <__aeabi_dadd+0x56e>
    bcf4:	4d21      	ldr	r5, [pc, #132]	; (bd7c <__aeabi_dadd+0x63c>)
    bcf6:	e54c      	b.n	b792 <__aeabi_dadd+0x52>
    bcf8:	2300      	movs	r3, #0
    bcfa:	e753      	b.n	bba4 <__aeabi_dadd+0x464>
    bcfc:	1c3d      	adds	r5, r7, #0
    bcfe:	3d20      	subs	r5, #32
    bd00:	1c0a      	adds	r2, r1, #0
    bd02:	40ea      	lsrs	r2, r5
    bd04:	1c15      	adds	r5, r2, #0
    bd06:	2f20      	cmp	r7, #32
    bd08:	d034      	beq.n	bd74 <__aeabi_dadd+0x634>
    bd0a:	2640      	movs	r6, #64	; 0x40
    bd0c:	1bf7      	subs	r7, r6, r7
    bd0e:	40b9      	lsls	r1, r7
    bd10:	430c      	orrs	r4, r1
    bd12:	1e61      	subs	r1, r4, #1
    bd14:	418c      	sbcs	r4, r1
    bd16:	432c      	orrs	r4, r5
    bd18:	2100      	movs	r1, #0
    bd1a:	e6d1      	b.n	bac0 <__aeabi_dadd+0x380>
    bd1c:	2180      	movs	r1, #128	; 0x80
    bd1e:	2700      	movs	r7, #0
    bd20:	03c9      	lsls	r1, r1, #15
    bd22:	4d16      	ldr	r5, [pc, #88]	; (bd7c <__aeabi_dadd+0x63c>)
    bd24:	2400      	movs	r4, #0
    bd26:	e5c6      	b.n	b8b6 <__aeabi_dadd+0x176>
    bd28:	430c      	orrs	r4, r1
    bd2a:	1e61      	subs	r1, r4, #1
    bd2c:	418c      	sbcs	r4, r1
    bd2e:	b2e4      	uxtb	r4, r4
    bd30:	2100      	movs	r1, #0
    bd32:	e78a      	b.n	bc4a <__aeabi_dadd+0x50a>
    bd34:	1c19      	adds	r1, r3, #0
    bd36:	465c      	mov	r4, fp
    bd38:	e52b      	b.n	b792 <__aeabi_dadd+0x52>
    bd3a:	1c19      	adds	r1, r3, #0
    bd3c:	465c      	mov	r4, fp
    bd3e:	4d0f      	ldr	r5, [pc, #60]	; (bd7c <__aeabi_dadd+0x63c>)
    bd40:	e527      	b.n	b792 <__aeabi_dadd+0x52>
    bd42:	1c03      	adds	r3, r0, #0
    bd44:	433b      	orrs	r3, r7
    bd46:	d100      	bne.n	bd4a <__aeabi_dadd+0x60a>
    bd48:	e71c      	b.n	bb84 <__aeabi_dadd+0x444>
    bd4a:	1c01      	adds	r1, r0, #0
    bd4c:	1c3c      	adds	r4, r7, #0
    bd4e:	e520      	b.n	b792 <__aeabi_dadd+0x52>
    bd50:	2020      	movs	r0, #32
    bd52:	4240      	negs	r0, r0
    bd54:	1940      	adds	r0, r0, r5
    bd56:	1c0a      	adds	r2, r1, #0
    bd58:	40c2      	lsrs	r2, r0
    bd5a:	4690      	mov	r8, r2
    bd5c:	2d20      	cmp	r5, #32
    bd5e:	d00b      	beq.n	bd78 <__aeabi_dadd+0x638>
    bd60:	2040      	movs	r0, #64	; 0x40
    bd62:	1b45      	subs	r5, r0, r5
    bd64:	40a9      	lsls	r1, r5
    bd66:	430c      	orrs	r4, r1
    bd68:	1e61      	subs	r1, r4, #1
    bd6a:	418c      	sbcs	r4, r1
    bd6c:	4645      	mov	r5, r8
    bd6e:	432c      	orrs	r4, r5
    bd70:	2100      	movs	r1, #0
    bd72:	e76a      	b.n	bc4a <__aeabi_dadd+0x50a>
    bd74:	2100      	movs	r1, #0
    bd76:	e7cb      	b.n	bd10 <__aeabi_dadd+0x5d0>
    bd78:	2100      	movs	r1, #0
    bd7a:	e7f4      	b.n	bd66 <__aeabi_dadd+0x626>
    bd7c:	000007ff 	.word	0x000007ff
    bd80:	ff7fffff 	.word	0xff7fffff

0000bd84 <__aeabi_ddiv>:
__aeabi_ddiv():
    bd84:	b5f0      	push	{r4, r5, r6, r7, lr}
    bd86:	4656      	mov	r6, sl
    bd88:	4644      	mov	r4, r8
    bd8a:	465f      	mov	r7, fp
    bd8c:	464d      	mov	r5, r9
    bd8e:	b4f0      	push	{r4, r5, r6, r7}
    bd90:	1c1f      	adds	r7, r3, #0
    bd92:	030b      	lsls	r3, r1, #12
    bd94:	0b1b      	lsrs	r3, r3, #12
    bd96:	4698      	mov	r8, r3
    bd98:	004b      	lsls	r3, r1, #1
    bd9a:	b087      	sub	sp, #28
    bd9c:	1c04      	adds	r4, r0, #0
    bd9e:	4681      	mov	r9, r0
    bda0:	0d5b      	lsrs	r3, r3, #21
    bda2:	0fc8      	lsrs	r0, r1, #31
    bda4:	1c16      	adds	r6, r2, #0
    bda6:	469a      	mov	sl, r3
    bda8:	9000      	str	r0, [sp, #0]
    bdaa:	2b00      	cmp	r3, #0
    bdac:	d051      	beq.n	be52 <__aeabi_ddiv+0xce>
    bdae:	4b6a      	ldr	r3, [pc, #424]	; (bf58 <__aeabi_ddiv+0x1d4>)
    bdb0:	459a      	cmp	sl, r3
    bdb2:	d031      	beq.n	be18 <__aeabi_ddiv+0x94>
    bdb4:	2280      	movs	r2, #128	; 0x80
    bdb6:	4641      	mov	r1, r8
    bdb8:	0352      	lsls	r2, r2, #13
    bdba:	430a      	orrs	r2, r1
    bdbc:	0f63      	lsrs	r3, r4, #29
    bdbe:	00d2      	lsls	r2, r2, #3
    bdc0:	431a      	orrs	r2, r3
    bdc2:	4b66      	ldr	r3, [pc, #408]	; (bf5c <__aeabi_ddiv+0x1d8>)
    bdc4:	4690      	mov	r8, r2
    bdc6:	2500      	movs	r5, #0
    bdc8:	00e2      	lsls	r2, r4, #3
    bdca:	4691      	mov	r9, r2
    bdcc:	449a      	add	sl, r3
    bdce:	2400      	movs	r4, #0
    bdd0:	9502      	str	r5, [sp, #8]
    bdd2:	033b      	lsls	r3, r7, #12
    bdd4:	0b1b      	lsrs	r3, r3, #12
    bdd6:	469b      	mov	fp, r3
    bdd8:	0ffd      	lsrs	r5, r7, #31
    bdda:	007b      	lsls	r3, r7, #1
    bddc:	1c31      	adds	r1, r6, #0
    bdde:	0d5b      	lsrs	r3, r3, #21
    bde0:	9501      	str	r5, [sp, #4]
    bde2:	d060      	beq.n	bea6 <__aeabi_ddiv+0x122>
    bde4:	4a5c      	ldr	r2, [pc, #368]	; (bf58 <__aeabi_ddiv+0x1d4>)
    bde6:	4293      	cmp	r3, r2
    bde8:	d054      	beq.n	be94 <__aeabi_ddiv+0x110>
    bdea:	2180      	movs	r1, #128	; 0x80
    bdec:	4658      	mov	r0, fp
    bdee:	0349      	lsls	r1, r1, #13
    bdf0:	4301      	orrs	r1, r0
    bdf2:	0f72      	lsrs	r2, r6, #29
    bdf4:	00c9      	lsls	r1, r1, #3
    bdf6:	4311      	orrs	r1, r2
    bdf8:	4a58      	ldr	r2, [pc, #352]	; (bf5c <__aeabi_ddiv+0x1d8>)
    bdfa:	468b      	mov	fp, r1
    bdfc:	189b      	adds	r3, r3, r2
    bdfe:	00f1      	lsls	r1, r6, #3
    be00:	2000      	movs	r0, #0
    be02:	9a00      	ldr	r2, [sp, #0]
    be04:	4304      	orrs	r4, r0
    be06:	406a      	eors	r2, r5
    be08:	9203      	str	r2, [sp, #12]
    be0a:	2c0f      	cmp	r4, #15
    be0c:	d900      	bls.n	be10 <__aeabi_ddiv+0x8c>
    be0e:	e0ad      	b.n	bf6c <__aeabi_ddiv+0x1e8>
    be10:	4e53      	ldr	r6, [pc, #332]	; (bf60 <__aeabi_ddiv+0x1dc>)
    be12:	00a4      	lsls	r4, r4, #2
    be14:	5934      	ldr	r4, [r6, r4]
    be16:	46a7      	mov	pc, r4
    be18:	4640      	mov	r0, r8
    be1a:	4304      	orrs	r4, r0
    be1c:	d16e      	bne.n	befc <__aeabi_ddiv+0x178>
    be1e:	2100      	movs	r1, #0
    be20:	2502      	movs	r5, #2
    be22:	2408      	movs	r4, #8
    be24:	4688      	mov	r8, r1
    be26:	4689      	mov	r9, r1
    be28:	9502      	str	r5, [sp, #8]
    be2a:	e7d2      	b.n	bdd2 <__aeabi_ddiv+0x4e>
    be2c:	9c00      	ldr	r4, [sp, #0]
    be2e:	9802      	ldr	r0, [sp, #8]
    be30:	46c3      	mov	fp, r8
    be32:	4649      	mov	r1, r9
    be34:	9401      	str	r4, [sp, #4]
    be36:	2802      	cmp	r0, #2
    be38:	d064      	beq.n	bf04 <__aeabi_ddiv+0x180>
    be3a:	2803      	cmp	r0, #3
    be3c:	d100      	bne.n	be40 <__aeabi_ddiv+0xbc>
    be3e:	e2ab      	b.n	c398 <__aeabi_ddiv+0x614>
    be40:	2801      	cmp	r0, #1
    be42:	d000      	beq.n	be46 <__aeabi_ddiv+0xc2>
    be44:	e238      	b.n	c2b8 <__aeabi_ddiv+0x534>
    be46:	9a01      	ldr	r2, [sp, #4]
    be48:	2400      	movs	r4, #0
    be4a:	4002      	ands	r2, r0
    be4c:	2500      	movs	r5, #0
    be4e:	46a1      	mov	r9, r4
    be50:	e060      	b.n	bf14 <__aeabi_ddiv+0x190>
    be52:	4643      	mov	r3, r8
    be54:	4323      	orrs	r3, r4
    be56:	d04a      	beq.n	beee <__aeabi_ddiv+0x16a>
    be58:	4640      	mov	r0, r8
    be5a:	2800      	cmp	r0, #0
    be5c:	d100      	bne.n	be60 <__aeabi_ddiv+0xdc>
    be5e:	e1c0      	b.n	c1e2 <__aeabi_ddiv+0x45e>
    be60:	f001 fa30 	bl	d2c4 <__clzsi2>
    be64:	1e03      	subs	r3, r0, #0
    be66:	2b27      	cmp	r3, #39	; 0x27
    be68:	dd00      	ble.n	be6c <__aeabi_ddiv+0xe8>
    be6a:	e1b3      	b.n	c1d4 <__aeabi_ddiv+0x450>
    be6c:	2128      	movs	r1, #40	; 0x28
    be6e:	1a0d      	subs	r5, r1, r0
    be70:	1c21      	adds	r1, r4, #0
    be72:	3b08      	subs	r3, #8
    be74:	4642      	mov	r2, r8
    be76:	40e9      	lsrs	r1, r5
    be78:	409a      	lsls	r2, r3
    be7a:	1c0d      	adds	r5, r1, #0
    be7c:	4315      	orrs	r5, r2
    be7e:	1c22      	adds	r2, r4, #0
    be80:	409a      	lsls	r2, r3
    be82:	46a8      	mov	r8, r5
    be84:	4691      	mov	r9, r2
    be86:	4b37      	ldr	r3, [pc, #220]	; (bf64 <__aeabi_ddiv+0x1e0>)
    be88:	2500      	movs	r5, #0
    be8a:	1a1b      	subs	r3, r3, r0
    be8c:	469a      	mov	sl, r3
    be8e:	2400      	movs	r4, #0
    be90:	9502      	str	r5, [sp, #8]
    be92:	e79e      	b.n	bdd2 <__aeabi_ddiv+0x4e>
    be94:	465a      	mov	r2, fp
    be96:	4316      	orrs	r6, r2
    be98:	2003      	movs	r0, #3
    be9a:	2e00      	cmp	r6, #0
    be9c:	d1b1      	bne.n	be02 <__aeabi_ddiv+0x7e>
    be9e:	46b3      	mov	fp, r6
    bea0:	2100      	movs	r1, #0
    bea2:	2002      	movs	r0, #2
    bea4:	e7ad      	b.n	be02 <__aeabi_ddiv+0x7e>
    bea6:	465a      	mov	r2, fp
    bea8:	4332      	orrs	r2, r6
    beaa:	d01b      	beq.n	bee4 <__aeabi_ddiv+0x160>
    beac:	465b      	mov	r3, fp
    beae:	2b00      	cmp	r3, #0
    beb0:	d100      	bne.n	beb4 <__aeabi_ddiv+0x130>
    beb2:	e18a      	b.n	c1ca <__aeabi_ddiv+0x446>
    beb4:	4658      	mov	r0, fp
    beb6:	f001 fa05 	bl	d2c4 <__clzsi2>
    beba:	2827      	cmp	r0, #39	; 0x27
    bebc:	dd00      	ble.n	bec0 <__aeabi_ddiv+0x13c>
    bebe:	e17d      	b.n	c1bc <__aeabi_ddiv+0x438>
    bec0:	2228      	movs	r2, #40	; 0x28
    bec2:	1a17      	subs	r7, r2, r0
    bec4:	1c01      	adds	r1, r0, #0
    bec6:	1c32      	adds	r2, r6, #0
    bec8:	3908      	subs	r1, #8
    beca:	465b      	mov	r3, fp
    becc:	40fa      	lsrs	r2, r7
    bece:	408b      	lsls	r3, r1
    bed0:	1c17      	adds	r7, r2, #0
    bed2:	431f      	orrs	r7, r3
    bed4:	1c33      	adds	r3, r6, #0
    bed6:	408b      	lsls	r3, r1
    bed8:	46bb      	mov	fp, r7
    beda:	1c19      	adds	r1, r3, #0
    bedc:	4b21      	ldr	r3, [pc, #132]	; (bf64 <__aeabi_ddiv+0x1e0>)
    bede:	1a1b      	subs	r3, r3, r0
    bee0:	2000      	movs	r0, #0
    bee2:	e78e      	b.n	be02 <__aeabi_ddiv+0x7e>
    bee4:	2700      	movs	r7, #0
    bee6:	46bb      	mov	fp, r7
    bee8:	2100      	movs	r1, #0
    beea:	2001      	movs	r0, #1
    beec:	e789      	b.n	be02 <__aeabi_ddiv+0x7e>
    beee:	2000      	movs	r0, #0
    bef0:	2501      	movs	r5, #1
    bef2:	2404      	movs	r4, #4
    bef4:	4680      	mov	r8, r0
    bef6:	4681      	mov	r9, r0
    bef8:	9502      	str	r5, [sp, #8]
    befa:	e76a      	b.n	bdd2 <__aeabi_ddiv+0x4e>
    befc:	2503      	movs	r5, #3
    befe:	240c      	movs	r4, #12
    bf00:	9502      	str	r5, [sp, #8]
    bf02:	e766      	b.n	bdd2 <__aeabi_ddiv+0x4e>
    bf04:	9c01      	ldr	r4, [sp, #4]
    bf06:	9403      	str	r4, [sp, #12]
    bf08:	9d03      	ldr	r5, [sp, #12]
    bf0a:	2201      	movs	r2, #1
    bf0c:	402a      	ands	r2, r5
    bf0e:	2400      	movs	r4, #0
    bf10:	4d11      	ldr	r5, [pc, #68]	; (bf58 <__aeabi_ddiv+0x1d4>)
    bf12:	46a1      	mov	r9, r4
    bf14:	2000      	movs	r0, #0
    bf16:	2100      	movs	r1, #0
    bf18:	0324      	lsls	r4, r4, #12
    bf1a:	0b26      	lsrs	r6, r4, #12
    bf1c:	0d0c      	lsrs	r4, r1, #20
    bf1e:	0524      	lsls	r4, r4, #20
    bf20:	4b11      	ldr	r3, [pc, #68]	; (bf68 <__aeabi_ddiv+0x1e4>)
    bf22:	4334      	orrs	r4, r6
    bf24:	052d      	lsls	r5, r5, #20
    bf26:	4023      	ands	r3, r4
    bf28:	432b      	orrs	r3, r5
    bf2a:	005b      	lsls	r3, r3, #1
    bf2c:	085b      	lsrs	r3, r3, #1
    bf2e:	07d2      	lsls	r2, r2, #31
    bf30:	1c19      	adds	r1, r3, #0
    bf32:	4648      	mov	r0, r9
    bf34:	4311      	orrs	r1, r2
    bf36:	b007      	add	sp, #28
    bf38:	bc3c      	pop	{r2, r3, r4, r5}
    bf3a:	4690      	mov	r8, r2
    bf3c:	4699      	mov	r9, r3
    bf3e:	46a2      	mov	sl, r4
    bf40:	46ab      	mov	fp, r5
    bf42:	bdf0      	pop	{r4, r5, r6, r7, pc}
    bf44:	2200      	movs	r2, #0
    bf46:	2480      	movs	r4, #128	; 0x80
    bf48:	0324      	lsls	r4, r4, #12
    bf4a:	4691      	mov	r9, r2
    bf4c:	4d02      	ldr	r5, [pc, #8]	; (bf58 <__aeabi_ddiv+0x1d4>)
    bf4e:	e7e1      	b.n	bf14 <__aeabi_ddiv+0x190>
    bf50:	2400      	movs	r4, #0
    bf52:	2500      	movs	r5, #0
    bf54:	46a1      	mov	r9, r4
    bf56:	e7dd      	b.n	bf14 <__aeabi_ddiv+0x190>
    bf58:	000007ff 	.word	0x000007ff
    bf5c:	fffffc01 	.word	0xfffffc01
    bf60:	0000f920 	.word	0x0000f920
    bf64:	fffffc0d 	.word	0xfffffc0d
    bf68:	800fffff 	.word	0x800fffff
    bf6c:	4655      	mov	r5, sl
    bf6e:	1aed      	subs	r5, r5, r3
    bf70:	9504      	str	r5, [sp, #16]
    bf72:	45d8      	cmp	r8, fp
    bf74:	d900      	bls.n	bf78 <__aeabi_ddiv+0x1f4>
    bf76:	e153      	b.n	c220 <__aeabi_ddiv+0x49c>
    bf78:	d100      	bne.n	bf7c <__aeabi_ddiv+0x1f8>
    bf7a:	e14e      	b.n	c21a <__aeabi_ddiv+0x496>
    bf7c:	9c04      	ldr	r4, [sp, #16]
    bf7e:	2500      	movs	r5, #0
    bf80:	3c01      	subs	r4, #1
    bf82:	464e      	mov	r6, r9
    bf84:	9404      	str	r4, [sp, #16]
    bf86:	4647      	mov	r7, r8
    bf88:	46a9      	mov	r9, r5
    bf8a:	4658      	mov	r0, fp
    bf8c:	0203      	lsls	r3, r0, #8
    bf8e:	0e0c      	lsrs	r4, r1, #24
    bf90:	431c      	orrs	r4, r3
    bf92:	0209      	lsls	r1, r1, #8
    bf94:	0c25      	lsrs	r5, r4, #16
    bf96:	0423      	lsls	r3, r4, #16
    bf98:	0c1b      	lsrs	r3, r3, #16
    bf9a:	9100      	str	r1, [sp, #0]
    bf9c:	1c38      	adds	r0, r7, #0
    bf9e:	1c29      	adds	r1, r5, #0
    bfa0:	9301      	str	r3, [sp, #4]
    bfa2:	f7ff fac7 	bl	b534 <__aeabi_uidiv>
    bfa6:	9901      	ldr	r1, [sp, #4]
    bfa8:	4683      	mov	fp, r0
    bfaa:	4341      	muls	r1, r0
    bfac:	1c38      	adds	r0, r7, #0
    bfae:	468a      	mov	sl, r1
    bfb0:	1c29      	adds	r1, r5, #0
    bfb2:	f7ff fb03 	bl	b5bc <__aeabi_uidivmod>
    bfb6:	0c33      	lsrs	r3, r6, #16
    bfb8:	0409      	lsls	r1, r1, #16
    bfba:	4319      	orrs	r1, r3
    bfbc:	458a      	cmp	sl, r1
    bfbe:	d90c      	bls.n	bfda <__aeabi_ddiv+0x256>
    bfc0:	465b      	mov	r3, fp
    bfc2:	1909      	adds	r1, r1, r4
    bfc4:	3b01      	subs	r3, #1
    bfc6:	428c      	cmp	r4, r1
    bfc8:	d900      	bls.n	bfcc <__aeabi_ddiv+0x248>
    bfca:	e147      	b.n	c25c <__aeabi_ddiv+0x4d8>
    bfcc:	458a      	cmp	sl, r1
    bfce:	d800      	bhi.n	bfd2 <__aeabi_ddiv+0x24e>
    bfd0:	e144      	b.n	c25c <__aeabi_ddiv+0x4d8>
    bfd2:	2202      	movs	r2, #2
    bfd4:	4252      	negs	r2, r2
    bfd6:	4493      	add	fp, r2
    bfd8:	1909      	adds	r1, r1, r4
    bfda:	4653      	mov	r3, sl
    bfdc:	1acb      	subs	r3, r1, r3
    bfde:	1c18      	adds	r0, r3, #0
    bfe0:	1c29      	adds	r1, r5, #0
    bfe2:	4698      	mov	r8, r3
    bfe4:	f7ff faa6 	bl	b534 <__aeabi_uidiv>
    bfe8:	1c07      	adds	r7, r0, #0
    bfea:	9801      	ldr	r0, [sp, #4]
    bfec:	1c29      	adds	r1, r5, #0
    bfee:	4378      	muls	r0, r7
    bff0:	4682      	mov	sl, r0
    bff2:	4640      	mov	r0, r8
    bff4:	f7ff fae2 	bl	b5bc <__aeabi_uidivmod>
    bff8:	0436      	lsls	r6, r6, #16
    bffa:	040b      	lsls	r3, r1, #16
    bffc:	0c36      	lsrs	r6, r6, #16
    bffe:	4333      	orrs	r3, r6
    c000:	459a      	cmp	sl, r3
    c002:	d909      	bls.n	c018 <__aeabi_ddiv+0x294>
    c004:	191b      	adds	r3, r3, r4
    c006:	1e7a      	subs	r2, r7, #1
    c008:	429c      	cmp	r4, r3
    c00a:	d900      	bls.n	c00e <__aeabi_ddiv+0x28a>
    c00c:	e124      	b.n	c258 <__aeabi_ddiv+0x4d4>
    c00e:	459a      	cmp	sl, r3
    c010:	d800      	bhi.n	c014 <__aeabi_ddiv+0x290>
    c012:	e121      	b.n	c258 <__aeabi_ddiv+0x4d4>
    c014:	3f02      	subs	r7, #2
    c016:	191b      	adds	r3, r3, r4
    c018:	465e      	mov	r6, fp
    c01a:	0432      	lsls	r2, r6, #16
    c01c:	4317      	orrs	r7, r2
    c01e:	0c38      	lsrs	r0, r7, #16
    c020:	46bb      	mov	fp, r7
    c022:	9e00      	ldr	r6, [sp, #0]
    c024:	9f00      	ldr	r7, [sp, #0]
    c026:	4651      	mov	r1, sl
    c028:	0c3f      	lsrs	r7, r7, #16
    c02a:	0432      	lsls	r2, r6, #16
    c02c:	1a5b      	subs	r3, r3, r1
    c02e:	4659      	mov	r1, fp
    c030:	46ba      	mov	sl, r7
    c032:	0c12      	lsrs	r2, r2, #16
    c034:	040f      	lsls	r7, r1, #16
    c036:	0c3f      	lsrs	r7, r7, #16
    c038:	4690      	mov	r8, r2
    c03a:	4651      	mov	r1, sl
    c03c:	437a      	muls	r2, r7
    c03e:	434f      	muls	r7, r1
    c040:	4641      	mov	r1, r8
    c042:	4341      	muls	r1, r0
    c044:	4656      	mov	r6, sl
    c046:	4370      	muls	r0, r6
    c048:	19cf      	adds	r7, r1, r7
    c04a:	0c16      	lsrs	r6, r2, #16
    c04c:	19be      	adds	r6, r7, r6
    c04e:	42b1      	cmp	r1, r6
    c050:	d902      	bls.n	c058 <__aeabi_ddiv+0x2d4>
    c052:	2780      	movs	r7, #128	; 0x80
    c054:	027f      	lsls	r7, r7, #9
    c056:	19c0      	adds	r0, r0, r7
    c058:	0c31      	lsrs	r1, r6, #16
    c05a:	0412      	lsls	r2, r2, #16
    c05c:	0436      	lsls	r6, r6, #16
    c05e:	0c12      	lsrs	r2, r2, #16
    c060:	1840      	adds	r0, r0, r1
    c062:	18b6      	adds	r6, r6, r2
    c064:	4283      	cmp	r3, r0
    c066:	d200      	bcs.n	c06a <__aeabi_ddiv+0x2e6>
    c068:	e0c4      	b.n	c1f4 <__aeabi_ddiv+0x470>
    c06a:	d100      	bne.n	c06e <__aeabi_ddiv+0x2ea>
    c06c:	e0be      	b.n	c1ec <__aeabi_ddiv+0x468>
    c06e:	1a19      	subs	r1, r3, r0
    c070:	4648      	mov	r0, r9
    c072:	1b86      	subs	r6, r0, r6
    c074:	45b1      	cmp	r9, r6
    c076:	41bf      	sbcs	r7, r7
    c078:	427f      	negs	r7, r7
    c07a:	1bcf      	subs	r7, r1, r7
    c07c:	42a7      	cmp	r7, r4
    c07e:	d100      	bne.n	c082 <__aeabi_ddiv+0x2fe>
    c080:	e113      	b.n	c2aa <__aeabi_ddiv+0x526>
    c082:	1c29      	adds	r1, r5, #0
    c084:	1c38      	adds	r0, r7, #0
    c086:	f7ff fa55 	bl	b534 <__aeabi_uidiv>
    c08a:	9901      	ldr	r1, [sp, #4]
    c08c:	9002      	str	r0, [sp, #8]
    c08e:	4341      	muls	r1, r0
    c090:	1c38      	adds	r0, r7, #0
    c092:	4689      	mov	r9, r1
    c094:	1c29      	adds	r1, r5, #0
    c096:	f7ff fa91 	bl	b5bc <__aeabi_uidivmod>
    c09a:	0c33      	lsrs	r3, r6, #16
    c09c:	0409      	lsls	r1, r1, #16
    c09e:	4319      	orrs	r1, r3
    c0a0:	4589      	cmp	r9, r1
    c0a2:	d90c      	bls.n	c0be <__aeabi_ddiv+0x33a>
    c0a4:	9b02      	ldr	r3, [sp, #8]
    c0a6:	1909      	adds	r1, r1, r4
    c0a8:	3b01      	subs	r3, #1
    c0aa:	428c      	cmp	r4, r1
    c0ac:	d900      	bls.n	c0b0 <__aeabi_ddiv+0x32c>
    c0ae:	e0ff      	b.n	c2b0 <__aeabi_ddiv+0x52c>
    c0b0:	4589      	cmp	r9, r1
    c0b2:	d800      	bhi.n	c0b6 <__aeabi_ddiv+0x332>
    c0b4:	e0fc      	b.n	c2b0 <__aeabi_ddiv+0x52c>
    c0b6:	9f02      	ldr	r7, [sp, #8]
    c0b8:	1909      	adds	r1, r1, r4
    c0ba:	3f02      	subs	r7, #2
    c0bc:	9702      	str	r7, [sp, #8]
    c0be:	464f      	mov	r7, r9
    c0c0:	1bcf      	subs	r7, r1, r7
    c0c2:	1c38      	adds	r0, r7, #0
    c0c4:	1c29      	adds	r1, r5, #0
    c0c6:	9705      	str	r7, [sp, #20]
    c0c8:	f7ff fa34 	bl	b534 <__aeabi_uidiv>
    c0cc:	1c07      	adds	r7, r0, #0
    c0ce:	9801      	ldr	r0, [sp, #4]
    c0d0:	1c29      	adds	r1, r5, #0
    c0d2:	4378      	muls	r0, r7
    c0d4:	4681      	mov	r9, r0
    c0d6:	9805      	ldr	r0, [sp, #20]
    c0d8:	f7ff fa70 	bl	b5bc <__aeabi_uidivmod>
    c0dc:	0436      	lsls	r6, r6, #16
    c0de:	0409      	lsls	r1, r1, #16
    c0e0:	0c36      	lsrs	r6, r6, #16
    c0e2:	430e      	orrs	r6, r1
    c0e4:	45b1      	cmp	r9, r6
    c0e6:	d909      	bls.n	c0fc <__aeabi_ddiv+0x378>
    c0e8:	1936      	adds	r6, r6, r4
    c0ea:	1e7b      	subs	r3, r7, #1
    c0ec:	42b4      	cmp	r4, r6
    c0ee:	d900      	bls.n	c0f2 <__aeabi_ddiv+0x36e>
    c0f0:	e0e0      	b.n	c2b4 <__aeabi_ddiv+0x530>
    c0f2:	45b1      	cmp	r9, r6
    c0f4:	d800      	bhi.n	c0f8 <__aeabi_ddiv+0x374>
    c0f6:	e0dd      	b.n	c2b4 <__aeabi_ddiv+0x530>
    c0f8:	3f02      	subs	r7, #2
    c0fa:	1936      	adds	r6, r6, r4
    c0fc:	9d02      	ldr	r5, [sp, #8]
    c0fe:	4649      	mov	r1, r9
    c100:	1a76      	subs	r6, r6, r1
    c102:	0429      	lsls	r1, r5, #16
    c104:	4339      	orrs	r1, r7
    c106:	040b      	lsls	r3, r1, #16
    c108:	4657      	mov	r7, sl
    c10a:	0c0a      	lsrs	r2, r1, #16
    c10c:	0c1b      	lsrs	r3, r3, #16
    c10e:	4640      	mov	r0, r8
    c110:	4645      	mov	r5, r8
    c112:	4358      	muls	r0, r3
    c114:	4355      	muls	r5, r2
    c116:	437b      	muls	r3, r7
    c118:	437a      	muls	r2, r7
    c11a:	18eb      	adds	r3, r5, r3
    c11c:	0c07      	lsrs	r7, r0, #16
    c11e:	19db      	adds	r3, r3, r7
    c120:	429d      	cmp	r5, r3
    c122:	d902      	bls.n	c12a <__aeabi_ddiv+0x3a6>
    c124:	2580      	movs	r5, #128	; 0x80
    c126:	026d      	lsls	r5, r5, #9
    c128:	1952      	adds	r2, r2, r5
    c12a:	0c1d      	lsrs	r5, r3, #16
    c12c:	0400      	lsls	r0, r0, #16
    c12e:	041b      	lsls	r3, r3, #16
    c130:	0c00      	lsrs	r0, r0, #16
    c132:	1952      	adds	r2, r2, r5
    c134:	181b      	adds	r3, r3, r0
    c136:	4296      	cmp	r6, r2
    c138:	d335      	bcc.n	c1a6 <__aeabi_ddiv+0x422>
    c13a:	d100      	bne.n	c13e <__aeabi_ddiv+0x3ba>
    c13c:	e0fc      	b.n	c338 <__aeabi_ddiv+0x5b4>
    c13e:	2301      	movs	r3, #1
    c140:	4319      	orrs	r1, r3
    c142:	9e04      	ldr	r6, [sp, #16]
    c144:	4f99      	ldr	r7, [pc, #612]	; (c3ac <__aeabi_ddiv+0x628>)
    c146:	19f5      	adds	r5, r6, r7
    c148:	2d00      	cmp	r5, #0
    c14a:	dc00      	bgt.n	c14e <__aeabi_ddiv+0x3ca>
    c14c:	e0a1      	b.n	c292 <__aeabi_ddiv+0x50e>
    c14e:	0748      	lsls	r0, r1, #29
    c150:	d009      	beq.n	c166 <__aeabi_ddiv+0x3e2>
    c152:	230f      	movs	r3, #15
    c154:	400b      	ands	r3, r1
    c156:	2b04      	cmp	r3, #4
    c158:	d005      	beq.n	c166 <__aeabi_ddiv+0x3e2>
    c15a:	1d0b      	adds	r3, r1, #4
    c15c:	428b      	cmp	r3, r1
    c15e:	4189      	sbcs	r1, r1
    c160:	4249      	negs	r1, r1
    c162:	448b      	add	fp, r1
    c164:	1c19      	adds	r1, r3, #0
    c166:	465a      	mov	r2, fp
    c168:	01d2      	lsls	r2, r2, #7
    c16a:	d507      	bpl.n	c17c <__aeabi_ddiv+0x3f8>
    c16c:	4b90      	ldr	r3, [pc, #576]	; (c3b0 <__aeabi_ddiv+0x62c>)
    c16e:	465c      	mov	r4, fp
    c170:	9e04      	ldr	r6, [sp, #16]
    c172:	2780      	movs	r7, #128	; 0x80
    c174:	401c      	ands	r4, r3
    c176:	00ff      	lsls	r7, r7, #3
    c178:	46a3      	mov	fp, r4
    c17a:	19f5      	adds	r5, r6, r7
    c17c:	4b8d      	ldr	r3, [pc, #564]	; (c3b4 <__aeabi_ddiv+0x630>)
    c17e:	429d      	cmp	r5, r3
    c180:	dd7a      	ble.n	c278 <__aeabi_ddiv+0x4f4>
    c182:	9c03      	ldr	r4, [sp, #12]
    c184:	2201      	movs	r2, #1
    c186:	4022      	ands	r2, r4
    c188:	2400      	movs	r4, #0
    c18a:	4d8b      	ldr	r5, [pc, #556]	; (c3b8 <__aeabi_ddiv+0x634>)
    c18c:	46a1      	mov	r9, r4
    c18e:	e6c1      	b.n	bf14 <__aeabi_ddiv+0x190>
    c190:	2480      	movs	r4, #128	; 0x80
    c192:	0324      	lsls	r4, r4, #12
    c194:	4647      	mov	r7, r8
    c196:	4227      	tst	r7, r4
    c198:	d14c      	bne.n	c234 <__aeabi_ddiv+0x4b0>
    c19a:	433c      	orrs	r4, r7
    c19c:	0324      	lsls	r4, r4, #12
    c19e:	0b24      	lsrs	r4, r4, #12
    c1a0:	9a00      	ldr	r2, [sp, #0]
    c1a2:	4d85      	ldr	r5, [pc, #532]	; (c3b8 <__aeabi_ddiv+0x634>)
    c1a4:	e6b6      	b.n	bf14 <__aeabi_ddiv+0x190>
    c1a6:	1936      	adds	r6, r6, r4
    c1a8:	1e48      	subs	r0, r1, #1
    c1aa:	42b4      	cmp	r4, r6
    c1ac:	d95e      	bls.n	c26c <__aeabi_ddiv+0x4e8>
    c1ae:	1c01      	adds	r1, r0, #0
    c1b0:	4296      	cmp	r6, r2
    c1b2:	d1c4      	bne.n	c13e <__aeabi_ddiv+0x3ba>
    c1b4:	9e00      	ldr	r6, [sp, #0]
    c1b6:	429e      	cmp	r6, r3
    c1b8:	d1c1      	bne.n	c13e <__aeabi_ddiv+0x3ba>
    c1ba:	e7c2      	b.n	c142 <__aeabi_ddiv+0x3be>
    c1bc:	1c03      	adds	r3, r0, #0
    c1be:	3b28      	subs	r3, #40	; 0x28
    c1c0:	1c31      	adds	r1, r6, #0
    c1c2:	4099      	lsls	r1, r3
    c1c4:	468b      	mov	fp, r1
    c1c6:	2100      	movs	r1, #0
    c1c8:	e688      	b.n	bedc <__aeabi_ddiv+0x158>
    c1ca:	1c30      	adds	r0, r6, #0
    c1cc:	f001 f87a 	bl	d2c4 <__clzsi2>
    c1d0:	3020      	adds	r0, #32
    c1d2:	e672      	b.n	beba <__aeabi_ddiv+0x136>
    c1d4:	3b28      	subs	r3, #40	; 0x28
    c1d6:	1c21      	adds	r1, r4, #0
    c1d8:	4099      	lsls	r1, r3
    c1da:	2200      	movs	r2, #0
    c1dc:	4688      	mov	r8, r1
    c1de:	4691      	mov	r9, r2
    c1e0:	e651      	b.n	be86 <__aeabi_ddiv+0x102>
    c1e2:	1c20      	adds	r0, r4, #0
    c1e4:	f001 f86e 	bl	d2c4 <__clzsi2>
    c1e8:	3020      	adds	r0, #32
    c1ea:	e63b      	b.n	be64 <__aeabi_ddiv+0xe0>
    c1ec:	2100      	movs	r1, #0
    c1ee:	45b1      	cmp	r9, r6
    c1f0:	d300      	bcc.n	c1f4 <__aeabi_ddiv+0x470>
    c1f2:	e73d      	b.n	c070 <__aeabi_ddiv+0x2ec>
    c1f4:	9f00      	ldr	r7, [sp, #0]
    c1f6:	465a      	mov	r2, fp
    c1f8:	44b9      	add	r9, r7
    c1fa:	45b9      	cmp	r9, r7
    c1fc:	41bf      	sbcs	r7, r7
    c1fe:	427f      	negs	r7, r7
    c200:	193f      	adds	r7, r7, r4
    c202:	18fb      	adds	r3, r7, r3
    c204:	3a01      	subs	r2, #1
    c206:	429c      	cmp	r4, r3
    c208:	d21e      	bcs.n	c248 <__aeabi_ddiv+0x4c4>
    c20a:	4298      	cmp	r0, r3
    c20c:	d900      	bls.n	c210 <__aeabi_ddiv+0x48c>
    c20e:	e07e      	b.n	c30e <__aeabi_ddiv+0x58a>
    c210:	d100      	bne.n	c214 <__aeabi_ddiv+0x490>
    c212:	e0b5      	b.n	c380 <__aeabi_ddiv+0x5fc>
    c214:	1a19      	subs	r1, r3, r0
    c216:	4693      	mov	fp, r2
    c218:	e72a      	b.n	c070 <__aeabi_ddiv+0x2ec>
    c21a:	4589      	cmp	r9, r1
    c21c:	d800      	bhi.n	c220 <__aeabi_ddiv+0x49c>
    c21e:	e6ad      	b.n	bf7c <__aeabi_ddiv+0x1f8>
    c220:	4648      	mov	r0, r9
    c222:	4646      	mov	r6, r8
    c224:	4642      	mov	r2, r8
    c226:	0877      	lsrs	r7, r6, #1
    c228:	07d3      	lsls	r3, r2, #31
    c22a:	0846      	lsrs	r6, r0, #1
    c22c:	07c0      	lsls	r0, r0, #31
    c22e:	431e      	orrs	r6, r3
    c230:	4681      	mov	r9, r0
    c232:	e6aa      	b.n	bf8a <__aeabi_ddiv+0x206>
    c234:	4658      	mov	r0, fp
    c236:	4220      	tst	r0, r4
    c238:	d112      	bne.n	c260 <__aeabi_ddiv+0x4dc>
    c23a:	4304      	orrs	r4, r0
    c23c:	0324      	lsls	r4, r4, #12
    c23e:	1c2a      	adds	r2, r5, #0
    c240:	0b24      	lsrs	r4, r4, #12
    c242:	4689      	mov	r9, r1
    c244:	4d5c      	ldr	r5, [pc, #368]	; (c3b8 <__aeabi_ddiv+0x634>)
    c246:	e665      	b.n	bf14 <__aeabi_ddiv+0x190>
    c248:	42a3      	cmp	r3, r4
    c24a:	d1e3      	bne.n	c214 <__aeabi_ddiv+0x490>
    c24c:	9f00      	ldr	r7, [sp, #0]
    c24e:	454f      	cmp	r7, r9
    c250:	d9db      	bls.n	c20a <__aeabi_ddiv+0x486>
    c252:	1a21      	subs	r1, r4, r0
    c254:	4693      	mov	fp, r2
    c256:	e70b      	b.n	c070 <__aeabi_ddiv+0x2ec>
    c258:	1c17      	adds	r7, r2, #0
    c25a:	e6dd      	b.n	c018 <__aeabi_ddiv+0x294>
    c25c:	469b      	mov	fp, r3
    c25e:	e6bc      	b.n	bfda <__aeabi_ddiv+0x256>
    c260:	433c      	orrs	r4, r7
    c262:	0324      	lsls	r4, r4, #12
    c264:	0b24      	lsrs	r4, r4, #12
    c266:	9a00      	ldr	r2, [sp, #0]
    c268:	4d53      	ldr	r5, [pc, #332]	; (c3b8 <__aeabi_ddiv+0x634>)
    c26a:	e653      	b.n	bf14 <__aeabi_ddiv+0x190>
    c26c:	42b2      	cmp	r2, r6
    c26e:	d859      	bhi.n	c324 <__aeabi_ddiv+0x5a0>
    c270:	d100      	bne.n	c274 <__aeabi_ddiv+0x4f0>
    c272:	e08a      	b.n	c38a <__aeabi_ddiv+0x606>
    c274:	1c01      	adds	r1, r0, #0
    c276:	e762      	b.n	c13e <__aeabi_ddiv+0x3ba>
    c278:	465f      	mov	r7, fp
    c27a:	08c9      	lsrs	r1, r1, #3
    c27c:	077b      	lsls	r3, r7, #29
    c27e:	9e03      	ldr	r6, [sp, #12]
    c280:	430b      	orrs	r3, r1
    c282:	027c      	lsls	r4, r7, #9
    c284:	056d      	lsls	r5, r5, #21
    c286:	2201      	movs	r2, #1
    c288:	4699      	mov	r9, r3
    c28a:	0b24      	lsrs	r4, r4, #12
    c28c:	0d6d      	lsrs	r5, r5, #21
    c28e:	4032      	ands	r2, r6
    c290:	e640      	b.n	bf14 <__aeabi_ddiv+0x190>
    c292:	4b4a      	ldr	r3, [pc, #296]	; (c3bc <__aeabi_ddiv+0x638>)
    c294:	9f04      	ldr	r7, [sp, #16]
    c296:	1bdb      	subs	r3, r3, r7
    c298:	2b38      	cmp	r3, #56	; 0x38
    c29a:	dd10      	ble.n	c2be <__aeabi_ddiv+0x53a>
    c29c:	9c03      	ldr	r4, [sp, #12]
    c29e:	2201      	movs	r2, #1
    c2a0:	4022      	ands	r2, r4
    c2a2:	2400      	movs	r4, #0
    c2a4:	2500      	movs	r5, #0
    c2a6:	46a1      	mov	r9, r4
    c2a8:	e634      	b.n	bf14 <__aeabi_ddiv+0x190>
    c2aa:	2101      	movs	r1, #1
    c2ac:	4249      	negs	r1, r1
    c2ae:	e748      	b.n	c142 <__aeabi_ddiv+0x3be>
    c2b0:	9302      	str	r3, [sp, #8]
    c2b2:	e704      	b.n	c0be <__aeabi_ddiv+0x33a>
    c2b4:	1c1f      	adds	r7, r3, #0
    c2b6:	e721      	b.n	c0fc <__aeabi_ddiv+0x378>
    c2b8:	9c01      	ldr	r4, [sp, #4]
    c2ba:	9403      	str	r4, [sp, #12]
    c2bc:	e741      	b.n	c142 <__aeabi_ddiv+0x3be>
    c2be:	2b1f      	cmp	r3, #31
    c2c0:	dc40      	bgt.n	c344 <__aeabi_ddiv+0x5c0>
    c2c2:	483f      	ldr	r0, [pc, #252]	; (c3c0 <__aeabi_ddiv+0x63c>)
    c2c4:	9f04      	ldr	r7, [sp, #16]
    c2c6:	1c0c      	adds	r4, r1, #0
    c2c8:	183a      	adds	r2, r7, r0
    c2ca:	4658      	mov	r0, fp
    c2cc:	4091      	lsls	r1, r2
    c2ce:	40dc      	lsrs	r4, r3
    c2d0:	4090      	lsls	r0, r2
    c2d2:	4320      	orrs	r0, r4
    c2d4:	1c0a      	adds	r2, r1, #0
    c2d6:	1e51      	subs	r1, r2, #1
    c2d8:	418a      	sbcs	r2, r1
    c2da:	1c01      	adds	r1, r0, #0
    c2dc:	4311      	orrs	r1, r2
    c2de:	465a      	mov	r2, fp
    c2e0:	40da      	lsrs	r2, r3
    c2e2:	1c13      	adds	r3, r2, #0
    c2e4:	0748      	lsls	r0, r1, #29
    c2e6:	d009      	beq.n	c2fc <__aeabi_ddiv+0x578>
    c2e8:	220f      	movs	r2, #15
    c2ea:	400a      	ands	r2, r1
    c2ec:	2a04      	cmp	r2, #4
    c2ee:	d005      	beq.n	c2fc <__aeabi_ddiv+0x578>
    c2f0:	1d0a      	adds	r2, r1, #4
    c2f2:	428a      	cmp	r2, r1
    c2f4:	4189      	sbcs	r1, r1
    c2f6:	4249      	negs	r1, r1
    c2f8:	185b      	adds	r3, r3, r1
    c2fa:	1c11      	adds	r1, r2, #0
    c2fc:	021a      	lsls	r2, r3, #8
    c2fe:	d534      	bpl.n	c36a <__aeabi_ddiv+0x5e6>
    c300:	9c03      	ldr	r4, [sp, #12]
    c302:	2201      	movs	r2, #1
    c304:	4022      	ands	r2, r4
    c306:	2400      	movs	r4, #0
    c308:	2501      	movs	r5, #1
    c30a:	46a1      	mov	r9, r4
    c30c:	e602      	b.n	bf14 <__aeabi_ddiv+0x190>
    c30e:	9f00      	ldr	r7, [sp, #0]
    c310:	2102      	movs	r1, #2
    c312:	4249      	negs	r1, r1
    c314:	44b9      	add	r9, r7
    c316:	448b      	add	fp, r1
    c318:	45b9      	cmp	r9, r7
    c31a:	4189      	sbcs	r1, r1
    c31c:	4249      	negs	r1, r1
    c31e:	1909      	adds	r1, r1, r4
    c320:	18cb      	adds	r3, r1, r3
    c322:	e6a4      	b.n	c06e <__aeabi_ddiv+0x2ea>
    c324:	9d00      	ldr	r5, [sp, #0]
    c326:	1e88      	subs	r0, r1, #2
    c328:	0069      	lsls	r1, r5, #1
    c32a:	42a9      	cmp	r1, r5
    c32c:	41ad      	sbcs	r5, r5
    c32e:	426d      	negs	r5, r5
    c330:	192c      	adds	r4, r5, r4
    c332:	1936      	adds	r6, r6, r4
    c334:	9100      	str	r1, [sp, #0]
    c336:	e73a      	b.n	c1ae <__aeabi_ddiv+0x42a>
    c338:	2b00      	cmp	r3, #0
    c33a:	d000      	beq.n	c33e <__aeabi_ddiv+0x5ba>
    c33c:	e733      	b.n	c1a6 <__aeabi_ddiv+0x422>
    c33e:	2400      	movs	r4, #0
    c340:	9400      	str	r4, [sp, #0]
    c342:	e737      	b.n	c1b4 <__aeabi_ddiv+0x430>
    c344:	4a1f      	ldr	r2, [pc, #124]	; (c3c4 <__aeabi_ddiv+0x640>)
    c346:	9c04      	ldr	r4, [sp, #16]
    c348:	465d      	mov	r5, fp
    c34a:	1b12      	subs	r2, r2, r4
    c34c:	40d5      	lsrs	r5, r2
    c34e:	1c2a      	adds	r2, r5, #0
    c350:	2b20      	cmp	r3, #32
    c352:	d01f      	beq.n	c394 <__aeabi_ddiv+0x610>
    c354:	4e1c      	ldr	r6, [pc, #112]	; (c3c8 <__aeabi_ddiv+0x644>)
    c356:	465f      	mov	r7, fp
    c358:	19a3      	adds	r3, r4, r6
    c35a:	409f      	lsls	r7, r3
    c35c:	1c3b      	adds	r3, r7, #0
    c35e:	4319      	orrs	r1, r3
    c360:	1e4b      	subs	r3, r1, #1
    c362:	4199      	sbcs	r1, r3
    c364:	4311      	orrs	r1, r2
    c366:	2300      	movs	r3, #0
    c368:	e7bc      	b.n	c2e4 <__aeabi_ddiv+0x560>
    c36a:	075a      	lsls	r2, r3, #29
    c36c:	08c9      	lsrs	r1, r1, #3
    c36e:	430a      	orrs	r2, r1
    c370:	9f03      	ldr	r7, [sp, #12]
    c372:	4691      	mov	r9, r2
    c374:	025b      	lsls	r3, r3, #9
    c376:	2201      	movs	r2, #1
    c378:	0b1c      	lsrs	r4, r3, #12
    c37a:	403a      	ands	r2, r7
    c37c:	2500      	movs	r5, #0
    c37e:	e5c9      	b.n	bf14 <__aeabi_ddiv+0x190>
    c380:	454e      	cmp	r6, r9
    c382:	d8c4      	bhi.n	c30e <__aeabi_ddiv+0x58a>
    c384:	4693      	mov	fp, r2
    c386:	2100      	movs	r1, #0
    c388:	e672      	b.n	c070 <__aeabi_ddiv+0x2ec>
    c38a:	9f00      	ldr	r7, [sp, #0]
    c38c:	429f      	cmp	r7, r3
    c38e:	d3c9      	bcc.n	c324 <__aeabi_ddiv+0x5a0>
    c390:	1c01      	adds	r1, r0, #0
    c392:	e70f      	b.n	c1b4 <__aeabi_ddiv+0x430>
    c394:	2300      	movs	r3, #0
    c396:	e7e2      	b.n	c35e <__aeabi_ddiv+0x5da>
    c398:	2480      	movs	r4, #128	; 0x80
    c39a:	0324      	lsls	r4, r4, #12
    c39c:	465f      	mov	r7, fp
    c39e:	433c      	orrs	r4, r7
    c3a0:	0324      	lsls	r4, r4, #12
    c3a2:	0b24      	lsrs	r4, r4, #12
    c3a4:	9a01      	ldr	r2, [sp, #4]
    c3a6:	4689      	mov	r9, r1
    c3a8:	4d03      	ldr	r5, [pc, #12]	; (c3b8 <__aeabi_ddiv+0x634>)
    c3aa:	e5b3      	b.n	bf14 <__aeabi_ddiv+0x190>
    c3ac:	000003ff 	.word	0x000003ff
    c3b0:	feffffff 	.word	0xfeffffff
    c3b4:	000007fe 	.word	0x000007fe
    c3b8:	000007ff 	.word	0x000007ff
    c3bc:	fffffc02 	.word	0xfffffc02
    c3c0:	0000041e 	.word	0x0000041e
    c3c4:	fffffbe2 	.word	0xfffffbe2
    c3c8:	0000043e 	.word	0x0000043e

0000c3cc <__eqdf2>:
__eqdf2():
    c3cc:	b5f0      	push	{r4, r5, r6, r7, lr}
    c3ce:	465f      	mov	r7, fp
    c3d0:	4656      	mov	r6, sl
    c3d2:	464d      	mov	r5, r9
    c3d4:	4644      	mov	r4, r8
    c3d6:	b4f0      	push	{r4, r5, r6, r7}
    c3d8:	1c0d      	adds	r5, r1, #0
    c3da:	1c04      	adds	r4, r0, #0
    c3dc:	4680      	mov	r8, r0
    c3de:	0fe8      	lsrs	r0, r5, #31
    c3e0:	4681      	mov	r9, r0
    c3e2:	0318      	lsls	r0, r3, #12
    c3e4:	030f      	lsls	r7, r1, #12
    c3e6:	0b00      	lsrs	r0, r0, #12
    c3e8:	0b3f      	lsrs	r7, r7, #12
    c3ea:	b083      	sub	sp, #12
    c3ec:	4684      	mov	ip, r0
    c3ee:	481b      	ldr	r0, [pc, #108]	; (c45c <__eqdf2+0x90>)
    c3f0:	9700      	str	r7, [sp, #0]
    c3f2:	0049      	lsls	r1, r1, #1
    c3f4:	005e      	lsls	r6, r3, #1
    c3f6:	0fdf      	lsrs	r7, r3, #31
    c3f8:	0d49      	lsrs	r1, r1, #21
    c3fa:	4692      	mov	sl, r2
    c3fc:	0d76      	lsrs	r6, r6, #21
    c3fe:	46bb      	mov	fp, r7
    c400:	4281      	cmp	r1, r0
    c402:	d00c      	beq.n	c41e <__eqdf2+0x52>
    c404:	4815      	ldr	r0, [pc, #84]	; (c45c <__eqdf2+0x90>)
    c406:	4286      	cmp	r6, r0
    c408:	d010      	beq.n	c42c <__eqdf2+0x60>
    c40a:	2001      	movs	r0, #1
    c40c:	42b1      	cmp	r1, r6
    c40e:	d015      	beq.n	c43c <__eqdf2+0x70>
    c410:	b003      	add	sp, #12
    c412:	bc3c      	pop	{r2, r3, r4, r5}
    c414:	4690      	mov	r8, r2
    c416:	4699      	mov	r9, r3
    c418:	46a2      	mov	sl, r4
    c41a:	46ab      	mov	fp, r5
    c41c:	bdf0      	pop	{r4, r5, r6, r7, pc}
    c41e:	9f00      	ldr	r7, [sp, #0]
    c420:	2001      	movs	r0, #1
    c422:	4327      	orrs	r7, r4
    c424:	d1f4      	bne.n	c410 <__eqdf2+0x44>
    c426:	480d      	ldr	r0, [pc, #52]	; (c45c <__eqdf2+0x90>)
    c428:	4286      	cmp	r6, r0
    c42a:	d1ee      	bne.n	c40a <__eqdf2+0x3e>
    c42c:	4660      	mov	r0, ip
    c42e:	4302      	orrs	r2, r0
    c430:	2001      	movs	r0, #1
    c432:	2a00      	cmp	r2, #0
    c434:	d1ec      	bne.n	c410 <__eqdf2+0x44>
    c436:	2001      	movs	r0, #1
    c438:	42b1      	cmp	r1, r6
    c43a:	d1e9      	bne.n	c410 <__eqdf2+0x44>
    c43c:	9b00      	ldr	r3, [sp, #0]
    c43e:	4563      	cmp	r3, ip
    c440:	d1e6      	bne.n	c410 <__eqdf2+0x44>
    c442:	45d0      	cmp	r8, sl
    c444:	d1e4      	bne.n	c410 <__eqdf2+0x44>
    c446:	45d9      	cmp	r9, fp
    c448:	d006      	beq.n	c458 <__eqdf2+0x8c>
    c44a:	2900      	cmp	r1, #0
    c44c:	d1e0      	bne.n	c410 <__eqdf2+0x44>
    c44e:	431c      	orrs	r4, r3
    c450:	1c20      	adds	r0, r4, #0
    c452:	1e44      	subs	r4, r0, #1
    c454:	41a0      	sbcs	r0, r4
    c456:	e7db      	b.n	c410 <__eqdf2+0x44>
    c458:	2000      	movs	r0, #0
    c45a:	e7d9      	b.n	c410 <__eqdf2+0x44>
    c45c:	000007ff 	.word	0x000007ff

0000c460 <__gedf2>:
__gtdf2():
    c460:	b5f0      	push	{r4, r5, r6, r7, lr}
    c462:	465f      	mov	r7, fp
    c464:	4656      	mov	r6, sl
    c466:	464d      	mov	r5, r9
    c468:	4644      	mov	r4, r8
    c46a:	b4f0      	push	{r4, r5, r6, r7}
    c46c:	0fcd      	lsrs	r5, r1, #31
    c46e:	0fde      	lsrs	r6, r3, #31
    c470:	46ac      	mov	ip, r5
    c472:	031d      	lsls	r5, r3, #12
    c474:	0b2d      	lsrs	r5, r5, #12
    c476:	46b1      	mov	r9, r6
    c478:	4e37      	ldr	r6, [pc, #220]	; (c558 <__gedf2+0xf8>)
    c47a:	030f      	lsls	r7, r1, #12
    c47c:	004c      	lsls	r4, r1, #1
    c47e:	46ab      	mov	fp, r5
    c480:	005d      	lsls	r5, r3, #1
    c482:	4680      	mov	r8, r0
    c484:	0b3f      	lsrs	r7, r7, #12
    c486:	0d64      	lsrs	r4, r4, #21
    c488:	4692      	mov	sl, r2
    c48a:	0d6d      	lsrs	r5, r5, #21
    c48c:	42b4      	cmp	r4, r6
    c48e:	d032      	beq.n	c4f6 <__gedf2+0x96>
    c490:	4e31      	ldr	r6, [pc, #196]	; (c558 <__gedf2+0xf8>)
    c492:	42b5      	cmp	r5, r6
    c494:	d035      	beq.n	c502 <__gedf2+0xa2>
    c496:	2c00      	cmp	r4, #0
    c498:	d10e      	bne.n	c4b8 <__gedf2+0x58>
    c49a:	4338      	orrs	r0, r7
    c49c:	4241      	negs	r1, r0
    c49e:	4141      	adcs	r1, r0
    c4a0:	1c08      	adds	r0, r1, #0
    c4a2:	2d00      	cmp	r5, #0
    c4a4:	d00b      	beq.n	c4be <__gedf2+0x5e>
    c4a6:	2900      	cmp	r1, #0
    c4a8:	d119      	bne.n	c4de <__gedf2+0x7e>
    c4aa:	45cc      	cmp	ip, r9
    c4ac:	d02d      	beq.n	c50a <__gedf2+0xaa>
    c4ae:	4665      	mov	r5, ip
    c4b0:	4268      	negs	r0, r5
    c4b2:	2301      	movs	r3, #1
    c4b4:	4318      	orrs	r0, r3
    c4b6:	e018      	b.n	c4ea <__gedf2+0x8a>
    c4b8:	2d00      	cmp	r5, #0
    c4ba:	d1f6      	bne.n	c4aa <__gedf2+0x4a>
    c4bc:	1c28      	adds	r0, r5, #0
    c4be:	4659      	mov	r1, fp
    c4c0:	430a      	orrs	r2, r1
    c4c2:	4253      	negs	r3, r2
    c4c4:	4153      	adcs	r3, r2
    c4c6:	2800      	cmp	r0, #0
    c4c8:	d106      	bne.n	c4d8 <__gedf2+0x78>
    c4ca:	2b00      	cmp	r3, #0
    c4cc:	d0ed      	beq.n	c4aa <__gedf2+0x4a>
    c4ce:	4663      	mov	r3, ip
    c4d0:	4258      	negs	r0, r3
    c4d2:	2301      	movs	r3, #1
    c4d4:	4318      	orrs	r0, r3
    c4d6:	e008      	b.n	c4ea <__gedf2+0x8a>
    c4d8:	2000      	movs	r0, #0
    c4da:	2b00      	cmp	r3, #0
    c4dc:	d105      	bne.n	c4ea <__gedf2+0x8a>
    c4de:	464a      	mov	r2, r9
    c4e0:	4250      	negs	r0, r2
    c4e2:	4150      	adcs	r0, r2
    c4e4:	4240      	negs	r0, r0
    c4e6:	2301      	movs	r3, #1
    c4e8:	4318      	orrs	r0, r3
    c4ea:	bc3c      	pop	{r2, r3, r4, r5}
    c4ec:	4690      	mov	r8, r2
    c4ee:	4699      	mov	r9, r3
    c4f0:	46a2      	mov	sl, r4
    c4f2:	46ab      	mov	fp, r5
    c4f4:	bdf0      	pop	{r4, r5, r6, r7, pc}
    c4f6:	1c3e      	adds	r6, r7, #0
    c4f8:	4306      	orrs	r6, r0
    c4fa:	d0c9      	beq.n	c490 <__gedf2+0x30>
    c4fc:	2002      	movs	r0, #2
    c4fe:	4240      	negs	r0, r0
    c500:	e7f3      	b.n	c4ea <__gedf2+0x8a>
    c502:	465e      	mov	r6, fp
    c504:	4316      	orrs	r6, r2
    c506:	d0c6      	beq.n	c496 <__gedf2+0x36>
    c508:	e7f8      	b.n	c4fc <__gedf2+0x9c>
    c50a:	42ac      	cmp	r4, r5
    c50c:	dc07      	bgt.n	c51e <__gedf2+0xbe>
    c50e:	da0b      	bge.n	c528 <__gedf2+0xc8>
    c510:	4661      	mov	r1, ip
    c512:	4248      	negs	r0, r1
    c514:	4148      	adcs	r0, r1
    c516:	4240      	negs	r0, r0
    c518:	2301      	movs	r3, #1
    c51a:	4318      	orrs	r0, r3
    c51c:	e7e5      	b.n	c4ea <__gedf2+0x8a>
    c51e:	4666      	mov	r6, ip
    c520:	4270      	negs	r0, r6
    c522:	2301      	movs	r3, #1
    c524:	4318      	orrs	r0, r3
    c526:	e7e0      	b.n	c4ea <__gedf2+0x8a>
    c528:	455f      	cmp	r7, fp
    c52a:	d80a      	bhi.n	c542 <__gedf2+0xe2>
    c52c:	d00e      	beq.n	c54c <__gedf2+0xec>
    c52e:	2000      	movs	r0, #0
    c530:	455f      	cmp	r7, fp
    c532:	d2da      	bcs.n	c4ea <__gedf2+0x8a>
    c534:	4665      	mov	r5, ip
    c536:	4268      	negs	r0, r5
    c538:	4168      	adcs	r0, r5
    c53a:	4240      	negs	r0, r0
    c53c:	2301      	movs	r3, #1
    c53e:	4318      	orrs	r0, r3
    c540:	e7d3      	b.n	c4ea <__gedf2+0x8a>
    c542:	4662      	mov	r2, ip
    c544:	4250      	negs	r0, r2
    c546:	2301      	movs	r3, #1
    c548:	4318      	orrs	r0, r3
    c54a:	e7ce      	b.n	c4ea <__gedf2+0x8a>
    c54c:	45d0      	cmp	r8, sl
    c54e:	d8f8      	bhi.n	c542 <__gedf2+0xe2>
    c550:	2000      	movs	r0, #0
    c552:	45d0      	cmp	r8, sl
    c554:	d3ee      	bcc.n	c534 <__gedf2+0xd4>
    c556:	e7c8      	b.n	c4ea <__gedf2+0x8a>
    c558:	000007ff 	.word	0x000007ff

0000c55c <__ledf2>:
__ltdf2():
    c55c:	b5f0      	push	{r4, r5, r6, r7, lr}
    c55e:	4656      	mov	r6, sl
    c560:	464d      	mov	r5, r9
    c562:	4644      	mov	r4, r8
    c564:	465f      	mov	r7, fp
    c566:	b4f0      	push	{r4, r5, r6, r7}
    c568:	1c0d      	adds	r5, r1, #0
    c56a:	b083      	sub	sp, #12
    c56c:	1c04      	adds	r4, r0, #0
    c56e:	9001      	str	r0, [sp, #4]
    c570:	0fe8      	lsrs	r0, r5, #31
    c572:	4681      	mov	r9, r0
    c574:	0318      	lsls	r0, r3, #12
    c576:	030f      	lsls	r7, r1, #12
    c578:	0b00      	lsrs	r0, r0, #12
    c57a:	0b3f      	lsrs	r7, r7, #12
    c57c:	4684      	mov	ip, r0
    c57e:	4835      	ldr	r0, [pc, #212]	; (c654 <__ledf2+0xf8>)
    c580:	9700      	str	r7, [sp, #0]
    c582:	0049      	lsls	r1, r1, #1
    c584:	005e      	lsls	r6, r3, #1
    c586:	0fdf      	lsrs	r7, r3, #31
    c588:	0d49      	lsrs	r1, r1, #21
    c58a:	4692      	mov	sl, r2
    c58c:	0d76      	lsrs	r6, r6, #21
    c58e:	46b8      	mov	r8, r7
    c590:	4281      	cmp	r1, r0
    c592:	d034      	beq.n	c5fe <__ledf2+0xa2>
    c594:	482f      	ldr	r0, [pc, #188]	; (c654 <__ledf2+0xf8>)
    c596:	4286      	cmp	r6, r0
    c598:	d036      	beq.n	c608 <__ledf2+0xac>
    c59a:	2900      	cmp	r1, #0
    c59c:	d018      	beq.n	c5d0 <__ledf2+0x74>
    c59e:	2e00      	cmp	r6, #0
    c5a0:	d11f      	bne.n	c5e2 <__ledf2+0x86>
    c5a2:	1c34      	adds	r4, r6, #0
    c5a4:	4667      	mov	r7, ip
    c5a6:	433a      	orrs	r2, r7
    c5a8:	4253      	negs	r3, r2
    c5aa:	4153      	adcs	r3, r2
    c5ac:	2c00      	cmp	r4, #0
    c5ae:	d01f      	beq.n	c5f0 <__ledf2+0x94>
    c5b0:	2000      	movs	r0, #0
    c5b2:	2b00      	cmp	r3, #0
    c5b4:	d105      	bne.n	c5c2 <__ledf2+0x66>
    c5b6:	4642      	mov	r2, r8
    c5b8:	4250      	negs	r0, r2
    c5ba:	4150      	adcs	r0, r2
    c5bc:	4240      	negs	r0, r0
    c5be:	2301      	movs	r3, #1
    c5c0:	4318      	orrs	r0, r3
    c5c2:	b003      	add	sp, #12
    c5c4:	bc3c      	pop	{r2, r3, r4, r5}
    c5c6:	4690      	mov	r8, r2
    c5c8:	4699      	mov	r9, r3
    c5ca:	46a2      	mov	sl, r4
    c5cc:	46ab      	mov	fp, r5
    c5ce:	bdf0      	pop	{r4, r5, r6, r7, pc}
    c5d0:	9800      	ldr	r0, [sp, #0]
    c5d2:	4304      	orrs	r4, r0
    c5d4:	4260      	negs	r0, r4
    c5d6:	4160      	adcs	r0, r4
    c5d8:	1c04      	adds	r4, r0, #0
    c5da:	2e00      	cmp	r6, #0
    c5dc:	d0e2      	beq.n	c5a4 <__ledf2+0x48>
    c5de:	2800      	cmp	r0, #0
    c5e0:	d1e9      	bne.n	c5b6 <__ledf2+0x5a>
    c5e2:	45c1      	cmp	r9, r8
    c5e4:	d015      	beq.n	c612 <__ledf2+0xb6>
    c5e6:	464f      	mov	r7, r9
    c5e8:	4278      	negs	r0, r7
    c5ea:	2301      	movs	r3, #1
    c5ec:	4318      	orrs	r0, r3
    c5ee:	e7e8      	b.n	c5c2 <__ledf2+0x66>
    c5f0:	2b00      	cmp	r3, #0
    c5f2:	d0f6      	beq.n	c5e2 <__ledf2+0x86>
    c5f4:	464b      	mov	r3, r9
    c5f6:	4258      	negs	r0, r3
    c5f8:	2301      	movs	r3, #1
    c5fa:	4318      	orrs	r0, r3
    c5fc:	e7e1      	b.n	c5c2 <__ledf2+0x66>
    c5fe:	9f00      	ldr	r7, [sp, #0]
    c600:	2002      	movs	r0, #2
    c602:	4327      	orrs	r7, r4
    c604:	d1dd      	bne.n	c5c2 <__ledf2+0x66>
    c606:	e7c5      	b.n	c594 <__ledf2+0x38>
    c608:	4667      	mov	r7, ip
    c60a:	2002      	movs	r0, #2
    c60c:	4317      	orrs	r7, r2
    c60e:	d1d8      	bne.n	c5c2 <__ledf2+0x66>
    c610:	e7c3      	b.n	c59a <__ledf2+0x3e>
    c612:	42b1      	cmp	r1, r6
    c614:	dd04      	ble.n	c620 <__ledf2+0xc4>
    c616:	464a      	mov	r2, r9
    c618:	4250      	negs	r0, r2
    c61a:	2301      	movs	r3, #1
    c61c:	4318      	orrs	r0, r3
    c61e:	e7d0      	b.n	c5c2 <__ledf2+0x66>
    c620:	42b1      	cmp	r1, r6
    c622:	db07      	blt.n	c634 <__ledf2+0xd8>
    c624:	9800      	ldr	r0, [sp, #0]
    c626:	4560      	cmp	r0, ip
    c628:	d8e4      	bhi.n	c5f4 <__ledf2+0x98>
    c62a:	d00a      	beq.n	c642 <__ledf2+0xe6>
    c62c:	9f00      	ldr	r7, [sp, #0]
    c62e:	2000      	movs	r0, #0
    c630:	4567      	cmp	r7, ip
    c632:	d2c6      	bcs.n	c5c2 <__ledf2+0x66>
    c634:	464f      	mov	r7, r9
    c636:	4278      	negs	r0, r7
    c638:	4178      	adcs	r0, r7
    c63a:	4240      	negs	r0, r0
    c63c:	2301      	movs	r3, #1
    c63e:	4318      	orrs	r0, r3
    c640:	e7bf      	b.n	c5c2 <__ledf2+0x66>
    c642:	9a01      	ldr	r2, [sp, #4]
    c644:	4552      	cmp	r2, sl
    c646:	d8d5      	bhi.n	c5f4 <__ledf2+0x98>
    c648:	9a01      	ldr	r2, [sp, #4]
    c64a:	2000      	movs	r0, #0
    c64c:	4552      	cmp	r2, sl
    c64e:	d3f1      	bcc.n	c634 <__ledf2+0xd8>
    c650:	e7b7      	b.n	c5c2 <__ledf2+0x66>
    c652:	46c0      	nop			; (mov r8, r8)
    c654:	000007ff 	.word	0x000007ff

0000c658 <__aeabi_dmul>:
__aeabi_dmul():
    c658:	b5f0      	push	{r4, r5, r6, r7, lr}
    c65a:	4656      	mov	r6, sl
    c65c:	4644      	mov	r4, r8
    c65e:	465f      	mov	r7, fp
    c660:	464d      	mov	r5, r9
    c662:	b4f0      	push	{r4, r5, r6, r7}
    c664:	1c1f      	adds	r7, r3, #0
    c666:	030b      	lsls	r3, r1, #12
    c668:	0b1b      	lsrs	r3, r3, #12
    c66a:	469a      	mov	sl, r3
    c66c:	004b      	lsls	r3, r1, #1
    c66e:	b087      	sub	sp, #28
    c670:	1c04      	adds	r4, r0, #0
    c672:	4680      	mov	r8, r0
    c674:	0d5b      	lsrs	r3, r3, #21
    c676:	0fc8      	lsrs	r0, r1, #31
    c678:	1c16      	adds	r6, r2, #0
    c67a:	9302      	str	r3, [sp, #8]
    c67c:	4681      	mov	r9, r0
    c67e:	2b00      	cmp	r3, #0
    c680:	d068      	beq.n	c754 <__aeabi_dmul+0xfc>
    c682:	4b69      	ldr	r3, [pc, #420]	; (c828 <__aeabi_dmul+0x1d0>)
    c684:	9902      	ldr	r1, [sp, #8]
    c686:	4299      	cmp	r1, r3
    c688:	d032      	beq.n	c6f0 <__aeabi_dmul+0x98>
    c68a:	2280      	movs	r2, #128	; 0x80
    c68c:	4653      	mov	r3, sl
    c68e:	0352      	lsls	r2, r2, #13
    c690:	431a      	orrs	r2, r3
    c692:	00d2      	lsls	r2, r2, #3
    c694:	0f63      	lsrs	r3, r4, #29
    c696:	431a      	orrs	r2, r3
    c698:	4692      	mov	sl, r2
    c69a:	4a64      	ldr	r2, [pc, #400]	; (c82c <__aeabi_dmul+0x1d4>)
    c69c:	00e0      	lsls	r0, r4, #3
    c69e:	1889      	adds	r1, r1, r2
    c6a0:	4680      	mov	r8, r0
    c6a2:	9102      	str	r1, [sp, #8]
    c6a4:	2400      	movs	r4, #0
    c6a6:	2500      	movs	r5, #0
    c6a8:	033b      	lsls	r3, r7, #12
    c6aa:	0b1b      	lsrs	r3, r3, #12
    c6ac:	469b      	mov	fp, r3
    c6ae:	0078      	lsls	r0, r7, #1
    c6b0:	0ffb      	lsrs	r3, r7, #31
    c6b2:	1c32      	adds	r2, r6, #0
    c6b4:	0d40      	lsrs	r0, r0, #21
    c6b6:	9303      	str	r3, [sp, #12]
    c6b8:	d100      	bne.n	c6bc <__aeabi_dmul+0x64>
    c6ba:	e075      	b.n	c7a8 <__aeabi_dmul+0x150>
    c6bc:	4b5a      	ldr	r3, [pc, #360]	; (c828 <__aeabi_dmul+0x1d0>)
    c6be:	4298      	cmp	r0, r3
    c6c0:	d069      	beq.n	c796 <__aeabi_dmul+0x13e>
    c6c2:	2280      	movs	r2, #128	; 0x80
    c6c4:	4659      	mov	r1, fp
    c6c6:	0352      	lsls	r2, r2, #13
    c6c8:	430a      	orrs	r2, r1
    c6ca:	0f73      	lsrs	r3, r6, #29
    c6cc:	00d2      	lsls	r2, r2, #3
    c6ce:	431a      	orrs	r2, r3
    c6d0:	4b56      	ldr	r3, [pc, #344]	; (c82c <__aeabi_dmul+0x1d4>)
    c6d2:	4693      	mov	fp, r2
    c6d4:	18c0      	adds	r0, r0, r3
    c6d6:	00f2      	lsls	r2, r6, #3
    c6d8:	2300      	movs	r3, #0
    c6da:	9903      	ldr	r1, [sp, #12]
    c6dc:	464e      	mov	r6, r9
    c6de:	4071      	eors	r1, r6
    c6e0:	431c      	orrs	r4, r3
    c6e2:	2c0f      	cmp	r4, #15
    c6e4:	d900      	bls.n	c6e8 <__aeabi_dmul+0x90>
    c6e6:	e0a9      	b.n	c83c <__aeabi_dmul+0x1e4>
    c6e8:	4e51      	ldr	r6, [pc, #324]	; (c830 <__aeabi_dmul+0x1d8>)
    c6ea:	00a4      	lsls	r4, r4, #2
    c6ec:	5934      	ldr	r4, [r6, r4]
    c6ee:	46a7      	mov	pc, r4
    c6f0:	4653      	mov	r3, sl
    c6f2:	431c      	orrs	r4, r3
    c6f4:	d000      	beq.n	c6f8 <__aeabi_dmul+0xa0>
    c6f6:	e087      	b.n	c808 <__aeabi_dmul+0x1b0>
    c6f8:	2500      	movs	r5, #0
    c6fa:	46aa      	mov	sl, r5
    c6fc:	46a8      	mov	r8, r5
    c6fe:	2408      	movs	r4, #8
    c700:	2502      	movs	r5, #2
    c702:	e7d1      	b.n	c6a8 <__aeabi_dmul+0x50>
    c704:	4649      	mov	r1, r9
    c706:	2d02      	cmp	r5, #2
    c708:	d06c      	beq.n	c7e4 <__aeabi_dmul+0x18c>
    c70a:	2d03      	cmp	r5, #3
    c70c:	d100      	bne.n	c710 <__aeabi_dmul+0xb8>
    c70e:	e217      	b.n	cb40 <__aeabi_dmul+0x4e8>
    c710:	2d01      	cmp	r5, #1
    c712:	d000      	beq.n	c716 <__aeabi_dmul+0xbe>
    c714:	e158      	b.n	c9c8 <__aeabi_dmul+0x370>
    c716:	400d      	ands	r5, r1
    c718:	b2ed      	uxtb	r5, r5
    c71a:	2400      	movs	r4, #0
    c71c:	46a9      	mov	r9, r5
    c71e:	2300      	movs	r3, #0
    c720:	46a0      	mov	r8, r4
    c722:	2000      	movs	r0, #0
    c724:	2100      	movs	r1, #0
    c726:	0325      	lsls	r5, r4, #12
    c728:	0d0a      	lsrs	r2, r1, #20
    c72a:	051c      	lsls	r4, r3, #20
    c72c:	0b2d      	lsrs	r5, r5, #12
    c72e:	0512      	lsls	r2, r2, #20
    c730:	4b40      	ldr	r3, [pc, #256]	; (c834 <__aeabi_dmul+0x1dc>)
    c732:	432a      	orrs	r2, r5
    c734:	4013      	ands	r3, r2
    c736:	4323      	orrs	r3, r4
    c738:	005b      	lsls	r3, r3, #1
    c73a:	464c      	mov	r4, r9
    c73c:	085b      	lsrs	r3, r3, #1
    c73e:	07e2      	lsls	r2, r4, #31
    c740:	1c19      	adds	r1, r3, #0
    c742:	4640      	mov	r0, r8
    c744:	4311      	orrs	r1, r2
    c746:	b007      	add	sp, #28
    c748:	bc3c      	pop	{r2, r3, r4, r5}
    c74a:	4690      	mov	r8, r2
    c74c:	4699      	mov	r9, r3
    c74e:	46a2      	mov	sl, r4
    c750:	46ab      	mov	fp, r5
    c752:	bdf0      	pop	{r4, r5, r6, r7, pc}
    c754:	4653      	mov	r3, sl
    c756:	4323      	orrs	r3, r4
    c758:	d050      	beq.n	c7fc <__aeabi_dmul+0x1a4>
    c75a:	4653      	mov	r3, sl
    c75c:	2b00      	cmp	r3, #0
    c75e:	d100      	bne.n	c762 <__aeabi_dmul+0x10a>
    c760:	e184      	b.n	ca6c <__aeabi_dmul+0x414>
    c762:	4650      	mov	r0, sl
    c764:	f000 fdae 	bl	d2c4 <__clzsi2>
    c768:	1e03      	subs	r3, r0, #0
    c76a:	2b27      	cmp	r3, #39	; 0x27
    c76c:	dd00      	ble.n	c770 <__aeabi_dmul+0x118>
    c76e:	e176      	b.n	ca5e <__aeabi_dmul+0x406>
    c770:	2128      	movs	r1, #40	; 0x28
    c772:	1a0d      	subs	r5, r1, r0
    c774:	1c21      	adds	r1, r4, #0
    c776:	3b08      	subs	r3, #8
    c778:	4652      	mov	r2, sl
    c77a:	40e9      	lsrs	r1, r5
    c77c:	409a      	lsls	r2, r3
    c77e:	1c0d      	adds	r5, r1, #0
    c780:	4315      	orrs	r5, r2
    c782:	1c22      	adds	r2, r4, #0
    c784:	409a      	lsls	r2, r3
    c786:	46aa      	mov	sl, r5
    c788:	4690      	mov	r8, r2
    c78a:	4b2b      	ldr	r3, [pc, #172]	; (c838 <__aeabi_dmul+0x1e0>)
    c78c:	2400      	movs	r4, #0
    c78e:	1a1b      	subs	r3, r3, r0
    c790:	9302      	str	r3, [sp, #8]
    c792:	2500      	movs	r5, #0
    c794:	e788      	b.n	c6a8 <__aeabi_dmul+0x50>
    c796:	465b      	mov	r3, fp
    c798:	431e      	orrs	r6, r3
    c79a:	2303      	movs	r3, #3
    c79c:	2e00      	cmp	r6, #0
    c79e:	d19c      	bne.n	c6da <__aeabi_dmul+0x82>
    c7a0:	46b3      	mov	fp, r6
    c7a2:	2200      	movs	r2, #0
    c7a4:	2302      	movs	r3, #2
    c7a6:	e798      	b.n	c6da <__aeabi_dmul+0x82>
    c7a8:	465b      	mov	r3, fp
    c7aa:	4333      	orrs	r3, r6
    c7ac:	d021      	beq.n	c7f2 <__aeabi_dmul+0x19a>
    c7ae:	4658      	mov	r0, fp
    c7b0:	2800      	cmp	r0, #0
    c7b2:	d100      	bne.n	c7b6 <__aeabi_dmul+0x15e>
    c7b4:	e14e      	b.n	ca54 <__aeabi_dmul+0x3fc>
    c7b6:	f000 fd85 	bl	d2c4 <__clzsi2>
    c7ba:	2827      	cmp	r0, #39	; 0x27
    c7bc:	dd00      	ble.n	c7c0 <__aeabi_dmul+0x168>
    c7be:	e142      	b.n	ca46 <__aeabi_dmul+0x3ee>
    c7c0:	2128      	movs	r1, #40	; 0x28
    c7c2:	1a0f      	subs	r7, r1, r0
    c7c4:	1c02      	adds	r2, r0, #0
    c7c6:	1c31      	adds	r1, r6, #0
    c7c8:	3a08      	subs	r2, #8
    c7ca:	465b      	mov	r3, fp
    c7cc:	40f9      	lsrs	r1, r7
    c7ce:	4093      	lsls	r3, r2
    c7d0:	1c0f      	adds	r7, r1, #0
    c7d2:	431f      	orrs	r7, r3
    c7d4:	1c33      	adds	r3, r6, #0
    c7d6:	4093      	lsls	r3, r2
    c7d8:	46bb      	mov	fp, r7
    c7da:	1c1a      	adds	r2, r3, #0
    c7dc:	4b16      	ldr	r3, [pc, #88]	; (c838 <__aeabi_dmul+0x1e0>)
    c7de:	1a18      	subs	r0, r3, r0
    c7e0:	2300      	movs	r3, #0
    c7e2:	e77a      	b.n	c6da <__aeabi_dmul+0x82>
    c7e4:	2301      	movs	r3, #1
    c7e6:	400b      	ands	r3, r1
    c7e8:	2400      	movs	r4, #0
    c7ea:	4699      	mov	r9, r3
    c7ec:	46a0      	mov	r8, r4
    c7ee:	4b0e      	ldr	r3, [pc, #56]	; (c828 <__aeabi_dmul+0x1d0>)
    c7f0:	e797      	b.n	c722 <__aeabi_dmul+0xca>
    c7f2:	2700      	movs	r7, #0
    c7f4:	46bb      	mov	fp, r7
    c7f6:	2200      	movs	r2, #0
    c7f8:	2301      	movs	r3, #1
    c7fa:	e76e      	b.n	c6da <__aeabi_dmul+0x82>
    c7fc:	2100      	movs	r1, #0
    c7fe:	2404      	movs	r4, #4
    c800:	468a      	mov	sl, r1
    c802:	4688      	mov	r8, r1
    c804:	2501      	movs	r5, #1
    c806:	e74f      	b.n	c6a8 <__aeabi_dmul+0x50>
    c808:	240c      	movs	r4, #12
    c80a:	2503      	movs	r5, #3
    c80c:	e74c      	b.n	c6a8 <__aeabi_dmul+0x50>
    c80e:	2500      	movs	r5, #0
    c810:	2480      	movs	r4, #128	; 0x80
    c812:	46a9      	mov	r9, r5
    c814:	0324      	lsls	r4, r4, #12
    c816:	46a8      	mov	r8, r5
    c818:	4b03      	ldr	r3, [pc, #12]	; (c828 <__aeabi_dmul+0x1d0>)
    c81a:	e782      	b.n	c722 <__aeabi_dmul+0xca>
    c81c:	46da      	mov	sl, fp
    c81e:	4690      	mov	r8, r2
    c820:	9903      	ldr	r1, [sp, #12]
    c822:	1c1d      	adds	r5, r3, #0
    c824:	e76f      	b.n	c706 <__aeabi_dmul+0xae>
    c826:	46c0      	nop			; (mov r8, r8)
    c828:	000007ff 	.word	0x000007ff
    c82c:	fffffc01 	.word	0xfffffc01
    c830:	0000f960 	.word	0x0000f960
    c834:	800fffff 	.word	0x800fffff
    c838:	fffffc0d 	.word	0xfffffc0d
    c83c:	9f02      	ldr	r7, [sp, #8]
    c83e:	0c16      	lsrs	r6, r2, #16
    c840:	1838      	adds	r0, r7, r0
    c842:	9004      	str	r0, [sp, #16]
    c844:	4640      	mov	r0, r8
    c846:	0c07      	lsrs	r7, r0, #16
    c848:	0400      	lsls	r0, r0, #16
    c84a:	0c00      	lsrs	r0, r0, #16
    c84c:	0412      	lsls	r2, r2, #16
    c84e:	0c12      	lsrs	r2, r2, #16
    c850:	1c03      	adds	r3, r0, #0
    c852:	4353      	muls	r3, r2
    c854:	1c04      	adds	r4, r0, #0
    c856:	1c3d      	adds	r5, r7, #0
    c858:	4374      	muls	r4, r6
    c85a:	4355      	muls	r5, r2
    c85c:	4698      	mov	r8, r3
    c85e:	1c3b      	adds	r3, r7, #0
    c860:	4373      	muls	r3, r6
    c862:	1964      	adds	r4, r4, r5
    c864:	46a4      	mov	ip, r4
    c866:	4644      	mov	r4, r8
    c868:	9302      	str	r3, [sp, #8]
    c86a:	0c23      	lsrs	r3, r4, #16
    c86c:	4463      	add	r3, ip
    c86e:	429d      	cmp	r5, r3
    c870:	d904      	bls.n	c87c <__aeabi_dmul+0x224>
    c872:	9d02      	ldr	r5, [sp, #8]
    c874:	2480      	movs	r4, #128	; 0x80
    c876:	0264      	lsls	r4, r4, #9
    c878:	192d      	adds	r5, r5, r4
    c87a:	9502      	str	r5, [sp, #8]
    c87c:	0c1d      	lsrs	r5, r3, #16
    c87e:	9503      	str	r5, [sp, #12]
    c880:	4645      	mov	r5, r8
    c882:	042c      	lsls	r4, r5, #16
    c884:	041b      	lsls	r3, r3, #16
    c886:	0c24      	lsrs	r4, r4, #16
    c888:	191c      	adds	r4, r3, r4
    c88a:	9405      	str	r4, [sp, #20]
    c88c:	465c      	mov	r4, fp
    c88e:	0c23      	lsrs	r3, r4, #16
    c890:	1c05      	adds	r5, r0, #0
    c892:	4358      	muls	r0, r3
    c894:	0424      	lsls	r4, r4, #16
    c896:	0c24      	lsrs	r4, r4, #16
    c898:	4684      	mov	ip, r0
    c89a:	1c38      	adds	r0, r7, #0
    c89c:	4360      	muls	r0, r4
    c89e:	4365      	muls	r5, r4
    c8a0:	435f      	muls	r7, r3
    c8a2:	4681      	mov	r9, r0
    c8a4:	44cc      	add	ip, r9
    c8a6:	0c28      	lsrs	r0, r5, #16
    c8a8:	4460      	add	r0, ip
    c8aa:	46bb      	mov	fp, r7
    c8ac:	4581      	cmp	r9, r0
    c8ae:	d902      	bls.n	c8b6 <__aeabi_dmul+0x25e>
    c8b0:	2780      	movs	r7, #128	; 0x80
    c8b2:	027f      	lsls	r7, r7, #9
    c8b4:	44bb      	add	fp, r7
    c8b6:	042d      	lsls	r5, r5, #16
    c8b8:	0c07      	lsrs	r7, r0, #16
    c8ba:	0c2d      	lsrs	r5, r5, #16
    c8bc:	0400      	lsls	r0, r0, #16
    c8be:	1940      	adds	r0, r0, r5
    c8c0:	4655      	mov	r5, sl
    c8c2:	46bc      	mov	ip, r7
    c8c4:	042f      	lsls	r7, r5, #16
    c8c6:	44e3      	add	fp, ip
    c8c8:	4684      	mov	ip, r0
    c8ca:	0c28      	lsrs	r0, r5, #16
    c8cc:	0c3d      	lsrs	r5, r7, #16
    c8ce:	1c2f      	adds	r7, r5, #0
    c8d0:	4357      	muls	r7, r2
    c8d2:	46b8      	mov	r8, r7
    c8d4:	1c2f      	adds	r7, r5, #0
    c8d6:	4377      	muls	r7, r6
    c8d8:	4342      	muls	r2, r0
    c8da:	46b9      	mov	r9, r7
    c8dc:	4647      	mov	r7, r8
    c8de:	0c3f      	lsrs	r7, r7, #16
    c8e0:	4491      	add	r9, r2
    c8e2:	46ba      	mov	sl, r7
    c8e4:	44d1      	add	r9, sl
    c8e6:	4346      	muls	r6, r0
    c8e8:	454a      	cmp	r2, r9
    c8ea:	d902      	bls.n	c8f2 <__aeabi_dmul+0x29a>
    c8ec:	2280      	movs	r2, #128	; 0x80
    c8ee:	0252      	lsls	r2, r2, #9
    c8f0:	18b6      	adds	r6, r6, r2
    c8f2:	464f      	mov	r7, r9
    c8f4:	0c3a      	lsrs	r2, r7, #16
    c8f6:	18b6      	adds	r6, r6, r2
    c8f8:	043a      	lsls	r2, r7, #16
    c8fa:	4647      	mov	r7, r8
    c8fc:	043f      	lsls	r7, r7, #16
    c8fe:	0c3f      	lsrs	r7, r7, #16
    c900:	46b8      	mov	r8, r7
    c902:	1c2f      	adds	r7, r5, #0
    c904:	4367      	muls	r7, r4
    c906:	435d      	muls	r5, r3
    c908:	4344      	muls	r4, r0
    c90a:	4358      	muls	r0, r3
    c90c:	1965      	adds	r5, r4, r5
    c90e:	9001      	str	r0, [sp, #4]
    c910:	0c38      	lsrs	r0, r7, #16
    c912:	182d      	adds	r5, r5, r0
    c914:	4442      	add	r2, r8
    c916:	46b8      	mov	r8, r7
    c918:	42ac      	cmp	r4, r5
    c91a:	d904      	bls.n	c926 <__aeabi_dmul+0x2ce>
    c91c:	9801      	ldr	r0, [sp, #4]
    c91e:	2380      	movs	r3, #128	; 0x80
    c920:	025b      	lsls	r3, r3, #9
    c922:	18c0      	adds	r0, r0, r3
    c924:	9001      	str	r0, [sp, #4]
    c926:	9c03      	ldr	r4, [sp, #12]
    c928:	9f02      	ldr	r7, [sp, #8]
    c92a:	1c20      	adds	r0, r4, #0
    c92c:	4460      	add	r0, ip
    c92e:	19c0      	adds	r0, r0, r7
    c930:	4560      	cmp	r0, ip
    c932:	41a4      	sbcs	r4, r4
    c934:	4647      	mov	r7, r8
    c936:	4264      	negs	r4, r4
    c938:	46a4      	mov	ip, r4
    c93a:	042b      	lsls	r3, r5, #16
    c93c:	043c      	lsls	r4, r7, #16
    c93e:	4699      	mov	r9, r3
    c940:	0c24      	lsrs	r4, r4, #16
    c942:	444c      	add	r4, r9
    c944:	46a0      	mov	r8, r4
    c946:	44d8      	add	r8, fp
    c948:	1880      	adds	r0, r0, r2
    c94a:	46c2      	mov	sl, r8
    c94c:	44e2      	add	sl, ip
    c94e:	4290      	cmp	r0, r2
    c950:	4192      	sbcs	r2, r2
    c952:	4657      	mov	r7, sl
    c954:	4252      	negs	r2, r2
    c956:	4691      	mov	r9, r2
    c958:	19f2      	adds	r2, r6, r7
    c95a:	45e2      	cmp	sl, ip
    c95c:	41bf      	sbcs	r7, r7
    c95e:	427f      	negs	r7, r7
    c960:	464b      	mov	r3, r9
    c962:	46bc      	mov	ip, r7
    c964:	45d8      	cmp	r8, fp
    c966:	41bf      	sbcs	r7, r7
    c968:	18d4      	adds	r4, r2, r3
    c96a:	427f      	negs	r7, r7
    c96c:	4663      	mov	r3, ip
    c96e:	431f      	orrs	r7, r3
    c970:	0c2d      	lsrs	r5, r5, #16
    c972:	197f      	adds	r7, r7, r5
    c974:	42b2      	cmp	r2, r6
    c976:	4192      	sbcs	r2, r2
    c978:	454c      	cmp	r4, r9
    c97a:	41ad      	sbcs	r5, r5
    c97c:	4252      	negs	r2, r2
    c97e:	426d      	negs	r5, r5
    c980:	4315      	orrs	r5, r2
    c982:	9e01      	ldr	r6, [sp, #4]
    c984:	197d      	adds	r5, r7, r5
    c986:	19ab      	adds	r3, r5, r6
    c988:	0de2      	lsrs	r2, r4, #23
    c98a:	025b      	lsls	r3, r3, #9
    c98c:	9f05      	ldr	r7, [sp, #20]
    c98e:	4313      	orrs	r3, r2
    c990:	0242      	lsls	r2, r0, #9
    c992:	433a      	orrs	r2, r7
    c994:	469a      	mov	sl, r3
    c996:	1e53      	subs	r3, r2, #1
    c998:	419a      	sbcs	r2, r3
    c99a:	0dc3      	lsrs	r3, r0, #23
    c99c:	1c10      	adds	r0, r2, #0
    c99e:	4318      	orrs	r0, r3
    c9a0:	0264      	lsls	r4, r4, #9
    c9a2:	4320      	orrs	r0, r4
    c9a4:	4680      	mov	r8, r0
    c9a6:	4650      	mov	r0, sl
    c9a8:	01c0      	lsls	r0, r0, #7
    c9aa:	d50d      	bpl.n	c9c8 <__aeabi_dmul+0x370>
    c9ac:	4645      	mov	r5, r8
    c9ae:	2201      	movs	r2, #1
    c9b0:	4656      	mov	r6, sl
    c9b2:	9c04      	ldr	r4, [sp, #16]
    c9b4:	086b      	lsrs	r3, r5, #1
    c9b6:	402a      	ands	r2, r5
    c9b8:	431a      	orrs	r2, r3
    c9ba:	07f3      	lsls	r3, r6, #31
    c9bc:	3401      	adds	r4, #1
    c9be:	431a      	orrs	r2, r3
    c9c0:	0876      	lsrs	r6, r6, #1
    c9c2:	9404      	str	r4, [sp, #16]
    c9c4:	4690      	mov	r8, r2
    c9c6:	46b2      	mov	sl, r6
    c9c8:	9e04      	ldr	r6, [sp, #16]
    c9ca:	4f63      	ldr	r7, [pc, #396]	; (cb58 <__aeabi_dmul+0x500>)
    c9cc:	19f3      	adds	r3, r6, r7
    c9ce:	2b00      	cmp	r3, #0
    c9d0:	dd61      	ble.n	ca96 <__aeabi_dmul+0x43e>
    c9d2:	4640      	mov	r0, r8
    c9d4:	0740      	lsls	r0, r0, #29
    c9d6:	d00b      	beq.n	c9f0 <__aeabi_dmul+0x398>
    c9d8:	220f      	movs	r2, #15
    c9da:	4644      	mov	r4, r8
    c9dc:	4022      	ands	r2, r4
    c9de:	2a04      	cmp	r2, #4
    c9e0:	d006      	beq.n	c9f0 <__aeabi_dmul+0x398>
    c9e2:	4642      	mov	r2, r8
    c9e4:	3204      	adds	r2, #4
    c9e6:	4542      	cmp	r2, r8
    c9e8:	4180      	sbcs	r0, r0
    c9ea:	4240      	negs	r0, r0
    c9ec:	4482      	add	sl, r0
    c9ee:	4690      	mov	r8, r2
    c9f0:	4655      	mov	r5, sl
    c9f2:	01ed      	lsls	r5, r5, #7
    c9f4:	d507      	bpl.n	ca06 <__aeabi_dmul+0x3ae>
    c9f6:	4b59      	ldr	r3, [pc, #356]	; (cb5c <__aeabi_dmul+0x504>)
    c9f8:	4656      	mov	r6, sl
    c9fa:	9f04      	ldr	r7, [sp, #16]
    c9fc:	2080      	movs	r0, #128	; 0x80
    c9fe:	401e      	ands	r6, r3
    ca00:	00c0      	lsls	r0, r0, #3
    ca02:	46b2      	mov	sl, r6
    ca04:	183b      	adds	r3, r7, r0
    ca06:	4a56      	ldr	r2, [pc, #344]	; (cb60 <__aeabi_dmul+0x508>)
    ca08:	4293      	cmp	r3, r2
    ca0a:	dd00      	ble.n	ca0e <__aeabi_dmul+0x3b6>
    ca0c:	e6ea      	b.n	c7e4 <__aeabi_dmul+0x18c>
    ca0e:	4644      	mov	r4, r8
    ca10:	4655      	mov	r5, sl
    ca12:	08e2      	lsrs	r2, r4, #3
    ca14:	0768      	lsls	r0, r5, #29
    ca16:	4310      	orrs	r0, r2
    ca18:	2201      	movs	r2, #1
    ca1a:	026c      	lsls	r4, r5, #9
    ca1c:	055b      	lsls	r3, r3, #21
    ca1e:	400a      	ands	r2, r1
    ca20:	4680      	mov	r8, r0
    ca22:	0b24      	lsrs	r4, r4, #12
    ca24:	0d5b      	lsrs	r3, r3, #21
    ca26:	4691      	mov	r9, r2
    ca28:	e67b      	b.n	c722 <__aeabi_dmul+0xca>
    ca2a:	46da      	mov	sl, fp
    ca2c:	4690      	mov	r8, r2
    ca2e:	1c1d      	adds	r5, r3, #0
    ca30:	e669      	b.n	c706 <__aeabi_dmul+0xae>
    ca32:	2480      	movs	r4, #128	; 0x80
    ca34:	0324      	lsls	r4, r4, #12
    ca36:	4657      	mov	r7, sl
    ca38:	4227      	tst	r7, r4
    ca3a:	d11c      	bne.n	ca76 <__aeabi_dmul+0x41e>
    ca3c:	433c      	orrs	r4, r7
    ca3e:	0324      	lsls	r4, r4, #12
    ca40:	0b24      	lsrs	r4, r4, #12
    ca42:	4b48      	ldr	r3, [pc, #288]	; (cb64 <__aeabi_dmul+0x50c>)
    ca44:	e66d      	b.n	c722 <__aeabi_dmul+0xca>
    ca46:	1c03      	adds	r3, r0, #0
    ca48:	3b28      	subs	r3, #40	; 0x28
    ca4a:	1c31      	adds	r1, r6, #0
    ca4c:	4099      	lsls	r1, r3
    ca4e:	468b      	mov	fp, r1
    ca50:	2200      	movs	r2, #0
    ca52:	e6c3      	b.n	c7dc <__aeabi_dmul+0x184>
    ca54:	1c30      	adds	r0, r6, #0
    ca56:	f000 fc35 	bl	d2c4 <__clzsi2>
    ca5a:	3020      	adds	r0, #32
    ca5c:	e6ad      	b.n	c7ba <__aeabi_dmul+0x162>
    ca5e:	3b28      	subs	r3, #40	; 0x28
    ca60:	1c21      	adds	r1, r4, #0
    ca62:	4099      	lsls	r1, r3
    ca64:	2200      	movs	r2, #0
    ca66:	468a      	mov	sl, r1
    ca68:	4690      	mov	r8, r2
    ca6a:	e68e      	b.n	c78a <__aeabi_dmul+0x132>
    ca6c:	1c20      	adds	r0, r4, #0
    ca6e:	f000 fc29 	bl	d2c4 <__clzsi2>
    ca72:	3020      	adds	r0, #32
    ca74:	e678      	b.n	c768 <__aeabi_dmul+0x110>
    ca76:	4658      	mov	r0, fp
    ca78:	4220      	tst	r0, r4
    ca7a:	d107      	bne.n	ca8c <__aeabi_dmul+0x434>
    ca7c:	4304      	orrs	r4, r0
    ca7e:	9903      	ldr	r1, [sp, #12]
    ca80:	0324      	lsls	r4, r4, #12
    ca82:	0b24      	lsrs	r4, r4, #12
    ca84:	4689      	mov	r9, r1
    ca86:	4690      	mov	r8, r2
    ca88:	4b36      	ldr	r3, [pc, #216]	; (cb64 <__aeabi_dmul+0x50c>)
    ca8a:	e64a      	b.n	c722 <__aeabi_dmul+0xca>
    ca8c:	433c      	orrs	r4, r7
    ca8e:	0324      	lsls	r4, r4, #12
    ca90:	0b24      	lsrs	r4, r4, #12
    ca92:	4b34      	ldr	r3, [pc, #208]	; (cb64 <__aeabi_dmul+0x50c>)
    ca94:	e645      	b.n	c722 <__aeabi_dmul+0xca>
    ca96:	4b34      	ldr	r3, [pc, #208]	; (cb68 <__aeabi_dmul+0x510>)
    ca98:	9e04      	ldr	r6, [sp, #16]
    ca9a:	1b9b      	subs	r3, r3, r6
    ca9c:	2b38      	cmp	r3, #56	; 0x38
    ca9e:	dd06      	ble.n	caae <__aeabi_dmul+0x456>
    caa0:	2301      	movs	r3, #1
    caa2:	400b      	ands	r3, r1
    caa4:	2400      	movs	r4, #0
    caa6:	4699      	mov	r9, r3
    caa8:	46a0      	mov	r8, r4
    caaa:	2300      	movs	r3, #0
    caac:	e639      	b.n	c722 <__aeabi_dmul+0xca>
    caae:	2b1f      	cmp	r3, #31
    cab0:	dc25      	bgt.n	cafe <__aeabi_dmul+0x4a6>
    cab2:	9c04      	ldr	r4, [sp, #16]
    cab4:	4d2d      	ldr	r5, [pc, #180]	; (cb6c <__aeabi_dmul+0x514>)
    cab6:	4646      	mov	r6, r8
    cab8:	1960      	adds	r0, r4, r5
    caba:	4652      	mov	r2, sl
    cabc:	4644      	mov	r4, r8
    cabe:	4086      	lsls	r6, r0
    cac0:	40dc      	lsrs	r4, r3
    cac2:	4082      	lsls	r2, r0
    cac4:	4657      	mov	r7, sl
    cac6:	1c30      	adds	r0, r6, #0
    cac8:	4322      	orrs	r2, r4
    caca:	40df      	lsrs	r7, r3
    cacc:	1e44      	subs	r4, r0, #1
    cace:	41a0      	sbcs	r0, r4
    cad0:	4302      	orrs	r2, r0
    cad2:	1c3b      	adds	r3, r7, #0
    cad4:	0754      	lsls	r4, r2, #29
    cad6:	d009      	beq.n	caec <__aeabi_dmul+0x494>
    cad8:	200f      	movs	r0, #15
    cada:	4010      	ands	r0, r2
    cadc:	2804      	cmp	r0, #4
    cade:	d005      	beq.n	caec <__aeabi_dmul+0x494>
    cae0:	1d10      	adds	r0, r2, #4
    cae2:	4290      	cmp	r0, r2
    cae4:	4192      	sbcs	r2, r2
    cae6:	4252      	negs	r2, r2
    cae8:	189b      	adds	r3, r3, r2
    caea:	1c02      	adds	r2, r0, #0
    caec:	021d      	lsls	r5, r3, #8
    caee:	d51a      	bpl.n	cb26 <__aeabi_dmul+0x4ce>
    caf0:	2301      	movs	r3, #1
    caf2:	400b      	ands	r3, r1
    caf4:	2400      	movs	r4, #0
    caf6:	4699      	mov	r9, r3
    caf8:	46a0      	mov	r8, r4
    cafa:	2301      	movs	r3, #1
    cafc:	e611      	b.n	c722 <__aeabi_dmul+0xca>
    cafe:	481c      	ldr	r0, [pc, #112]	; (cb70 <__aeabi_dmul+0x518>)
    cb00:	9c04      	ldr	r4, [sp, #16]
    cb02:	4655      	mov	r5, sl
    cb04:	1b00      	subs	r0, r0, r4
    cb06:	40c5      	lsrs	r5, r0
    cb08:	1c28      	adds	r0, r5, #0
    cb0a:	2b20      	cmp	r3, #32
    cb0c:	d016      	beq.n	cb3c <__aeabi_dmul+0x4e4>
    cb0e:	4e19      	ldr	r6, [pc, #100]	; (cb74 <__aeabi_dmul+0x51c>)
    cb10:	4657      	mov	r7, sl
    cb12:	19a2      	adds	r2, r4, r6
    cb14:	4097      	lsls	r7, r2
    cb16:	1c3a      	adds	r2, r7, #0
    cb18:	4643      	mov	r3, r8
    cb1a:	431a      	orrs	r2, r3
    cb1c:	1e53      	subs	r3, r2, #1
    cb1e:	419a      	sbcs	r2, r3
    cb20:	4302      	orrs	r2, r0
    cb22:	2300      	movs	r3, #0
    cb24:	e7d6      	b.n	cad4 <__aeabi_dmul+0x47c>
    cb26:	0758      	lsls	r0, r3, #29
    cb28:	025b      	lsls	r3, r3, #9
    cb2a:	08d2      	lsrs	r2, r2, #3
    cb2c:	0b1c      	lsrs	r4, r3, #12
    cb2e:	2301      	movs	r3, #1
    cb30:	400b      	ands	r3, r1
    cb32:	4310      	orrs	r0, r2
    cb34:	4699      	mov	r9, r3
    cb36:	4680      	mov	r8, r0
    cb38:	2300      	movs	r3, #0
    cb3a:	e5f2      	b.n	c722 <__aeabi_dmul+0xca>
    cb3c:	2200      	movs	r2, #0
    cb3e:	e7eb      	b.n	cb18 <__aeabi_dmul+0x4c0>
    cb40:	2480      	movs	r4, #128	; 0x80
    cb42:	0324      	lsls	r4, r4, #12
    cb44:	4650      	mov	r0, sl
    cb46:	2301      	movs	r3, #1
    cb48:	4304      	orrs	r4, r0
    cb4a:	4019      	ands	r1, r3
    cb4c:	0324      	lsls	r4, r4, #12
    cb4e:	0b24      	lsrs	r4, r4, #12
    cb50:	4689      	mov	r9, r1
    cb52:	4b04      	ldr	r3, [pc, #16]	; (cb64 <__aeabi_dmul+0x50c>)
    cb54:	e5e5      	b.n	c722 <__aeabi_dmul+0xca>
    cb56:	46c0      	nop			; (mov r8, r8)
    cb58:	000003ff 	.word	0x000003ff
    cb5c:	feffffff 	.word	0xfeffffff
    cb60:	000007fe 	.word	0x000007fe
    cb64:	000007ff 	.word	0x000007ff
    cb68:	fffffc02 	.word	0xfffffc02
    cb6c:	0000041e 	.word	0x0000041e
    cb70:	fffffbe2 	.word	0xfffffbe2
    cb74:	0000043e 	.word	0x0000043e

0000cb78 <__aeabi_dsub>:
__aeabi_dsub():
    cb78:	b5f8      	push	{r3, r4, r5, r6, r7, lr}
    cb7a:	465f      	mov	r7, fp
    cb7c:	4656      	mov	r6, sl
    cb7e:	4644      	mov	r4, r8
    cb80:	464d      	mov	r5, r9
    cb82:	b4f0      	push	{r4, r5, r6, r7}
    cb84:	030c      	lsls	r4, r1, #12
    cb86:	004d      	lsls	r5, r1, #1
    cb88:	0fcf      	lsrs	r7, r1, #31
    cb8a:	0a61      	lsrs	r1, r4, #9
    cb8c:	0f44      	lsrs	r4, r0, #29
    cb8e:	4321      	orrs	r1, r4
    cb90:	00c4      	lsls	r4, r0, #3
    cb92:	0318      	lsls	r0, r3, #12
    cb94:	0fde      	lsrs	r6, r3, #31
    cb96:	4680      	mov	r8, r0
    cb98:	46b4      	mov	ip, r6
    cb9a:	4646      	mov	r6, r8
    cb9c:	0058      	lsls	r0, r3, #1
    cb9e:	0a76      	lsrs	r6, r6, #9
    cba0:	0f53      	lsrs	r3, r2, #29
    cba2:	4333      	orrs	r3, r6
    cba4:	00d6      	lsls	r6, r2, #3
    cba6:	4ad1      	ldr	r2, [pc, #836]	; (ceec <__aeabi_dsub+0x374>)
    cba8:	0d6d      	lsrs	r5, r5, #21
    cbaa:	46ba      	mov	sl, r7
    cbac:	0d40      	lsrs	r0, r0, #21
    cbae:	46b3      	mov	fp, r6
    cbb0:	4290      	cmp	r0, r2
    cbb2:	d100      	bne.n	cbb6 <__aeabi_dsub+0x3e>
    cbb4:	e0f5      	b.n	cda2 <__aeabi_dsub+0x22a>
    cbb6:	4662      	mov	r2, ip
    cbb8:	2601      	movs	r6, #1
    cbba:	4072      	eors	r2, r6
    cbbc:	4694      	mov	ip, r2
    cbbe:	4567      	cmp	r7, ip
    cbc0:	d100      	bne.n	cbc4 <__aeabi_dsub+0x4c>
    cbc2:	e0ab      	b.n	cd1c <__aeabi_dsub+0x1a4>
    cbc4:	1a2f      	subs	r7, r5, r0
    cbc6:	2f00      	cmp	r7, #0
    cbc8:	dc00      	bgt.n	cbcc <__aeabi_dsub+0x54>
    cbca:	e111      	b.n	cdf0 <__aeabi_dsub+0x278>
    cbcc:	2800      	cmp	r0, #0
    cbce:	d13e      	bne.n	cc4e <__aeabi_dsub+0xd6>
    cbd0:	4658      	mov	r0, fp
    cbd2:	4318      	orrs	r0, r3
    cbd4:	d000      	beq.n	cbd8 <__aeabi_dsub+0x60>
    cbd6:	e0f1      	b.n	cdbc <__aeabi_dsub+0x244>
    cbd8:	0760      	lsls	r0, r4, #29
    cbda:	d100      	bne.n	cbde <__aeabi_dsub+0x66>
    cbdc:	e097      	b.n	cd0e <__aeabi_dsub+0x196>
    cbde:	230f      	movs	r3, #15
    cbe0:	4023      	ands	r3, r4
    cbe2:	2b04      	cmp	r3, #4
    cbe4:	d100      	bne.n	cbe8 <__aeabi_dsub+0x70>
    cbe6:	e122      	b.n	ce2e <__aeabi_dsub+0x2b6>
    cbe8:	1d22      	adds	r2, r4, #4
    cbea:	42a2      	cmp	r2, r4
    cbec:	41a4      	sbcs	r4, r4
    cbee:	4264      	negs	r4, r4
    cbf0:	2380      	movs	r3, #128	; 0x80
    cbf2:	1909      	adds	r1, r1, r4
    cbf4:	041b      	lsls	r3, r3, #16
    cbf6:	2701      	movs	r7, #1
    cbf8:	4650      	mov	r0, sl
    cbfa:	400b      	ands	r3, r1
    cbfc:	4007      	ands	r7, r0
    cbfe:	1c14      	adds	r4, r2, #0
    cc00:	2b00      	cmp	r3, #0
    cc02:	d100      	bne.n	cc06 <__aeabi_dsub+0x8e>
    cc04:	e079      	b.n	ccfa <__aeabi_dsub+0x182>
    cc06:	4bb9      	ldr	r3, [pc, #740]	; (ceec <__aeabi_dsub+0x374>)
    cc08:	3501      	adds	r5, #1
    cc0a:	429d      	cmp	r5, r3
    cc0c:	d100      	bne.n	cc10 <__aeabi_dsub+0x98>
    cc0e:	e10b      	b.n	ce28 <__aeabi_dsub+0x2b0>
    cc10:	4bb7      	ldr	r3, [pc, #732]	; (cef0 <__aeabi_dsub+0x378>)
    cc12:	08e4      	lsrs	r4, r4, #3
    cc14:	4019      	ands	r1, r3
    cc16:	0748      	lsls	r0, r1, #29
    cc18:	0249      	lsls	r1, r1, #9
    cc1a:	4304      	orrs	r4, r0
    cc1c:	0b0b      	lsrs	r3, r1, #12
    cc1e:	2000      	movs	r0, #0
    cc20:	2100      	movs	r1, #0
    cc22:	031b      	lsls	r3, r3, #12
    cc24:	0b1a      	lsrs	r2, r3, #12
    cc26:	0d0b      	lsrs	r3, r1, #20
    cc28:	056d      	lsls	r5, r5, #21
    cc2a:	051b      	lsls	r3, r3, #20
    cc2c:	4313      	orrs	r3, r2
    cc2e:	086a      	lsrs	r2, r5, #1
    cc30:	4db0      	ldr	r5, [pc, #704]	; (cef4 <__aeabi_dsub+0x37c>)
    cc32:	07ff      	lsls	r7, r7, #31
    cc34:	401d      	ands	r5, r3
    cc36:	4315      	orrs	r5, r2
    cc38:	006d      	lsls	r5, r5, #1
    cc3a:	086d      	lsrs	r5, r5, #1
    cc3c:	1c29      	adds	r1, r5, #0
    cc3e:	4339      	orrs	r1, r7
    cc40:	1c20      	adds	r0, r4, #0
    cc42:	bc3c      	pop	{r2, r3, r4, r5}
    cc44:	4690      	mov	r8, r2
    cc46:	4699      	mov	r9, r3
    cc48:	46a2      	mov	sl, r4
    cc4a:	46ab      	mov	fp, r5
    cc4c:	bdf8      	pop	{r3, r4, r5, r6, r7, pc}
    cc4e:	48a7      	ldr	r0, [pc, #668]	; (ceec <__aeabi_dsub+0x374>)
    cc50:	4285      	cmp	r5, r0
    cc52:	d0c1      	beq.n	cbd8 <__aeabi_dsub+0x60>
    cc54:	2080      	movs	r0, #128	; 0x80
    cc56:	0400      	lsls	r0, r0, #16
    cc58:	4303      	orrs	r3, r0
    cc5a:	2f38      	cmp	r7, #56	; 0x38
    cc5c:	dd00      	ble.n	cc60 <__aeabi_dsub+0xe8>
    cc5e:	e0fd      	b.n	ce5c <__aeabi_dsub+0x2e4>
    cc60:	2f1f      	cmp	r7, #31
    cc62:	dd00      	ble.n	cc66 <__aeabi_dsub+0xee>
    cc64:	e131      	b.n	ceca <__aeabi_dsub+0x352>
    cc66:	2020      	movs	r0, #32
    cc68:	1bc0      	subs	r0, r0, r7
    cc6a:	1c1a      	adds	r2, r3, #0
    cc6c:	465e      	mov	r6, fp
    cc6e:	4082      	lsls	r2, r0
    cc70:	40fe      	lsrs	r6, r7
    cc72:	4332      	orrs	r2, r6
    cc74:	4694      	mov	ip, r2
    cc76:	465a      	mov	r2, fp
    cc78:	4082      	lsls	r2, r0
    cc7a:	1c10      	adds	r0, r2, #0
    cc7c:	1e42      	subs	r2, r0, #1
    cc7e:	4190      	sbcs	r0, r2
    cc80:	40fb      	lsrs	r3, r7
    cc82:	4662      	mov	r2, ip
    cc84:	4302      	orrs	r2, r0
    cc86:	1c1f      	adds	r7, r3, #0
    cc88:	1aa2      	subs	r2, r4, r2
    cc8a:	4294      	cmp	r4, r2
    cc8c:	41a4      	sbcs	r4, r4
    cc8e:	4264      	negs	r4, r4
    cc90:	1bc9      	subs	r1, r1, r7
    cc92:	1b09      	subs	r1, r1, r4
    cc94:	1c14      	adds	r4, r2, #0
    cc96:	020a      	lsls	r2, r1, #8
    cc98:	d59e      	bpl.n	cbd8 <__aeabi_dsub+0x60>
    cc9a:	0249      	lsls	r1, r1, #9
    cc9c:	0a4f      	lsrs	r7, r1, #9
    cc9e:	2f00      	cmp	r7, #0
    cca0:	d100      	bne.n	cca4 <__aeabi_dsub+0x12c>
    cca2:	e0d6      	b.n	ce52 <__aeabi_dsub+0x2da>
    cca4:	1c38      	adds	r0, r7, #0
    cca6:	f000 fb0d 	bl	d2c4 <__clzsi2>
    ccaa:	1c02      	adds	r2, r0, #0
    ccac:	3a08      	subs	r2, #8
    ccae:	2a1f      	cmp	r2, #31
    ccb0:	dd00      	ble.n	ccb4 <__aeabi_dsub+0x13c>
    ccb2:	e0c3      	b.n	ce3c <__aeabi_dsub+0x2c4>
    ccb4:	2128      	movs	r1, #40	; 0x28
    ccb6:	1c23      	adds	r3, r4, #0
    ccb8:	1a09      	subs	r1, r1, r0
    ccba:	4097      	lsls	r7, r2
    ccbc:	40cb      	lsrs	r3, r1
    ccbe:	431f      	orrs	r7, r3
    ccc0:	4094      	lsls	r4, r2
    ccc2:	4295      	cmp	r5, r2
    ccc4:	dd00      	ble.n	ccc8 <__aeabi_dsub+0x150>
    ccc6:	e0c0      	b.n	ce4a <__aeabi_dsub+0x2d2>
    ccc8:	1b55      	subs	r5, r2, r5
    ccca:	1c69      	adds	r1, r5, #1
    cccc:	291f      	cmp	r1, #31
    ccce:	dd00      	ble.n	ccd2 <__aeabi_dsub+0x15a>
    ccd0:	e0ea      	b.n	cea8 <__aeabi_dsub+0x330>
    ccd2:	221f      	movs	r2, #31
    ccd4:	1b55      	subs	r5, r2, r5
    ccd6:	1c3b      	adds	r3, r7, #0
    ccd8:	1c22      	adds	r2, r4, #0
    ccda:	40ab      	lsls	r3, r5
    ccdc:	40ca      	lsrs	r2, r1
    ccde:	40ac      	lsls	r4, r5
    cce0:	1e65      	subs	r5, r4, #1
    cce2:	41ac      	sbcs	r4, r5
    cce4:	4313      	orrs	r3, r2
    cce6:	40cf      	lsrs	r7, r1
    cce8:	431c      	orrs	r4, r3
    ccea:	1c39      	adds	r1, r7, #0
    ccec:	2500      	movs	r5, #0
    ccee:	e773      	b.n	cbd8 <__aeabi_dsub+0x60>
    ccf0:	2180      	movs	r1, #128	; 0x80
    ccf2:	4d7e      	ldr	r5, [pc, #504]	; (ceec <__aeabi_dsub+0x374>)
    ccf4:	2700      	movs	r7, #0
    ccf6:	03c9      	lsls	r1, r1, #15
    ccf8:	2400      	movs	r4, #0
    ccfa:	4b7c      	ldr	r3, [pc, #496]	; (ceec <__aeabi_dsub+0x374>)
    ccfc:	0748      	lsls	r0, r1, #29
    ccfe:	08e4      	lsrs	r4, r4, #3
    cd00:	4304      	orrs	r4, r0
    cd02:	08c9      	lsrs	r1, r1, #3
    cd04:	429d      	cmp	r5, r3
    cd06:	d050      	beq.n	cdaa <__aeabi_dsub+0x232>
    cd08:	0309      	lsls	r1, r1, #12
    cd0a:	0b0b      	lsrs	r3, r1, #12
    cd0c:	e787      	b.n	cc1e <__aeabi_dsub+0xa6>
    cd0e:	2380      	movs	r3, #128	; 0x80
    cd10:	041b      	lsls	r3, r3, #16
    cd12:	2701      	movs	r7, #1
    cd14:	4652      	mov	r2, sl
    cd16:	400b      	ands	r3, r1
    cd18:	4017      	ands	r7, r2
    cd1a:	e771      	b.n	cc00 <__aeabi_dsub+0x88>
    cd1c:	1a2a      	subs	r2, r5, r0
    cd1e:	4694      	mov	ip, r2
    cd20:	2a00      	cmp	r2, #0
    cd22:	dc00      	bgt.n	cd26 <__aeabi_dsub+0x1ae>
    cd24:	e0a1      	b.n	ce6a <__aeabi_dsub+0x2f2>
    cd26:	2800      	cmp	r0, #0
    cd28:	d054      	beq.n	cdd4 <__aeabi_dsub+0x25c>
    cd2a:	4870      	ldr	r0, [pc, #448]	; (ceec <__aeabi_dsub+0x374>)
    cd2c:	4285      	cmp	r5, r0
    cd2e:	d100      	bne.n	cd32 <__aeabi_dsub+0x1ba>
    cd30:	e752      	b.n	cbd8 <__aeabi_dsub+0x60>
    cd32:	2080      	movs	r0, #128	; 0x80
    cd34:	0400      	lsls	r0, r0, #16
    cd36:	4303      	orrs	r3, r0
    cd38:	4660      	mov	r0, ip
    cd3a:	2838      	cmp	r0, #56	; 0x38
    cd3c:	dd00      	ble.n	cd40 <__aeabi_dsub+0x1c8>
    cd3e:	e10e      	b.n	cf5e <__aeabi_dsub+0x3e6>
    cd40:	281f      	cmp	r0, #31
    cd42:	dd00      	ble.n	cd46 <__aeabi_dsub+0x1ce>
    cd44:	e157      	b.n	cff6 <__aeabi_dsub+0x47e>
    cd46:	4662      	mov	r2, ip
    cd48:	2020      	movs	r0, #32
    cd4a:	1a80      	subs	r0, r0, r2
    cd4c:	1c1e      	adds	r6, r3, #0
    cd4e:	4086      	lsls	r6, r0
    cd50:	46b1      	mov	r9, r6
    cd52:	465e      	mov	r6, fp
    cd54:	40d6      	lsrs	r6, r2
    cd56:	464a      	mov	r2, r9
    cd58:	4332      	orrs	r2, r6
    cd5a:	465e      	mov	r6, fp
    cd5c:	4086      	lsls	r6, r0
    cd5e:	4690      	mov	r8, r2
    cd60:	1c30      	adds	r0, r6, #0
    cd62:	1e42      	subs	r2, r0, #1
    cd64:	4190      	sbcs	r0, r2
    cd66:	4642      	mov	r2, r8
    cd68:	4302      	orrs	r2, r0
    cd6a:	4660      	mov	r0, ip
    cd6c:	40c3      	lsrs	r3, r0
    cd6e:	1912      	adds	r2, r2, r4
    cd70:	42a2      	cmp	r2, r4
    cd72:	41a4      	sbcs	r4, r4
    cd74:	4264      	negs	r4, r4
    cd76:	1859      	adds	r1, r3, r1
    cd78:	1909      	adds	r1, r1, r4
    cd7a:	1c14      	adds	r4, r2, #0
    cd7c:	0208      	lsls	r0, r1, #8
    cd7e:	d400      	bmi.n	cd82 <__aeabi_dsub+0x20a>
    cd80:	e72a      	b.n	cbd8 <__aeabi_dsub+0x60>
    cd82:	4b5a      	ldr	r3, [pc, #360]	; (ceec <__aeabi_dsub+0x374>)
    cd84:	3501      	adds	r5, #1
    cd86:	429d      	cmp	r5, r3
    cd88:	d100      	bne.n	cd8c <__aeabi_dsub+0x214>
    cd8a:	e131      	b.n	cff0 <__aeabi_dsub+0x478>
    cd8c:	4b58      	ldr	r3, [pc, #352]	; (cef0 <__aeabi_dsub+0x378>)
    cd8e:	0860      	lsrs	r0, r4, #1
    cd90:	4019      	ands	r1, r3
    cd92:	2301      	movs	r3, #1
    cd94:	4023      	ands	r3, r4
    cd96:	1c1c      	adds	r4, r3, #0
    cd98:	4304      	orrs	r4, r0
    cd9a:	07cb      	lsls	r3, r1, #31
    cd9c:	431c      	orrs	r4, r3
    cd9e:	0849      	lsrs	r1, r1, #1
    cda0:	e71a      	b.n	cbd8 <__aeabi_dsub+0x60>
    cda2:	431e      	orrs	r6, r3
    cda4:	d000      	beq.n	cda8 <__aeabi_dsub+0x230>
    cda6:	e70a      	b.n	cbbe <__aeabi_dsub+0x46>
    cda8:	e705      	b.n	cbb6 <__aeabi_dsub+0x3e>
    cdaa:	1c23      	adds	r3, r4, #0
    cdac:	430b      	orrs	r3, r1
    cdae:	d03b      	beq.n	ce28 <__aeabi_dsub+0x2b0>
    cdb0:	2380      	movs	r3, #128	; 0x80
    cdb2:	031b      	lsls	r3, r3, #12
    cdb4:	430b      	orrs	r3, r1
    cdb6:	031b      	lsls	r3, r3, #12
    cdb8:	0b1b      	lsrs	r3, r3, #12
    cdba:	e730      	b.n	cc1e <__aeabi_dsub+0xa6>
    cdbc:	3f01      	subs	r7, #1
    cdbe:	2f00      	cmp	r7, #0
    cdc0:	d16d      	bne.n	ce9e <__aeabi_dsub+0x326>
    cdc2:	465e      	mov	r6, fp
    cdc4:	1ba2      	subs	r2, r4, r6
    cdc6:	4294      	cmp	r4, r2
    cdc8:	41a4      	sbcs	r4, r4
    cdca:	4264      	negs	r4, r4
    cdcc:	1ac9      	subs	r1, r1, r3
    cdce:	1b09      	subs	r1, r1, r4
    cdd0:	1c14      	adds	r4, r2, #0
    cdd2:	e760      	b.n	cc96 <__aeabi_dsub+0x11e>
    cdd4:	4658      	mov	r0, fp
    cdd6:	4318      	orrs	r0, r3
    cdd8:	d100      	bne.n	cddc <__aeabi_dsub+0x264>
    cdda:	e6fd      	b.n	cbd8 <__aeabi_dsub+0x60>
    cddc:	2601      	movs	r6, #1
    cdde:	4276      	negs	r6, r6
    cde0:	44b4      	add	ip, r6
    cde2:	4660      	mov	r0, ip
    cde4:	2800      	cmp	r0, #0
    cde6:	d000      	beq.n	cdea <__aeabi_dsub+0x272>
    cde8:	e0d0      	b.n	cf8c <__aeabi_dsub+0x414>
    cdea:	465e      	mov	r6, fp
    cdec:	1932      	adds	r2, r6, r4
    cdee:	e7bf      	b.n	cd70 <__aeabi_dsub+0x1f8>
    cdf0:	2f00      	cmp	r7, #0
    cdf2:	d000      	beq.n	cdf6 <__aeabi_dsub+0x27e>
    cdf4:	e080      	b.n	cef8 <__aeabi_dsub+0x380>
    cdf6:	1c68      	adds	r0, r5, #1
    cdf8:	0540      	lsls	r0, r0, #21
    cdfa:	0d40      	lsrs	r0, r0, #21
    cdfc:	2801      	cmp	r0, #1
    cdfe:	dc00      	bgt.n	ce02 <__aeabi_dsub+0x28a>
    ce00:	e0e8      	b.n	cfd4 <__aeabi_dsub+0x45c>
    ce02:	465a      	mov	r2, fp
    ce04:	1aa2      	subs	r2, r4, r2
    ce06:	4294      	cmp	r4, r2
    ce08:	41bf      	sbcs	r7, r7
    ce0a:	1ac8      	subs	r0, r1, r3
    ce0c:	427f      	negs	r7, r7
    ce0e:	1bc7      	subs	r7, r0, r7
    ce10:	023e      	lsls	r6, r7, #8
    ce12:	d400      	bmi.n	ce16 <__aeabi_dsub+0x29e>
    ce14:	e098      	b.n	cf48 <__aeabi_dsub+0x3d0>
    ce16:	4658      	mov	r0, fp
    ce18:	1b04      	subs	r4, r0, r4
    ce1a:	45a3      	cmp	fp, r4
    ce1c:	4192      	sbcs	r2, r2
    ce1e:	1a59      	subs	r1, r3, r1
    ce20:	4252      	negs	r2, r2
    ce22:	1a8f      	subs	r7, r1, r2
    ce24:	46e2      	mov	sl, ip
    ce26:	e73a      	b.n	cc9e <__aeabi_dsub+0x126>
    ce28:	2300      	movs	r3, #0
    ce2a:	2400      	movs	r4, #0
    ce2c:	e6f7      	b.n	cc1e <__aeabi_dsub+0xa6>
    ce2e:	2380      	movs	r3, #128	; 0x80
    ce30:	041b      	lsls	r3, r3, #16
    ce32:	2701      	movs	r7, #1
    ce34:	4656      	mov	r6, sl
    ce36:	400b      	ands	r3, r1
    ce38:	4037      	ands	r7, r6
    ce3a:	e6e1      	b.n	cc00 <__aeabi_dsub+0x88>
    ce3c:	1c27      	adds	r7, r4, #0
    ce3e:	3828      	subs	r0, #40	; 0x28
    ce40:	4087      	lsls	r7, r0
    ce42:	2400      	movs	r4, #0
    ce44:	4295      	cmp	r5, r2
    ce46:	dc00      	bgt.n	ce4a <__aeabi_dsub+0x2d2>
    ce48:	e73e      	b.n	ccc8 <__aeabi_dsub+0x150>
    ce4a:	4929      	ldr	r1, [pc, #164]	; (cef0 <__aeabi_dsub+0x378>)
    ce4c:	1aad      	subs	r5, r5, r2
    ce4e:	4039      	ands	r1, r7
    ce50:	e6c2      	b.n	cbd8 <__aeabi_dsub+0x60>
    ce52:	1c20      	adds	r0, r4, #0
    ce54:	f000 fa36 	bl	d2c4 <__clzsi2>
    ce58:	3020      	adds	r0, #32
    ce5a:	e726      	b.n	ccaa <__aeabi_dsub+0x132>
    ce5c:	465a      	mov	r2, fp
    ce5e:	431a      	orrs	r2, r3
    ce60:	1e53      	subs	r3, r2, #1
    ce62:	419a      	sbcs	r2, r3
    ce64:	b2d2      	uxtb	r2, r2
    ce66:	2700      	movs	r7, #0
    ce68:	e70e      	b.n	cc88 <__aeabi_dsub+0x110>
    ce6a:	2a00      	cmp	r2, #0
    ce6c:	d000      	beq.n	ce70 <__aeabi_dsub+0x2f8>
    ce6e:	e0de      	b.n	d02e <__aeabi_dsub+0x4b6>
    ce70:	1c68      	adds	r0, r5, #1
    ce72:	0546      	lsls	r6, r0, #21
    ce74:	0d76      	lsrs	r6, r6, #21
    ce76:	2e01      	cmp	r6, #1
    ce78:	dc00      	bgt.n	ce7c <__aeabi_dsub+0x304>
    ce7a:	e090      	b.n	cf9e <__aeabi_dsub+0x426>
    ce7c:	4d1b      	ldr	r5, [pc, #108]	; (ceec <__aeabi_dsub+0x374>)
    ce7e:	42a8      	cmp	r0, r5
    ce80:	d100      	bne.n	ce84 <__aeabi_dsub+0x30c>
    ce82:	e0f5      	b.n	d070 <__aeabi_dsub+0x4f8>
    ce84:	465e      	mov	r6, fp
    ce86:	1932      	adds	r2, r6, r4
    ce88:	42a2      	cmp	r2, r4
    ce8a:	41a4      	sbcs	r4, r4
    ce8c:	4264      	negs	r4, r4
    ce8e:	1859      	adds	r1, r3, r1
    ce90:	1909      	adds	r1, r1, r4
    ce92:	07cc      	lsls	r4, r1, #31
    ce94:	0852      	lsrs	r2, r2, #1
    ce96:	4314      	orrs	r4, r2
    ce98:	0849      	lsrs	r1, r1, #1
    ce9a:	1c05      	adds	r5, r0, #0
    ce9c:	e69c      	b.n	cbd8 <__aeabi_dsub+0x60>
    ce9e:	4813      	ldr	r0, [pc, #76]	; (ceec <__aeabi_dsub+0x374>)
    cea0:	4285      	cmp	r5, r0
    cea2:	d000      	beq.n	cea6 <__aeabi_dsub+0x32e>
    cea4:	e6d9      	b.n	cc5a <__aeabi_dsub+0xe2>
    cea6:	e697      	b.n	cbd8 <__aeabi_dsub+0x60>
    cea8:	1c2b      	adds	r3, r5, #0
    ceaa:	3b1f      	subs	r3, #31
    ceac:	1c3e      	adds	r6, r7, #0
    ceae:	40de      	lsrs	r6, r3
    ceb0:	1c33      	adds	r3, r6, #0
    ceb2:	2920      	cmp	r1, #32
    ceb4:	d06f      	beq.n	cf96 <__aeabi_dsub+0x41e>
    ceb6:	223f      	movs	r2, #63	; 0x3f
    ceb8:	1b55      	subs	r5, r2, r5
    ceba:	40af      	lsls	r7, r5
    cebc:	433c      	orrs	r4, r7
    cebe:	1e60      	subs	r0, r4, #1
    cec0:	4184      	sbcs	r4, r0
    cec2:	431c      	orrs	r4, r3
    cec4:	2100      	movs	r1, #0
    cec6:	2500      	movs	r5, #0
    cec8:	e686      	b.n	cbd8 <__aeabi_dsub+0x60>
    ceca:	1c38      	adds	r0, r7, #0
    cecc:	3820      	subs	r0, #32
    cece:	1c1e      	adds	r6, r3, #0
    ced0:	40c6      	lsrs	r6, r0
    ced2:	1c30      	adds	r0, r6, #0
    ced4:	2f20      	cmp	r7, #32
    ced6:	d060      	beq.n	cf9a <__aeabi_dsub+0x422>
    ced8:	2240      	movs	r2, #64	; 0x40
    ceda:	1bd7      	subs	r7, r2, r7
    cedc:	40bb      	lsls	r3, r7
    cede:	465a      	mov	r2, fp
    cee0:	431a      	orrs	r2, r3
    cee2:	1e53      	subs	r3, r2, #1
    cee4:	419a      	sbcs	r2, r3
    cee6:	4302      	orrs	r2, r0
    cee8:	2700      	movs	r7, #0
    ceea:	e6cd      	b.n	cc88 <__aeabi_dsub+0x110>
    ceec:	000007ff 	.word	0x000007ff
    cef0:	ff7fffff 	.word	0xff7fffff
    cef4:	800fffff 	.word	0x800fffff
    cef8:	2d00      	cmp	r5, #0
    cefa:	d037      	beq.n	cf6c <__aeabi_dsub+0x3f4>
    cefc:	4db6      	ldr	r5, [pc, #728]	; (d1d8 <__aeabi_dsub+0x660>)
    cefe:	42a8      	cmp	r0, r5
    cf00:	d100      	bne.n	cf04 <__aeabi_dsub+0x38c>
    cf02:	e08f      	b.n	d024 <__aeabi_dsub+0x4ac>
    cf04:	2580      	movs	r5, #128	; 0x80
    cf06:	042d      	lsls	r5, r5, #16
    cf08:	427f      	negs	r7, r7
    cf0a:	4329      	orrs	r1, r5
    cf0c:	2f38      	cmp	r7, #56	; 0x38
    cf0e:	dd00      	ble.n	cf12 <__aeabi_dsub+0x39a>
    cf10:	e0a8      	b.n	d064 <__aeabi_dsub+0x4ec>
    cf12:	2f1f      	cmp	r7, #31
    cf14:	dd00      	ble.n	cf18 <__aeabi_dsub+0x3a0>
    cf16:	e124      	b.n	d162 <__aeabi_dsub+0x5ea>
    cf18:	2520      	movs	r5, #32
    cf1a:	1bed      	subs	r5, r5, r7
    cf1c:	1c0e      	adds	r6, r1, #0
    cf1e:	40ae      	lsls	r6, r5
    cf20:	46b0      	mov	r8, r6
    cf22:	1c26      	adds	r6, r4, #0
    cf24:	40fe      	lsrs	r6, r7
    cf26:	4642      	mov	r2, r8
    cf28:	40ac      	lsls	r4, r5
    cf2a:	4316      	orrs	r6, r2
    cf2c:	1e65      	subs	r5, r4, #1
    cf2e:	41ac      	sbcs	r4, r5
    cf30:	4334      	orrs	r4, r6
    cf32:	40f9      	lsrs	r1, r7
    cf34:	465a      	mov	r2, fp
    cf36:	1b14      	subs	r4, r2, r4
    cf38:	45a3      	cmp	fp, r4
    cf3a:	4192      	sbcs	r2, r2
    cf3c:	1a5b      	subs	r3, r3, r1
    cf3e:	4252      	negs	r2, r2
    cf40:	1a99      	subs	r1, r3, r2
    cf42:	1c05      	adds	r5, r0, #0
    cf44:	46e2      	mov	sl, ip
    cf46:	e6a6      	b.n	cc96 <__aeabi_dsub+0x11e>
    cf48:	1c13      	adds	r3, r2, #0
    cf4a:	433b      	orrs	r3, r7
    cf4c:	1c14      	adds	r4, r2, #0
    cf4e:	2b00      	cmp	r3, #0
    cf50:	d000      	beq.n	cf54 <__aeabi_dsub+0x3dc>
    cf52:	e6a4      	b.n	cc9e <__aeabi_dsub+0x126>
    cf54:	2700      	movs	r7, #0
    cf56:	2100      	movs	r1, #0
    cf58:	2500      	movs	r5, #0
    cf5a:	2400      	movs	r4, #0
    cf5c:	e6cd      	b.n	ccfa <__aeabi_dsub+0x182>
    cf5e:	465a      	mov	r2, fp
    cf60:	431a      	orrs	r2, r3
    cf62:	1e53      	subs	r3, r2, #1
    cf64:	419a      	sbcs	r2, r3
    cf66:	b2d2      	uxtb	r2, r2
    cf68:	2300      	movs	r3, #0
    cf6a:	e700      	b.n	cd6e <__aeabi_dsub+0x1f6>
    cf6c:	1c0d      	adds	r5, r1, #0
    cf6e:	4325      	orrs	r5, r4
    cf70:	d058      	beq.n	d024 <__aeabi_dsub+0x4ac>
    cf72:	43ff      	mvns	r7, r7
    cf74:	2f00      	cmp	r7, #0
    cf76:	d151      	bne.n	d01c <__aeabi_dsub+0x4a4>
    cf78:	465a      	mov	r2, fp
    cf7a:	1b14      	subs	r4, r2, r4
    cf7c:	45a3      	cmp	fp, r4
    cf7e:	4192      	sbcs	r2, r2
    cf80:	1a59      	subs	r1, r3, r1
    cf82:	4252      	negs	r2, r2
    cf84:	1a89      	subs	r1, r1, r2
    cf86:	1c05      	adds	r5, r0, #0
    cf88:	46e2      	mov	sl, ip
    cf8a:	e684      	b.n	cc96 <__aeabi_dsub+0x11e>
    cf8c:	4892      	ldr	r0, [pc, #584]	; (d1d8 <__aeabi_dsub+0x660>)
    cf8e:	4285      	cmp	r5, r0
    cf90:	d000      	beq.n	cf94 <__aeabi_dsub+0x41c>
    cf92:	e6d1      	b.n	cd38 <__aeabi_dsub+0x1c0>
    cf94:	e620      	b.n	cbd8 <__aeabi_dsub+0x60>
    cf96:	2700      	movs	r7, #0
    cf98:	e790      	b.n	cebc <__aeabi_dsub+0x344>
    cf9a:	2300      	movs	r3, #0
    cf9c:	e79f      	b.n	cede <__aeabi_dsub+0x366>
    cf9e:	1c08      	adds	r0, r1, #0
    cfa0:	4320      	orrs	r0, r4
    cfa2:	2d00      	cmp	r5, #0
    cfa4:	d000      	beq.n	cfa8 <__aeabi_dsub+0x430>
    cfa6:	e0c2      	b.n	d12e <__aeabi_dsub+0x5b6>
    cfa8:	2800      	cmp	r0, #0
    cfaa:	d100      	bne.n	cfae <__aeabi_dsub+0x436>
    cfac:	e0ef      	b.n	d18e <__aeabi_dsub+0x616>
    cfae:	4658      	mov	r0, fp
    cfb0:	4318      	orrs	r0, r3
    cfb2:	d100      	bne.n	cfb6 <__aeabi_dsub+0x43e>
    cfb4:	e610      	b.n	cbd8 <__aeabi_dsub+0x60>
    cfb6:	4658      	mov	r0, fp
    cfb8:	1902      	adds	r2, r0, r4
    cfba:	42a2      	cmp	r2, r4
    cfbc:	41a4      	sbcs	r4, r4
    cfbe:	4264      	negs	r4, r4
    cfc0:	1859      	adds	r1, r3, r1
    cfc2:	1909      	adds	r1, r1, r4
    cfc4:	1c14      	adds	r4, r2, #0
    cfc6:	020a      	lsls	r2, r1, #8
    cfc8:	d400      	bmi.n	cfcc <__aeabi_dsub+0x454>
    cfca:	e605      	b.n	cbd8 <__aeabi_dsub+0x60>
    cfcc:	4b83      	ldr	r3, [pc, #524]	; (d1dc <__aeabi_dsub+0x664>)
    cfce:	2501      	movs	r5, #1
    cfd0:	4019      	ands	r1, r3
    cfd2:	e601      	b.n	cbd8 <__aeabi_dsub+0x60>
    cfd4:	1c08      	adds	r0, r1, #0
    cfd6:	4320      	orrs	r0, r4
    cfd8:	2d00      	cmp	r5, #0
    cfda:	d138      	bne.n	d04e <__aeabi_dsub+0x4d6>
    cfdc:	2800      	cmp	r0, #0
    cfde:	d16f      	bne.n	d0c0 <__aeabi_dsub+0x548>
    cfe0:	4659      	mov	r1, fp
    cfe2:	4319      	orrs	r1, r3
    cfe4:	d003      	beq.n	cfee <__aeabi_dsub+0x476>
    cfe6:	1c19      	adds	r1, r3, #0
    cfe8:	465c      	mov	r4, fp
    cfea:	46e2      	mov	sl, ip
    cfec:	e5f4      	b.n	cbd8 <__aeabi_dsub+0x60>
    cfee:	2700      	movs	r7, #0
    cff0:	2100      	movs	r1, #0
    cff2:	2400      	movs	r4, #0
    cff4:	e681      	b.n	ccfa <__aeabi_dsub+0x182>
    cff6:	4660      	mov	r0, ip
    cff8:	3820      	subs	r0, #32
    cffa:	1c1a      	adds	r2, r3, #0
    cffc:	40c2      	lsrs	r2, r0
    cffe:	4666      	mov	r6, ip
    d000:	1c10      	adds	r0, r2, #0
    d002:	2e20      	cmp	r6, #32
    d004:	d100      	bne.n	d008 <__aeabi_dsub+0x490>
    d006:	e0aa      	b.n	d15e <__aeabi_dsub+0x5e6>
    d008:	2240      	movs	r2, #64	; 0x40
    d00a:	1b92      	subs	r2, r2, r6
    d00c:	4093      	lsls	r3, r2
    d00e:	465a      	mov	r2, fp
    d010:	431a      	orrs	r2, r3
    d012:	1e53      	subs	r3, r2, #1
    d014:	419a      	sbcs	r2, r3
    d016:	4302      	orrs	r2, r0
    d018:	2300      	movs	r3, #0
    d01a:	e6a8      	b.n	cd6e <__aeabi_dsub+0x1f6>
    d01c:	4d6e      	ldr	r5, [pc, #440]	; (d1d8 <__aeabi_dsub+0x660>)
    d01e:	42a8      	cmp	r0, r5
    d020:	d000      	beq.n	d024 <__aeabi_dsub+0x4ac>
    d022:	e773      	b.n	cf0c <__aeabi_dsub+0x394>
    d024:	1c19      	adds	r1, r3, #0
    d026:	465c      	mov	r4, fp
    d028:	1c05      	adds	r5, r0, #0
    d02a:	46e2      	mov	sl, ip
    d02c:	e5d4      	b.n	cbd8 <__aeabi_dsub+0x60>
    d02e:	2d00      	cmp	r5, #0
    d030:	d122      	bne.n	d078 <__aeabi_dsub+0x500>
    d032:	1c0d      	adds	r5, r1, #0
    d034:	4325      	orrs	r5, r4
    d036:	d076      	beq.n	d126 <__aeabi_dsub+0x5ae>
    d038:	43d5      	mvns	r5, r2
    d03a:	2d00      	cmp	r5, #0
    d03c:	d170      	bne.n	d120 <__aeabi_dsub+0x5a8>
    d03e:	445c      	add	r4, fp
    d040:	455c      	cmp	r4, fp
    d042:	4192      	sbcs	r2, r2
    d044:	1859      	adds	r1, r3, r1
    d046:	4252      	negs	r2, r2
    d048:	1889      	adds	r1, r1, r2
    d04a:	1c05      	adds	r5, r0, #0
    d04c:	e696      	b.n	cd7c <__aeabi_dsub+0x204>
    d04e:	2800      	cmp	r0, #0
    d050:	d14c      	bne.n	d0ec <__aeabi_dsub+0x574>
    d052:	4659      	mov	r1, fp
    d054:	4319      	orrs	r1, r3
    d056:	d100      	bne.n	d05a <__aeabi_dsub+0x4e2>
    d058:	e64a      	b.n	ccf0 <__aeabi_dsub+0x178>
    d05a:	1c19      	adds	r1, r3, #0
    d05c:	465c      	mov	r4, fp
    d05e:	46e2      	mov	sl, ip
    d060:	4d5d      	ldr	r5, [pc, #372]	; (d1d8 <__aeabi_dsub+0x660>)
    d062:	e5b9      	b.n	cbd8 <__aeabi_dsub+0x60>
    d064:	430c      	orrs	r4, r1
    d066:	1e61      	subs	r1, r4, #1
    d068:	418c      	sbcs	r4, r1
    d06a:	b2e4      	uxtb	r4, r4
    d06c:	2100      	movs	r1, #0
    d06e:	e761      	b.n	cf34 <__aeabi_dsub+0x3bc>
    d070:	1c05      	adds	r5, r0, #0
    d072:	2100      	movs	r1, #0
    d074:	2400      	movs	r4, #0
    d076:	e640      	b.n	ccfa <__aeabi_dsub+0x182>
    d078:	4d57      	ldr	r5, [pc, #348]	; (d1d8 <__aeabi_dsub+0x660>)
    d07a:	42a8      	cmp	r0, r5
    d07c:	d053      	beq.n	d126 <__aeabi_dsub+0x5ae>
    d07e:	4255      	negs	r5, r2
    d080:	2280      	movs	r2, #128	; 0x80
    d082:	0416      	lsls	r6, r2, #16
    d084:	4331      	orrs	r1, r6
    d086:	2d38      	cmp	r5, #56	; 0x38
    d088:	dc7b      	bgt.n	d182 <__aeabi_dsub+0x60a>
    d08a:	2d1f      	cmp	r5, #31
    d08c:	dd00      	ble.n	d090 <__aeabi_dsub+0x518>
    d08e:	e08c      	b.n	d1aa <__aeabi_dsub+0x632>
    d090:	2220      	movs	r2, #32
    d092:	1b56      	subs	r6, r2, r5
    d094:	1c0a      	adds	r2, r1, #0
    d096:	46b4      	mov	ip, r6
    d098:	40b2      	lsls	r2, r6
    d09a:	1c26      	adds	r6, r4, #0
    d09c:	40ee      	lsrs	r6, r5
    d09e:	4332      	orrs	r2, r6
    d0a0:	4690      	mov	r8, r2
    d0a2:	4662      	mov	r2, ip
    d0a4:	4094      	lsls	r4, r2
    d0a6:	1e66      	subs	r6, r4, #1
    d0a8:	41b4      	sbcs	r4, r6
    d0aa:	4642      	mov	r2, r8
    d0ac:	4314      	orrs	r4, r2
    d0ae:	40e9      	lsrs	r1, r5
    d0b0:	445c      	add	r4, fp
    d0b2:	455c      	cmp	r4, fp
    d0b4:	4192      	sbcs	r2, r2
    d0b6:	18cb      	adds	r3, r1, r3
    d0b8:	4252      	negs	r2, r2
    d0ba:	1899      	adds	r1, r3, r2
    d0bc:	1c05      	adds	r5, r0, #0
    d0be:	e65d      	b.n	cd7c <__aeabi_dsub+0x204>
    d0c0:	4658      	mov	r0, fp
    d0c2:	4318      	orrs	r0, r3
    d0c4:	d100      	bne.n	d0c8 <__aeabi_dsub+0x550>
    d0c6:	e587      	b.n	cbd8 <__aeabi_dsub+0x60>
    d0c8:	465e      	mov	r6, fp
    d0ca:	1ba7      	subs	r7, r4, r6
    d0cc:	42bc      	cmp	r4, r7
    d0ce:	4192      	sbcs	r2, r2
    d0d0:	1ac8      	subs	r0, r1, r3
    d0d2:	4252      	negs	r2, r2
    d0d4:	1a80      	subs	r0, r0, r2
    d0d6:	0206      	lsls	r6, r0, #8
    d0d8:	d560      	bpl.n	d19c <__aeabi_dsub+0x624>
    d0da:	4658      	mov	r0, fp
    d0dc:	1b04      	subs	r4, r0, r4
    d0de:	45a3      	cmp	fp, r4
    d0e0:	4192      	sbcs	r2, r2
    d0e2:	1a59      	subs	r1, r3, r1
    d0e4:	4252      	negs	r2, r2
    d0e6:	1a89      	subs	r1, r1, r2
    d0e8:	46e2      	mov	sl, ip
    d0ea:	e575      	b.n	cbd8 <__aeabi_dsub+0x60>
    d0ec:	4658      	mov	r0, fp
    d0ee:	4318      	orrs	r0, r3
    d0f0:	d033      	beq.n	d15a <__aeabi_dsub+0x5e2>
    d0f2:	0748      	lsls	r0, r1, #29
    d0f4:	08e4      	lsrs	r4, r4, #3
    d0f6:	4304      	orrs	r4, r0
    d0f8:	2080      	movs	r0, #128	; 0x80
    d0fa:	08c9      	lsrs	r1, r1, #3
    d0fc:	0300      	lsls	r0, r0, #12
    d0fe:	4201      	tst	r1, r0
    d100:	d008      	beq.n	d114 <__aeabi_dsub+0x59c>
    d102:	08dd      	lsrs	r5, r3, #3
    d104:	4205      	tst	r5, r0
    d106:	d105      	bne.n	d114 <__aeabi_dsub+0x59c>
    d108:	4659      	mov	r1, fp
    d10a:	08ca      	lsrs	r2, r1, #3
    d10c:	075c      	lsls	r4, r3, #29
    d10e:	4314      	orrs	r4, r2
    d110:	1c29      	adds	r1, r5, #0
    d112:	46e2      	mov	sl, ip
    d114:	0f63      	lsrs	r3, r4, #29
    d116:	00c9      	lsls	r1, r1, #3
    d118:	4319      	orrs	r1, r3
    d11a:	00e4      	lsls	r4, r4, #3
    d11c:	4d2e      	ldr	r5, [pc, #184]	; (d1d8 <__aeabi_dsub+0x660>)
    d11e:	e55b      	b.n	cbd8 <__aeabi_dsub+0x60>
    d120:	4a2d      	ldr	r2, [pc, #180]	; (d1d8 <__aeabi_dsub+0x660>)
    d122:	4290      	cmp	r0, r2
    d124:	d1af      	bne.n	d086 <__aeabi_dsub+0x50e>
    d126:	1c19      	adds	r1, r3, #0
    d128:	465c      	mov	r4, fp
    d12a:	1c05      	adds	r5, r0, #0
    d12c:	e554      	b.n	cbd8 <__aeabi_dsub+0x60>
    d12e:	2800      	cmp	r0, #0
    d130:	d030      	beq.n	d194 <__aeabi_dsub+0x61c>
    d132:	4658      	mov	r0, fp
    d134:	4318      	orrs	r0, r3
    d136:	d010      	beq.n	d15a <__aeabi_dsub+0x5e2>
    d138:	2580      	movs	r5, #128	; 0x80
    d13a:	0748      	lsls	r0, r1, #29
    d13c:	08e4      	lsrs	r4, r4, #3
    d13e:	08c9      	lsrs	r1, r1, #3
    d140:	032d      	lsls	r5, r5, #12
    d142:	4304      	orrs	r4, r0
    d144:	4229      	tst	r1, r5
    d146:	d0e5      	beq.n	d114 <__aeabi_dsub+0x59c>
    d148:	08d8      	lsrs	r0, r3, #3
    d14a:	4228      	tst	r0, r5
    d14c:	d1e2      	bne.n	d114 <__aeabi_dsub+0x59c>
    d14e:	465d      	mov	r5, fp
    d150:	08ea      	lsrs	r2, r5, #3
    d152:	075c      	lsls	r4, r3, #29
    d154:	4314      	orrs	r4, r2
    d156:	1c01      	adds	r1, r0, #0
    d158:	e7dc      	b.n	d114 <__aeabi_dsub+0x59c>
    d15a:	4d1f      	ldr	r5, [pc, #124]	; (d1d8 <__aeabi_dsub+0x660>)
    d15c:	e53c      	b.n	cbd8 <__aeabi_dsub+0x60>
    d15e:	2300      	movs	r3, #0
    d160:	e755      	b.n	d00e <__aeabi_dsub+0x496>
    d162:	1c3d      	adds	r5, r7, #0
    d164:	3d20      	subs	r5, #32
    d166:	1c0e      	adds	r6, r1, #0
    d168:	40ee      	lsrs	r6, r5
    d16a:	1c35      	adds	r5, r6, #0
    d16c:	2f20      	cmp	r7, #32
    d16e:	d02e      	beq.n	d1ce <__aeabi_dsub+0x656>
    d170:	2640      	movs	r6, #64	; 0x40
    d172:	1bf7      	subs	r7, r6, r7
    d174:	40b9      	lsls	r1, r7
    d176:	430c      	orrs	r4, r1
    d178:	1e61      	subs	r1, r4, #1
    d17a:	418c      	sbcs	r4, r1
    d17c:	432c      	orrs	r4, r5
    d17e:	2100      	movs	r1, #0
    d180:	e6d8      	b.n	cf34 <__aeabi_dsub+0x3bc>
    d182:	430c      	orrs	r4, r1
    d184:	1e61      	subs	r1, r4, #1
    d186:	418c      	sbcs	r4, r1
    d188:	b2e4      	uxtb	r4, r4
    d18a:	2100      	movs	r1, #0
    d18c:	e790      	b.n	d0b0 <__aeabi_dsub+0x538>
    d18e:	1c19      	adds	r1, r3, #0
    d190:	465c      	mov	r4, fp
    d192:	e521      	b.n	cbd8 <__aeabi_dsub+0x60>
    d194:	1c19      	adds	r1, r3, #0
    d196:	465c      	mov	r4, fp
    d198:	4d0f      	ldr	r5, [pc, #60]	; (d1d8 <__aeabi_dsub+0x660>)
    d19a:	e51d      	b.n	cbd8 <__aeabi_dsub+0x60>
    d19c:	1c03      	adds	r3, r0, #0
    d19e:	433b      	orrs	r3, r7
    d1a0:	d100      	bne.n	d1a4 <__aeabi_dsub+0x62c>
    d1a2:	e724      	b.n	cfee <__aeabi_dsub+0x476>
    d1a4:	1c01      	adds	r1, r0, #0
    d1a6:	1c3c      	adds	r4, r7, #0
    d1a8:	e516      	b.n	cbd8 <__aeabi_dsub+0x60>
    d1aa:	2620      	movs	r6, #32
    d1ac:	4276      	negs	r6, r6
    d1ae:	1976      	adds	r6, r6, r5
    d1b0:	1c0a      	adds	r2, r1, #0
    d1b2:	40f2      	lsrs	r2, r6
    d1b4:	4690      	mov	r8, r2
    d1b6:	2d20      	cmp	r5, #32
    d1b8:	d00b      	beq.n	d1d2 <__aeabi_dsub+0x65a>
    d1ba:	2640      	movs	r6, #64	; 0x40
    d1bc:	1b75      	subs	r5, r6, r5
    d1be:	40a9      	lsls	r1, r5
    d1c0:	430c      	orrs	r4, r1
    d1c2:	1e61      	subs	r1, r4, #1
    d1c4:	418c      	sbcs	r4, r1
    d1c6:	4645      	mov	r5, r8
    d1c8:	432c      	orrs	r4, r5
    d1ca:	2100      	movs	r1, #0
    d1cc:	e770      	b.n	d0b0 <__aeabi_dsub+0x538>
    d1ce:	2100      	movs	r1, #0
    d1d0:	e7d1      	b.n	d176 <__aeabi_dsub+0x5fe>
    d1d2:	2100      	movs	r1, #0
    d1d4:	e7f4      	b.n	d1c0 <__aeabi_dsub+0x648>
    d1d6:	46c0      	nop			; (mov r8, r8)
    d1d8:	000007ff 	.word	0x000007ff
    d1dc:	ff7fffff 	.word	0xff7fffff

0000d1e0 <__aeabi_d2iz>:
__aeabi_d2iz():
    d1e0:	b570      	push	{r4, r5, r6, lr}
    d1e2:	1c0b      	adds	r3, r1, #0
    d1e4:	4c12      	ldr	r4, [pc, #72]	; (d230 <__aeabi_d2iz+0x50>)
    d1e6:	0309      	lsls	r1, r1, #12
    d1e8:	0b0e      	lsrs	r6, r1, #12
    d1ea:	0059      	lsls	r1, r3, #1
    d1ec:	1c02      	adds	r2, r0, #0
    d1ee:	0d49      	lsrs	r1, r1, #21
    d1f0:	0fdd      	lsrs	r5, r3, #31
    d1f2:	2000      	movs	r0, #0
    d1f4:	42a1      	cmp	r1, r4
    d1f6:	dd11      	ble.n	d21c <__aeabi_d2iz+0x3c>
    d1f8:	480e      	ldr	r0, [pc, #56]	; (d234 <__aeabi_d2iz+0x54>)
    d1fa:	4281      	cmp	r1, r0
    d1fc:	dc0f      	bgt.n	d21e <__aeabi_d2iz+0x3e>
    d1fe:	2080      	movs	r0, #128	; 0x80
    d200:	0340      	lsls	r0, r0, #13
    d202:	4306      	orrs	r6, r0
    d204:	480c      	ldr	r0, [pc, #48]	; (d238 <__aeabi_d2iz+0x58>)
    d206:	1a40      	subs	r0, r0, r1
    d208:	281f      	cmp	r0, #31
    d20a:	dd0b      	ble.n	d224 <__aeabi_d2iz+0x44>
    d20c:	4a0b      	ldr	r2, [pc, #44]	; (d23c <__aeabi_d2iz+0x5c>)
    d20e:	1a52      	subs	r2, r2, r1
    d210:	40d6      	lsrs	r6, r2
    d212:	1c32      	adds	r2, r6, #0
    d214:	4250      	negs	r0, r2
    d216:	2d00      	cmp	r5, #0
    d218:	d100      	bne.n	d21c <__aeabi_d2iz+0x3c>
    d21a:	1c10      	adds	r0, r2, #0
    d21c:	bd70      	pop	{r4, r5, r6, pc}
    d21e:	4b08      	ldr	r3, [pc, #32]	; (d240 <__aeabi_d2iz+0x60>)
    d220:	18e8      	adds	r0, r5, r3
    d222:	e7fb      	b.n	d21c <__aeabi_d2iz+0x3c>
    d224:	4b07      	ldr	r3, [pc, #28]	; (d244 <__aeabi_d2iz+0x64>)
    d226:	40c2      	lsrs	r2, r0
    d228:	18c9      	adds	r1, r1, r3
    d22a:	408e      	lsls	r6, r1
    d22c:	4332      	orrs	r2, r6
    d22e:	e7f1      	b.n	d214 <__aeabi_d2iz+0x34>
    d230:	000003fe 	.word	0x000003fe
    d234:	0000041d 	.word	0x0000041d
    d238:	00000433 	.word	0x00000433
    d23c:	00000413 	.word	0x00000413
    d240:	7fffffff 	.word	0x7fffffff
    d244:	fffffbed 	.word	0xfffffbed

0000d248 <__aeabi_i2d>:
__aeabi_i2d():
    d248:	b5f8      	push	{r3, r4, r5, r6, r7, lr}
    d24a:	1e04      	subs	r4, r0, #0
    d24c:	d031      	beq.n	d2b2 <__aeabi_i2d+0x6a>
    d24e:	0fc7      	lsrs	r7, r0, #31
    d250:	d000      	beq.n	d254 <__aeabi_i2d+0xc>
    d252:	4244      	negs	r4, r0
    d254:	1c20      	adds	r0, r4, #0
    d256:	f000 f835 	bl	d2c4 <__clzsi2>
    d25a:	4d18      	ldr	r5, [pc, #96]	; (d2bc <__aeabi_i2d+0x74>)
    d25c:	1a2d      	subs	r5, r5, r0
    d25e:	280a      	cmp	r0, #10
    d260:	dd19      	ble.n	d296 <__aeabi_i2d+0x4e>
    d262:	380b      	subs	r0, #11
    d264:	4084      	lsls	r4, r0
    d266:	0324      	lsls	r4, r4, #12
    d268:	056d      	lsls	r5, r5, #21
    d26a:	0b24      	lsrs	r4, r4, #12
    d26c:	0d6d      	lsrs	r5, r5, #21
    d26e:	1c3a      	adds	r2, r7, #0
    d270:	2600      	movs	r6, #0
    d272:	2000      	movs	r0, #0
    d274:	2100      	movs	r1, #0
    d276:	0d0b      	lsrs	r3, r1, #20
    d278:	0324      	lsls	r4, r4, #12
    d27a:	0b24      	lsrs	r4, r4, #12
    d27c:	051b      	lsls	r3, r3, #20
    d27e:	4323      	orrs	r3, r4
    d280:	4c0f      	ldr	r4, [pc, #60]	; (d2c0 <__aeabi_i2d+0x78>)
    d282:	052d      	lsls	r5, r5, #20
    d284:	401c      	ands	r4, r3
    d286:	432c      	orrs	r4, r5
    d288:	0064      	lsls	r4, r4, #1
    d28a:	0864      	lsrs	r4, r4, #1
    d28c:	07d3      	lsls	r3, r2, #31
    d28e:	1c21      	adds	r1, r4, #0
    d290:	1c30      	adds	r0, r6, #0
    d292:	4319      	orrs	r1, r3
    d294:	bdf8      	pop	{r3, r4, r5, r6, r7, pc}
    d296:	1c06      	adds	r6, r0, #0
    d298:	3615      	adds	r6, #21
    d29a:	1c23      	adds	r3, r4, #0
    d29c:	40b3      	lsls	r3, r6
    d29e:	1c1e      	adds	r6, r3, #0
    d2a0:	230b      	movs	r3, #11
    d2a2:	1a18      	subs	r0, r3, r0
    d2a4:	40c4      	lsrs	r4, r0
    d2a6:	0324      	lsls	r4, r4, #12
    d2a8:	056d      	lsls	r5, r5, #21
    d2aa:	0b24      	lsrs	r4, r4, #12
    d2ac:	0d6d      	lsrs	r5, r5, #21
    d2ae:	1c3a      	adds	r2, r7, #0
    d2b0:	e7df      	b.n	d272 <__aeabi_i2d+0x2a>
    d2b2:	2200      	movs	r2, #0
    d2b4:	2500      	movs	r5, #0
    d2b6:	2400      	movs	r4, #0
    d2b8:	2600      	movs	r6, #0
    d2ba:	e7da      	b.n	d272 <__aeabi_i2d+0x2a>
    d2bc:	0000041e 	.word	0x0000041e
    d2c0:	800fffff 	.word	0x800fffff

0000d2c4 <__clzsi2>:
__clzsi2():
    d2c4:	211c      	movs	r1, #28
    d2c6:	2301      	movs	r3, #1
    d2c8:	041b      	lsls	r3, r3, #16
    d2ca:	4298      	cmp	r0, r3
    d2cc:	d301      	bcc.n	d2d2 <__clzsi2+0xe>
    d2ce:	0c00      	lsrs	r0, r0, #16
    d2d0:	3910      	subs	r1, #16
    d2d2:	0a1b      	lsrs	r3, r3, #8
    d2d4:	4298      	cmp	r0, r3
    d2d6:	d301      	bcc.n	d2dc <__clzsi2+0x18>
    d2d8:	0a00      	lsrs	r0, r0, #8
    d2da:	3908      	subs	r1, #8
    d2dc:	091b      	lsrs	r3, r3, #4
    d2de:	4298      	cmp	r0, r3
    d2e0:	d301      	bcc.n	d2e6 <__clzsi2+0x22>
    d2e2:	0900      	lsrs	r0, r0, #4
    d2e4:	3904      	subs	r1, #4
    d2e6:	a202      	add	r2, pc, #8	; (adr r2, d2f0 <__clzsi2+0x2c>)
    d2e8:	5c10      	ldrb	r0, [r2, r0]
    d2ea:	1840      	adds	r0, r0, r1
    d2ec:	4770      	bx	lr
    d2ee:	46c0      	nop			; (mov r8, r8)
    d2f0:	02020304 	.word	0x02020304
    d2f4:	01010101 	.word	0x01010101
	...

0000d300 <__divdi3>:
__divdi3():
    d300:	b5f0      	push	{r4, r5, r6, r7, lr}
    d302:	4644      	mov	r4, r8
    d304:	465f      	mov	r7, fp
    d306:	4656      	mov	r6, sl
    d308:	464d      	mov	r5, r9
    d30a:	b4f0      	push	{r4, r5, r6, r7}
    d30c:	1c1c      	adds	r4, r3, #0
    d30e:	b085      	sub	sp, #20
    d310:	2900      	cmp	r1, #0
    d312:	da00      	bge.n	d316 <__divdi3+0x16>
    d314:	e0db      	b.n	d4ce <__divdi3+0x1ce>
    d316:	1c0f      	adds	r7, r1, #0
    d318:	2100      	movs	r1, #0
    d31a:	1c06      	adds	r6, r0, #0
    d31c:	468a      	mov	sl, r1
    d31e:	1c10      	adds	r0, r2, #0
    d320:	1c19      	adds	r1, r3, #0
    d322:	2c00      	cmp	r4, #0
    d324:	da00      	bge.n	d328 <__divdi3+0x28>
    d326:	e0c9      	b.n	d4bc <__divdi3+0x1bc>
    d328:	9601      	str	r6, [sp, #4]
    d32a:	9000      	str	r0, [sp, #0]
    d32c:	4689      	mov	r9, r1
    d32e:	4680      	mov	r8, r0
    d330:	2900      	cmp	r1, #0
    d332:	d151      	bne.n	d3d8 <__divdi3+0xd8>
    d334:	42b8      	cmp	r0, r7
    d336:	d800      	bhi.n	d33a <__divdi3+0x3a>
    d338:	e071      	b.n	d41e <__divdi3+0x11e>
    d33a:	f7ff ffc3 	bl	d2c4 <__clzsi2>
    d33e:	2800      	cmp	r0, #0
    d340:	d009      	beq.n	d356 <__divdi3+0x56>
    d342:	2320      	movs	r3, #32
    d344:	4645      	mov	r5, r8
    d346:	1c31      	adds	r1, r6, #0
    d348:	1a1b      	subs	r3, r3, r0
    d34a:	4085      	lsls	r5, r0
    d34c:	4087      	lsls	r7, r0
    d34e:	40d9      	lsrs	r1, r3
    d350:	46a8      	mov	r8, r5
    d352:	430f      	orrs	r7, r1
    d354:	4086      	lsls	r6, r0
    d356:	4642      	mov	r2, r8
    d358:	0c15      	lsrs	r5, r2, #16
    d35a:	0413      	lsls	r3, r2, #16
    d35c:	0c1b      	lsrs	r3, r3, #16
    d35e:	1c29      	adds	r1, r5, #0
    d360:	1c38      	adds	r0, r7, #0
    d362:	469b      	mov	fp, r3
    d364:	f7fe f8e6 	bl	b534 <__aeabi_uidiv>
    d368:	465b      	mov	r3, fp
    d36a:	4343      	muls	r3, r0
    d36c:	1c04      	adds	r4, r0, #0
    d36e:	1c29      	adds	r1, r5, #0
    d370:	1c38      	adds	r0, r7, #0
    d372:	4699      	mov	r9, r3
    d374:	f7fe f922 	bl	b5bc <__aeabi_uidivmod>
    d378:	0c33      	lsrs	r3, r6, #16
    d37a:	0408      	lsls	r0, r1, #16
    d37c:	4318      	orrs	r0, r3
    d37e:	4581      	cmp	r9, r0
    d380:	d909      	bls.n	d396 <__divdi3+0x96>
    d382:	4440      	add	r0, r8
    d384:	1e63      	subs	r3, r4, #1
    d386:	4580      	cmp	r8, r0
    d388:	d900      	bls.n	d38c <__divdi3+0x8c>
    d38a:	e178      	b.n	d67e <__divdi3+0x37e>
    d38c:	4581      	cmp	r9, r0
    d38e:	d800      	bhi.n	d392 <__divdi3+0x92>
    d390:	e175      	b.n	d67e <__divdi3+0x37e>
    d392:	3c02      	subs	r4, #2
    d394:	4440      	add	r0, r8
    d396:	4649      	mov	r1, r9
    d398:	1a41      	subs	r1, r0, r1
    d39a:	4689      	mov	r9, r1
    d39c:	1c08      	adds	r0, r1, #0
    d39e:	1c29      	adds	r1, r5, #0
    d3a0:	f7fe f8c8 	bl	b534 <__aeabi_uidiv>
    d3a4:	465a      	mov	r2, fp
    d3a6:	4342      	muls	r2, r0
    d3a8:	1c07      	adds	r7, r0, #0
    d3aa:	1c29      	adds	r1, r5, #0
    d3ac:	4648      	mov	r0, r9
    d3ae:	4693      	mov	fp, r2
    d3b0:	f7fe f904 	bl	b5bc <__aeabi_uidivmod>
    d3b4:	0436      	lsls	r6, r6, #16
    d3b6:	0409      	lsls	r1, r1, #16
    d3b8:	0c36      	lsrs	r6, r6, #16
    d3ba:	430e      	orrs	r6, r1
    d3bc:	45b3      	cmp	fp, r6
    d3be:	d907      	bls.n	d3d0 <__divdi3+0xd0>
    d3c0:	4446      	add	r6, r8
    d3c2:	1e7b      	subs	r3, r7, #1
    d3c4:	45b0      	cmp	r8, r6
    d3c6:	d802      	bhi.n	d3ce <__divdi3+0xce>
    d3c8:	3f02      	subs	r7, #2
    d3ca:	45b3      	cmp	fp, r6
    d3cc:	d800      	bhi.n	d3d0 <__divdi3+0xd0>
    d3ce:	1c1f      	adds	r7, r3, #0
    d3d0:	0424      	lsls	r4, r4, #16
    d3d2:	4327      	orrs	r7, r4
    d3d4:	2400      	movs	r4, #0
    d3d6:	e003      	b.n	d3e0 <__divdi3+0xe0>
    d3d8:	42b9      	cmp	r1, r7
    d3da:	d911      	bls.n	d400 <__divdi3+0x100>
    d3dc:	2400      	movs	r4, #0
    d3de:	2700      	movs	r7, #0
    d3e0:	4652      	mov	r2, sl
    d3e2:	1c38      	adds	r0, r7, #0
    d3e4:	1c21      	adds	r1, r4, #0
    d3e6:	2a00      	cmp	r2, #0
    d3e8:	d003      	beq.n	d3f2 <__divdi3+0xf2>
    d3ea:	1c3b      	adds	r3, r7, #0
    d3ec:	2100      	movs	r1, #0
    d3ee:	4258      	negs	r0, r3
    d3f0:	41a1      	sbcs	r1, r4
    d3f2:	b005      	add	sp, #20
    d3f4:	bc3c      	pop	{r2, r3, r4, r5}
    d3f6:	4690      	mov	r8, r2
    d3f8:	4699      	mov	r9, r3
    d3fa:	46a2      	mov	sl, r4
    d3fc:	46ab      	mov	fp, r5
    d3fe:	bdf0      	pop	{r4, r5, r6, r7, pc}
    d400:	1c08      	adds	r0, r1, #0
    d402:	f7ff ff5f 	bl	d2c4 <__clzsi2>
    d406:	1e04      	subs	r4, r0, #0
    d408:	d000      	beq.n	d40c <__divdi3+0x10c>
    d40a:	e0bf      	b.n	d58c <__divdi3+0x28c>
    d40c:	45b9      	cmp	r9, r7
    d40e:	d200      	bcs.n	d412 <__divdi3+0x112>
    d410:	e142      	b.n	d698 <__divdi3+0x398>
    d412:	9d01      	ldr	r5, [sp, #4]
    d414:	9900      	ldr	r1, [sp, #0]
    d416:	1c07      	adds	r7, r0, #0
    d418:	428d      	cmp	r5, r1
    d41a:	4147      	adcs	r7, r0
    d41c:	e7e0      	b.n	d3e0 <__divdi3+0xe0>
    d41e:	2800      	cmp	r0, #0
    d420:	d104      	bne.n	d42c <__divdi3+0x12c>
    d422:	2001      	movs	r0, #1
    d424:	2100      	movs	r1, #0
    d426:	f7fe f885 	bl	b534 <__aeabi_uidiv>
    d42a:	4680      	mov	r8, r0
    d42c:	4640      	mov	r0, r8
    d42e:	f7ff ff49 	bl	d2c4 <__clzsi2>
    d432:	2800      	cmp	r0, #0
    d434:	d152      	bne.n	d4dc <__divdi3+0x1dc>
    d436:	4641      	mov	r1, r8
    d438:	4644      	mov	r4, r8
    d43a:	040b      	lsls	r3, r1, #16
    d43c:	1b3c      	subs	r4, r7, r4
    d43e:	0c1b      	lsrs	r3, r3, #16
    d440:	46a3      	mov	fp, r4
    d442:	0c0d      	lsrs	r5, r1, #16
    d444:	9300      	str	r3, [sp, #0]
    d446:	2401      	movs	r4, #1
    d448:	1c29      	adds	r1, r5, #0
    d44a:	4658      	mov	r0, fp
    d44c:	f7fe f872 	bl	b534 <__aeabi_uidiv>
    d450:	9f00      	ldr	r7, [sp, #0]
    d452:	4681      	mov	r9, r0
    d454:	4347      	muls	r7, r0
    d456:	1c29      	adds	r1, r5, #0
    d458:	4658      	mov	r0, fp
    d45a:	f7fe f8af 	bl	b5bc <__aeabi_uidivmod>
    d45e:	0c33      	lsrs	r3, r6, #16
    d460:	0409      	lsls	r1, r1, #16
    d462:	4319      	orrs	r1, r3
    d464:	428f      	cmp	r7, r1
    d466:	d908      	bls.n	d47a <__divdi3+0x17a>
    d468:	464b      	mov	r3, r9
    d46a:	4441      	add	r1, r8
    d46c:	3b01      	subs	r3, #1
    d46e:	4588      	cmp	r8, r1
    d470:	d802      	bhi.n	d478 <__divdi3+0x178>
    d472:	428f      	cmp	r7, r1
    d474:	d900      	bls.n	d478 <__divdi3+0x178>
    d476:	e11a      	b.n	d6ae <__divdi3+0x3ae>
    d478:	4699      	mov	r9, r3
    d47a:	1bc9      	subs	r1, r1, r7
    d47c:	468b      	mov	fp, r1
    d47e:	1c08      	adds	r0, r1, #0
    d480:	1c29      	adds	r1, r5, #0
    d482:	f7fe f857 	bl	b534 <__aeabi_uidiv>
    d486:	9b00      	ldr	r3, [sp, #0]
    d488:	1c29      	adds	r1, r5, #0
    d48a:	4343      	muls	r3, r0
    d48c:	1c07      	adds	r7, r0, #0
    d48e:	4658      	mov	r0, fp
    d490:	9300      	str	r3, [sp, #0]
    d492:	f7fe f893 	bl	b5bc <__aeabi_uidivmod>
    d496:	0436      	lsls	r6, r6, #16
    d498:	9d00      	ldr	r5, [sp, #0]
    d49a:	0409      	lsls	r1, r1, #16
    d49c:	0c36      	lsrs	r6, r6, #16
    d49e:	430e      	orrs	r6, r1
    d4a0:	42b5      	cmp	r5, r6
    d4a2:	d907      	bls.n	d4b4 <__divdi3+0x1b4>
    d4a4:	4446      	add	r6, r8
    d4a6:	1e7b      	subs	r3, r7, #1
    d4a8:	45b0      	cmp	r8, r6
    d4aa:	d802      	bhi.n	d4b2 <__divdi3+0x1b2>
    d4ac:	3f02      	subs	r7, #2
    d4ae:	42b5      	cmp	r5, r6
    d4b0:	d800      	bhi.n	d4b4 <__divdi3+0x1b4>
    d4b2:	1c1f      	adds	r7, r3, #0
    d4b4:	4649      	mov	r1, r9
    d4b6:	040e      	lsls	r6, r1, #16
    d4b8:	4337      	orrs	r7, r6
    d4ba:	e791      	b.n	d3e0 <__divdi3+0xe0>
    d4bc:	4652      	mov	r2, sl
    d4be:	43d2      	mvns	r2, r2
    d4c0:	1c03      	adds	r3, r0, #0
    d4c2:	1c0c      	adds	r4, r1, #0
    d4c4:	4692      	mov	sl, r2
    d4c6:	2100      	movs	r1, #0
    d4c8:	4258      	negs	r0, r3
    d4ca:	41a1      	sbcs	r1, r4
    d4cc:	e72c      	b.n	d328 <__divdi3+0x28>
    d4ce:	2700      	movs	r7, #0
    d4d0:	4246      	negs	r6, r0
    d4d2:	418f      	sbcs	r7, r1
    d4d4:	2101      	movs	r1, #1
    d4d6:	4249      	negs	r1, r1
    d4d8:	468a      	mov	sl, r1
    d4da:	e720      	b.n	d31e <__divdi3+0x1e>
    d4dc:	2320      	movs	r3, #32
    d4de:	1a1b      	subs	r3, r3, r0
    d4e0:	4642      	mov	r2, r8
    d4e2:	1c35      	adds	r5, r6, #0
    d4e4:	4082      	lsls	r2, r0
    d4e6:	1c3c      	adds	r4, r7, #0
    d4e8:	40dd      	lsrs	r5, r3
    d4ea:	40dc      	lsrs	r4, r3
    d4ec:	4087      	lsls	r7, r0
    d4ee:	1c2b      	adds	r3, r5, #0
    d4f0:	0c15      	lsrs	r5, r2, #16
    d4f2:	433b      	orrs	r3, r7
    d4f4:	1c29      	adds	r1, r5, #0
    d4f6:	4086      	lsls	r6, r0
    d4f8:	1c20      	adds	r0, r4, #0
    d4fa:	9300      	str	r3, [sp, #0]
    d4fc:	0417      	lsls	r7, r2, #16
    d4fe:	4690      	mov	r8, r2
    d500:	f7fe f818 	bl	b534 <__aeabi_uidiv>
    d504:	0c3f      	lsrs	r7, r7, #16
    d506:	1c01      	adds	r1, r0, #0
    d508:	4379      	muls	r1, r7
    d50a:	4681      	mov	r9, r0
    d50c:	468b      	mov	fp, r1
    d50e:	1c20      	adds	r0, r4, #0
    d510:	1c29      	adds	r1, r5, #0
    d512:	f7fe f853 	bl	b5bc <__aeabi_uidivmod>
    d516:	9c00      	ldr	r4, [sp, #0]
    d518:	0409      	lsls	r1, r1, #16
    d51a:	0c23      	lsrs	r3, r4, #16
    d51c:	4319      	orrs	r1, r3
    d51e:	458b      	cmp	fp, r1
    d520:	d90c      	bls.n	d53c <__divdi3+0x23c>
    d522:	464b      	mov	r3, r9
    d524:	4441      	add	r1, r8
    d526:	3b01      	subs	r3, #1
    d528:	4588      	cmp	r8, r1
    d52a:	d900      	bls.n	d52e <__divdi3+0x22e>
    d52c:	e0bd      	b.n	d6aa <__divdi3+0x3aa>
    d52e:	458b      	cmp	fp, r1
    d530:	d800      	bhi.n	d534 <__divdi3+0x234>
    d532:	e0ba      	b.n	d6aa <__divdi3+0x3aa>
    d534:	2202      	movs	r2, #2
    d536:	4252      	negs	r2, r2
    d538:	4491      	add	r9, r2
    d53a:	4441      	add	r1, r8
    d53c:	465c      	mov	r4, fp
    d53e:	1b0c      	subs	r4, r1, r4
    d540:	1c20      	adds	r0, r4, #0
    d542:	1c29      	adds	r1, r5, #0
    d544:	9401      	str	r4, [sp, #4]
    d546:	f7fd fff5 	bl	b534 <__aeabi_uidiv>
    d54a:	1c39      	adds	r1, r7, #0
    d54c:	4341      	muls	r1, r0
    d54e:	1c04      	adds	r4, r0, #0
    d550:	468b      	mov	fp, r1
    d552:	9801      	ldr	r0, [sp, #4]
    d554:	1c29      	adds	r1, r5, #0
    d556:	f7fe f831 	bl	b5bc <__aeabi_uidivmod>
    d55a:	9a00      	ldr	r2, [sp, #0]
    d55c:	0409      	lsls	r1, r1, #16
    d55e:	0413      	lsls	r3, r2, #16
    d560:	0c1b      	lsrs	r3, r3, #16
    d562:	4319      	orrs	r1, r3
    d564:	458b      	cmp	fp, r1
    d566:	d909      	bls.n	d57c <__divdi3+0x27c>
    d568:	4441      	add	r1, r8
    d56a:	1e63      	subs	r3, r4, #1
    d56c:	4588      	cmp	r8, r1
    d56e:	d900      	bls.n	d572 <__divdi3+0x272>
    d570:	e097      	b.n	d6a2 <__divdi3+0x3a2>
    d572:	458b      	cmp	fp, r1
    d574:	d800      	bhi.n	d578 <__divdi3+0x278>
    d576:	e094      	b.n	d6a2 <__divdi3+0x3a2>
    d578:	3c02      	subs	r4, #2
    d57a:	4441      	add	r1, r8
    d57c:	465b      	mov	r3, fp
    d57e:	1acb      	subs	r3, r1, r3
    d580:	4649      	mov	r1, r9
    d582:	469b      	mov	fp, r3
    d584:	040b      	lsls	r3, r1, #16
    d586:	431c      	orrs	r4, r3
    d588:	9700      	str	r7, [sp, #0]
    d58a:	e75d      	b.n	d448 <__divdi3+0x148>
    d58c:	9d00      	ldr	r5, [sp, #0]
    d58e:	2320      	movs	r3, #32
    d590:	1a1b      	subs	r3, r3, r0
    d592:	464a      	mov	r2, r9
    d594:	4082      	lsls	r2, r0
    d596:	40dd      	lsrs	r5, r3
    d598:	4315      	orrs	r5, r2
    d59a:	1c39      	adds	r1, r7, #0
    d59c:	9a00      	ldr	r2, [sp, #0]
    d59e:	40d9      	lsrs	r1, r3
    d5a0:	4082      	lsls	r2, r0
    d5a2:	4688      	mov	r8, r1
    d5a4:	1c31      	adds	r1, r6, #0
    d5a6:	9200      	str	r2, [sp, #0]
    d5a8:	40d9      	lsrs	r1, r3
    d5aa:	1c3a      	adds	r2, r7, #0
    d5ac:	4082      	lsls	r2, r0
    d5ae:	1c0b      	adds	r3, r1, #0
    d5b0:	4313      	orrs	r3, r2
    d5b2:	9301      	str	r3, [sp, #4]
    d5b4:	0c2f      	lsrs	r7, r5, #16
    d5b6:	042b      	lsls	r3, r5, #16
    d5b8:	0c1b      	lsrs	r3, r3, #16
    d5ba:	1c39      	adds	r1, r7, #0
    d5bc:	4640      	mov	r0, r8
    d5be:	9302      	str	r3, [sp, #8]
    d5c0:	f7fd ffb8 	bl	b534 <__aeabi_uidiv>
    d5c4:	9a02      	ldr	r2, [sp, #8]
    d5c6:	4681      	mov	r9, r0
    d5c8:	4342      	muls	r2, r0
    d5ca:	1c39      	adds	r1, r7, #0
    d5cc:	4640      	mov	r0, r8
    d5ce:	4693      	mov	fp, r2
    d5d0:	f7fd fff4 	bl	b5bc <__aeabi_uidivmod>
    d5d4:	9a01      	ldr	r2, [sp, #4]
    d5d6:	0409      	lsls	r1, r1, #16
    d5d8:	0c13      	lsrs	r3, r2, #16
    d5da:	4319      	orrs	r1, r3
    d5dc:	458b      	cmp	fp, r1
    d5de:	d90a      	bls.n	d5f6 <__divdi3+0x2f6>
    d5e0:	464b      	mov	r3, r9
    d5e2:	1949      	adds	r1, r1, r5
    d5e4:	3b01      	subs	r3, #1
    d5e6:	428d      	cmp	r5, r1
    d5e8:	d85d      	bhi.n	d6a6 <__divdi3+0x3a6>
    d5ea:	458b      	cmp	fp, r1
    d5ec:	d95b      	bls.n	d6a6 <__divdi3+0x3a6>
    d5ee:	2302      	movs	r3, #2
    d5f0:	425b      	negs	r3, r3
    d5f2:	4499      	add	r9, r3
    d5f4:	1949      	adds	r1, r1, r5
    d5f6:	465a      	mov	r2, fp
    d5f8:	1a8a      	subs	r2, r1, r2
    d5fa:	1c10      	adds	r0, r2, #0
    d5fc:	1c39      	adds	r1, r7, #0
    d5fe:	9203      	str	r2, [sp, #12]
    d600:	f7fd ff98 	bl	b534 <__aeabi_uidiv>
    d604:	9b02      	ldr	r3, [sp, #8]
    d606:	4680      	mov	r8, r0
    d608:	4343      	muls	r3, r0
    d60a:	1c39      	adds	r1, r7, #0
    d60c:	9803      	ldr	r0, [sp, #12]
    d60e:	469b      	mov	fp, r3
    d610:	f7fd ffd4 	bl	b5bc <__aeabi_uidivmod>
    d614:	9a01      	ldr	r2, [sp, #4]
    d616:	0409      	lsls	r1, r1, #16
    d618:	0413      	lsls	r3, r2, #16
    d61a:	0c1b      	lsrs	r3, r3, #16
    d61c:	4319      	orrs	r1, r3
    d61e:	458b      	cmp	fp, r1
    d620:	d90a      	bls.n	d638 <__divdi3+0x338>
    d622:	4643      	mov	r3, r8
    d624:	1949      	adds	r1, r1, r5
    d626:	3b01      	subs	r3, #1
    d628:	428d      	cmp	r5, r1
    d62a:	d838      	bhi.n	d69e <__divdi3+0x39e>
    d62c:	458b      	cmp	fp, r1
    d62e:	d936      	bls.n	d69e <__divdi3+0x39e>
    d630:	2302      	movs	r3, #2
    d632:	425b      	negs	r3, r3
    d634:	4498      	add	r8, r3
    d636:	1949      	adds	r1, r1, r5
    d638:	465d      	mov	r5, fp
    d63a:	1b4d      	subs	r5, r1, r5
    d63c:	46ab      	mov	fp, r5
    d63e:	4649      	mov	r1, r9
    d640:	9d00      	ldr	r5, [sp, #0]
    d642:	040f      	lsls	r7, r1, #16
    d644:	4642      	mov	r2, r8
    d646:	4317      	orrs	r7, r2
    d648:	042a      	lsls	r2, r5, #16
    d64a:	0c12      	lsrs	r2, r2, #16
    d64c:	043b      	lsls	r3, r7, #16
    d64e:	0c2d      	lsrs	r5, r5, #16
    d650:	0c1b      	lsrs	r3, r3, #16
    d652:	0c38      	lsrs	r0, r7, #16
    d654:	1c11      	adds	r1, r2, #0
    d656:	4359      	muls	r1, r3
    d658:	4342      	muls	r2, r0
    d65a:	436b      	muls	r3, r5
    d65c:	4368      	muls	r0, r5
    d65e:	18d3      	adds	r3, r2, r3
    d660:	0c0d      	lsrs	r5, r1, #16
    d662:	195b      	adds	r3, r3, r5
    d664:	468c      	mov	ip, r1
    d666:	429a      	cmp	r2, r3
    d668:	d902      	bls.n	d670 <__divdi3+0x370>
    d66a:	2280      	movs	r2, #128	; 0x80
    d66c:	0252      	lsls	r2, r2, #9
    d66e:	1880      	adds	r0, r0, r2
    d670:	0c1d      	lsrs	r5, r3, #16
    d672:	1940      	adds	r0, r0, r5
    d674:	4583      	cmp	fp, r0
    d676:	d30c      	bcc.n	d692 <__divdi3+0x392>
    d678:	d003      	beq.n	d682 <__divdi3+0x382>
    d67a:	2400      	movs	r4, #0
    d67c:	e6b0      	b.n	d3e0 <__divdi3+0xe0>
    d67e:	1c1c      	adds	r4, r3, #0
    d680:	e689      	b.n	d396 <__divdi3+0x96>
    d682:	4665      	mov	r5, ip
    d684:	042a      	lsls	r2, r5, #16
    d686:	041b      	lsls	r3, r3, #16
    d688:	0c12      	lsrs	r2, r2, #16
    d68a:	189b      	adds	r3, r3, r2
    d68c:	40a6      	lsls	r6, r4
    d68e:	429e      	cmp	r6, r3
    d690:	d2f3      	bcs.n	d67a <__divdi3+0x37a>
    d692:	3f01      	subs	r7, #1
    d694:	2400      	movs	r4, #0
    d696:	e6a3      	b.n	d3e0 <__divdi3+0xe0>
    d698:	2400      	movs	r4, #0
    d69a:	2701      	movs	r7, #1
    d69c:	e6a0      	b.n	d3e0 <__divdi3+0xe0>
    d69e:	4698      	mov	r8, r3
    d6a0:	e7ca      	b.n	d638 <__divdi3+0x338>
    d6a2:	1c1c      	adds	r4, r3, #0
    d6a4:	e76a      	b.n	d57c <__divdi3+0x27c>
    d6a6:	4699      	mov	r9, r3
    d6a8:	e7a5      	b.n	d5f6 <__divdi3+0x2f6>
    d6aa:	4699      	mov	r9, r3
    d6ac:	e746      	b.n	d53c <__divdi3+0x23c>
    d6ae:	2202      	movs	r2, #2
    d6b0:	4252      	negs	r2, r2
    d6b2:	4491      	add	r9, r2
    d6b4:	4441      	add	r1, r8
    d6b6:	e6e0      	b.n	d47a <__divdi3+0x17a>

0000d6b8 <__udivdi3>:
__udivdi3():
    d6b8:	b5f0      	push	{r4, r5, r6, r7, lr}
    d6ba:	465f      	mov	r7, fp
    d6bc:	4656      	mov	r6, sl
    d6be:	464d      	mov	r5, r9
    d6c0:	4644      	mov	r4, r8
    d6c2:	b4f0      	push	{r4, r5, r6, r7}
    d6c4:	1c0d      	adds	r5, r1, #0
    d6c6:	b085      	sub	sp, #20
    d6c8:	1c06      	adds	r6, r0, #0
    d6ca:	4692      	mov	sl, r2
    d6cc:	4698      	mov	r8, r3
    d6ce:	9002      	str	r0, [sp, #8]
    d6d0:	9101      	str	r1, [sp, #4]
    d6d2:	9203      	str	r2, [sp, #12]
    d6d4:	1c1f      	adds	r7, r3, #0
    d6d6:	1c14      	adds	r4, r2, #0
    d6d8:	4683      	mov	fp, r0
    d6da:	46a9      	mov	r9, r5
    d6dc:	2b00      	cmp	r3, #0
    d6de:	d159      	bne.n	d794 <__udivdi3+0xdc>
    d6e0:	42aa      	cmp	r2, r5
    d6e2:	d969      	bls.n	d7b8 <__udivdi3+0x100>
    d6e4:	1c10      	adds	r0, r2, #0
    d6e6:	f7ff fded 	bl	d2c4 <__clzsi2>
    d6ea:	2800      	cmp	r0, #0
    d6ec:	d00a      	beq.n	d704 <__udivdi3+0x4c>
    d6ee:	2320      	movs	r3, #32
    d6f0:	1a1b      	subs	r3, r3, r0
    d6f2:	1c31      	adds	r1, r6, #0
    d6f4:	40d9      	lsrs	r1, r3
    d6f6:	4085      	lsls	r5, r0
    d6f8:	1c0b      	adds	r3, r1, #0
    d6fa:	432b      	orrs	r3, r5
    d6fc:	4086      	lsls	r6, r0
    d6fe:	4084      	lsls	r4, r0
    d700:	4699      	mov	r9, r3
    d702:	46b3      	mov	fp, r6
    d704:	0c25      	lsrs	r5, r4, #16
    d706:	0423      	lsls	r3, r4, #16
    d708:	0c1b      	lsrs	r3, r3, #16
    d70a:	1c29      	adds	r1, r5, #0
    d70c:	4648      	mov	r0, r9
    d70e:	4698      	mov	r8, r3
    d710:	f7fd ff10 	bl	b534 <__aeabi_uidiv>
    d714:	4646      	mov	r6, r8
    d716:	1c07      	adds	r7, r0, #0
    d718:	4346      	muls	r6, r0
    d71a:	1c29      	adds	r1, r5, #0
    d71c:	4648      	mov	r0, r9
    d71e:	f7fd ff4d 	bl	b5bc <__aeabi_uidivmod>
    d722:	465a      	mov	r2, fp
    d724:	0409      	lsls	r1, r1, #16
    d726:	0c13      	lsrs	r3, r2, #16
    d728:	4319      	orrs	r1, r3
    d72a:	428e      	cmp	r6, r1
    d72c:	d909      	bls.n	d742 <__udivdi3+0x8a>
    d72e:	1909      	adds	r1, r1, r4
    d730:	1e7b      	subs	r3, r7, #1
    d732:	428c      	cmp	r4, r1
    d734:	d900      	bls.n	d738 <__udivdi3+0x80>
    d736:	e157      	b.n	d9e8 <__udivdi3+0x330>
    d738:	428e      	cmp	r6, r1
    d73a:	d800      	bhi.n	d73e <__udivdi3+0x86>
    d73c:	e154      	b.n	d9e8 <__udivdi3+0x330>
    d73e:	3f02      	subs	r7, #2
    d740:	1909      	adds	r1, r1, r4
    d742:	1b89      	subs	r1, r1, r6
    d744:	4689      	mov	r9, r1
    d746:	1c08      	adds	r0, r1, #0
    d748:	1c29      	adds	r1, r5, #0
    d74a:	f7fd fef3 	bl	b534 <__aeabi_uidiv>
    d74e:	4643      	mov	r3, r8
    d750:	4343      	muls	r3, r0
    d752:	1c06      	adds	r6, r0, #0
    d754:	1c29      	adds	r1, r5, #0
    d756:	4648      	mov	r0, r9
    d758:	4698      	mov	r8, r3
    d75a:	f7fd ff2f 	bl	b5bc <__aeabi_uidivmod>
    d75e:	465a      	mov	r2, fp
    d760:	0413      	lsls	r3, r2, #16
    d762:	0409      	lsls	r1, r1, #16
    d764:	0c1b      	lsrs	r3, r3, #16
    d766:	4319      	orrs	r1, r3
    d768:	4588      	cmp	r8, r1
    d76a:	d908      	bls.n	d77e <__udivdi3+0xc6>
    d76c:	1909      	adds	r1, r1, r4
    d76e:	1e73      	subs	r3, r6, #1
    d770:	428c      	cmp	r4, r1
    d772:	d900      	bls.n	d776 <__udivdi3+0xbe>
    d774:	e136      	b.n	d9e4 <__udivdi3+0x32c>
    d776:	3e02      	subs	r6, #2
    d778:	4588      	cmp	r8, r1
    d77a:	d800      	bhi.n	d77e <__udivdi3+0xc6>
    d77c:	e132      	b.n	d9e4 <__udivdi3+0x32c>
    d77e:	0438      	lsls	r0, r7, #16
    d780:	4330      	orrs	r0, r6
    d782:	2700      	movs	r7, #0
    d784:	1c39      	adds	r1, r7, #0
    d786:	b005      	add	sp, #20
    d788:	bc3c      	pop	{r2, r3, r4, r5}
    d78a:	4690      	mov	r8, r2
    d78c:	4699      	mov	r9, r3
    d78e:	46a2      	mov	sl, r4
    d790:	46ab      	mov	fp, r5
    d792:	bdf0      	pop	{r4, r5, r6, r7, pc}
    d794:	9a01      	ldr	r2, [sp, #4]
    d796:	4293      	cmp	r3, r2
    d798:	d862      	bhi.n	d860 <__udivdi3+0x1a8>
    d79a:	1c18      	adds	r0, r3, #0
    d79c:	f7ff fd92 	bl	d2c4 <__clzsi2>
    d7a0:	1e04      	subs	r4, r0, #0
    d7a2:	d160      	bne.n	d866 <__udivdi3+0x1ae>
    d7a4:	9b01      	ldr	r3, [sp, #4]
    d7a6:	429f      	cmp	r7, r3
    d7a8:	d200      	bcs.n	d7ac <__udivdi3+0xf4>
    d7aa:	e12c      	b.n	da06 <__udivdi3+0x34e>
    d7ac:	9f02      	ldr	r7, [sp, #8]
    d7ae:	9903      	ldr	r1, [sp, #12]
    d7b0:	428f      	cmp	r7, r1
    d7b2:	4160      	adcs	r0, r4
    d7b4:	2700      	movs	r7, #0
    d7b6:	e7e5      	b.n	d784 <__udivdi3+0xcc>
    d7b8:	2a00      	cmp	r2, #0
    d7ba:	d104      	bne.n	d7c6 <__udivdi3+0x10e>
    d7bc:	2001      	movs	r0, #1
    d7be:	2100      	movs	r1, #0
    d7c0:	f7fd feb8 	bl	b534 <__aeabi_uidiv>
    d7c4:	1c04      	adds	r4, r0, #0
    d7c6:	1c20      	adds	r0, r4, #0
    d7c8:	f7ff fd7c 	bl	d2c4 <__clzsi2>
    d7cc:	2800      	cmp	r0, #0
    d7ce:	d000      	beq.n	d7d2 <__udivdi3+0x11a>
    d7d0:	e0b9      	b.n	d946 <__udivdi3+0x28e>
    d7d2:	0423      	lsls	r3, r4, #16
    d7d4:	1b2d      	subs	r5, r5, r4
    d7d6:	0c1b      	lsrs	r3, r3, #16
    d7d8:	46a9      	mov	r9, r5
    d7da:	0c26      	lsrs	r6, r4, #16
    d7dc:	4698      	mov	r8, r3
    d7de:	2701      	movs	r7, #1
    d7e0:	1c31      	adds	r1, r6, #0
    d7e2:	4648      	mov	r0, r9
    d7e4:	f7fd fea6 	bl	b534 <__aeabi_uidiv>
    d7e8:	4641      	mov	r1, r8
    d7ea:	4341      	muls	r1, r0
    d7ec:	1c05      	adds	r5, r0, #0
    d7ee:	468a      	mov	sl, r1
    d7f0:	4648      	mov	r0, r9
    d7f2:	1c31      	adds	r1, r6, #0
    d7f4:	f7fd fee2 	bl	b5bc <__aeabi_uidivmod>
    d7f8:	465a      	mov	r2, fp
    d7fa:	0408      	lsls	r0, r1, #16
    d7fc:	0c13      	lsrs	r3, r2, #16
    d7fe:	4318      	orrs	r0, r3
    d800:	4582      	cmp	sl, r0
    d802:	d907      	bls.n	d814 <__udivdi3+0x15c>
    d804:	1900      	adds	r0, r0, r4
    d806:	1e6b      	subs	r3, r5, #1
    d808:	4284      	cmp	r4, r0
    d80a:	d802      	bhi.n	d812 <__udivdi3+0x15a>
    d80c:	4582      	cmp	sl, r0
    d80e:	d900      	bls.n	d812 <__udivdi3+0x15a>
    d810:	e110      	b.n	da34 <__udivdi3+0x37c>
    d812:	1c1d      	adds	r5, r3, #0
    d814:	4653      	mov	r3, sl
    d816:	1ac3      	subs	r3, r0, r3
    d818:	1c18      	adds	r0, r3, #0
    d81a:	1c31      	adds	r1, r6, #0
    d81c:	469a      	mov	sl, r3
    d81e:	f7fd fe89 	bl	b534 <__aeabi_uidiv>
    d822:	4641      	mov	r1, r8
    d824:	4341      	muls	r1, r0
    d826:	4681      	mov	r9, r0
    d828:	4688      	mov	r8, r1
    d82a:	4650      	mov	r0, sl
    d82c:	1c31      	adds	r1, r6, #0
    d82e:	f7fd fec5 	bl	b5bc <__aeabi_uidivmod>
    d832:	465a      	mov	r2, fp
    d834:	0413      	lsls	r3, r2, #16
    d836:	0409      	lsls	r1, r1, #16
    d838:	0c1b      	lsrs	r3, r3, #16
    d83a:	4319      	orrs	r1, r3
    d83c:	4588      	cmp	r8, r1
    d83e:	d90b      	bls.n	d858 <__udivdi3+0x1a0>
    d840:	464b      	mov	r3, r9
    d842:	1909      	adds	r1, r1, r4
    d844:	3b01      	subs	r3, #1
    d846:	428c      	cmp	r4, r1
    d848:	d900      	bls.n	d84c <__udivdi3+0x194>
    d84a:	e0cf      	b.n	d9ec <__udivdi3+0x334>
    d84c:	4588      	cmp	r8, r1
    d84e:	d800      	bhi.n	d852 <__udivdi3+0x19a>
    d850:	e0cc      	b.n	d9ec <__udivdi3+0x334>
    d852:	2302      	movs	r3, #2
    d854:	425b      	negs	r3, r3
    d856:	4499      	add	r9, r3
    d858:	0428      	lsls	r0, r5, #16
    d85a:	4649      	mov	r1, r9
    d85c:	4308      	orrs	r0, r1
    d85e:	e791      	b.n	d784 <__udivdi3+0xcc>
    d860:	2700      	movs	r7, #0
    d862:	2000      	movs	r0, #0
    d864:	e78e      	b.n	d784 <__udivdi3+0xcc>
    d866:	2320      	movs	r3, #32
    d868:	1a1b      	subs	r3, r3, r0
    d86a:	4642      	mov	r2, r8
    d86c:	4657      	mov	r7, sl
    d86e:	4082      	lsls	r2, r0
    d870:	40df      	lsrs	r7, r3
    d872:	4317      	orrs	r7, r2
    d874:	4652      	mov	r2, sl
    d876:	4082      	lsls	r2, r0
    d878:	9201      	str	r2, [sp, #4]
    d87a:	1c32      	adds	r2, r6, #0
    d87c:	40da      	lsrs	r2, r3
    d87e:	1c29      	adds	r1, r5, #0
    d880:	40d9      	lsrs	r1, r3
    d882:	4085      	lsls	r5, r0
    d884:	1c13      	adds	r3, r2, #0
    d886:	432b      	orrs	r3, r5
    d888:	9302      	str	r3, [sp, #8]
    d88a:	0c3d      	lsrs	r5, r7, #16
    d88c:	043b      	lsls	r3, r7, #16
    d88e:	0c1b      	lsrs	r3, r3, #16
    d890:	4688      	mov	r8, r1
    d892:	1c08      	adds	r0, r1, #0
    d894:	1c29      	adds	r1, r5, #0
    d896:	469a      	mov	sl, r3
    d898:	f7fd fe4c 	bl	b534 <__aeabi_uidiv>
    d89c:	4653      	mov	r3, sl
    d89e:	4343      	muls	r3, r0
    d8a0:	4681      	mov	r9, r0
    d8a2:	1c29      	adds	r1, r5, #0
    d8a4:	4640      	mov	r0, r8
    d8a6:	469b      	mov	fp, r3
    d8a8:	f7fd fe88 	bl	b5bc <__aeabi_uidivmod>
    d8ac:	9a02      	ldr	r2, [sp, #8]
    d8ae:	0409      	lsls	r1, r1, #16
    d8b0:	0c13      	lsrs	r3, r2, #16
    d8b2:	4319      	orrs	r1, r3
    d8b4:	458b      	cmp	fp, r1
    d8b6:	d906      	bls.n	d8c6 <__udivdi3+0x20e>
    d8b8:	464b      	mov	r3, r9
    d8ba:	19c9      	adds	r1, r1, r7
    d8bc:	3b01      	subs	r3, #1
    d8be:	428f      	cmp	r7, r1
    d8c0:	d800      	bhi.n	d8c4 <__udivdi3+0x20c>
    d8c2:	e0ab      	b.n	da1c <__udivdi3+0x364>
    d8c4:	4699      	mov	r9, r3
    d8c6:	465a      	mov	r2, fp
    d8c8:	1a8a      	subs	r2, r1, r2
    d8ca:	1c10      	adds	r0, r2, #0
    d8cc:	1c29      	adds	r1, r5, #0
    d8ce:	4693      	mov	fp, r2
    d8d0:	f7fd fe30 	bl	b534 <__aeabi_uidiv>
    d8d4:	4653      	mov	r3, sl
    d8d6:	4343      	muls	r3, r0
    d8d8:	1c29      	adds	r1, r5, #0
    d8da:	4680      	mov	r8, r0
    d8dc:	4658      	mov	r0, fp
    d8de:	469a      	mov	sl, r3
    d8e0:	f7fd fe6c 	bl	b5bc <__aeabi_uidivmod>
    d8e4:	9a02      	ldr	r2, [sp, #8]
    d8e6:	0409      	lsls	r1, r1, #16
    d8e8:	0415      	lsls	r5, r2, #16
    d8ea:	0c2d      	lsrs	r5, r5, #16
    d8ec:	4329      	orrs	r1, r5
    d8ee:	458a      	cmp	sl, r1
    d8f0:	d906      	bls.n	d900 <__udivdi3+0x248>
    d8f2:	4643      	mov	r3, r8
    d8f4:	19c9      	adds	r1, r1, r7
    d8f6:	3b01      	subs	r3, #1
    d8f8:	428f      	cmp	r7, r1
    d8fa:	d800      	bhi.n	d8fe <__udivdi3+0x246>
    d8fc:	e086      	b.n	da0c <__udivdi3+0x354>
    d8fe:	4698      	mov	r8, r3
    d900:	4657      	mov	r7, sl
    d902:	1bcf      	subs	r7, r1, r7
    d904:	46ba      	mov	sl, r7
    d906:	4649      	mov	r1, r9
    d908:	9f01      	ldr	r7, [sp, #4]
    d90a:	0408      	lsls	r0, r1, #16
    d90c:	4642      	mov	r2, r8
    d90e:	4310      	orrs	r0, r2
    d910:	043d      	lsls	r5, r7, #16
    d912:	0c2d      	lsrs	r5, r5, #16
    d914:	0403      	lsls	r3, r0, #16
    d916:	0c3f      	lsrs	r7, r7, #16
    d918:	0c1b      	lsrs	r3, r3, #16
    d91a:	0c02      	lsrs	r2, r0, #16
    d91c:	1c29      	adds	r1, r5, #0
    d91e:	4359      	muls	r1, r3
    d920:	4355      	muls	r5, r2
    d922:	437b      	muls	r3, r7
    d924:	437a      	muls	r2, r7
    d926:	18eb      	adds	r3, r5, r3
    d928:	0c0f      	lsrs	r7, r1, #16
    d92a:	19db      	adds	r3, r3, r7
    d92c:	468c      	mov	ip, r1
    d92e:	429d      	cmp	r5, r3
    d930:	d902      	bls.n	d938 <__udivdi3+0x280>
    d932:	2780      	movs	r7, #128	; 0x80
    d934:	027f      	lsls	r7, r7, #9
    d936:	19d2      	adds	r2, r2, r7
    d938:	0c1d      	lsrs	r5, r3, #16
    d93a:	1952      	adds	r2, r2, r5
    d93c:	4592      	cmp	sl, r2
    d93e:	d35f      	bcc.n	da00 <__udivdi3+0x348>
    d940:	d056      	beq.n	d9f0 <__udivdi3+0x338>
    d942:	2700      	movs	r7, #0
    d944:	e71e      	b.n	d784 <__udivdi3+0xcc>
    d946:	2320      	movs	r3, #32
    d948:	1a1b      	subs	r3, r3, r0
    d94a:	1c31      	adds	r1, r6, #0
    d94c:	1c2f      	adds	r7, r5, #0
    d94e:	40d9      	lsrs	r1, r3
    d950:	40df      	lsrs	r7, r3
    d952:	4085      	lsls	r5, r0
    d954:	1c0b      	adds	r3, r1, #0
    d956:	4084      	lsls	r4, r0
    d958:	432b      	orrs	r3, r5
    d95a:	4086      	lsls	r6, r0
    d95c:	9301      	str	r3, [sp, #4]
    d95e:	46b3      	mov	fp, r6
    d960:	0423      	lsls	r3, r4, #16
    d962:	0c26      	lsrs	r6, r4, #16
    d964:	0c1b      	lsrs	r3, r3, #16
    d966:	1c38      	adds	r0, r7, #0
    d968:	1c31      	adds	r1, r6, #0
    d96a:	4698      	mov	r8, r3
    d96c:	f7fd fde2 	bl	b534 <__aeabi_uidiv>
    d970:	4642      	mov	r2, r8
    d972:	4342      	muls	r2, r0
    d974:	1c05      	adds	r5, r0, #0
    d976:	1c31      	adds	r1, r6, #0
    d978:	1c38      	adds	r0, r7, #0
    d97a:	4691      	mov	r9, r2
    d97c:	f7fd fe1e 	bl	b5bc <__aeabi_uidivmod>
    d980:	9f01      	ldr	r7, [sp, #4]
    d982:	0409      	lsls	r1, r1, #16
    d984:	0c3b      	lsrs	r3, r7, #16
    d986:	4319      	orrs	r1, r3
    d988:	4589      	cmp	r9, r1
    d98a:	d907      	bls.n	d99c <__udivdi3+0x2e4>
    d98c:	1909      	adds	r1, r1, r4
    d98e:	1e6b      	subs	r3, r5, #1
    d990:	428c      	cmp	r4, r1
    d992:	d84d      	bhi.n	da30 <__udivdi3+0x378>
    d994:	4589      	cmp	r9, r1
    d996:	d94b      	bls.n	da30 <__udivdi3+0x378>
    d998:	3d02      	subs	r5, #2
    d99a:	1909      	adds	r1, r1, r4
    d99c:	464a      	mov	r2, r9
    d99e:	1a8a      	subs	r2, r1, r2
    d9a0:	1c10      	adds	r0, r2, #0
    d9a2:	1c31      	adds	r1, r6, #0
    d9a4:	4692      	mov	sl, r2
    d9a6:	f7fd fdc5 	bl	b534 <__aeabi_uidiv>
    d9aa:	4643      	mov	r3, r8
    d9ac:	4343      	muls	r3, r0
    d9ae:	1c07      	adds	r7, r0, #0
    d9b0:	1c31      	adds	r1, r6, #0
    d9b2:	4650      	mov	r0, sl
    d9b4:	4699      	mov	r9, r3
    d9b6:	f7fd fe01 	bl	b5bc <__aeabi_uidivmod>
    d9ba:	9a01      	ldr	r2, [sp, #4]
    d9bc:	0409      	lsls	r1, r1, #16
    d9be:	0413      	lsls	r3, r2, #16
    d9c0:	0c1b      	lsrs	r3, r3, #16
    d9c2:	4319      	orrs	r1, r3
    d9c4:	4589      	cmp	r9, r1
    d9c6:	d907      	bls.n	d9d8 <__udivdi3+0x320>
    d9c8:	1909      	adds	r1, r1, r4
    d9ca:	1e7b      	subs	r3, r7, #1
    d9cc:	428c      	cmp	r4, r1
    d9ce:	d82d      	bhi.n	da2c <__udivdi3+0x374>
    d9d0:	4589      	cmp	r9, r1
    d9d2:	d92b      	bls.n	da2c <__udivdi3+0x374>
    d9d4:	3f02      	subs	r7, #2
    d9d6:	1909      	adds	r1, r1, r4
    d9d8:	464b      	mov	r3, r9
    d9da:	1acb      	subs	r3, r1, r3
    d9dc:	042d      	lsls	r5, r5, #16
    d9de:	4699      	mov	r9, r3
    d9e0:	432f      	orrs	r7, r5
    d9e2:	e6fd      	b.n	d7e0 <__udivdi3+0x128>
    d9e4:	1c1e      	adds	r6, r3, #0
    d9e6:	e6ca      	b.n	d77e <__udivdi3+0xc6>
    d9e8:	1c1f      	adds	r7, r3, #0
    d9ea:	e6aa      	b.n	d742 <__udivdi3+0x8a>
    d9ec:	4699      	mov	r9, r3
    d9ee:	e733      	b.n	d858 <__udivdi3+0x1a0>
    d9f0:	4661      	mov	r1, ip
    d9f2:	040a      	lsls	r2, r1, #16
    d9f4:	041b      	lsls	r3, r3, #16
    d9f6:	0c12      	lsrs	r2, r2, #16
    d9f8:	189b      	adds	r3, r3, r2
    d9fa:	40a6      	lsls	r6, r4
    d9fc:	429e      	cmp	r6, r3
    d9fe:	d2a0      	bcs.n	d942 <__udivdi3+0x28a>
    da00:	3801      	subs	r0, #1
    da02:	2700      	movs	r7, #0
    da04:	e6be      	b.n	d784 <__udivdi3+0xcc>
    da06:	2700      	movs	r7, #0
    da08:	2001      	movs	r0, #1
    da0a:	e6bb      	b.n	d784 <__udivdi3+0xcc>
    da0c:	458a      	cmp	sl, r1
    da0e:	d800      	bhi.n	da12 <__udivdi3+0x35a>
    da10:	e775      	b.n	d8fe <__udivdi3+0x246>
    da12:	2302      	movs	r3, #2
    da14:	425b      	negs	r3, r3
    da16:	4498      	add	r8, r3
    da18:	19c9      	adds	r1, r1, r7
    da1a:	e771      	b.n	d900 <__udivdi3+0x248>
    da1c:	458b      	cmp	fp, r1
    da1e:	d800      	bhi.n	da22 <__udivdi3+0x36a>
    da20:	e750      	b.n	d8c4 <__udivdi3+0x20c>
    da22:	2302      	movs	r3, #2
    da24:	425b      	negs	r3, r3
    da26:	4499      	add	r9, r3
    da28:	19c9      	adds	r1, r1, r7
    da2a:	e74c      	b.n	d8c6 <__udivdi3+0x20e>
    da2c:	1c1f      	adds	r7, r3, #0
    da2e:	e7d3      	b.n	d9d8 <__udivdi3+0x320>
    da30:	1c1d      	adds	r5, r3, #0
    da32:	e7b3      	b.n	d99c <__udivdi3+0x2e4>
    da34:	3d02      	subs	r5, #2
    da36:	1900      	adds	r0, r0, r4
    da38:	e6ec      	b.n	d814 <__udivdi3+0x15c>
    da3a:	46c0      	nop			; (mov r8, r8)

0000da3c <LPTMR0_IRQ>:
LPTMR0_IRQ():
E:\2017-2018\03_Graduation Project\04_Software\04_wangshi\03_UpdateSoftware-180625\02_UEUser\KL36_Update-180627\Debug/../06_NosPrg/isr.c:19
//         +1gcd.currentTime++
//         )gTime[14]
//2017.8.11WYH
//======================================================================
void LPTMR0_IRQ(void)
{
    da3c:	b5f0      	push	{r4, r5, r6, r7, lr}
    da3e:	af00      	add	r7, sp, #0
__disable_irq():
E:\2017-2018\03_Graduation Project\04_Software\04_wangshi\03_UpdateSoftware-180625\02_UEUser\KL36_Update-180627\02_Core/core_cmFunc.h:344
  This function disables IRQ interrupts by setting the I-bit in the CPSR.
  Can only be executed in Privileged modes.
 */
__attribute__( ( always_inline ) ) __STATIC_INLINE void __disable_irq(void)
{
  __ASM volatile ("cpsid i" : : : "memory");
    da40:	b672      	cpsid	i
LPTMR0_IRQ():
E:\2017-2018\03_Graduation Project\04_Software\04_wangshi\03_UpdateSoftware-180625\02_UEUser\KL36_Update-180627\Debug/../06_NosPrg/isr.c:22
	static uint_8 count = 0;
	DISABLE_INTERRUPTS;        //
	CLEAR_LPTMR_FLAG;          //
    da42:	4b42      	ldr	r3, [pc, #264]	; (db4c <LPTMR0_IRQ+0x110>)
    da44:	4a41      	ldr	r2, [pc, #260]	; (db4c <LPTMR0_IRQ+0x110>)
    da46:	6812      	ldr	r2, [r2, #0]
    da48:	2180      	movs	r1, #128	; 0x80
    da4a:	430a      	orrs	r2, r1
    da4c:	601a      	str	r2, [r3, #0]
E:\2017-2018\03_Graduation Project\04_Software\04_wangshi\03_UpdateSoftware-180625\02_UEUser\KL36_Update-180627\Debug/../06_NosPrg/isr.c:24
	//--------------------------------
	count++;
    da4e:	4b40      	ldr	r3, [pc, #256]	; (db50 <LPTMR0_IRQ+0x114>)
    da50:	781b      	ldrb	r3, [r3, #0]
    da52:	3301      	adds	r3, #1
    da54:	b2da      	uxtb	r2, r3
    da56:	4b3e      	ldr	r3, [pc, #248]	; (db50 <LPTMR0_IRQ+0x114>)
    da58:	701a      	strb	r2, [r3, #0]
E:\2017-2018\03_Graduation Project\04_Software\04_wangshi\03_UpdateSoftware-180625\02_UEUser\KL36_Update-180627\Debug/../06_NosPrg/isr.c:25
	if(count >= 2)
    da5a:	4b3d      	ldr	r3, [pc, #244]	; (db50 <LPTMR0_IRQ+0x114>)
    da5c:	781b      	ldrb	r3, [r3, #0]
    da5e:	2b01      	cmp	r3, #1
    da60:	d96a      	bls.n	db38 <LPTMR0_IRQ+0xfc>
E:\2017-2018\03_Graduation Project\04_Software\04_wangshi\03_UpdateSoftware-180625\02_UEUser\KL36_Update-180627\Debug/../06_NosPrg/isr.c:27
	{
		count = 0;
    da62:	4b3b      	ldr	r3, [pc, #236]	; (db50 <LPTMR0_IRQ+0x114>)
    da64:	2200      	movs	r2, #0
    da66:	701a      	strb	r2, [r3, #0]
E:\2017-2018\03_Graduation Project\04_Software\04_wangshi\03_UpdateSoftware-180625\02_UEUser\KL36_Update-180627\Debug/../06_NosPrg/isr.c:28
		gUserData.currentTime++;                    //+1
    da68:	4b3a      	ldr	r3, [pc, #232]	; (db54 <LPTMR0_IRQ+0x118>)
    da6a:	2027      	movs	r0, #39	; 0x27
    da6c:	5c18      	ldrb	r0, [r3, r0]
    da6e:	2428      	movs	r4, #40	; 0x28
    da70:	5d1c      	ldrb	r4, [r3, r4]
    da72:	0224      	lsls	r4, r4, #8
    da74:	4320      	orrs	r0, r4
    da76:	2429      	movs	r4, #41	; 0x29
    da78:	5d1c      	ldrb	r4, [r3, r4]
    da7a:	0424      	lsls	r4, r4, #16
    da7c:	4320      	orrs	r0, r4
    da7e:	242a      	movs	r4, #42	; 0x2a
    da80:	5d1c      	ldrb	r4, [r3, r4]
    da82:	0624      	lsls	r4, r4, #24
    da84:	4320      	orrs	r0, r4
    da86:	1c01      	adds	r1, r0, #0
    da88:	202b      	movs	r0, #43	; 0x2b
    da8a:	5c18      	ldrb	r0, [r3, r0]
    da8c:	242c      	movs	r4, #44	; 0x2c
    da8e:	5d1c      	ldrb	r4, [r3, r4]
    da90:	0224      	lsls	r4, r4, #8
    da92:	4320      	orrs	r0, r4
    da94:	242d      	movs	r4, #45	; 0x2d
    da96:	5d1c      	ldrb	r4, [r3, r4]
    da98:	0424      	lsls	r4, r4, #16
    da9a:	4320      	orrs	r0, r4
    da9c:	242e      	movs	r4, #46	; 0x2e
    da9e:	5d1b      	ldrb	r3, [r3, r4]
    daa0:	061b      	lsls	r3, r3, #24
    daa2:	4303      	orrs	r3, r0
    daa4:	1c1a      	adds	r2, r3, #0
    daa6:	2301      	movs	r3, #1
    daa8:	2400      	movs	r4, #0
    daaa:	18c9      	adds	r1, r1, r3
    daac:	4162      	adcs	r2, r4
    daae:	4b29      	ldr	r3, [pc, #164]	; (db54 <LPTMR0_IRQ+0x118>)
    dab0:	20ff      	movs	r0, #255	; 0xff
    dab2:	1c0c      	adds	r4, r1, #0
    dab4:	4004      	ands	r4, r0
    dab6:	2027      	movs	r0, #39	; 0x27
    dab8:	5c1e      	ldrb	r6, [r3, r0]
    daba:	2500      	movs	r5, #0
    dabc:	4035      	ands	r5, r6
    dabe:	432c      	orrs	r4, r5
    dac0:	541c      	strb	r4, [r3, r0]
    dac2:	0a0c      	lsrs	r4, r1, #8
    dac4:	20ff      	movs	r0, #255	; 0xff
    dac6:	4004      	ands	r4, r0
    dac8:	2028      	movs	r0, #40	; 0x28
    daca:	5c1e      	ldrb	r6, [r3, r0]
    dacc:	2500      	movs	r5, #0
    dace:	4035      	ands	r5, r6
    dad0:	432c      	orrs	r4, r5
    dad2:	541c      	strb	r4, [r3, r0]
    dad4:	0c0c      	lsrs	r4, r1, #16
    dad6:	20ff      	movs	r0, #255	; 0xff
    dad8:	4004      	ands	r4, r0
    dada:	2029      	movs	r0, #41	; 0x29
    dadc:	5c1e      	ldrb	r6, [r3, r0]
    dade:	2500      	movs	r5, #0
    dae0:	4035      	ands	r5, r6
    dae2:	432c      	orrs	r4, r5
    dae4:	541c      	strb	r4, [r3, r0]
    dae6:	0e0c      	lsrs	r4, r1, #24
    dae8:	202a      	movs	r0, #42	; 0x2a
    daea:	5c1e      	ldrb	r6, [r3, r0]
    daec:	2500      	movs	r5, #0
    daee:	4035      	ands	r5, r6
    daf0:	432c      	orrs	r4, r5
    daf2:	541c      	strb	r4, [r3, r0]
    daf4:	20ff      	movs	r0, #255	; 0xff
    daf6:	1c14      	adds	r4, r2, #0
    daf8:	4004      	ands	r4, r0
    dafa:	202b      	movs	r0, #43	; 0x2b
    dafc:	5c1e      	ldrb	r6, [r3, r0]
    dafe:	2500      	movs	r5, #0
    db00:	4035      	ands	r5, r6
    db02:	432c      	orrs	r4, r5
    db04:	541c      	strb	r4, [r3, r0]
    db06:	0a14      	lsrs	r4, r2, #8
    db08:	20ff      	movs	r0, #255	; 0xff
    db0a:	4004      	ands	r4, r0
    db0c:	202c      	movs	r0, #44	; 0x2c
    db0e:	5c1e      	ldrb	r6, [r3, r0]
    db10:	2500      	movs	r5, #0
    db12:	4035      	ands	r5, r6
    db14:	432c      	orrs	r4, r5
    db16:	541c      	strb	r4, [r3, r0]
    db18:	0c14      	lsrs	r4, r2, #16
    db1a:	20ff      	movs	r0, #255	; 0xff
    db1c:	4004      	ands	r4, r0
    db1e:	202d      	movs	r0, #45	; 0x2d
    db20:	5c1e      	ldrb	r6, [r3, r0]
    db22:	2500      	movs	r5, #0
    db24:	4035      	ands	r5, r6
    db26:	432c      	orrs	r4, r5
    db28:	541c      	strb	r4, [r3, r0]
    db2a:	0e11      	lsrs	r1, r2, #24
    db2c:	222e      	movs	r2, #46	; 0x2e
    db2e:	5c9c      	ldrb	r4, [r3, r2]
    db30:	2000      	movs	r0, #0
    db32:	4020      	ands	r0, r4
    db34:	4301      	orrs	r1, r0
    db36:	5499      	strb	r1, [r3, r2]
E:\2017-2018\03_Graduation Project\04_Software\04_wangshi\03_UpdateSoftware-180625\02_UEUser\KL36_Update-180627\Debug/../06_NosPrg/isr.c:30
	}
	BSET(TSI_GENCS_TSIEN_SHIFT,TSI0_GENCS);
    db38:	4b07      	ldr	r3, [pc, #28]	; (db58 <LPTMR0_IRQ+0x11c>)
    db3a:	4a07      	ldr	r2, [pc, #28]	; (db58 <LPTMR0_IRQ+0x11c>)
    db3c:	6812      	ldr	r2, [r2, #0]
    db3e:	2180      	movs	r1, #128	; 0x80
    db40:	430a      	orrs	r2, r1
    db42:	601a      	str	r2, [r3, #0]
__enable_irq():
E:\2017-2018\03_Graduation Project\04_Software\04_wangshi\03_UpdateSoftware-180625\02_UEUser\KL36_Update-180627\02_Core/core_cmFunc.h:333
  This function enables IRQ interrupts by clearing the I-bit in the CPSR.
  Can only be executed in Privileged modes.
 */
__attribute__( ( always_inline ) ) __STATIC_INLINE void __enable_irq(void)
{
  __ASM volatile ("cpsie i" : : : "memory");
    db44:	b662      	cpsie	i
LPTMR0_IRQ():
E:\2017-2018\03_Graduation Project\04_Software\04_wangshi\03_UpdateSoftware-180625\02_UEUser\KL36_Update-180627\Debug/../06_NosPrg/isr.c:33
    //--------------------------------
    ENABLE_INTERRUPTS;       //
}
    db46:	46bd      	mov	sp, r7
    db48:	bdf0      	pop	{r4, r5, r6, r7, pc}
    db4a:	46c0      	nop			; (mov r8, r8)
    db4c:	40040000 	.word	0x40040000
    db50:	1ffff884 	.word	0x1ffff884
    db54:	1ffffe3c 	.word	0x1ffffe3c
    db58:	40045000 	.word	0x40045000

0000db5c <TSI0_IRQ>:
TSI0_IRQ():
E:\2017-2018\03_Graduation Project\04_Software\04_wangshi\03_UpdateSoftware-180625\02_UEUser\KL36_Update-180627\Debug/../06_NosPrg/isr.c:43
//
//
//TSITSI
//======================================================================
void TSI0_IRQ(void)
{
    db5c:	b5b0      	push	{r4, r5, r7, lr}
    db5e:	b084      	sub	sp, #16
    db60:	af00      	add	r7, sp, #0
__disable_irq():
E:\2017-2018\03_Graduation Project\04_Software\04_wangshi\03_UpdateSoftware-180625\02_UEUser\KL36_Update-180627\02_Core/core_cmFunc.h:344
  This function disables IRQ interrupts by setting the I-bit in the CPSR.
  Can only be executed in Privileged modes.
 */
__attribute__( ( always_inline ) ) __STATIC_INLINE void __disable_irq(void)
{
  __ASM volatile ("cpsid i" : : : "memory");
    db62:	b672      	cpsid	i
TSI0_IRQ():
E:\2017-2018\03_Graduation Project\04_Software\04_wangshi\03_UpdateSoftware-180625\02_UEUser\KL36_Update-180627\Debug/../06_NosPrg/isr.c:50
	uint_16 i;
	uint_8 touchNum[10];
	DISABLE_INTERRUPTS;      //
	//-------------------------------

	if(TSI0_GENCS & TSI_GENCS_OUTRGF_MASK)//
    db64:	4b1e      	ldr	r3, [pc, #120]	; (dbe0 <TSI0_IRQ+0x84>)
    db66:	681b      	ldr	r3, [r3, #0]
    db68:	2b00      	cmp	r3, #0
    db6a:	da27      	bge.n	dbbc <TSI0_IRQ+0x60>
E:\2017-2018\03_Graduation Project\04_Software\04_wangshi\03_UpdateSoftware-180625\02_UEUser\KL36_Update-180627\Debug/../06_NosPrg/isr.c:54
	{
		//
//		i = tsi_get_value16();
		i = (TSI0_DATA & TSI_DATA_TSICNT_MASK);      //;
    db6c:	4b1c      	ldr	r3, [pc, #112]	; (dbe0 <TSI0_IRQ+0x84>)
    db6e:	685a      	ldr	r2, [r3, #4]
    db70:	1c3b      	adds	r3, r7, #0
    db72:	330e      	adds	r3, #14
    db74:	801a      	strh	r2, [r3, #0]
E:\2017-2018\03_Graduation Project\04_Software\04_wangshi\03_UpdateSoftware-180625\02_UEUser\KL36_Update-180627\Debug/../06_NosPrg/isr.c:55
		if(i>500)
    db76:	1c3b      	adds	r3, r7, #0
    db78:	330e      	adds	r3, #14
    db7a:	881a      	ldrh	r2, [r3, #0]
    db7c:	23fa      	movs	r3, #250	; 0xfa
    db7e:	005b      	lsls	r3, r3, #1
    db80:	429a      	cmp	r2, r3
    db82:	d91b      	bls.n	dbbc <TSI0_IRQ+0x60>
E:\2017-2018\03_Graduation Project\04_Software\04_wangshi\03_UpdateSoftware-180625\02_UEUser\KL36_Update-180627\Debug/../06_NosPrg/isr.c:57
		{
			gUserData.touchNum++;
    db84:	4b17      	ldr	r3, [pc, #92]	; (dbe4 <TSI0_IRQ+0x88>)
    db86:	22e8      	movs	r2, #232	; 0xe8
    db88:	5c9a      	ldrb	r2, [r3, r2]
    db8a:	21e9      	movs	r1, #233	; 0xe9
    db8c:	5c5b      	ldrb	r3, [r3, r1]
    db8e:	021b      	lsls	r3, r3, #8
    db90:	4313      	orrs	r3, r2
    db92:	b29b      	uxth	r3, r3
    db94:	3301      	adds	r3, #1
    db96:	b29a      	uxth	r2, r3
    db98:	4b12      	ldr	r3, [pc, #72]	; (dbe4 <TSI0_IRQ+0x88>)
    db9a:	21ff      	movs	r1, #255	; 0xff
    db9c:	1c10      	adds	r0, r2, #0
    db9e:	4008      	ands	r0, r1
    dba0:	21e8      	movs	r1, #232	; 0xe8
    dba2:	5c5d      	ldrb	r5, [r3, r1]
    dba4:	2400      	movs	r4, #0
    dba6:	402c      	ands	r4, r5
    dba8:	4320      	orrs	r0, r4
    dbaa:	5458      	strb	r0, [r3, r1]
    dbac:	0a12      	lsrs	r2, r2, #8
    dbae:	b291      	uxth	r1, r2
    dbb0:	22e9      	movs	r2, #233	; 0xe9
    dbb2:	5c9c      	ldrb	r4, [r3, r2]
    dbb4:	2000      	movs	r0, #0
    dbb6:	4020      	ands	r0, r4
    dbb8:	4301      	orrs	r1, r0
    dbba:	5499      	strb	r1, [r3, r2]
E:\2017-2018\03_Graduation Project\04_Software\04_wangshi\03_UpdateSoftware-180625\02_UEUser\KL36_Update-180627\Debug/../06_NosPrg/isr.c:62
            //LCD_ShowString(36,209,BLUE,GRAY,(uint_8 *)myItoa(gUserData.touchNum,touchNum,10));
		}
	}
	//1
	TSI0_GENCS |=  TSI_GENCS_OUTRGF_MASK;//1
    dbbc:	4b08      	ldr	r3, [pc, #32]	; (dbe0 <TSI0_IRQ+0x84>)
    dbbe:	4a08      	ldr	r2, [pc, #32]	; (dbe0 <TSI0_IRQ+0x84>)
    dbc0:	6812      	ldr	r2, [r2, #0]
    dbc2:	2180      	movs	r1, #128	; 0x80
    dbc4:	0609      	lsls	r1, r1, #24
    dbc6:	430a      	orrs	r2, r1
    dbc8:	601a      	str	r2, [r3, #0]
E:\2017-2018\03_Graduation Project\04_Software\04_wangshi\03_UpdateSoftware-180625\02_UEUser\KL36_Update-180627\Debug/../06_NosPrg/isr.c:63
	BCLR(TSI_GENCS_TSIEN_SHIFT,TSI0_GENCS);
    dbca:	4b05      	ldr	r3, [pc, #20]	; (dbe0 <TSI0_IRQ+0x84>)
    dbcc:	4a04      	ldr	r2, [pc, #16]	; (dbe0 <TSI0_IRQ+0x84>)
    dbce:	6812      	ldr	r2, [r2, #0]
    dbd0:	2180      	movs	r1, #128	; 0x80
    dbd2:	438a      	bics	r2, r1
    dbd4:	601a      	str	r2, [r3, #0]
__enable_irq():
E:\2017-2018\03_Graduation Project\04_Software\04_wangshi\03_UpdateSoftware-180625\02_UEUser\KL36_Update-180627\02_Core/core_cmFunc.h:333
  This function enables IRQ interrupts by clearing the I-bit in the CPSR.
  Can only be executed in Privileged modes.
 */
__attribute__( ( always_inline ) ) __STATIC_INLINE void __enable_irq(void)
{
  __ASM volatile ("cpsie i" : : : "memory");
    dbd6:	b662      	cpsie	i
TSI0_IRQ():
E:\2017-2018\03_Graduation Project\04_Software\04_wangshi\03_UpdateSoftware-180625\02_UEUser\KL36_Update-180627\Debug/../06_NosPrg/isr.c:66
	//-------------------------------
	ENABLE_INTERRUPTS;       //
}
    dbd8:	46bd      	mov	sp, r7
    dbda:	b004      	add	sp, #16
    dbdc:	bdb0      	pop	{r4, r5, r7, pc}
    dbde:	46c0      	nop			; (mov r8, r8)
    dbe0:	40045000 	.word	0x40045000
    dbe4:	1ffffe3c 	.word	0x1ffffe3c

0000dbe8 <UART0_IRQHandler>:
UART0_IRQHandler():
E:\2017-2018\03_Graduation Project\04_Software\04_wangshi\03_UpdateSoftware-180625\02_UEUser\KL36_Update-180627\Debug/../06_NosPrg/isr.c:75
//
//
//0
//======================================================================
void UART0_IRQHandler(void)
{
    dbe8:	b590      	push	{r4, r7, lr}
    dbea:	b083      	sub	sp, #12
    dbec:	af00      	add	r7, sp, #0
__disable_irq():
E:\2017-2018\03_Graduation Project\04_Software\04_wangshi\03_UpdateSoftware-180625\02_UEUser\KL36_Update-180627\02_Core/core_cmFunc.h:344
  This function disables IRQ interrupts by setting the I-bit in the CPSR.
  Can only be executed in Privileged modes.
 */
__attribute__( ( always_inline ) ) __STATIC_INLINE void __disable_irq(void)
{
  __ASM volatile ("cpsid i" : : : "memory");
    dbee:	b672      	cpsid	i
UART0_IRQHandler():
E:\2017-2018\03_Graduation Project\04_Software\04_wangshi\03_UpdateSoftware-180625\02_UEUser\KL36_Update-180627\Debug/../06_NosPrg/isr.c:80
	uint_8 ch;
	uint_8 flag;
	DISABLE_INTERRUPTS;      //
	//-------------------------------
	if(uart_get_re_int(UART_0))
    dbf0:	4b0f      	ldr	r3, [pc, #60]	; (dc30 <UART0_IRQHandler+0x48>)
    dbf2:	681b      	ldr	r3, [r3, #0]
    dbf4:	2000      	movs	r0, #0
    dbf6:	4798      	blx	r3
    dbf8:	1c03      	adds	r3, r0, #0
    dbfa:	2b00      	cmp	r3, #0
    dbfc:	d013      	beq.n	dc26 <UART0_IRQHandler+0x3e>
E:\2017-2018\03_Graduation Project\04_Software\04_wangshi\03_UpdateSoftware-180625\02_UEUser\KL36_Update-180627\Debug/../06_NosPrg/isr.c:82
	{
		ch = uart_re1 (UART_0, &flag);    //
    dbfe:	4b0d      	ldr	r3, [pc, #52]	; (dc34 <UART0_IRQHandler+0x4c>)
    dc00:	681b      	ldr	r3, [r3, #0]
    dc02:	1dfc      	adds	r4, r7, #7
    dc04:	1dba      	adds	r2, r7, #6
    dc06:	2000      	movs	r0, #0
    dc08:	1c11      	adds	r1, r2, #0
    dc0a:	4798      	blx	r3
    dc0c:	1c03      	adds	r3, r0, #0
    dc0e:	7023      	strb	r3, [r4, #0]
E:\2017-2018\03_Graduation Project\04_Software\04_wangshi\03_UpdateSoftware-180625\02_UEUser\KL36_Update-180627\Debug/../06_NosPrg/isr.c:83
		if(flag)
    dc10:	1dbb      	adds	r3, r7, #6
    dc12:	781b      	ldrb	r3, [r3, #0]
    dc14:	2b00      	cmp	r3, #0
    dc16:	d006      	beq.n	dc26 <UART0_IRQHandler+0x3e>
E:\2017-2018\03_Graduation Project\04_Software\04_wangshi\03_UpdateSoftware-180625\02_UEUser\KL36_Update-180627\Debug/../06_NosPrg/isr.c:85
		{
			uart_send1(UART_0, ch);     //
    dc18:	4b07      	ldr	r3, [pc, #28]	; (dc38 <UART0_IRQHandler+0x50>)
    dc1a:	681b      	ldr	r3, [r3, #0]
    dc1c:	1dfa      	adds	r2, r7, #7
    dc1e:	7812      	ldrb	r2, [r2, #0]
    dc20:	2000      	movs	r0, #0
    dc22:	1c11      	adds	r1, r2, #0
    dc24:	4798      	blx	r3
__enable_irq():
E:\2017-2018\03_Graduation Project\04_Software\04_wangshi\03_UpdateSoftware-180625\02_UEUser\KL36_Update-180627\02_Core/core_cmFunc.h:333
  This function enables IRQ interrupts by clearing the I-bit in the CPSR.
  Can only be executed in Privileged modes.
 */
__attribute__( ( always_inline ) ) __STATIC_INLINE void __enable_irq(void)
{
  __ASM volatile ("cpsie i" : : : "memory");
    dc26:	b662      	cpsie	i
UART0_IRQHandler():
E:\2017-2018\03_Graduation Project\04_Software\04_wangshi\03_UpdateSoftware-180625\02_UEUser\KL36_Update-180627\Debug/../06_NosPrg/isr.c:90
		}
	}
	//-------------------------------
	ENABLE_INTERRUPTS;       //
}
    dc28:	46bd      	mov	sp, r7
    dc2a:	b003      	add	sp, #12
    dc2c:	bd90      	pop	{r4, r7, pc}
    dc2e:	46c0      	nop			; (mov r8, r8)
    dc30:	1ffff8d8 	.word	0x1ffff8d8
    dc34:	1ffff914 	.word	0x1ffff914
    dc38:	1ffff958 	.word	0x1ffff958

0000dc3c <UART1_IRQHandler>:
UART1_IRQHandler():
E:\2017-2018\03_Graduation Project\04_Software\04_wangshi\03_UpdateSoftware-180625\02_UEUser\KL36_Update-180627\Debug/../06_NosPrg/isr.c:99
//
//
//1
//======================================================================
void UART1_IRQHandler(void)
{
    dc3c:	b590      	push	{r4, r7, lr}
    dc3e:	b083      	sub	sp, #12
    dc40:	af00      	add	r7, sp, #0
__disable_irq():
E:\2017-2018\03_Graduation Project\04_Software\04_wangshi\03_UpdateSoftware-180625\02_UEUser\KL36_Update-180627\02_Core/core_cmFunc.h:344
  This function disables IRQ interrupts by setting the I-bit in the CPSR.
  Can only be executed in Privileged modes.
 */
__attribute__( ( always_inline ) ) __STATIC_INLINE void __disable_irq(void)
{
  __ASM volatile ("cpsid i" : : : "memory");
    dc42:	b672      	cpsid	i
UART1_IRQHandler():
E:\2017-2018\03_Graduation Project\04_Software\04_wangshi\03_UpdateSoftware-180625\02_UEUser\KL36_Update-180627\Debug/../06_NosPrg/isr.c:105
	uint_8 ch;
	uint_8 flag;
	DISABLE_INTERRUPTS;      //
	//-------------------------------
    //
	ch = uart_re1(UART_1, &flag);   //
    dc44:	4b0b      	ldr	r3, [pc, #44]	; (dc74 <UART1_IRQHandler+0x38>)
    dc46:	681b      	ldr	r3, [r3, #0]
    dc48:	1dfc      	adds	r4, r7, #7
    dc4a:	1dba      	adds	r2, r7, #6
    dc4c:	2001      	movs	r0, #1
    dc4e:	1c11      	adds	r1, r2, #0
    dc50:	4798      	blx	r3
    dc52:	1c03      	adds	r3, r0, #0
    dc54:	7023      	strb	r3, [r4, #0]
E:\2017-2018\03_Graduation Project\04_Software\04_wangshi\03_UpdateSoftware-180625\02_UEUser\KL36_Update-180627\Debug/../06_NosPrg/isr.c:106
	if(flag)   //
    dc56:	1dbb      	adds	r3, r7, #6
    dc58:	781b      	ldrb	r3, [r3, #0]
    dc5a:	2b00      	cmp	r3, #0
    dc5c:	d006      	beq.n	dc6c <UART1_IRQHandler+0x30>
E:\2017-2018\03_Graduation Project\04_Software\04_wangshi\03_UpdateSoftware-180625\02_UEUser\KL36_Update-180627\Debug/../06_NosPrg/isr.c:108
	{
		uecom_interrupt(ch,&gRecvLength,gRecvBuf);
    dc5e:	4b06      	ldr	r3, [pc, #24]	; (dc78 <UART1_IRQHandler+0x3c>)
    dc60:	681b      	ldr	r3, [r3, #0]
    dc62:	1dfa      	adds	r2, r7, #7
    dc64:	7810      	ldrb	r0, [r2, #0]
    dc66:	4905      	ldr	r1, [pc, #20]	; (dc7c <UART1_IRQHandler+0x40>)
    dc68:	4a05      	ldr	r2, [pc, #20]	; (dc80 <UART1_IRQHandler+0x44>)
    dc6a:	4798      	blx	r3
__enable_irq():
E:\2017-2018\03_Graduation Project\04_Software\04_wangshi\03_UpdateSoftware-180625\02_UEUser\KL36_Update-180627\02_Core/core_cmFunc.h:333
  This function enables IRQ interrupts by clearing the I-bit in the CPSR.
  Can only be executed in Privileged modes.
 */
__attribute__( ( always_inline ) ) __STATIC_INLINE void __enable_irq(void)
{
  __ASM volatile ("cpsie i" : : : "memory");
    dc6c:	b662      	cpsie	i
UART1_IRQHandler():
E:\2017-2018\03_Graduation Project\04_Software\04_wangshi\03_UpdateSoftware-180625\02_UEUser\KL36_Update-180627\Debug/../06_NosPrg/isr.c:113
	}

	//-------------------------------
	ENABLE_INTERRUPTS;       //
}
    dc6e:	46bd      	mov	sp, r7
    dc70:	b003      	add	sp, #12
    dc72:	bd90      	pop	{r4, r7, pc}
    dc74:	1ffff914 	.word	0x1ffff914
    dc78:	1ffff93c 	.word	0x1ffff93c
    dc7c:	1fffff56 	.word	0x1fffff56
    dc80:	1ffffa2c 	.word	0x1ffffa2c
$d():
    dc84:	00000000 	.word	0x00000000

0000dc88 <main>:
main():
E:\2017-2018\03_Graduation Project\04_Software\04_wangshi\03_UpdateSoftware-180625\02_UEUser\KL36_Update-180627\Debug/../06_NosPrg/main.c:37
extern void LPTMR0_IRQ(void);
extern void TSI0_IRQ(void);

//
int main(void)
{
    dc88:	b5f0      	push	{r4, r5, r6, r7, lr}
    dc8a:	4ce2      	ldr	r4, [pc, #904]	; (e014 <main+0x38c>)
    dc8c:	44a5      	add	sp, r4
    dc8e:	af00      	add	r7, sp, #0
__disable_irq():
E:\2017-2018\03_Graduation Project\04_Software\04_wangshi\03_UpdateSoftware-180625\02_UEUser\KL36_Update-180627\02_Core/core_cmFunc.h:344
  This function disables IRQ interrupts by setting the I-bit in the CPSR.
  Can only be executed in Privileged modes.
 */
__attribute__( ( always_inline ) ) __STATIC_INLINE void __disable_irq(void)
{
  __ASM volatile ("cpsid i" : : : "memory");
    dc90:	b672      	cpsid	i
main():
E:\2017-2018\03_Graduation Project\04_Software\04_wangshi\03_UpdateSoftware-180625\02_UEUser\KL36_Update-180627\Debug/../06_NosPrg/main.c:65
	uint_16 mSendLen;             //
	//2 
	DISABLE_INTERRUPTS;
	//3 
	//3.1
	mSec=0;      //
    dc92:	2200      	movs	r2, #0
    dc94:	2300      	movs	r3, #0
    dc96:	20a8      	movs	r0, #168	; 0xa8
    dc98:	00c0      	lsls	r0, r0, #3
    dc9a:	19c0      	adds	r0, r0, r7
    dc9c:	6002      	str	r2, [r0, #0]
    dc9e:	6043      	str	r3, [r0, #4]
E:\2017-2018\03_Graduation Project\04_Software\04_wangshi\03_UpdateSoftware-180625\02_UEUser\KL36_Update-180627\Debug/../06_NosPrg/main.c:66
	mMin=0;     //
    dca0:	2200      	movs	r2, #0
    dca2:	2300      	movs	r3, #0
    dca4:	21a2      	movs	r1, #162	; 0xa2
    dca6:	00c9      	lsls	r1, r1, #3
    dca8:	19c9      	adds	r1, r1, r7
    dcaa:	600a      	str	r2, [r1, #0]
    dcac:	604b      	str	r3, [r1, #4]
E:\2017-2018\03_Graduation Project\04_Software\04_wangshi\03_UpdateSoftware-180625\02_UEUser\KL36_Update-180627\Debug/../06_NosPrg/main.c:67
	mTsi=0;       //
    dcae:	2300      	movs	r3, #0
    dcb0:	4ad9      	ldr	r2, [pc, #868]	; (e018 <main+0x390>)
    dcb2:	19d2      	adds	r2, r2, r7
    dcb4:	6013      	str	r3, [r2, #0]
E:\2017-2018\03_Graduation Project\04_Software\04_wangshi\03_UpdateSoftware-180625\02_UEUser\KL36_Update-180627\Debug/../06_NosPrg/main.c:68
	mSendFlag = 1;      //,
    dcb6:	4ed9      	ldr	r6, [pc, #868]	; (e01c <main+0x394>)
    dcb8:	19bb      	adds	r3, r7, r6
    dcba:	2201      	movs	r2, #1
    dcbc:	701a      	strb	r2, [r3, #0]
E:\2017-2018\03_Graduation Project\04_Software\04_wangshi\03_UpdateSoftware-180625\02_UEUser\KL36_Update-180627\Debug/../06_NosPrg/main.c:69
	mFlashFlag = 0;      //flash
    dcbe:	48d8      	ldr	r0, [pc, #864]	; (e020 <main+0x398>)
    dcc0:	183b      	adds	r3, r7, r0
    dcc2:	2200      	movs	r2, #0
    dcc4:	701a      	strb	r2, [r3, #0]
E:\2017-2018\03_Graduation Project\04_Software\04_wangshi\03_UpdateSoftware-180625\02_UEUser\KL36_Update-180627\Debug/../06_NosPrg/main.c:70
	mWaitSecond = 0;  //
    dcc6:	49d7      	ldr	r1, [pc, #860]	; (e024 <main+0x39c>)
    dcc8:	187b      	adds	r3, r7, r1
    dcca:	2200      	movs	r2, #0
    dccc:	801a      	strh	r2, [r3, #0]
E:\2017-2018\03_Graduation Project\04_Software\04_wangshi\03_UpdateSoftware-180625\02_UEUser\KL36_Update-180627\Debug/../06_NosPrg/main.c:71
	mUserLen = sizeof(struct UserData);  //
    dcce:	4ad6      	ldr	r2, [pc, #856]	; (e028 <main+0x3a0>)
    dcd0:	18bb      	adds	r3, r7, r2
    dcd2:	2218      	movs	r2, #24
    dcd4:	32ff      	adds	r2, #255	; 0xff
    dcd6:	801a      	strh	r2, [r3, #0]
E:\2017-2018\03_Graduation Project\04_Software\04_wangshi\03_UpdateSoftware-180625\02_UEUser\KL36_Update-180627\Debug/../06_NosPrg/main.c:72
	mFlashLen = sizeof(struct FlashData);  //flash
    dcd8:	4ed4      	ldr	r6, [pc, #848]	; (e02c <main+0x3a4>)
    dcda:	19bb      	adds	r3, r7, r6
    dcdc:	22ab      	movs	r2, #171	; 0xab
    dcde:	801a      	strh	r2, [r3, #0]
E:\2017-2018\03_Graduation Project\04_Software\04_wangshi\03_UpdateSoftware-180625\02_UEUser\KL36_Update-180627\Debug/../06_NosPrg/main.c:73
	mLoopCount = 0;  //
    dce0:	2200      	movs	r2, #0
    dce2:	2300      	movs	r3, #0
    dce4:	20a4      	movs	r0, #164	; 0xa4
    dce6:	00c0      	lsls	r0, r0, #3
    dce8:	19c0      	adds	r0, r0, r7
    dcea:	6002      	str	r2, [r0, #0]
    dcec:	6043      	str	r3, [r0, #4]
E:\2017-2018\03_Graduation Project\04_Software\04_wangshi\03_UpdateSoftware-180625\02_UEUser\KL36_Update-180627\Debug/../06_NosPrg/main.c:74
	mRecvCount = 0;  //
    dcee:	2200      	movs	r2, #0
    dcf0:	2300      	movs	r3, #0
    dcf2:	21a6      	movs	r1, #166	; 0xa6
    dcf4:	00c9      	lsls	r1, r1, #3
    dcf6:	19c9      	adds	r1, r1, r7
    dcf8:	600a      	str	r2, [r1, #0]
    dcfa:	604b      	str	r3, [r1, #4]
E:\2017-2018\03_Graduation Project\04_Software\04_wangshi\03_UpdateSoftware-180625\02_UEUser\KL36_Update-180627\Debug/../06_NosPrg/main.c:75
	mLCDFlag = 0;
    dcfc:	4acc      	ldr	r2, [pc, #816]	; (e030 <main+0x3a8>)
    dcfe:	18bb      	adds	r3, r7, r2
    dd00:	2200      	movs	r2, #0
    dd02:	701a      	strb	r2, [r3, #0]
E:\2017-2018\03_Graduation Project\04_Software\04_wangshi\03_UpdateSoftware-180625\02_UEUser\KL36_Update-180627\Debug/../06_NosPrg/main.c:77
	//3.2
	gRecvLength = 0;     //
    dd04:	4bcb      	ldr	r3, [pc, #812]	; (e034 <main+0x3ac>)
    dd06:	2200      	movs	r2, #0
    dd08:	801a      	strh	r2, [r3, #0]
E:\2017-2018\03_Graduation Project\04_Software\04_wangshi\03_UpdateSoftware-180625\02_UEUser\KL36_Update-180627\Debug/../06_NosPrg/main.c:79
	//4 
	cpy_nvic();
    dd0a:	f001 fc01 	bl	f510 <cpy_nvic>
E:\2017-2018\03_Graduation Project\04_Software\04_wangshi\03_UpdateSoftware-180625\02_UEUser\KL36_Update-180627\Debug/../06_NosPrg/main.c:80
	funPointerInit();
    dd0e:	f001 f8bb 	bl	ee88 <funPointerInit>
E:\2017-2018\03_Graduation Project\04_Software\04_wangshi\03_UpdateSoftware-180625\02_UEUser\KL36_Update-180627\Debug/../06_NosPrg/main.c:82

	light_init(LIGHT_RED,LIGHT_ON);  //
    dd12:	2005      	movs	r0, #5
    dd14:	2100      	movs	r1, #0
    dd16:	f001 fc39 	bl	f58c <light_init>
E:\2017-2018\03_Graduation Project\04_Software\04_wangshi\03_UpdateSoftware-180625\02_UEUser\KL36_Update-180627\Debug/../06_NosPrg/main.c:84
	//LCD_Init();             //LCD
	lptmr_init(500);    //LPTMR500
    dd1a:	4bc7      	ldr	r3, [pc, #796]	; (e038 <main+0x3b0>)
    dd1c:	681b      	ldr	r3, [r3, #0]
    dd1e:	22fa      	movs	r2, #250	; 0xfa
    dd20:	0052      	lsls	r2, r2, #1
    dd22:	1c10      	adds	r0, r2, #0
    dd24:	4798      	blx	r3
E:\2017-2018\03_Graduation Project\04_Software\04_wangshi\03_UpdateSoftware-180625\02_UEUser\KL36_Update-180627\Debug/../06_NosPrg/main.c:86
	//uart_init(UART_2, 115200);  //2115200
	tsi_init(3,TSI_VALUE);           //TSI3,
    dd26:	4bc5      	ldr	r3, [pc, #788]	; (e03c <main+0x3b4>)
    dd28:	681b      	ldr	r3, [r3, #0]
    dd2a:	4ac5      	ldr	r2, [pc, #788]	; (e040 <main+0x3b8>)
    dd2c:	2003      	movs	r0, #3
    dd2e:	1c11      	adds	r1, r2, #0
    dd30:	4798      	blx	r3
E:\2017-2018\03_Graduation Project\04_Software\04_wangshi\03_UpdateSoftware-180625\02_UEUser\KL36_Update-180627\Debug/../06_NosPrg/main.c:87
	flash_init();                           //flash
    dd32:	4bc4      	ldr	r3, [pc, #784]	; (e044 <main+0x3bc>)
    dd34:	681b      	ldr	r3, [r3, #0]
    dd36:	4798      	blx	r3
E:\2017-2018\03_Graduation Project\04_Software\04_wangshi\03_UpdateSoftware-180625\02_UEUser\KL36_Update-180627\Debug/../06_NosPrg/main.c:89
	//5 
	enable_lptmr_int();              //LPTMR
    dd38:	4bc3      	ldr	r3, [pc, #780]	; (e048 <main+0x3c0>)
    dd3a:	681b      	ldr	r3, [r3, #0]
    dd3c:	4798      	blx	r3
E:\2017-2018\03_Graduation Project\04_Software\04_wangshi\03_UpdateSoftware-180625\02_UEUser\KL36_Update-180627\Debug/../06_NosPrg/main.c:90
	tsi_enable_re_int();               //TSI
    dd3e:	4bc3      	ldr	r3, [pc, #780]	; (e04c <main+0x3c4>)
    dd40:	681b      	ldr	r3, [r3, #0]
    dd42:	4798      	blx	r3
E:\2017-2018\03_Graduation Project\04_Software\04_wangshi\03_UpdateSoftware-180625\02_UEUser\KL36_Update-180627\Debug/../06_NosPrg/main.c:91
	setVector(LPTMR0_IRQn,(uint_32)&LPTMR0_IRQ);
    dd44:	4bc2      	ldr	r3, [pc, #776]	; (e050 <main+0x3c8>)
    dd46:	201c      	movs	r0, #28
    dd48:	1c19      	adds	r1, r3, #0
    dd4a:	f001 fc07 	bl	f55c <setVector>
E:\2017-2018\03_Graduation Project\04_Software\04_wangshi\03_UpdateSoftware-180625\02_UEUser\KL36_Update-180627\Debug/../06_NosPrg/main.c:92
	setVector(TSI0_IRQn,(uint_32)&TSI0_IRQ);
    dd4e:	4bc1      	ldr	r3, [pc, #772]	; (e054 <main+0x3cc>)
    dd50:	201a      	movs	r0, #26
    dd52:	1c19      	adds	r1, r3, #0
    dd54:	f001 fc02 	bl	f55c <setVector>
__enable_irq():
E:\2017-2018\03_Graduation Project\04_Software\04_wangshi\03_UpdateSoftware-180625\02_UEUser\KL36_Update-180627\02_Core/core_cmFunc.h:333
  This function enables IRQ interrupts by clearing the I-bit in the CPSR.
  Can only be executed in Privileged modes.
 */
__attribute__( ( always_inline ) ) __STATIC_INLINE void __enable_irq(void)
{
  __ASM volatile ("cpsie i" : : : "memory");
    dd58:	b662      	cpsie	i
main():
E:\2017-2018\03_Graduation Project\04_Software\04_wangshi\03_UpdateSoftware-180625\02_UEUser\KL36_Update-180627\Debug/../06_NosPrg/main.c:102
	//7
	//7.1
	if(ENABLE_WDOG)
		wdog_feed();
	//7.2flash
	flashData_get(&gFlashData);
    dd5a:	4bbf      	ldr	r3, [pc, #764]	; (e058 <main+0x3d0>)
    dd5c:	1c18      	adds	r0, r3, #0
    dd5e:	f000 fd7f 	bl	e860 <flashData_get>
E:\2017-2018\03_Graduation Project\04_Software\04_wangshi\03_UpdateSoftware-180625\02_UEUser\KL36_Update-180627\Debug/../06_NosPrg/main.c:104
	//7.3
	userData_init(&gUserData);
    dd62:	4bbe      	ldr	r3, [pc, #760]	; (e05c <main+0x3d4>)
    dd64:	1c18      	adds	r0, r3, #0
    dd66:	f000 fd8d 	bl	e884 <userData_init>
E:\2017-2018\03_Graduation Project\04_Software\04_wangshi\03_UpdateSoftware-180625\02_UEUser\KL36_Update-180627\Debug/../06_NosPrg/main.c:106
	//7.4flash
	mTmp = gFlashData.resetCount;      // 
    dd6a:	4bbb      	ldr	r3, [pc, #748]	; (e058 <main+0x3d0>)
    dd6c:	22a7      	movs	r2, #167	; 0xa7
    dd6e:	5c9a      	ldrb	r2, [r3, r2]
    dd70:	21a8      	movs	r1, #168	; 0xa8
    dd72:	585b      	ldr	r3, [r3, r1]
    dd74:	021b      	lsls	r3, r3, #8
    dd76:	0a1b      	lsrs	r3, r3, #8
    dd78:	021b      	lsls	r3, r3, #8
    dd7a:	4313      	orrs	r3, r2
    dd7c:	26a0      	movs	r6, #160	; 0xa0
    dd7e:	00f6      	lsls	r6, r6, #3
    dd80:	19f6      	adds	r6, r6, r7
    dd82:	6033      	str	r3, [r6, #0]
    dd84:	2300      	movs	r3, #0
    dd86:	48b6      	ldr	r0, [pc, #728]	; (e060 <main+0x3d8>)
    dd88:	19c0      	adds	r0, r0, r7
    dd8a:	6003      	str	r3, [r0, #0]
E:\2017-2018\03_Graduation Project\04_Software\04_wangshi\03_UpdateSoftware-180625\02_UEUser\KL36_Update-180627\Debug/../06_NosPrg/main.c:107
	if (BGET(RCM_SRS0_WDOG_SHIFT, RCM_SRS0))  //1
    dd8c:	4bb5      	ldr	r3, [pc, #724]	; (e064 <main+0x3dc>)
    dd8e:	781b      	ldrb	r3, [r3, #0]
    dd90:	b2db      	uxtb	r3, r3
    dd92:	095b      	lsrs	r3, r3, #5
    dd94:	b2db      	uxtb	r3, r3
    dd96:	1c1a      	adds	r2, r3, #0
    dd98:	2301      	movs	r3, #1
    dd9a:	4013      	ands	r3, r2
    dd9c:	d023      	beq.n	dde6 <main+0x15e>
E:\2017-2018\03_Graduation Project\04_Software\04_wangshi\03_UpdateSoftware-180625\02_UEUser\KL36_Update-180627\Debug/../06_NosPrg/main.c:108
		gFlashData.resetCount++;
    dd9e:	4bae      	ldr	r3, [pc, #696]	; (e058 <main+0x3d0>)
    dda0:	22a7      	movs	r2, #167	; 0xa7
    dda2:	5c9a      	ldrb	r2, [r3, r2]
    dda4:	21a8      	movs	r1, #168	; 0xa8
    dda6:	585b      	ldr	r3, [r3, r1]
    dda8:	021b      	lsls	r3, r3, #8
    ddaa:	0a1b      	lsrs	r3, r3, #8
    ddac:	021b      	lsls	r3, r3, #8
    ddae:	4313      	orrs	r3, r2
    ddb0:	1c5a      	adds	r2, r3, #1
    ddb2:	4ba9      	ldr	r3, [pc, #676]	; (e058 <main+0x3d0>)
    ddb4:	21ff      	movs	r1, #255	; 0xff
    ddb6:	1c16      	adds	r6, r2, #0
    ddb8:	400e      	ands	r6, r1
    ddba:	607e      	str	r6, [r7, #4]
    ddbc:	21a7      	movs	r1, #167	; 0xa7
    ddbe:	5c58      	ldrb	r0, [r3, r1]
    ddc0:	4684      	mov	ip, r0
    ddc2:	2600      	movs	r6, #0
    ddc4:	4660      	mov	r0, ip
    ddc6:	4006      	ands	r6, r0
    ddc8:	6878      	ldr	r0, [r7, #4]
    ddca:	7138      	strb	r0, [r7, #4]
    ddcc:	7938      	ldrb	r0, [r7, #4]
    ddce:	4330      	orrs	r0, r6
    ddd0:	5458      	strb	r0, [r3, r1]
    ddd2:	0a11      	lsrs	r1, r2, #8
    ddd4:	22a8      	movs	r2, #168	; 0xa8
    ddd6:	0209      	lsls	r1, r1, #8
    ddd8:	0a09      	lsrs	r1, r1, #8
    ddda:	5898      	ldr	r0, [r3, r2]
    dddc:	0e00      	lsrs	r0, r0, #24
    ddde:	0600      	lsls	r0, r0, #24
    dde0:	4301      	orrs	r1, r0
    dde2:	5099      	str	r1, [r3, r2]
    dde4:	e013      	b.n	de0e <main+0x186>
E:\2017-2018\03_Graduation Project\04_Software\04_wangshi\03_UpdateSoftware-180625\02_UEUser\KL36_Update-180627\Debug/../06_NosPrg/main.c:109
	else if(BGET(RCM_SRS0_POR_SHIFT, RCM_SRS0))   //
    dde6:	4b9f      	ldr	r3, [pc, #636]	; (e064 <main+0x3dc>)
    dde8:	781b      	ldrb	r3, [r3, #0]
    ddea:	b2db      	uxtb	r3, r3
    ddec:	09db      	lsrs	r3, r3, #7
    ddee:	b2db      	uxtb	r3, r3
    ddf0:	1c1a      	adds	r2, r3, #0
    ddf2:	2301      	movs	r3, #1
    ddf4:	4013      	ands	r3, r2
    ddf6:	d00a      	beq.n	de0e <main+0x186>
E:\2017-2018\03_Graduation Project\04_Software\04_wangshi\03_UpdateSoftware-180625\02_UEUser\KL36_Update-180627\Debug/../06_NosPrg/main.c:110
		gFlashData.resetCount = 0;
    ddf8:	4b97      	ldr	r3, [pc, #604]	; (e058 <main+0x3d0>)
    ddfa:	22a7      	movs	r2, #167	; 0xa7
    ddfc:	5c98      	ldrb	r0, [r3, r2]
    ddfe:	2100      	movs	r1, #0
    de00:	4001      	ands	r1, r0
    de02:	5499      	strb	r1, [r3, r2]
    de04:	22a8      	movs	r2, #168	; 0xa8
    de06:	5899      	ldr	r1, [r3, r2]
    de08:	0e09      	lsrs	r1, r1, #24
    de0a:	0609      	lsls	r1, r1, #24
    de0c:	5099      	str	r1, [r3, r2]
E:\2017-2018\03_Graduation Project\04_Software\04_wangshi\03_UpdateSoftware-180625\02_UEUser\KL36_Update-180627\Debug/../06_NosPrg/main.c:111
	if(gFlashData.resetCount!=mTmp)     //flash
    de0e:	4b92      	ldr	r3, [pc, #584]	; (e058 <main+0x3d0>)
    de10:	22a7      	movs	r2, #167	; 0xa7
    de12:	5c9a      	ldrb	r2, [r3, r2]
    de14:	21a8      	movs	r1, #168	; 0xa8
    de16:	585b      	ldr	r3, [r3, r1]
    de18:	021b      	lsls	r3, r3, #8
    de1a:	0a1b      	lsrs	r3, r3, #8
    de1c:	021b      	lsls	r3, r3, #8
    de1e:	4313      	orrs	r3, r2
    de20:	1c1c      	adds	r4, r3, #0
    de22:	2300      	movs	r3, #0
    de24:	1c1d      	adds	r5, r3, #0
    de26:	21a0      	movs	r1, #160	; 0xa0
    de28:	00c9      	lsls	r1, r1, #3
    de2a:	19c9      	adds	r1, r1, r7
    de2c:	680b      	ldr	r3, [r1, #0]
    de2e:	42a3      	cmp	r3, r4
    de30:	d104      	bne.n	de3c <main+0x1b4>
    de32:	4a8b      	ldr	r2, [pc, #556]	; (e060 <main+0x3d8>)
    de34:	19d2      	adds	r2, r2, r7
    de36:	6813      	ldr	r3, [r2, #0]
    de38:	42ab      	cmp	r3, r5
    de3a:	d00c      	beq.n	de56 <main+0x1ce>
E:\2017-2018\03_Graduation Project\04_Software\04_wangshi\03_UpdateSoftware-180625\02_UEUser\KL36_Update-180627\Debug/../06_NosPrg/main.c:113
	{
		flash_erase(63);
    de3c:	4b8a      	ldr	r3, [pc, #552]	; (e068 <main+0x3e0>)
    de3e:	681b      	ldr	r3, [r3, #0]
    de40:	203f      	movs	r0, #63	; 0x3f
    de42:	4798      	blx	r3
E:\2017-2018\03_Graduation Project\04_Software\04_wangshi\03_UpdateSoftware-180625\02_UEUser\KL36_Update-180627\Debug/../06_NosPrg/main.c:114
		flash_write(63,0,mFlashLen,(uint_8*)(&gFlashData));
    de44:	4b89      	ldr	r3, [pc, #548]	; (e06c <main+0x3e4>)
    de46:	681c      	ldr	r4, [r3, #0]
    de48:	4e78      	ldr	r6, [pc, #480]	; (e02c <main+0x3a4>)
    de4a:	19bb      	adds	r3, r7, r6
    de4c:	881a      	ldrh	r2, [r3, #0]
    de4e:	4b82      	ldr	r3, [pc, #520]	; (e058 <main+0x3d0>)
    de50:	203f      	movs	r0, #63	; 0x3f
    de52:	2100      	movs	r1, #0
    de54:	47a0      	blx	r4
E:\2017-2018\03_Graduation Project\04_Software\04_wangshi\03_UpdateSoftware-180625\02_UEUser\KL36_Update-180627\Debug/../06_NosPrg/main.c:126
	//    http_get("122.112.217.197","88","http://122.112.217.197:88/AHL-location/FrameMessage.aspx?460,000,5280,e46a",datadd);
	//======================================================
	for(;;)
	{
		uint_8 i;
		uint_8 sTime[25] = {0};
    de56:	4b86      	ldr	r3, [pc, #536]	; (e070 <main+0x3e8>)
    de58:	20a9      	movs	r0, #169	; 0xa9
    de5a:	00c0      	lsls	r0, r0, #3
    de5c:	19c0      	adds	r0, r0, r7
    de5e:	18c3      	adds	r3, r0, r3
    de60:	2200      	movs	r2, #0
    de62:	601a      	str	r2, [r3, #0]
    de64:	2200      	movs	r2, #0
    de66:	605a      	str	r2, [r3, #4]
    de68:	2200      	movs	r2, #0
    de6a:	609a      	str	r2, [r3, #8]
    de6c:	2200      	movs	r2, #0
    de6e:	60da      	str	r2, [r3, #12]
    de70:	2200      	movs	r2, #0
    de72:	611a      	str	r2, [r3, #16]
    de74:	2200      	movs	r2, #0
    de76:	615a      	str	r2, [r3, #20]
    de78:	2200      	movs	r2, #0
    de7a:	761a      	strb	r2, [r3, #24]
E:\2017-2018\03_Graduation Project\04_Software\04_wangshi\03_UpdateSoftware-180625\02_UEUser\KL36_Update-180627\Debug/../06_NosPrg/main.c:127
		uint_8 showString[50]={0};
    de7c:	4b7d      	ldr	r3, [pc, #500]	; (e074 <main+0x3ec>)
    de7e:	21a9      	movs	r1, #169	; 0xa9
    de80:	00c9      	lsls	r1, r1, #3
    de82:	19c9      	adds	r1, r1, r7
    de84:	18cb      	adds	r3, r1, r3
    de86:	2200      	movs	r2, #0
    de88:	601a      	str	r2, [r3, #0]
    de8a:	2200      	movs	r2, #0
    de8c:	605a      	str	r2, [r3, #4]
    de8e:	2200      	movs	r2, #0
    de90:	609a      	str	r2, [r3, #8]
    de92:	2200      	movs	r2, #0
    de94:	60da      	str	r2, [r3, #12]
    de96:	2200      	movs	r2, #0
    de98:	611a      	str	r2, [r3, #16]
    de9a:	2200      	movs	r2, #0
    de9c:	615a      	str	r2, [r3, #20]
    de9e:	2200      	movs	r2, #0
    dea0:	619a      	str	r2, [r3, #24]
    dea2:	2200      	movs	r2, #0
    dea4:	61da      	str	r2, [r3, #28]
    dea6:	2200      	movs	r2, #0
    dea8:	621a      	str	r2, [r3, #32]
    deaa:	2200      	movs	r2, #0
    deac:	625a      	str	r2, [r3, #36]	; 0x24
    deae:	2200      	movs	r2, #0
    deb0:	629a      	str	r2, [r3, #40]	; 0x28
    deb2:	2200      	movs	r2, #0
    deb4:	62da      	str	r2, [r3, #44]	; 0x2c
    deb6:	2200      	movs	r2, #0
    deb8:	861a      	strh	r2, [r3, #48]	; 0x30
E:\2017-2018\03_Graduation Project\04_Software\04_wangshi\03_UpdateSoftware-180625\02_UEUser\KL36_Update-180627\Debug/../06_NosPrg/main.c:128
		mLoopCount++;
    deba:	23a4      	movs	r3, #164	; 0xa4
    debc:	00db      	lsls	r3, r3, #3
    debe:	19db      	adds	r3, r3, r7
    dec0:	6819      	ldr	r1, [r3, #0]
    dec2:	685a      	ldr	r2, [r3, #4]
    dec4:	2301      	movs	r3, #1
    dec6:	2400      	movs	r4, #0
    dec8:	185b      	adds	r3, r3, r1
    deca:	4154      	adcs	r4, r2
    decc:	26a4      	movs	r6, #164	; 0xa4
    dece:	00f6      	lsls	r6, r6, #3
    ded0:	19f6      	adds	r6, r6, r7
    ded2:	6033      	str	r3, [r6, #0]
    ded4:	6074      	str	r4, [r6, #4]
E:\2017-2018\03_Graduation Project\04_Software\04_wangshi\03_UpdateSoftware-180625\02_UEUser\KL36_Update-180627\Debug/../06_NosPrg/main.c:130
		//1
		if (mSec!=gUserData.currentTime)    //1
    ded6:	4a61      	ldr	r2, [pc, #388]	; (e05c <main+0x3d4>)
    ded8:	2127      	movs	r1, #39	; 0x27
    deda:	5c51      	ldrb	r1, [r2, r1]
    dedc:	6a90      	ldr	r0, [r2, #40]	; 0x28
    dede:	0200      	lsls	r0, r0, #8
    dee0:	0a00      	lsrs	r0, r0, #8
    dee2:	0200      	lsls	r0, r0, #8
    dee4:	4301      	orrs	r1, r0
    dee6:	1c0b      	adds	r3, r1, #0
    dee8:	212b      	movs	r1, #43	; 0x2b
    deea:	5c51      	ldrb	r1, [r2, r1]
    deec:	6ad2      	ldr	r2, [r2, #44]	; 0x2c
    deee:	0212      	lsls	r2, r2, #8
    def0:	0a12      	lsrs	r2, r2, #8
    def2:	0212      	lsls	r2, r2, #8
    def4:	430a      	orrs	r2, r1
    def6:	1c14      	adds	r4, r2, #0
    def8:	20a8      	movs	r0, #168	; 0xa8
    defa:	00c0      	lsls	r0, r0, #3
    defc:	19c0      	adds	r0, r0, r7
    defe:	6802      	ldr	r2, [r0, #0]
    df00:	429a      	cmp	r2, r3
    df02:	d104      	bne.n	df0e <main+0x286>
    df04:	495c      	ldr	r1, [pc, #368]	; (e078 <main+0x3f0>)
    df06:	19c9      	adds	r1, r1, r7
    df08:	680a      	ldr	r2, [r1, #0]
    df0a:	42a2      	cmp	r2, r4
    df0c:	d044      	beq.n	df98 <main+0x310>
E:\2017-2018\03_Graduation Project\04_Software\04_wangshi\03_UpdateSoftware-180625\02_UEUser\KL36_Update-180627\Debug/../06_NosPrg/main.c:133
		{
			//1.1LCD
			mSec=gUserData.currentTime;   //mSec
    df0e:	4a53      	ldr	r2, [pc, #332]	; (e05c <main+0x3d4>)
    df10:	2127      	movs	r1, #39	; 0x27
    df12:	5c51      	ldrb	r1, [r2, r1]
    df14:	6a90      	ldr	r0, [r2, #40]	; 0x28
    df16:	0200      	lsls	r0, r0, #8
    df18:	0a00      	lsrs	r0, r0, #8
    df1a:	0200      	lsls	r0, r0, #8
    df1c:	4301      	orrs	r1, r0
    df1e:	1c0b      	adds	r3, r1, #0
    df20:	212b      	movs	r1, #43	; 0x2b
    df22:	5c51      	ldrb	r1, [r2, r1]
    df24:	6ad2      	ldr	r2, [r2, #44]	; 0x2c
    df26:	0212      	lsls	r2, r2, #8
    df28:	0a12      	lsrs	r2, r2, #8
    df2a:	0212      	lsls	r2, r2, #8
    df2c:	430a      	orrs	r2, r1
    df2e:	1c14      	adds	r4, r2, #0
    df30:	22a8      	movs	r2, #168	; 0xa8
    df32:	00d2      	lsls	r2, r2, #3
    df34:	19d2      	adds	r2, r2, r7
    df36:	6013      	str	r3, [r2, #0]
    df38:	6054      	str	r4, [r2, #4]
E:\2017-2018\03_Graduation Project\04_Software\04_wangshi\03_UpdateSoftware-180625\02_UEUser\KL36_Update-180627\Debug/../06_NosPrg/main.c:137
			//timeChange(gUserData.currentTime,gTime);    //
			//LCDShowTime();    //LCD
			//1.2
			light_change(LIGHT_RED);           //
    df3a:	2005      	movs	r0, #5
    df3c:	f001 fb3e 	bl	f5bc <light_change>
E:\2017-2018\03_Graduation Project\04_Software\04_wangshi\03_UpdateSoftware-180625\02_UEUser\KL36_Update-180627\Debug/../06_NosPrg/main.c:139
			//1.3
			if(gUserData.currentTime%gFlashData.sendFrequencySec == 0 )   //
    df40:	4a46      	ldr	r2, [pc, #280]	; (e05c <main+0x3d4>)
    df42:	2127      	movs	r1, #39	; 0x27
    df44:	5c51      	ldrb	r1, [r2, r1]
    df46:	6a90      	ldr	r0, [r2, #40]	; 0x28
    df48:	0200      	lsls	r0, r0, #8
    df4a:	0a00      	lsrs	r0, r0, #8
    df4c:	0200      	lsls	r0, r0, #8
    df4e:	4301      	orrs	r1, r0
    df50:	1c0b      	adds	r3, r1, #0
    df52:	212b      	movs	r1, #43	; 0x2b
    df54:	5c51      	ldrb	r1, [r2, r1]
    df56:	6ad2      	ldr	r2, [r2, #44]	; 0x2c
    df58:	0212      	lsls	r2, r2, #8
    df5a:	0a12      	lsrs	r2, r2, #8
    df5c:	0212      	lsls	r2, r2, #8
    df5e:	430a      	orrs	r2, r1
    df60:	1c14      	adds	r4, r2, #0
    df62:	4a3d      	ldr	r2, [pc, #244]	; (e058 <main+0x3d0>)
    df64:	21a3      	movs	r1, #163	; 0xa3
    df66:	5c51      	ldrb	r1, [r2, r1]
    df68:	20a4      	movs	r0, #164	; 0xa4
    df6a:	5812      	ldr	r2, [r2, r0]
    df6c:	0212      	lsls	r2, r2, #8
    df6e:	0a12      	lsrs	r2, r2, #8
    df70:	0212      	lsls	r2, r2, #8
    df72:	430a      	orrs	r2, r1
    df74:	60ba      	str	r2, [r7, #8]
    df76:	2200      	movs	r2, #0
    df78:	60fa      	str	r2, [r7, #12]
    df7a:	1c18      	adds	r0, r3, #0
    df7c:	1c21      	adds	r1, r4, #0
    df7e:	68ba      	ldr	r2, [r7, #8]
    df80:	68fb      	ldr	r3, [r7, #12]
    df82:	f7fd fb65 	bl	b650 <__aeabi_uldivmod>
    df86:	1c1c      	adds	r4, r3, #0
    df88:	1c13      	adds	r3, r2, #0
    df8a:	1c1a      	adds	r2, r3, #0
    df8c:	4322      	orrs	r2, r4
    df8e:	d103      	bne.n	df98 <main+0x310>
E:\2017-2018\03_Graduation Project\04_Software\04_wangshi\03_UpdateSoftware-180625\02_UEUser\KL36_Update-180627\Debug/../06_NosPrg/main.c:141
			{
				mSendFlag = 1;
    df90:	4e22      	ldr	r6, [pc, #136]	; (e01c <main+0x394>)
    df92:	19bb      	adds	r3, r7, r6
    df94:	2201      	movs	r2, #1
    df96:	701a      	strb	r2, [r3, #0]
E:\2017-2018\03_Graduation Project\04_Software\04_wangshi\03_UpdateSoftware-180625\02_UEUser\KL36_Update-180627\Debug/../06_NosPrg/main.c:150
			//            {
			//                get_gnss();   //gnss
			//            }
		}
		//2TSI
		if (mTsi != gUserData.touchNum)    //1
    df98:	4a30      	ldr	r2, [pc, #192]	; (e05c <main+0x3d4>)
    df9a:	23e8      	movs	r3, #232	; 0xe8
    df9c:	5ad3      	ldrh	r3, [r2, r3]
    df9e:	1c1a      	adds	r2, r3, #0
    dfa0:	481d      	ldr	r0, [pc, #116]	; (e018 <main+0x390>)
    dfa2:	19c0      	adds	r0, r0, r7
    dfa4:	6803      	ldr	r3, [r0, #0]
    dfa6:	429a      	cmp	r2, r3
    dfa8:	d014      	beq.n	dfd4 <main+0x34c>
E:\2017-2018\03_Graduation Project\04_Software\04_wangshi\03_UpdateSoftware-180625\02_UEUser\KL36_Update-180627\Debug/../06_NosPrg/main.c:153
		{
			//2.1TSILCD
			mTsi = gUserData.touchNum;
    dfaa:	4a2c      	ldr	r2, [pc, #176]	; (e05c <main+0x3d4>)
    dfac:	23e8      	movs	r3, #232	; 0xe8
    dfae:	5ad3      	ldrh	r3, [r2, r3]
    dfb0:	4919      	ldr	r1, [pc, #100]	; (e018 <main+0x390>)
    dfb2:	19c9      	adds	r1, r1, r7
    dfb4:	600b      	str	r3, [r1, #0]
E:\2017-2018\03_Graduation Project\04_Software\04_wangshi\03_UpdateSoftware-180625\02_UEUser\KL36_Update-180627\Debug/../06_NosPrg/main.c:156
			//printf("TSI%d\n",gUserData.touchNum);
			//2.23
			if(gUserData.touchNum%3==0)
    dfb6:	4a29      	ldr	r2, [pc, #164]	; (e05c <main+0x3d4>)
    dfb8:	23e8      	movs	r3, #232	; 0xe8
    dfba:	5ad3      	ldrh	r3, [r2, r3]
    dfbc:	1c18      	adds	r0, r3, #0
    dfbe:	2103      	movs	r1, #3
    dfc0:	f7fd fafc 	bl	b5bc <__aeabi_uidivmod>
    dfc4:	1c0b      	adds	r3, r1, #0
    dfc6:	b29b      	uxth	r3, r3
    dfc8:	2b00      	cmp	r3, #0
    dfca:	d103      	bne.n	dfd4 <main+0x34c>
E:\2017-2018\03_Graduation Project\04_Software\04_wangshi\03_UpdateSoftware-180625\02_UEUser\KL36_Update-180627\Debug/../06_NosPrg/main.c:157
				mSendFlag = 1;
    dfcc:	4a13      	ldr	r2, [pc, #76]	; (e01c <main+0x394>)
    dfce:	18bb      	adds	r3, r7, r2
    dfd0:	2201      	movs	r2, #1
    dfd2:	701a      	strb	r2, [r3, #0]
E:\2017-2018\03_Graduation Project\04_Software\04_wangshi\03_UpdateSoftware-180625\02_UEUser\KL36_Update-180627\Debug/../06_NosPrg/main.c:160
		}
		//3
		if(mSendFlag == 1)
    dfd4:	4e11      	ldr	r6, [pc, #68]	; (e01c <main+0x394>)
    dfd6:	19bb      	adds	r3, r7, r6
    dfd8:	781b      	ldrb	r3, [r3, #0]
    dfda:	2b01      	cmp	r3, #1
    dfdc:	d000      	beq.n	dfe0 <main+0x358>
    dfde:	e178      	b.n	e2d2 <main+0x64a>
E:\2017-2018\03_Graduation Project\04_Software\04_wangshi\03_UpdateSoftware-180625\02_UEUser\KL36_Update-180627\Debug/../06_NosPrg/main.c:166
		{
			//3.1UE
			//printf("H1-1001\n");
			//LCD_DrawSurface(4,300,236,316,GRAY);
			//LCD_ShowString(4,300,BLUE,GRAY,"H1-1001,...");
			mflag =    uecom_init(mRetdata,gFlashData.serverIP,gFlashData.serverPort);
    dfe0:	4b26      	ldr	r3, [pc, #152]	; (e07c <main+0x3f4>)
    dfe2:	681b      	ldr	r3, [r3, #0]
    dfe4:	4826      	ldr	r0, [pc, #152]	; (e080 <main+0x3f8>)
    dfe6:	183c      	adds	r4, r7, r0
    dfe8:	2193      	movs	r1, #147	; 0x93
    dfea:	00c9      	lsls	r1, r1, #3
    dfec:	1878      	adds	r0, r7, r1
    dfee:	4925      	ldr	r1, [pc, #148]	; (e084 <main+0x3fc>)
    dff0:	4a25      	ldr	r2, [pc, #148]	; (e088 <main+0x400>)
    dff2:	4798      	blx	r3
    dff4:	1c03      	adds	r3, r0, #0
    dff6:	7023      	strb	r3, [r4, #0]
E:\2017-2018\03_Graduation Project\04_Software\04_wangshi\03_UpdateSoftware-180625\02_UEUser\KL36_Update-180627\Debug/../06_NosPrg/main.c:168
			//(3.2) mSendData
			if(mflag)  goto main_loop1;           //LCD
    dff8:	4a21      	ldr	r2, [pc, #132]	; (e080 <main+0x3f8>)
    dffa:	18bb      	adds	r3, r7, r2
    dffc:	781b      	ldrb	r3, [r3, #0]
    dffe:	2b00      	cmp	r3, #0
    e000:	d044      	beq.n	e08c <main+0x404>
E:\2017-2018\03_Graduation Project\04_Software\04_wangshi\03_UpdateSoftware-180625\02_UEUser\KL36_Update-180627\Debug/../06_NosPrg/main.c:168 (discriminator 1)
    e002:	46c0      	nop			; (mov r8, r8)
E:\2017-2018\03_Graduation Project\04_Software\04_wangshi\03_UpdateSoftware-180625\02_UEUser\KL36_Update-180627\Debug/../06_NosPrg/main.c:209 (discriminator 1)
			//LCD_ShowString(4,300,BLUE,GRAY,"H1-1004");
			mWaitSecond = 0;                     //
			goto main_loop;
			main_loop1:
			//LCDF1-10xx,uecom
			if(mflag<=4)      //
    e004:	4e1e      	ldr	r6, [pc, #120]	; (e080 <main+0x3f8>)
    e006:	19bb      	adds	r3, r7, r6
    e008:	781b      	ldrb	r3, [r3, #0]
    e00a:	2b04      	cmp	r3, #4
    e00c:	d900      	bls.n	e010 <main+0x388>
    e00e:	e10f      	b.n	e230 <main+0x5a8>
    e010:	e109      	b.n	e226 <main+0x59e>
    e012:	46c0      	nop			; (mov r8, r8)
    e014:	fffffab4 	.word	0xfffffab4
    e018:	0000053c 	.word	0x0000053c
    e01c:	0000053b 	.word	0x0000053b
    e020:	0000052e 	.word	0x0000052e
    e024:	0000050e 	.word	0x0000050e
    e028:	0000050c 	.word	0x0000050c
    e02c:	0000050a 	.word	0x0000050a
    e030:	0000052d 	.word	0x0000052d
    e034:	1fffff56 	.word	0x1fffff56
    e038:	1ffff900 	.word	0x1ffff900
    e03c:	1ffff940 	.word	0x1ffff940
    e040:	00cc0011 	.word	0x00cc0011
    e044:	1ffff8c4 	.word	0x1ffff8c4
    e048:	1ffff8c8 	.word	0x1ffff8c8
    e04c:	1ffff928 	.word	0x1ffff928
    e050:	0000da3d 	.word	0x0000da3d
    e054:	0000db5d 	.word	0x0000db5d
    e058:	1ffff980 	.word	0x1ffff980
    e05c:	1ffffe3c 	.word	0x1ffffe3c
    e060:	00000504 	.word	0x00000504
    e064:	4007f000 	.word	0x4007f000
    e068:	1ffff8bc 	.word	0x1ffff8bc
    e06c:	1ffff888 	.word	0x1ffff888
    e070:	fffffb10 	.word	0xfffffb10
    e074:	fffffacc 	.word	0xfffffacc
    e078:	00000544 	.word	0x00000544
    e07c:	1ffff974 	.word	0x1ffff974
    e080:	000004ff 	.word	0x000004ff
    e084:	1ffffa0f 	.word	0x1ffffa0f
    e088:	1ffffa1e 	.word	0x1ffffa1e
E:\2017-2018\03_Graduation Project\04_Software\04_wangshi\03_UpdateSoftware-180625\02_UEUser\KL36_Update-180627\Debug/../06_NosPrg/main.c:173
			if(mflag)  goto main_loop1;           //LCD
			//UE
			//printf("H1-1002\n");
			//LCD_ShowString(4,300,BLUE,GRAY,"H1-1002");
			//            flashData_get(&gFlashData);      //gFlashData
			userData_get(&gUserData);        //gUserData
    e08c:	4bda      	ldr	r3, [pc, #872]	; (e3f8 <main+0x770>)
    e08e:	1c18      	adds	r0, r3, #0
    e090:	f000 fd32 	bl	eaf8 <userData_get>
E:\2017-2018\03_Graduation Project\04_Software\04_wangshi\03_UpdateSoftware-180625\02_UEUser\KL36_Update-180627\Debug/../06_NosPrg/main.c:175

			if(gFrameCmd[0]=='U'&&gFrameCmd[1]=='0')
    e094:	4bd9      	ldr	r3, [pc, #868]	; (e3fc <main+0x774>)
    e096:	781b      	ldrb	r3, [r3, #0]
    e098:	2b55      	cmp	r3, #85	; 0x55
    e09a:	d115      	bne.n	e0c8 <main+0x440>
E:\2017-2018\03_Graduation Project\04_Software\04_wangshi\03_UpdateSoftware-180625\02_UEUser\KL36_Update-180627\Debug/../06_NosPrg/main.c:175 (discriminator 1)
    e09c:	4bd7      	ldr	r3, [pc, #860]	; (e3fc <main+0x774>)
    e09e:	785b      	ldrb	r3, [r3, #1]
    e0a0:	2b30      	cmp	r3, #48	; 0x30
    e0a2:	d111      	bne.n	e0c8 <main+0x440>
E:\2017-2018\03_Graduation Project\04_Software\04_wangshi\03_UpdateSoftware-180625\02_UEUser\KL36_Update-180627\Debug/../06_NosPrg/main.c:177
			{
				mSendLen = mUserLen;
    e0a4:	48d6      	ldr	r0, [pc, #856]	; (e400 <main+0x778>)
    e0a6:	183b      	adds	r3, r7, r0
    e0a8:	49d6      	ldr	r1, [pc, #856]	; (e404 <main+0x77c>)
    e0aa:	187a      	adds	r2, r7, r1
    e0ac:	8812      	ldrh	r2, [r2, #0]
    e0ae:	801a      	strh	r2, [r3, #0]
E:\2017-2018\03_Graduation Project\04_Software\04_wangshi\03_UpdateSoftware-180625\02_UEUser\KL36_Update-180627\Debug/../06_NosPrg/main.c:178
				memcpy(mSendData,&gUserData,mSendLen);
    e0b0:	4ad3      	ldr	r2, [pc, #844]	; (e400 <main+0x778>)
    e0b2:	18bb      	adds	r3, r7, r2
    e0b4:	881b      	ldrh	r3, [r3, #0]
    e0b6:	1c39      	adds	r1, r7, #0
    e0b8:	3174      	adds	r1, #116	; 0x74
    e0ba:	4acf      	ldr	r2, [pc, #828]	; (e3f8 <main+0x770>)
    e0bc:	1c08      	adds	r0, r1, #0
    e0be:	1c11      	adds	r1, r2, #0
    e0c0:	1c1a      	adds	r2, r3, #0
    e0c2:	f001 fb6d 	bl	f7a0 <memcpy>
    e0c6:	e05b      	b.n	e180 <main+0x4f8>
E:\2017-2018\03_Graduation Project\04_Software\04_wangshi\03_UpdateSoftware-180625\02_UEUser\KL36_Update-180627\Debug/../06_NosPrg/main.c:180
			}
			else if(gFrameCmd[0]=='U'&&gFrameCmd[1]=='1')
    e0c8:	4bcc      	ldr	r3, [pc, #816]	; (e3fc <main+0x774>)
    e0ca:	781b      	ldrb	r3, [r3, #0]
    e0cc:	2b55      	cmp	r3, #85	; 0x55
    e0ce:	d157      	bne.n	e180 <main+0x4f8>
E:\2017-2018\03_Graduation Project\04_Software\04_wangshi\03_UpdateSoftware-180625\02_UEUser\KL36_Update-180627\Debug/../06_NosPrg/main.c:180 (discriminator 1)
    e0d0:	4bca      	ldr	r3, [pc, #808]	; (e3fc <main+0x774>)
    e0d2:	785b      	ldrb	r3, [r3, #1]
    e0d4:	2b31      	cmp	r3, #49	; 0x31
    e0d6:	d153      	bne.n	e180 <main+0x4f8>
E:\2017-2018\03_Graduation Project\04_Software\04_wangshi\03_UpdateSoftware-180625\02_UEUser\KL36_Update-180627\Debug/../06_NosPrg/main.c:182
			{
				memcpy(mSendData,gFrameCmd,2);
    e0d8:	4bcb      	ldr	r3, [pc, #812]	; (e408 <main+0x780>)
    e0da:	26a9      	movs	r6, #169	; 0xa9
    e0dc:	00f6      	lsls	r6, r6, #3
    e0de:	19f6      	adds	r6, r6, r7
    e0e0:	18f3      	adds	r3, r6, r3
    e0e2:	4ac6      	ldr	r2, [pc, #792]	; (e3fc <main+0x774>)
    e0e4:	8812      	ldrh	r2, [r2, #0]
    e0e6:	801a      	strh	r2, [r3, #0]
E:\2017-2018\03_Graduation Project\04_Software\04_wangshi\03_UpdateSoftware-180625\02_UEUser\KL36_Update-180627\Debug/../06_NosPrg/main.c:183
				memcpy(mSendData+2,gUserData.IMSI,15);
    e0e8:	1c3b      	adds	r3, r7, #0
    e0ea:	3374      	adds	r3, #116	; 0x74
    e0ec:	3302      	adds	r3, #2
    e0ee:	4ac2      	ldr	r2, [pc, #776]	; (e3f8 <main+0x770>)
    e0f0:	1c19      	adds	r1, r3, #0
    e0f2:	3204      	adds	r2, #4
    e0f4:	230f      	movs	r3, #15
    e0f6:	1c08      	adds	r0, r1, #0
    e0f8:	1c11      	adds	r1, r2, #0
    e0fa:	1c1a      	adds	r2, r3, #0
    e0fc:	f001 fb50 	bl	f7a0 <memcpy>
E:\2017-2018\03_Graduation Project\04_Software\04_wangshi\03_UpdateSoftware-180625\02_UEUser\KL36_Update-180627\Debug/../06_NosPrg/main.c:184
				memcpy(mSendData+17,&gUserData.currentTime,8);
    e100:	1c3b      	adds	r3, r7, #0
    e102:	3374      	adds	r3, #116	; 0x74
    e104:	1c1a      	adds	r2, r3, #0
    e106:	3211      	adds	r2, #17
    e108:	4bc0      	ldr	r3, [pc, #768]	; (e40c <main+0x784>)
    e10a:	1c10      	adds	r0, r2, #0
    e10c:	1c19      	adds	r1, r3, #0
    e10e:	2208      	movs	r2, #8
    e110:	f001 fb46 	bl	f7a0 <memcpy>
E:\2017-2018\03_Graduation Project\04_Software\04_wangshi\03_UpdateSoftware-180625\02_UEUser\KL36_Update-180627\Debug/../06_NosPrg/main.c:185
				memcpy(mSendData+25,&gUserData.mcuTemp,4);
    e114:	1c3b      	adds	r3, r7, #0
    e116:	3374      	adds	r3, #116	; 0x74
    e118:	1c1a      	adds	r2, r3, #0
    e11a:	3219      	adds	r2, #25
    e11c:	4bbc      	ldr	r3, [pc, #752]	; (e410 <main+0x788>)
    e11e:	1c10      	adds	r0, r2, #0
    e120:	1c19      	adds	r1, r3, #0
    e122:	2204      	movs	r2, #4
    e124:	f001 fb3c 	bl	f7a0 <memcpy>
E:\2017-2018\03_Graduation Project\04_Software\04_wangshi\03_UpdateSoftware-180625\02_UEUser\KL36_Update-180627\Debug/../06_NosPrg/main.c:186
				memcpy(mSendData+29,&gUserData.signalPower,1);
    e128:	1c3b      	adds	r3, r7, #0
    e12a:	3374      	adds	r3, #116	; 0x74
    e12c:	331d      	adds	r3, #29
    e12e:	49b2      	ldr	r1, [pc, #712]	; (e3f8 <main+0x770>)
    e130:	22e5      	movs	r2, #229	; 0xe5
    e132:	5c8a      	ldrb	r2, [r1, r2]
    e134:	701a      	strb	r2, [r3, #0]
E:\2017-2018\03_Graduation Project\04_Software\04_wangshi\03_UpdateSoftware-180625\02_UEUser\KL36_Update-180627\Debug/../06_NosPrg/main.c:187
				memcpy(mSendData+30,&gUserData.bright,2);
    e136:	1c3b      	adds	r3, r7, #0
    e138:	3374      	adds	r3, #116	; 0x74
    e13a:	1c1a      	adds	r2, r3, #0
    e13c:	321e      	adds	r2, #30
    e13e:	4bb5      	ldr	r3, [pc, #724]	; (e414 <main+0x78c>)
    e140:	1c10      	adds	r0, r2, #0
    e142:	1c19      	adds	r1, r3, #0
    e144:	2202      	movs	r2, #2
    e146:	f001 fb2b 	bl	f7a0 <memcpy>
E:\2017-2018\03_Graduation Project\04_Software\04_wangshi\03_UpdateSoftware-180625\02_UEUser\KL36_Update-180627\Debug/../06_NosPrg/main.c:188
				memcpy(mSendData+32,&gUserData.touchNum,2);
    e14a:	1c3b      	adds	r3, r7, #0
    e14c:	3374      	adds	r3, #116	; 0x74
    e14e:	1c1a      	adds	r2, r3, #0
    e150:	3220      	adds	r2, #32
    e152:	4bb1      	ldr	r3, [pc, #708]	; (e418 <main+0x790>)
    e154:	1c10      	adds	r0, r2, #0
    e156:	1c19      	adds	r1, r3, #0
    e158:	2202      	movs	r2, #2
    e15a:	f001 fb21 	bl	f7a0 <memcpy>
E:\2017-2018\03_Graduation Project\04_Software\04_wangshi\03_UpdateSoftware-180625\02_UEUser\KL36_Update-180627\Debug/../06_NosPrg/main.c:189
				memcpy(mSendData+34,gUserData.lbs_location,25);
    e15e:	1c3b      	adds	r3, r7, #0
    e160:	3374      	adds	r3, #116	; 0x74
    e162:	3322      	adds	r3, #34	; 0x22
    e164:	48a4      	ldr	r0, [pc, #656]	; (e3f8 <main+0x770>)
    e166:	22fe      	movs	r2, #254	; 0xfe
    e168:	1c19      	adds	r1, r3, #0
    e16a:	1882      	adds	r2, r0, r2
    e16c:	2319      	movs	r3, #25
    e16e:	1c08      	adds	r0, r1, #0
    e170:	1c11      	adds	r1, r2, #0
    e172:	1c1a      	adds	r2, r3, #0
    e174:	f001 fb14 	bl	f7a0 <memcpy>
E:\2017-2018\03_Graduation Project\04_Software\04_wangshi\03_UpdateSoftware-180625\02_UEUser\KL36_Update-180627\Debug/../06_NosPrg/main.c:190
				mSendLen = 59;
    e178:	48a1      	ldr	r0, [pc, #644]	; (e400 <main+0x778>)
    e17a:	183b      	adds	r3, r7, r0
    e17c:	223b      	movs	r2, #59	; 0x3b
    e17e:	801a      	strh	r2, [r3, #0]
E:\2017-2018\03_Graduation Project\04_Software\04_wangshi\03_UpdateSoftware-180625\02_UEUser\KL36_Update-180627\Debug/../06_NosPrg/main.c:200
			//printf("%d\n",gUserData.signalPower);
			//3.4UE
			//printf("H1-1003\n");
			//LCD_DrawSurface(4,300,236,316,GRAY);
			//LCD_ShowString(4,300,BLUE,GRAY,"H1-1003...");
			mflag = uecom_send(mSendLen,mSendData); //
    e180:	4ba6      	ldr	r3, [pc, #664]	; (e41c <main+0x794>)
    e182:	681b      	ldr	r3, [r3, #0]
    e184:	49a6      	ldr	r1, [pc, #664]	; (e420 <main+0x798>)
    e186:	187c      	adds	r4, r7, r1
    e188:	4e9d      	ldr	r6, [pc, #628]	; (e400 <main+0x778>)
    e18a:	19ba      	adds	r2, r7, r6
    e18c:	8811      	ldrh	r1, [r2, #0]
    e18e:	1c3a      	adds	r2, r7, #0
    e190:	3274      	adds	r2, #116	; 0x74
    e192:	1c08      	adds	r0, r1, #0
    e194:	1c11      	adds	r1, r2, #0
    e196:	4798      	blx	r3
    e198:	1c03      	adds	r3, r0, #0
    e19a:	7023      	strb	r3, [r4, #0]
E:\2017-2018\03_Graduation Project\04_Software\04_wangshi\03_UpdateSoftware-180625\02_UEUser\KL36_Update-180627\Debug/../06_NosPrg/main.c:201
			if(mflag)  goto main_loop2;                   //LCD
    e19c:	48a0      	ldr	r0, [pc, #640]	; (e420 <main+0x798>)
    e19e:	183b      	adds	r3, r7, r0
    e1a0:	781b      	ldrb	r3, [r3, #0]
    e1a2:	2b00      	cmp	r3, #0
    e1a4:	d03a      	beq.n	e21c <main+0x594>
E:\2017-2018\03_Graduation Project\04_Software\04_wangshi\03_UpdateSoftware-180625\02_UEUser\KL36_Update-180627\Debug/../06_NosPrg/main.c:201 (discriminator 1)
    e1a6:	46c0      	nop			; (mov r8, r8)
E:\2017-2018\03_Graduation Project\04_Software\04_wangshi\03_UpdateSoftware-180625\02_UEUser\KL36_Update-180627\Debug/../06_NosPrg/main.c:226 (discriminator 1)
			goto main_loop;
			main_loop2:
			//LCDF1-20xx,
			//printf("F2-%dUE\n",2000+mflag);
			//LCD_DrawSurface(4,300,236,316,GRAY);
			strcat(showString,"F2-");
    e1a8:	1c3b      	adds	r3, r7, #0
    e1aa:	3314      	adds	r3, #20
    e1ac:	1c18      	adds	r0, r3, #0
    e1ae:	f001 fb15 	bl	f7dc <strlen>
    e1b2:	1c03      	adds	r3, r0, #0
    e1b4:	1c3a      	adds	r2, r7, #0
    e1b6:	3214      	adds	r2, #20
    e1b8:	18d2      	adds	r2, r2, r3
    e1ba:	4b9a      	ldr	r3, [pc, #616]	; (e424 <main+0x79c>)
    e1bc:	1c11      	adds	r1, r2, #0
    e1be:	1c1a      	adds	r2, r3, #0
    e1c0:	2308      	movs	r3, #8
    e1c2:	1c08      	adds	r0, r1, #0
    e1c4:	1c11      	adds	r1, r2, #0
    e1c6:	1c1a      	adds	r2, r3, #0
    e1c8:	f001 faea 	bl	f7a0 <memcpy>
E:\2017-2018\03_Graduation Project\04_Software\04_wangshi\03_UpdateSoftware-180625\02_UEUser\KL36_Update-180627\Debug/../06_NosPrg/main.c:227 (discriminator 1)
			strcat(showString,(uint_8 *)myItoa(2000+mflag,mIntegerToChar,10));
    e1cc:	4994      	ldr	r1, [pc, #592]	; (e420 <main+0x798>)
    e1ce:	187b      	adds	r3, r7, r1
    e1d0:	781b      	ldrb	r3, [r3, #0]
    e1d2:	22fa      	movs	r2, #250	; 0xfa
    e1d4:	00d2      	lsls	r2, r2, #3
    e1d6:	189b      	adds	r3, r3, r2
    e1d8:	1c1a      	adds	r2, r3, #0
    e1da:	4e93      	ldr	r6, [pc, #588]	; (e428 <main+0x7a0>)
    e1dc:	19bb      	adds	r3, r7, r6
    e1de:	1c10      	adds	r0, r2, #0
    e1e0:	1c19      	adds	r1, r3, #0
    e1e2:	220a      	movs	r2, #10
    e1e4:	f000 fd84 	bl	ecf0 <myItoa>
    e1e8:	1c03      	adds	r3, r0, #0
    e1ea:	1c3a      	adds	r2, r7, #0
    e1ec:	3214      	adds	r2, #20
    e1ee:	1c10      	adds	r0, r2, #0
    e1f0:	1c19      	adds	r1, r3, #0
    e1f2:	f001 fae6 	bl	f7c2 <strcat>
E:\2017-2018\03_Graduation Project\04_Software\04_wangshi\03_UpdateSoftware-180625\02_UEUser\KL36_Update-180627\Debug/../06_NosPrg/main.c:228 (discriminator 1)
			strcat(showString,"UE");
    e1f6:	1c3b      	adds	r3, r7, #0
    e1f8:	3314      	adds	r3, #20
    e1fa:	1c18      	adds	r0, r3, #0
    e1fc:	f001 faee 	bl	f7dc <strlen>
    e200:	1c03      	adds	r3, r0, #0
    e202:	1c3a      	adds	r2, r7, #0
    e204:	3214      	adds	r2, #20
    e206:	18d2      	adds	r2, r2, r3
    e208:	4b88      	ldr	r3, [pc, #544]	; (e42c <main+0x7a4>)
    e20a:	1c11      	adds	r1, r2, #0
    e20c:	1c1a      	adds	r2, r3, #0
    e20e:	2311      	movs	r3, #17
    e210:	1c08      	adds	r0, r1, #0
    e212:	1c11      	adds	r1, r2, #0
    e214:	1c1a      	adds	r2, r3, #0
    e216:	f001 fac3 	bl	f7a0 <memcpy>
E:\2017-2018\03_Graduation Project\04_Software\04_wangshi\03_UpdateSoftware-180625\02_UEUser\KL36_Update-180627\Debug/../06_NosPrg/main.c:230 (discriminator 1)
			//LCD_ShowString(4,300,BLUE,GRAY,showString);
			goto main_loop;
    e21a:	e056      	b.n	e2ca <main+0x642>
E:\2017-2018\03_Graduation Project\04_Software\04_wangshi\03_UpdateSoftware-180625\02_UEUser\KL36_Update-180627\Debug/../06_NosPrg/main.c:205
			mflag = uecom_send(mSendLen,mSendData); //
			if(mflag)  goto main_loop2;                   //LCD
			//printf("H1-1004\n");
			//LCD_DrawSurface(4,300,236,316,GRAY);
			//LCD_ShowString(4,300,BLUE,GRAY,"H1-1004");
			mWaitSecond = 0;                     //
    e21c:	4884      	ldr	r0, [pc, #528]	; (e430 <main+0x7a8>)
    e21e:	183b      	adds	r3, r7, r0
    e220:	2200      	movs	r2, #0
    e222:	801a      	strh	r2, [r3, #0]
E:\2017-2018\03_Graduation Project\04_Software\04_wangshi\03_UpdateSoftware-180625\02_UEUser\KL36_Update-180627\Debug/../06_NosPrg/main.c:206
			goto main_loop;
    e224:	e051      	b.n	e2ca <main+0x642>
E:\2017-2018\03_Graduation Project\04_Software\04_wangshi\03_UpdateSoftware-180625\02_UEUser\KL36_Update-180627\Debug/../06_NosPrg/main.c:210
			main_loop1:
			//LCDF1-10xx,uecom
			if(mflag<=4)      //
				mi = 1;
    e226:	4983      	ldr	r1, [pc, #524]	; (e434 <main+0x7ac>)
    e228:	187b      	adds	r3, r7, r1
    e22a:	2201      	movs	r2, #1
    e22c:	701a      	strb	r2, [r3, #0]
    e22e:	e012      	b.n	e256 <main+0x5ce>
E:\2017-2018\03_Graduation Project\04_Software\04_wangshi\03_UpdateSoftware-180625\02_UEUser\KL36_Update-180627\Debug/../06_NosPrg/main.c:211
			else if(mflag == 5) //SIM
    e230:	4a7b      	ldr	r2, [pc, #492]	; (e420 <main+0x798>)
    e232:	18bb      	adds	r3, r7, r2
    e234:	781b      	ldrb	r3, [r3, #0]
    e236:	2b05      	cmp	r3, #5
    e238:	d104      	bne.n	e244 <main+0x5bc>
E:\2017-2018\03_Graduation Project\04_Software\04_wangshi\03_UpdateSoftware-180625\02_UEUser\KL36_Update-180627\Debug/../06_NosPrg/main.c:212
				mi = 2;
    e23a:	4e7e      	ldr	r6, [pc, #504]	; (e434 <main+0x7ac>)
    e23c:	19bb      	adds	r3, r7, r6
    e23e:	2202      	movs	r2, #2
    e240:	701a      	strb	r2, [r3, #0]
    e242:	e008      	b.n	e256 <main+0x5ce>
E:\2017-2018\03_Graduation Project\04_Software\04_wangshi\03_UpdateSoftware-180625\02_UEUser\KL36_Update-180627\Debug/../06_NosPrg/main.c:213
			else if(mflag == 11)//
    e244:	4876      	ldr	r0, [pc, #472]	; (e420 <main+0x798>)
    e246:	183b      	adds	r3, r7, r0
    e248:	781b      	ldrb	r3, [r3, #0]
    e24a:	2b0b      	cmp	r3, #11
    e24c:	d103      	bne.n	e256 <main+0x5ce>
E:\2017-2018\03_Graduation Project\04_Software\04_wangshi\03_UpdateSoftware-180625\02_UEUser\KL36_Update-180627\Debug/../06_NosPrg/main.c:214
				mi = 3;
    e24e:	4979      	ldr	r1, [pc, #484]	; (e434 <main+0x7ac>)
    e250:	187b      	adds	r3, r7, r1
    e252:	2203      	movs	r2, #3
    e254:	701a      	strb	r2, [r3, #0]
E:\2017-2018\03_Graduation Project\04_Software\04_wangshi\03_UpdateSoftware-180625\02_UEUser\KL36_Update-180627\Debug/../06_NosPrg/main.c:217
			//printf("F1-%dUE\n",1000+mi);
			//LCD_DrawSurface(4,300,236,316,GRAY);
			strcat(showString,"F1-");
    e256:	1c3b      	adds	r3, r7, #0
    e258:	3314      	adds	r3, #20
    e25a:	1c18      	adds	r0, r3, #0
    e25c:	f001 fabe 	bl	f7dc <strlen>
    e260:	1c03      	adds	r3, r0, #0
    e262:	1c3a      	adds	r2, r7, #0
    e264:	3214      	adds	r2, #20
    e266:	18d2      	adds	r2, r2, r3
    e268:	4b73      	ldr	r3, [pc, #460]	; (e438 <main+0x7b0>)
    e26a:	1c11      	adds	r1, r2, #0
    e26c:	1c1a      	adds	r2, r3, #0
    e26e:	2308      	movs	r3, #8
    e270:	1c08      	adds	r0, r1, #0
    e272:	1c11      	adds	r1, r2, #0
    e274:	1c1a      	adds	r2, r3, #0
    e276:	f001 fa93 	bl	f7a0 <memcpy>
E:\2017-2018\03_Graduation Project\04_Software\04_wangshi\03_UpdateSoftware-180625\02_UEUser\KL36_Update-180627\Debug/../06_NosPrg/main.c:218
			strcat(showString,(uint_8 *)myItoa(1000+mi,mIntegerToChar,10));
    e27a:	4a6e      	ldr	r2, [pc, #440]	; (e434 <main+0x7ac>)
    e27c:	18bb      	adds	r3, r7, r2
    e27e:	781b      	ldrb	r3, [r3, #0]
    e280:	26fa      	movs	r6, #250	; 0xfa
    e282:	00b6      	lsls	r6, r6, #2
    e284:	199b      	adds	r3, r3, r6
    e286:	1c1a      	adds	r2, r3, #0
    e288:	4867      	ldr	r0, [pc, #412]	; (e428 <main+0x7a0>)
    e28a:	183b      	adds	r3, r7, r0
    e28c:	1c10      	adds	r0, r2, #0
    e28e:	1c19      	adds	r1, r3, #0
    e290:	220a      	movs	r2, #10
    e292:	f000 fd2d 	bl	ecf0 <myItoa>
    e296:	1c03      	adds	r3, r0, #0
    e298:	1c3a      	adds	r2, r7, #0
    e29a:	3214      	adds	r2, #20
    e29c:	1c10      	adds	r0, r2, #0
    e29e:	1c19      	adds	r1, r3, #0
    e2a0:	f001 fa8f 	bl	f7c2 <strcat>
E:\2017-2018\03_Graduation Project\04_Software\04_wangshi\03_UpdateSoftware-180625\02_UEUser\KL36_Update-180627\Debug/../06_NosPrg/main.c:219
			strcat(showString,"UE");
    e2a4:	1c3b      	adds	r3, r7, #0
    e2a6:	3314      	adds	r3, #20
    e2a8:	1c18      	adds	r0, r3, #0
    e2aa:	f001 fa97 	bl	f7dc <strlen>
    e2ae:	1c03      	adds	r3, r0, #0
    e2b0:	1c3a      	adds	r2, r7, #0
    e2b2:	3214      	adds	r2, #20
    e2b4:	18d2      	adds	r2, r2, r3
    e2b6:	4b61      	ldr	r3, [pc, #388]	; (e43c <main+0x7b4>)
    e2b8:	1c11      	adds	r1, r2, #0
    e2ba:	1c1a      	adds	r2, r3, #0
    e2bc:	230f      	movs	r3, #15
    e2be:	1c08      	adds	r0, r1, #0
    e2c0:	1c11      	adds	r1, r2, #0
    e2c2:	1c1a      	adds	r2, r3, #0
    e2c4:	f001 fa6c 	bl	f7a0 <memcpy>
E:\2017-2018\03_Graduation Project\04_Software\04_wangshi\03_UpdateSoftware-180625\02_UEUser\KL36_Update-180627\Debug/../06_NosPrg/main.c:221
			//LCD_ShowString(4,300,BLUE,GRAY,showString);
			goto main_loop;
    e2c8:	46c0      	nop			; (mov r8, r8)
E:\2017-2018\03_Graduation Project\04_Software\04_wangshi\03_UpdateSoftware-180625\02_UEUser\KL36_Update-180627\Debug/../06_NosPrg/main.c:232
			strcat(showString,(uint_8 *)myItoa(2000+mflag,mIntegerToChar,10));
			strcat(showString,"UE");
			//LCD_ShowString(4,300,BLUE,GRAY,showString);
			goto main_loop;
			main_loop:
			mSendFlag = 0;         //
    e2ca:	495d      	ldr	r1, [pc, #372]	; (e440 <main+0x7b8>)
    e2cc:	187b      	adds	r3, r7, r1
    e2ce:	2200      	movs	r2, #0
    e2d0:	701a      	strb	r2, [r3, #0]
E:\2017-2018\03_Graduation Project\04_Software\04_wangshi\03_UpdateSoftware-180625\02_UEUser\KL36_Update-180627\Debug/../06_NosPrg/main.c:235
		}
		//4
		if(gRecvLength != 0)
    e2d2:	4b5c      	ldr	r3, [pc, #368]	; (e444 <main+0x7bc>)
    e2d4:	881b      	ldrh	r3, [r3, #0]
    e2d6:	2b00      	cmp	r3, #0
    e2d8:	d100      	bne.n	e2dc <main+0x654>
    e2da:	e291      	b.n	e800 <main+0xb78>
E:\2017-2018\03_Graduation Project\04_Software\04_wangshi\03_UpdateSoftware-180625\02_UEUser\KL36_Update-180627\Debug/../06_NosPrg/main.c:239
		{
			uint_8 cmd[2];
			uint_8 sTmp[10];
			mRecvCount++;
    e2dc:	23a6      	movs	r3, #166	; 0xa6
    e2de:	00db      	lsls	r3, r3, #3
    e2e0:	19db      	adds	r3, r3, r7
    e2e2:	6819      	ldr	r1, [r3, #0]
    e2e4:	685a      	ldr	r2, [r3, #4]
    e2e6:	2301      	movs	r3, #1
    e2e8:	2400      	movs	r4, #0
    e2ea:	185b      	adds	r3, r3, r1
    e2ec:	4154      	adcs	r4, r2
    e2ee:	26a6      	movs	r6, #166	; 0xa6
    e2f0:	00f6      	lsls	r6, r6, #3
    e2f2:	19f6      	adds	r6, r6, r7
    e2f4:	6033      	str	r3, [r6, #0]
    e2f6:	6074      	str	r4, [r6, #4]
E:\2017-2018\03_Graduation Project\04_Software\04_wangshi\03_UpdateSoftware-180625\02_UEUser\KL36_Update-180627\Debug/../06_NosPrg/main.c:242
			//LCD_ShowString(90,249,BLUE,GRAY,myItoa(mRecvCount,sTmp,10));
			//LCD_ShowString(4,300,BLUE,GRAY,"!                    ");
			mflag = 0xff;
    e2f8:	4849      	ldr	r0, [pc, #292]	; (e420 <main+0x798>)
    e2fa:	183b      	adds	r3, r7, r0
    e2fc:	22ff      	movs	r2, #255	; 0xff
    e2fe:	701a      	strb	r2, [r3, #0]
E:\2017-2018\03_Graduation Project\04_Software\04_wangshi\03_UpdateSoftware-180625\02_UEUser\KL36_Update-180627\Debug/../06_NosPrg/main.c:243
			mSendLen = 0;
    e300:	493f      	ldr	r1, [pc, #252]	; (e400 <main+0x778>)
    e302:	187b      	adds	r3, r7, r1
    e304:	2200      	movs	r2, #0
    e306:	801a      	strh	r2, [r3, #0]
E:\2017-2018\03_Graduation Project\04_Software\04_wangshi\03_UpdateSoftware-180625\02_UEUser\KL36_Update-180627\Debug/../06_NosPrg/main.c:244
			memcpy(cmd,gRecvBuf,2);
    e308:	4b4f      	ldr	r3, [pc, #316]	; (e448 <main+0x7c0>)
    e30a:	22a9      	movs	r2, #169	; 0xa9
    e30c:	00d2      	lsls	r2, r2, #3
    e30e:	19d2      	adds	r2, r2, r7
    e310:	18d3      	adds	r3, r2, r3
    e312:	4a4e      	ldr	r2, [pc, #312]	; (e44c <main+0x7c4>)
    e314:	8812      	ldrh	r2, [r2, #0]
    e316:	801a      	strh	r2, [r3, #0]
E:\2017-2018\03_Graduation Project\04_Software\04_wangshi\03_UpdateSoftware-180625\02_UEUser\KL36_Update-180627\Debug/../06_NosPrg/main.c:245
			memcpy(mSendData,gRecvBuf,2);
    e318:	1c3a      	adds	r2, r7, #0
    e31a:	3274      	adds	r2, #116	; 0x74
    e31c:	4b4b      	ldr	r3, [pc, #300]	; (e44c <main+0x7c4>)
    e31e:	1c10      	adds	r0, r2, #0
    e320:	1c19      	adds	r1, r3, #0
    e322:	2202      	movs	r2, #2
    e324:	f001 fa3c 	bl	f7a0 <memcpy>
E:\2017-2018\03_Graduation Project\04_Software\04_wangshi\03_UpdateSoftware-180625\02_UEUser\KL36_Update-180627\Debug/../06_NosPrg/main.c:246
			if(cmd[0]=='A'&&cmd[1]=='0')          //flash
    e328:	4b47      	ldr	r3, [pc, #284]	; (e448 <main+0x7c0>)
    e32a:	26a9      	movs	r6, #169	; 0xa9
    e32c:	00f6      	lsls	r6, r6, #3
    e32e:	19f6      	adds	r6, r6, r7
    e330:	18f3      	adds	r3, r6, r3
    e332:	781b      	ldrb	r3, [r3, #0]
    e334:	2b41      	cmp	r3, #65	; 0x41
    e336:	d11b      	bne.n	e370 <main+0x6e8>
E:\2017-2018\03_Graduation Project\04_Software\04_wangshi\03_UpdateSoftware-180625\02_UEUser\KL36_Update-180627\Debug/../06_NosPrg/main.c:246 (discriminator 1)
    e338:	4b43      	ldr	r3, [pc, #268]	; (e448 <main+0x7c0>)
    e33a:	20a9      	movs	r0, #169	; 0xa9
    e33c:	00c0      	lsls	r0, r0, #3
    e33e:	19c0      	adds	r0, r0, r7
    e340:	18c3      	adds	r3, r0, r3
    e342:	785b      	ldrb	r3, [r3, #1]
    e344:	2b30      	cmp	r3, #48	; 0x30
    e346:	d113      	bne.n	e370 <main+0x6e8>
E:\2017-2018\03_Graduation Project\04_Software\04_wangshi\03_UpdateSoftware-180625\02_UEUser\KL36_Update-180627\Debug/../06_NosPrg/main.c:248
			{
				mSendLen = mFlashLen+2;
    e348:	492d      	ldr	r1, [pc, #180]	; (e400 <main+0x778>)
    e34a:	187b      	adds	r3, r7, r1
    e34c:	4e40      	ldr	r6, [pc, #256]	; (e450 <main+0x7c8>)
    e34e:	19ba      	adds	r2, r7, r6
    e350:	8812      	ldrh	r2, [r2, #0]
    e352:	3202      	adds	r2, #2
    e354:	801a      	strh	r2, [r3, #0]
E:\2017-2018\03_Graduation Project\04_Software\04_wangshi\03_UpdateSoftware-180625\02_UEUser\KL36_Update-180627\Debug/../06_NosPrg/main.c:249
				memcpy(mSendData+2,(uint_8*)(&gFlashData),mFlashLen);
    e356:	483e      	ldr	r0, [pc, #248]	; (e450 <main+0x7c8>)
    e358:	183b      	adds	r3, r7, r0
    e35a:	881b      	ldrh	r3, [r3, #0]
    e35c:	1c3a      	adds	r2, r7, #0
    e35e:	3274      	adds	r2, #116	; 0x74
    e360:	1c91      	adds	r1, r2, #2
    e362:	4a3c      	ldr	r2, [pc, #240]	; (e454 <main+0x7cc>)
    e364:	1c08      	adds	r0, r1, #0
    e366:	1c11      	adds	r1, r2, #0
    e368:	1c1a      	adds	r2, r3, #0
    e36a:	f001 fa19 	bl	f7a0 <memcpy>
    e36e:	e210      	b.n	e792 <main+0xb0a>
E:\2017-2018\03_Graduation Project\04_Software\04_wangshi\03_UpdateSoftware-180625\02_UEUser\KL36_Update-180627\Debug/../06_NosPrg/main.c:251
			}
			else if(cmd[0]=='A'&&cmd[1]=='1')  //flash
    e370:	4b35      	ldr	r3, [pc, #212]	; (e448 <main+0x7c0>)
    e372:	21a9      	movs	r1, #169	; 0xa9
    e374:	00c9      	lsls	r1, r1, #3
    e376:	19c9      	adds	r1, r1, r7
    e378:	18cb      	adds	r3, r1, r3
    e37a:	781b      	ldrb	r3, [r3, #0]
    e37c:	2b41      	cmp	r3, #65	; 0x41
    e37e:	d119      	bne.n	e3b4 <main+0x72c>
E:\2017-2018\03_Graduation Project\04_Software\04_wangshi\03_UpdateSoftware-180625\02_UEUser\KL36_Update-180627\Debug/../06_NosPrg/main.c:251 (discriminator 1)
    e380:	4b31      	ldr	r3, [pc, #196]	; (e448 <main+0x7c0>)
    e382:	22a9      	movs	r2, #169	; 0xa9
    e384:	00d2      	lsls	r2, r2, #3
    e386:	19d2      	adds	r2, r2, r7
    e388:	18d3      	adds	r3, r2, r3
    e38a:	785b      	ldrb	r3, [r3, #1]
    e38c:	2b31      	cmp	r3, #49	; 0x31
    e38e:	d111      	bne.n	e3b4 <main+0x72c>
E:\2017-2018\03_Graduation Project\04_Software\04_wangshi\03_UpdateSoftware-180625\02_UEUser\KL36_Update-180627\Debug/../06_NosPrg/main.c:253
			{
				mSendLen = 145;
    e390:	4e1b      	ldr	r6, [pc, #108]	; (e400 <main+0x778>)
    e392:	19bb      	adds	r3, r7, r6
    e394:	2291      	movs	r2, #145	; 0x91
    e396:	801a      	strh	r2, [r3, #0]
E:\2017-2018\03_Graduation Project\04_Software\04_wangshi\03_UpdateSoftware-180625\02_UEUser\KL36_Update-180627\Debug/../06_NosPrg/main.c:254
				memcpy(mSendData+2,gFlashData.equipName,mSendLen-2);
    e398:	4819      	ldr	r0, [pc, #100]	; (e400 <main+0x778>)
    e39a:	183b      	adds	r3, r7, r0
    e39c:	881b      	ldrh	r3, [r3, #0]
    e39e:	3b02      	subs	r3, #2
    e3a0:	1c3a      	adds	r2, r7, #0
    e3a2:	3274      	adds	r2, #116	; 0x74
    e3a4:	1c91      	adds	r1, r2, #2
    e3a6:	4a2b      	ldr	r2, [pc, #172]	; (e454 <main+0x7cc>)
    e3a8:	1c08      	adds	r0, r1, #0
    e3aa:	1c11      	adds	r1, r2, #0
    e3ac:	1c1a      	adds	r2, r3, #0
    e3ae:	f001 f9f7 	bl	f7a0 <memcpy>
    e3b2:	e1ee      	b.n	e792 <main+0xb0a>
E:\2017-2018\03_Graduation Project\04_Software\04_wangshi\03_UpdateSoftware-180625\02_UEUser\KL36_Update-180627\Debug/../06_NosPrg/main.c:256
			}
			else if(cmd[0]=='A'&&cmd[1]=='2')  //flash
    e3b4:	4b24      	ldr	r3, [pc, #144]	; (e448 <main+0x7c0>)
    e3b6:	21a9      	movs	r1, #169	; 0xa9
    e3b8:	00c9      	lsls	r1, r1, #3
    e3ba:	19c9      	adds	r1, r1, r7
    e3bc:	18cb      	adds	r3, r1, r3
    e3be:	781b      	ldrb	r3, [r3, #0]
    e3c0:	2b41      	cmp	r3, #65	; 0x41
    e3c2:	d14b      	bne.n	e45c <main+0x7d4>
E:\2017-2018\03_Graduation Project\04_Software\04_wangshi\03_UpdateSoftware-180625\02_UEUser\KL36_Update-180627\Debug/../06_NosPrg/main.c:256 (discriminator 1)
    e3c4:	4b20      	ldr	r3, [pc, #128]	; (e448 <main+0x7c0>)
    e3c6:	22a9      	movs	r2, #169	; 0xa9
    e3c8:	00d2      	lsls	r2, r2, #3
    e3ca:	19d2      	adds	r2, r2, r7
    e3cc:	18d3      	adds	r3, r2, r3
    e3ce:	785b      	ldrb	r3, [r3, #1]
    e3d0:	2b32      	cmp	r3, #50	; 0x32
    e3d2:	d143      	bne.n	e45c <main+0x7d4>
E:\2017-2018\03_Graduation Project\04_Software\04_wangshi\03_UpdateSoftware-180625\02_UEUser\KL36_Update-180627\Debug/../06_NosPrg/main.c:258
			{
				mSendLen = 22;
    e3d4:	4e0a      	ldr	r6, [pc, #40]	; (e400 <main+0x778>)
    e3d6:	19bb      	adds	r3, r7, r6
    e3d8:	2216      	movs	r2, #22
    e3da:	801a      	strh	r2, [r3, #0]
E:\2017-2018\03_Graduation Project\04_Software\04_wangshi\03_UpdateSoftware-180625\02_UEUser\KL36_Update-180627\Debug/../06_NosPrg/main.c:259
				memcpy(mSendData+2,gFlashData.serverIP,mSendLen-2);
    e3dc:	4808      	ldr	r0, [pc, #32]	; (e400 <main+0x778>)
    e3de:	183b      	adds	r3, r7, r0
    e3e0:	881b      	ldrh	r3, [r3, #0]
    e3e2:	3b02      	subs	r3, #2
    e3e4:	1c3a      	adds	r2, r7, #0
    e3e6:	3274      	adds	r2, #116	; 0x74
    e3e8:	1c91      	adds	r1, r2, #2
    e3ea:	4a1b      	ldr	r2, [pc, #108]	; (e458 <main+0x7d0>)
    e3ec:	1c08      	adds	r0, r1, #0
    e3ee:	1c11      	adds	r1, r2, #0
    e3f0:	1c1a      	adds	r2, r3, #0
    e3f2:	f001 f9d5 	bl	f7a0 <memcpy>
    e3f6:	e1cc      	b.n	e792 <main+0xb0a>
    e3f8:	1ffffe3c 	.word	0x1ffffe3c
    e3fc:	1fffff54 	.word	0x1fffff54
    e400:	0000051e 	.word	0x0000051e
    e404:	0000050c 	.word	0x0000050c
    e408:	fffffb2c 	.word	0xfffffb2c
    e40c:	1ffffe63 	.word	0x1ffffe63
    e410:	1ffffeef 	.word	0x1ffffeef
    e414:	1fffff22 	.word	0x1fffff22
    e418:	1fffff24 	.word	0x1fffff24
    e41c:	1ffff904 	.word	0x1ffff904
    e420:	000004ff 	.word	0x000004ff
    e424:	0000f830 	.word	0x0000f830
    e428:	00000464 	.word	0x00000464
    e42c:	0000f838 	.word	0x0000f838
    e430:	0000050e 	.word	0x0000050e
    e434:	0000052f 	.word	0x0000052f
    e438:	0000f818 	.word	0x0000f818
    e43c:	0000f820 	.word	0x0000f820
    e440:	0000053b 	.word	0x0000053b
    e444:	1fffff56 	.word	0x1fffff56
    e448:	fffffb0c 	.word	0xfffffb0c
    e44c:	1ffffa2c 	.word	0x1ffffa2c
    e450:	0000050a 	.word	0x0000050a
    e454:	1ffff980 	.word	0x1ffff980
    e458:	1ffffa0f 	.word	0x1ffffa0f
E:\2017-2018\03_Graduation Project\04_Software\04_wangshi\03_UpdateSoftware-180625\02_UEUser\KL36_Update-180627\Debug/../06_NosPrg/main.c:261
			}
			else if(cmd[0]=='A'&&cmd[1]=='3')  //flash
    e45c:	4baf      	ldr	r3, [pc, #700]	; (e71c <main+0xa94>)
    e45e:	21a9      	movs	r1, #169	; 0xa9
    e460:	00c9      	lsls	r1, r1, #3
    e462:	19c9      	adds	r1, r1, r7
    e464:	18cb      	adds	r3, r1, r3
    e466:	781b      	ldrb	r3, [r3, #0]
    e468:	2b41      	cmp	r3, #65	; 0x41
    e46a:	d119      	bne.n	e4a0 <main+0x818>
E:\2017-2018\03_Graduation Project\04_Software\04_wangshi\03_UpdateSoftware-180625\02_UEUser\KL36_Update-180627\Debug/../06_NosPrg/main.c:261 (discriminator 1)
    e46c:	4bab      	ldr	r3, [pc, #684]	; (e71c <main+0xa94>)
    e46e:	22a9      	movs	r2, #169	; 0xa9
    e470:	00d2      	lsls	r2, r2, #3
    e472:	19d2      	adds	r2, r2, r7
    e474:	18d3      	adds	r3, r2, r3
    e476:	785b      	ldrb	r3, [r3, #1]
    e478:	2b33      	cmp	r3, #51	; 0x33
    e47a:	d111      	bne.n	e4a0 <main+0x818>
E:\2017-2018\03_Graduation Project\04_Software\04_wangshi\03_UpdateSoftware-180625\02_UEUser\KL36_Update-180627\Debug/../06_NosPrg/main.c:263
			{
				mSendLen = 10;
    e47c:	4ea8      	ldr	r6, [pc, #672]	; (e720 <main+0xa98>)
    e47e:	19bb      	adds	r3, r7, r6
    e480:	220a      	movs	r2, #10
    e482:	801a      	strh	r2, [r3, #0]
E:\2017-2018\03_Graduation Project\04_Software\04_wangshi\03_UpdateSoftware-180625\02_UEUser\KL36_Update-180627\Debug/../06_NosPrg/main.c:264
				memcpy(mSendData+2,(uint_8*)(&gFlashData.sendFrequencySec),mSendLen-2);
    e484:	48a6      	ldr	r0, [pc, #664]	; (e720 <main+0xa98>)
    e486:	183b      	adds	r3, r7, r0
    e488:	881b      	ldrh	r3, [r3, #0]
    e48a:	3b02      	subs	r3, #2
    e48c:	1c3a      	adds	r2, r7, #0
    e48e:	3274      	adds	r2, #116	; 0x74
    e490:	1c91      	adds	r1, r2, #2
    e492:	4aa4      	ldr	r2, [pc, #656]	; (e724 <main+0xa9c>)
    e494:	1c08      	adds	r0, r1, #0
    e496:	1c11      	adds	r1, r2, #0
    e498:	1c1a      	adds	r2, r3, #0
    e49a:	f001 f981 	bl	f7a0 <memcpy>
    e49e:	e178      	b.n	e792 <main+0xb0a>
E:\2017-2018\03_Graduation Project\04_Software\04_wangshi\03_UpdateSoftware-180625\02_UEUser\KL36_Update-180627\Debug/../06_NosPrg/main.c:266
			}
			else if(cmd[0]=='B'&&cmd[1]=='0')   //flash
    e4a0:	4b9e      	ldr	r3, [pc, #632]	; (e71c <main+0xa94>)
    e4a2:	21a9      	movs	r1, #169	; 0xa9
    e4a4:	00c9      	lsls	r1, r1, #3
    e4a6:	19c9      	adds	r1, r1, r7
    e4a8:	18cb      	adds	r3, r1, r3
    e4aa:	781b      	ldrb	r3, [r3, #0]
    e4ac:	2b42      	cmp	r3, #66	; 0x42
    e4ae:	d127      	bne.n	e500 <main+0x878>
E:\2017-2018\03_Graduation Project\04_Software\04_wangshi\03_UpdateSoftware-180625\02_UEUser\KL36_Update-180627\Debug/../06_NosPrg/main.c:266 (discriminator 1)
    e4b0:	4b9a      	ldr	r3, [pc, #616]	; (e71c <main+0xa94>)
    e4b2:	22a9      	movs	r2, #169	; 0xa9
    e4b4:	00d2      	lsls	r2, r2, #3
    e4b6:	19d2      	adds	r2, r2, r7
    e4b8:	18d3      	adds	r3, r2, r3
    e4ba:	785b      	ldrb	r3, [r3, #1]
    e4bc:	2b30      	cmp	r3, #48	; 0x30
    e4be:	d11f      	bne.n	e500 <main+0x878>
E:\2017-2018\03_Graduation Project\04_Software\04_wangshi\03_UpdateSoftware-180625\02_UEUser\KL36_Update-180627\Debug/../06_NosPrg/main.c:268
			{
				memcpy((uint_8 *)(gFlashData.equipName),(uint_8*)&(gRecvBuf[2]),mFlashLen);
    e4c0:	4e99      	ldr	r6, [pc, #612]	; (e728 <main+0xaa0>)
    e4c2:	19bb      	adds	r3, r7, r6
    e4c4:	881b      	ldrh	r3, [r3, #0]
    e4c6:	4999      	ldr	r1, [pc, #612]	; (e72c <main+0xaa4>)
    e4c8:	4a99      	ldr	r2, [pc, #612]	; (e730 <main+0xaa8>)
    e4ca:	1c08      	adds	r0, r1, #0
    e4cc:	1c11      	adds	r1, r2, #0
    e4ce:	1c1a      	adds	r2, r3, #0
    e4d0:	f001 f966 	bl	f7a0 <memcpy>
E:\2017-2018\03_Graduation Project\04_Software\04_wangshi\03_UpdateSoftware-180625\02_UEUser\KL36_Update-180627\Debug/../06_NosPrg/main.c:269
				mFlashFlag = 1;
    e4d4:	4897      	ldr	r0, [pc, #604]	; (e734 <main+0xaac>)
    e4d6:	183b      	adds	r3, r7, r0
    e4d8:	2201      	movs	r2, #1
    e4da:	701a      	strb	r2, [r3, #0]
E:\2017-2018\03_Graduation Project\04_Software\04_wangshi\03_UpdateSoftware-180625\02_UEUser\KL36_Update-180627\Debug/../06_NosPrg/main.c:270
				mSendLen = 9;
    e4dc:	4990      	ldr	r1, [pc, #576]	; (e720 <main+0xa98>)
    e4de:	187b      	adds	r3, r7, r1
    e4e0:	2209      	movs	r2, #9
    e4e2:	801a      	strh	r2, [r3, #0]
E:\2017-2018\03_Graduation Project\04_Software\04_wangshi\03_UpdateSoftware-180625\02_UEUser\KL36_Update-180627\Debug/../06_NosPrg/main.c:271
				memcpy(mSendData+2,"success",mSendLen-2);
    e4e4:	4a8e      	ldr	r2, [pc, #568]	; (e720 <main+0xa98>)
    e4e6:	18bb      	adds	r3, r7, r2
    e4e8:	881b      	ldrh	r3, [r3, #0]
    e4ea:	3b02      	subs	r3, #2
    e4ec:	1c3a      	adds	r2, r7, #0
    e4ee:	3274      	adds	r2, #116	; 0x74
    e4f0:	1c91      	adds	r1, r2, #2
    e4f2:	4a91      	ldr	r2, [pc, #580]	; (e738 <main+0xab0>)
    e4f4:	1c08      	adds	r0, r1, #0
    e4f6:	1c11      	adds	r1, r2, #0
    e4f8:	1c1a      	adds	r2, r3, #0
    e4fa:	f001 f951 	bl	f7a0 <memcpy>
    e4fe:	e148      	b.n	e792 <main+0xb0a>
E:\2017-2018\03_Graduation Project\04_Software\04_wangshi\03_UpdateSoftware-180625\02_UEUser\KL36_Update-180627\Debug/../06_NosPrg/main.c:273
			}
			else if(cmd[0]=='B'&&cmd[1]=='1')  //flash
    e500:	4b86      	ldr	r3, [pc, #536]	; (e71c <main+0xa94>)
    e502:	26a9      	movs	r6, #169	; 0xa9
    e504:	00f6      	lsls	r6, r6, #3
    e506:	19f6      	adds	r6, r6, r7
    e508:	18f3      	adds	r3, r6, r3
    e50a:	781b      	ldrb	r3, [r3, #0]
    e50c:	2b42      	cmp	r3, #66	; 0x42
    e50e:	d124      	bne.n	e55a <main+0x8d2>
E:\2017-2018\03_Graduation Project\04_Software\04_wangshi\03_UpdateSoftware-180625\02_UEUser\KL36_Update-180627\Debug/../06_NosPrg/main.c:273 (discriminator 1)
    e510:	4b82      	ldr	r3, [pc, #520]	; (e71c <main+0xa94>)
    e512:	20a9      	movs	r0, #169	; 0xa9
    e514:	00c0      	lsls	r0, r0, #3
    e516:	19c0      	adds	r0, r0, r7
    e518:	18c3      	adds	r3, r0, r3
    e51a:	785b      	ldrb	r3, [r3, #1]
    e51c:	2b31      	cmp	r3, #49	; 0x31
    e51e:	d11c      	bne.n	e55a <main+0x8d2>
E:\2017-2018\03_Graduation Project\04_Software\04_wangshi\03_UpdateSoftware-180625\02_UEUser\KL36_Update-180627\Debug/../06_NosPrg/main.c:275
			{
				memcpy((uint_8 *)(gFlashData.equipName),(uint_8*)&(gRecvBuf[2]),124);
    e520:	4a82      	ldr	r2, [pc, #520]	; (e72c <main+0xaa4>)
    e522:	4b83      	ldr	r3, [pc, #524]	; (e730 <main+0xaa8>)
    e524:	1c10      	adds	r0, r2, #0
    e526:	1c19      	adds	r1, r3, #0
    e528:	227c      	movs	r2, #124	; 0x7c
    e52a:	f001 f939 	bl	f7a0 <memcpy>
E:\2017-2018\03_Graduation Project\04_Software\04_wangshi\03_UpdateSoftware-180625\02_UEUser\KL36_Update-180627\Debug/../06_NosPrg/main.c:276
				mFlashFlag = 1;
    e52e:	4981      	ldr	r1, [pc, #516]	; (e734 <main+0xaac>)
    e530:	187b      	adds	r3, r7, r1
    e532:	2201      	movs	r2, #1
    e534:	701a      	strb	r2, [r3, #0]
E:\2017-2018\03_Graduation Project\04_Software\04_wangshi\03_UpdateSoftware-180625\02_UEUser\KL36_Update-180627\Debug/../06_NosPrg/main.c:277
				mSendLen = 9;
    e536:	4a7a      	ldr	r2, [pc, #488]	; (e720 <main+0xa98>)
    e538:	18bb      	adds	r3, r7, r2
    e53a:	2209      	movs	r2, #9
    e53c:	801a      	strh	r2, [r3, #0]
E:\2017-2018\03_Graduation Project\04_Software\04_wangshi\03_UpdateSoftware-180625\02_UEUser\KL36_Update-180627\Debug/../06_NosPrg/main.c:278
				memcpy(mSendData+2,"success",mSendLen-2);
    e53e:	4e78      	ldr	r6, [pc, #480]	; (e720 <main+0xa98>)
    e540:	19bb      	adds	r3, r7, r6
    e542:	881b      	ldrh	r3, [r3, #0]
    e544:	3b02      	subs	r3, #2
    e546:	1c3a      	adds	r2, r7, #0
    e548:	3274      	adds	r2, #116	; 0x74
    e54a:	1c91      	adds	r1, r2, #2
    e54c:	4a7a      	ldr	r2, [pc, #488]	; (e738 <main+0xab0>)
    e54e:	1c08      	adds	r0, r1, #0
    e550:	1c11      	adds	r1, r2, #0
    e552:	1c1a      	adds	r2, r3, #0
    e554:	f001 f924 	bl	f7a0 <memcpy>
    e558:	e11b      	b.n	e792 <main+0xb0a>
E:\2017-2018\03_Graduation Project\04_Software\04_wangshi\03_UpdateSoftware-180625\02_UEUser\KL36_Update-180627\Debug/../06_NosPrg/main.c:280
			}
			else if(cmd[0]=='B'&&cmd[1]=='2')  //flash
    e55a:	4b70      	ldr	r3, [pc, #448]	; (e71c <main+0xa94>)
    e55c:	20a9      	movs	r0, #169	; 0xa9
    e55e:	00c0      	lsls	r0, r0, #3
    e560:	19c0      	adds	r0, r0, r7
    e562:	18c3      	adds	r3, r0, r3
    e564:	781b      	ldrb	r3, [r3, #0]
    e566:	2b42      	cmp	r3, #66	; 0x42
    e568:	d124      	bne.n	e5b4 <main+0x92c>
E:\2017-2018\03_Graduation Project\04_Software\04_wangshi\03_UpdateSoftware-180625\02_UEUser\KL36_Update-180627\Debug/../06_NosPrg/main.c:280 (discriminator 1)
    e56a:	4b6c      	ldr	r3, [pc, #432]	; (e71c <main+0xa94>)
    e56c:	21a9      	movs	r1, #169	; 0xa9
    e56e:	00c9      	lsls	r1, r1, #3
    e570:	19c9      	adds	r1, r1, r7
    e572:	18cb      	adds	r3, r1, r3
    e574:	785b      	ldrb	r3, [r3, #1]
    e576:	2b32      	cmp	r3, #50	; 0x32
    e578:	d11c      	bne.n	e5b4 <main+0x92c>
E:\2017-2018\03_Graduation Project\04_Software\04_wangshi\03_UpdateSoftware-180625\02_UEUser\KL36_Update-180627\Debug/../06_NosPrg/main.c:282
			{
				memcpy((uint_8 *)(gFlashData.serverIP),(uint_8*)&(gRecvBuf[2]),30);
    e57a:	4a70      	ldr	r2, [pc, #448]	; (e73c <main+0xab4>)
    e57c:	4b6c      	ldr	r3, [pc, #432]	; (e730 <main+0xaa8>)
    e57e:	1c10      	adds	r0, r2, #0
    e580:	1c19      	adds	r1, r3, #0
    e582:	221e      	movs	r2, #30
    e584:	f001 f90c 	bl	f7a0 <memcpy>
E:\2017-2018\03_Graduation Project\04_Software\04_wangshi\03_UpdateSoftware-180625\02_UEUser\KL36_Update-180627\Debug/../06_NosPrg/main.c:283
				mFlashFlag = 1;
    e588:	4a6a      	ldr	r2, [pc, #424]	; (e734 <main+0xaac>)
    e58a:	18bb      	adds	r3, r7, r2
    e58c:	2201      	movs	r2, #1
    e58e:	701a      	strb	r2, [r3, #0]
E:\2017-2018\03_Graduation Project\04_Software\04_wangshi\03_UpdateSoftware-180625\02_UEUser\KL36_Update-180627\Debug/../06_NosPrg/main.c:284
				mSendLen = 9;
    e590:	4e63      	ldr	r6, [pc, #396]	; (e720 <main+0xa98>)
    e592:	19bb      	adds	r3, r7, r6
    e594:	2209      	movs	r2, #9
    e596:	801a      	strh	r2, [r3, #0]
E:\2017-2018\03_Graduation Project\04_Software\04_wangshi\03_UpdateSoftware-180625\02_UEUser\KL36_Update-180627\Debug/../06_NosPrg/main.c:285
				memcpy(mSendData+2,"success",mSendLen-2);
    e598:	4861      	ldr	r0, [pc, #388]	; (e720 <main+0xa98>)
    e59a:	183b      	adds	r3, r7, r0
    e59c:	881b      	ldrh	r3, [r3, #0]
    e59e:	3b02      	subs	r3, #2
    e5a0:	1c3a      	adds	r2, r7, #0
    e5a2:	3274      	adds	r2, #116	; 0x74
    e5a4:	1c91      	adds	r1, r2, #2
    e5a6:	4a64      	ldr	r2, [pc, #400]	; (e738 <main+0xab0>)
    e5a8:	1c08      	adds	r0, r1, #0
    e5aa:	1c11      	adds	r1, r2, #0
    e5ac:	1c1a      	adds	r2, r3, #0
    e5ae:	f001 f8f7 	bl	f7a0 <memcpy>
    e5b2:	e0ee      	b.n	e792 <main+0xb0a>
E:\2017-2018\03_Graduation Project\04_Software\04_wangshi\03_UpdateSoftware-180625\02_UEUser\KL36_Update-180627\Debug/../06_NosPrg/main.c:287
			}
			else if(cmd[0]=='B'&&cmd[1]=='3')  //flash
    e5b4:	4b59      	ldr	r3, [pc, #356]	; (e71c <main+0xa94>)
    e5b6:	21a9      	movs	r1, #169	; 0xa9
    e5b8:	00c9      	lsls	r1, r1, #3
    e5ba:	19c9      	adds	r1, r1, r7
    e5bc:	18cb      	adds	r3, r1, r3
    e5be:	781b      	ldrb	r3, [r3, #0]
    e5c0:	2b42      	cmp	r3, #66	; 0x42
    e5c2:	d124      	bne.n	e60e <main+0x986>
E:\2017-2018\03_Graduation Project\04_Software\04_wangshi\03_UpdateSoftware-180625\02_UEUser\KL36_Update-180627\Debug/../06_NosPrg/main.c:287 (discriminator 1)
    e5c4:	4b55      	ldr	r3, [pc, #340]	; (e71c <main+0xa94>)
    e5c6:	22a9      	movs	r2, #169	; 0xa9
    e5c8:	00d2      	lsls	r2, r2, #3
    e5ca:	19d2      	adds	r2, r2, r7
    e5cc:	18d3      	adds	r3, r2, r3
    e5ce:	785b      	ldrb	r3, [r3, #1]
    e5d0:	2b33      	cmp	r3, #51	; 0x33
    e5d2:	d11c      	bne.n	e60e <main+0x986>
E:\2017-2018\03_Graduation Project\04_Software\04_wangshi\03_UpdateSoftware-180625\02_UEUser\KL36_Update-180627\Debug/../06_NosPrg/main.c:289
			{
				memcpy((uint_8 *)(&gFlashData.sendFrequencySec),(uint_8*)&(gRecvBuf[2]),8);
    e5d4:	4a53      	ldr	r2, [pc, #332]	; (e724 <main+0xa9c>)
    e5d6:	4b56      	ldr	r3, [pc, #344]	; (e730 <main+0xaa8>)
    e5d8:	1c10      	adds	r0, r2, #0
    e5da:	1c19      	adds	r1, r3, #0
    e5dc:	2208      	movs	r2, #8
    e5de:	f001 f8df 	bl	f7a0 <memcpy>
E:\2017-2018\03_Graduation Project\04_Software\04_wangshi\03_UpdateSoftware-180625\02_UEUser\KL36_Update-180627\Debug/../06_NosPrg/main.c:290
				mFlashFlag = 1;
    e5e2:	4e54      	ldr	r6, [pc, #336]	; (e734 <main+0xaac>)
    e5e4:	19bb      	adds	r3, r7, r6
    e5e6:	2201      	movs	r2, #1
    e5e8:	701a      	strb	r2, [r3, #0]
E:\2017-2018\03_Graduation Project\04_Software\04_wangshi\03_UpdateSoftware-180625\02_UEUser\KL36_Update-180627\Debug/../06_NosPrg/main.c:291
				mSendLen = 9;
    e5ea:	484d      	ldr	r0, [pc, #308]	; (e720 <main+0xa98>)
    e5ec:	183b      	adds	r3, r7, r0
    e5ee:	2209      	movs	r2, #9
    e5f0:	801a      	strh	r2, [r3, #0]
E:\2017-2018\03_Graduation Project\04_Software\04_wangshi\03_UpdateSoftware-180625\02_UEUser\KL36_Update-180627\Debug/../06_NosPrg/main.c:292
				memcpy(mSendData+2,"success",mSendLen-2);
    e5f2:	494b      	ldr	r1, [pc, #300]	; (e720 <main+0xa98>)
    e5f4:	187b      	adds	r3, r7, r1
    e5f6:	881b      	ldrh	r3, [r3, #0]
    e5f8:	3b02      	subs	r3, #2
    e5fa:	1c3a      	adds	r2, r7, #0
    e5fc:	3274      	adds	r2, #116	; 0x74
    e5fe:	1c91      	adds	r1, r2, #2
    e600:	4a4d      	ldr	r2, [pc, #308]	; (e738 <main+0xab0>)
    e602:	1c08      	adds	r0, r1, #0
    e604:	1c11      	adds	r1, r2, #0
    e606:	1c1a      	adds	r2, r3, #0
    e608:	f001 f8ca 	bl	f7a0 <memcpy>
    e60c:	e0c1      	b.n	e792 <main+0xb0a>
E:\2017-2018\03_Graduation Project\04_Software\04_wangshi\03_UpdateSoftware-180625\02_UEUser\KL36_Update-180627\Debug/../06_NosPrg/main.c:294
			}
			else if(cmd[0]=='U'&&cmd[1]=='0')
    e60e:	4b43      	ldr	r3, [pc, #268]	; (e71c <main+0xa94>)
    e610:	22a9      	movs	r2, #169	; 0xa9
    e612:	00d2      	lsls	r2, r2, #3
    e614:	19d2      	adds	r2, r2, r7
    e616:	18d3      	adds	r3, r2, r3
    e618:	781b      	ldrb	r3, [r3, #0]
    e61a:	2b55      	cmp	r3, #85	; 0x55
    e61c:	d125      	bne.n	e66a <main+0x9e2>
E:\2017-2018\03_Graduation Project\04_Software\04_wangshi\03_UpdateSoftware-180625\02_UEUser\KL36_Update-180627\Debug/../06_NosPrg/main.c:294 (discriminator 1)
    e61e:	4b3f      	ldr	r3, [pc, #252]	; (e71c <main+0xa94>)
    e620:	26a9      	movs	r6, #169	; 0xa9
    e622:	00f6      	lsls	r6, r6, #3
    e624:	19f6      	adds	r6, r6, r7
    e626:	18f3      	adds	r3, r6, r3
    e628:	785b      	ldrb	r3, [r3, #1]
    e62a:	2b30      	cmp	r3, #48	; 0x30
    e62c:	d11d      	bne.n	e66a <main+0x9e2>
E:\2017-2018\03_Graduation Project\04_Software\04_wangshi\03_UpdateSoftware-180625\02_UEUser\KL36_Update-180627\Debug/../06_NosPrg/main.c:296
			{
				memcpy(gFrameCmd,cmd,2);
    e62e:	4b44      	ldr	r3, [pc, #272]	; (e740 <main+0xab8>)
    e630:	4a3a      	ldr	r2, [pc, #232]	; (e71c <main+0xa94>)
    e632:	20a9      	movs	r0, #169	; 0xa9
    e634:	00c0      	lsls	r0, r0, #3
    e636:	19c0      	adds	r0, r0, r7
    e638:	1882      	adds	r2, r0, r2
    e63a:	8812      	ldrh	r2, [r2, #0]
    e63c:	801a      	strh	r2, [r3, #0]
E:\2017-2018\03_Graduation Project\04_Software\04_wangshi\03_UpdateSoftware-180625\02_UEUser\KL36_Update-180627\Debug/../06_NosPrg/main.c:297
				if(gRecvLength == mUserLen)   //
    e63e:	4b41      	ldr	r3, [pc, #260]	; (e744 <main+0xabc>)
    e640:	881b      	ldrh	r3, [r3, #0]
    e642:	4941      	ldr	r1, [pc, #260]	; (e748 <main+0xac0>)
    e644:	187a      	adds	r2, r7, r1
    e646:	8812      	ldrh	r2, [r2, #0]
    e648:	429a      	cmp	r2, r3
    e64a:	d109      	bne.n	e660 <main+0x9d8>
E:\2017-2018\03_Graduation Project\04_Software\04_wangshi\03_UpdateSoftware-180625\02_UEUser\KL36_Update-180627\Debug/../06_NosPrg/main.c:298
					memcpy((uint_8*)(&gUserData),gRecvBuf,mUserLen);
    e64c:	4a3e      	ldr	r2, [pc, #248]	; (e748 <main+0xac0>)
    e64e:	18bb      	adds	r3, r7, r2
    e650:	881b      	ldrh	r3, [r3, #0]
    e652:	493e      	ldr	r1, [pc, #248]	; (e74c <main+0xac4>)
    e654:	4a3e      	ldr	r2, [pc, #248]	; (e750 <main+0xac8>)
    e656:	1c08      	adds	r0, r1, #0
    e658:	1c11      	adds	r1, r2, #0
    e65a:	1c1a      	adds	r2, r3, #0
    e65c:	f001 f8a0 	bl	f7a0 <memcpy>
E:\2017-2018\03_Graduation Project\04_Software\04_wangshi\03_UpdateSoftware-180625\02_UEUser\KL36_Update-180627\Debug/../06_NosPrg/main.c:299
				mLCDFlag=1;
    e660:	4e3c      	ldr	r6, [pc, #240]	; (e754 <main+0xacc>)
    e662:	19bb      	adds	r3, r7, r6
    e664:	2201      	movs	r2, #1
    e666:	701a      	strb	r2, [r3, #0]
    e668:	e093      	b.n	e792 <main+0xb0a>
E:\2017-2018\03_Graduation Project\04_Software\04_wangshi\03_UpdateSoftware-180625\02_UEUser\KL36_Update-180627\Debug/../06_NosPrg/main.c:301
			}
			else if(cmd[0]=='U'&&cmd[1]=='1')
    e66a:	4b2c      	ldr	r3, [pc, #176]	; (e71c <main+0xa94>)
    e66c:	20a9      	movs	r0, #169	; 0xa9
    e66e:	00c0      	lsls	r0, r0, #3
    e670:	19c0      	adds	r0, r0, r7
    e672:	18c3      	adds	r3, r0, r3
    e674:	781b      	ldrb	r3, [r3, #0]
    e676:	2b55      	cmp	r3, #85	; 0x55
    e678:	d000      	beq.n	e67c <main+0x9f4>
    e67a:	e079      	b.n	e770 <main+0xae8>
E:\2017-2018\03_Graduation Project\04_Software\04_wangshi\03_UpdateSoftware-180625\02_UEUser\KL36_Update-180627\Debug/../06_NosPrg/main.c:301 (discriminator 1)
    e67c:	4b27      	ldr	r3, [pc, #156]	; (e71c <main+0xa94>)
    e67e:	21a9      	movs	r1, #169	; 0xa9
    e680:	00c9      	lsls	r1, r1, #3
    e682:	19c9      	adds	r1, r1, r7
    e684:	18cb      	adds	r3, r1, r3
    e686:	785b      	ldrb	r3, [r3, #1]
    e688:	2b31      	cmp	r3, #49	; 0x31
    e68a:	d171      	bne.n	e770 <main+0xae8>
E:\2017-2018\03_Graduation Project\04_Software\04_wangshi\03_UpdateSoftware-180625\02_UEUser\KL36_Update-180627\Debug/../06_NosPrg/main.c:303
			{
				memcpy(gFrameCmd,cmd,2);
    e68c:	4b2c      	ldr	r3, [pc, #176]	; (e740 <main+0xab8>)
    e68e:	4a23      	ldr	r2, [pc, #140]	; (e71c <main+0xa94>)
    e690:	26a9      	movs	r6, #169	; 0xa9
    e692:	00f6      	lsls	r6, r6, #3
    e694:	19f6      	adds	r6, r6, r7
    e696:	18b2      	adds	r2, r6, r2
    e698:	8812      	ldrh	r2, [r2, #0]
    e69a:	801a      	strh	r2, [r3, #0]
E:\2017-2018\03_Graduation Project\04_Software\04_wangshi\03_UpdateSoftware-180625\02_UEUser\KL36_Update-180627\Debug/../06_NosPrg/main.c:304
				if(gRecvLength == 59)
    e69c:	4b29      	ldr	r3, [pc, #164]	; (e744 <main+0xabc>)
    e69e:	881b      	ldrh	r3, [r3, #0]
    e6a0:	2b3b      	cmp	r3, #59	; 0x3b
    e6a2:	d135      	bne.n	e710 <main+0xa88>
E:\2017-2018\03_Graduation Project\04_Software\04_wangshi\03_UpdateSoftware-180625\02_UEUser\KL36_Update-180627\Debug/../06_NosPrg/main.c:306
				{
					memcpy(gUserData.cmd,gRecvBuf,2);
    e6a4:	4b29      	ldr	r3, [pc, #164]	; (e74c <main+0xac4>)
    e6a6:	4a2a      	ldr	r2, [pc, #168]	; (e750 <main+0xac8>)
    e6a8:	8812      	ldrh	r2, [r2, #0]
    e6aa:	801a      	strh	r2, [r3, #0]
E:\2017-2018\03_Graduation Project\04_Software\04_wangshi\03_UpdateSoftware-180625\02_UEUser\KL36_Update-180627\Debug/../06_NosPrg/main.c:307
					memcpy(gUserData.IMSI,gRecvBuf+2,15);
    e6ac:	4b20      	ldr	r3, [pc, #128]	; (e730 <main+0xaa8>)
    e6ae:	4a27      	ldr	r2, [pc, #156]	; (e74c <main+0xac4>)
    e6b0:	1d11      	adds	r1, r2, #4
    e6b2:	1c1a      	adds	r2, r3, #0
    e6b4:	230f      	movs	r3, #15
    e6b6:	1c08      	adds	r0, r1, #0
    e6b8:	1c11      	adds	r1, r2, #0
    e6ba:	1c1a      	adds	r2, r3, #0
    e6bc:	f001 f870 	bl	f7a0 <memcpy>
E:\2017-2018\03_Graduation Project\04_Software\04_wangshi\03_UpdateSoftware-180625\02_UEUser\KL36_Update-180627\Debug/../06_NosPrg/main.c:308
					memcpy(&gUserData.currentTime,gRecvBuf+17,8);
    e6c0:	4a25      	ldr	r2, [pc, #148]	; (e758 <main+0xad0>)
    e6c2:	4b26      	ldr	r3, [pc, #152]	; (e75c <main+0xad4>)
    e6c4:	1c10      	adds	r0, r2, #0
    e6c6:	1c19      	adds	r1, r3, #0
    e6c8:	2208      	movs	r2, #8
    e6ca:	f001 f869 	bl	f7a0 <memcpy>
E:\2017-2018\03_Graduation Project\04_Software\04_wangshi\03_UpdateSoftware-180625\02_UEUser\KL36_Update-180627\Debug/../06_NosPrg/main.c:309
					memcpy(&gUserData.mcuTemp,gRecvBuf+25,4);
    e6ce:	4a24      	ldr	r2, [pc, #144]	; (e760 <main+0xad8>)
    e6d0:	4b24      	ldr	r3, [pc, #144]	; (e764 <main+0xadc>)
    e6d2:	1c10      	adds	r0, r2, #0
    e6d4:	1c19      	adds	r1, r3, #0
    e6d6:	2204      	movs	r2, #4
    e6d8:	f001 f862 	bl	f7a0 <memcpy>
E:\2017-2018\03_Graduation Project\04_Software\04_wangshi\03_UpdateSoftware-180625\02_UEUser\KL36_Update-180627\Debug/../06_NosPrg/main.c:310
					memcpy(&gUserData.signalPower,gRecvBuf+29,1);
    e6dc:	4b22      	ldr	r3, [pc, #136]	; (e768 <main+0xae0>)
    e6de:	7819      	ldrb	r1, [r3, #0]
    e6e0:	4a1a      	ldr	r2, [pc, #104]	; (e74c <main+0xac4>)
    e6e2:	23e5      	movs	r3, #229	; 0xe5
    e6e4:	54d1      	strb	r1, [r2, r3]
E:\2017-2018\03_Graduation Project\04_Software\04_wangshi\03_UpdateSoftware-180625\02_UEUser\KL36_Update-180627\Debug/../06_NosPrg/main.c:311
					memcpy(&gUserData.bright,gRecvBuf+30,2);
    e6e6:	4b1a      	ldr	r3, [pc, #104]	; (e750 <main+0xac8>)
    e6e8:	8bd9      	ldrh	r1, [r3, #30]
    e6ea:	4a18      	ldr	r2, [pc, #96]	; (e74c <main+0xac4>)
    e6ec:	23e6      	movs	r3, #230	; 0xe6
    e6ee:	52d1      	strh	r1, [r2, r3]
E:\2017-2018\03_Graduation Project\04_Software\04_wangshi\03_UpdateSoftware-180625\02_UEUser\KL36_Update-180627\Debug/../06_NosPrg/main.c:312
					memcpy(&gUserData.touchNum,gRecvBuf+32,2);
    e6f0:	4b17      	ldr	r3, [pc, #92]	; (e750 <main+0xac8>)
    e6f2:	8c19      	ldrh	r1, [r3, #32]
    e6f4:	4a15      	ldr	r2, [pc, #84]	; (e74c <main+0xac4>)
    e6f6:	23e8      	movs	r3, #232	; 0xe8
    e6f8:	52d1      	strh	r1, [r2, r3]
E:\2017-2018\03_Graduation Project\04_Software\04_wangshi\03_UpdateSoftware-180625\02_UEUser\KL36_Update-180627\Debug/../06_NosPrg/main.c:313
					memcpy(gUserData.lbs_location,gRecvBuf+34,25);
    e6fa:	4b1c      	ldr	r3, [pc, #112]	; (e76c <main+0xae4>)
    e6fc:	4913      	ldr	r1, [pc, #76]	; (e74c <main+0xac4>)
    e6fe:	22fe      	movs	r2, #254	; 0xfe
    e700:	1889      	adds	r1, r1, r2
    e702:	1c1a      	adds	r2, r3, #0
    e704:	2319      	movs	r3, #25
    e706:	1c08      	adds	r0, r1, #0
    e708:	1c11      	adds	r1, r2, #0
    e70a:	1c1a      	adds	r2, r3, #0
    e70c:	f001 f848 	bl	f7a0 <memcpy>
E:\2017-2018\03_Graduation Project\04_Software\04_wangshi\03_UpdateSoftware-180625\02_UEUser\KL36_Update-180627\Debug/../06_NosPrg/main.c:315
				}
				mLCDFlag=1;
    e710:	4810      	ldr	r0, [pc, #64]	; (e754 <main+0xacc>)
    e712:	183b      	adds	r3, r7, r0
    e714:	2201      	movs	r2, #1
    e716:	701a      	strb	r2, [r3, #0]
    e718:	e03b      	b.n	e792 <main+0xb0a>
    e71a:	46c0      	nop			; (mov r8, r8)
    e71c:	fffffb0c 	.word	0xfffffb0c
    e720:	0000051e 	.word	0x0000051e
    e724:	1ffffa23 	.word	0x1ffffa23
    e728:	0000050a 	.word	0x0000050a
    e72c:	1ffff980 	.word	0x1ffff980
    e730:	1ffffa2e 	.word	0x1ffffa2e
    e734:	0000052e 	.word	0x0000052e
    e738:	0000f84c 	.word	0x0000f84c
    e73c:	1ffffa0f 	.word	0x1ffffa0f
    e740:	1fffff54 	.word	0x1fffff54
    e744:	1fffff56 	.word	0x1fffff56
    e748:	0000050c 	.word	0x0000050c
    e74c:	1ffffe3c 	.word	0x1ffffe3c
    e750:	1ffffa2c 	.word	0x1ffffa2c
    e754:	0000052d 	.word	0x0000052d
    e758:	1ffffe63 	.word	0x1ffffe63
    e75c:	1ffffa3d 	.word	0x1ffffa3d
    e760:	1ffffeef 	.word	0x1ffffeef
    e764:	1ffffa45 	.word	0x1ffffa45
    e768:	1ffffa49 	.word	0x1ffffa49
    e76c:	1ffffa4e 	.word	0x1ffffa4e
E:\2017-2018\03_Graduation Project\04_Software\04_wangshi\03_UpdateSoftware-180625\02_UEUser\KL36_Update-180627\Debug/../06_NosPrg/main.c:319
			}
			else                             //
			{
				if(gRecvLength == mUserLen)   //
    e770:	4b2d      	ldr	r3, [pc, #180]	; (e828 <main+0xba0>)
    e772:	881b      	ldrh	r3, [r3, #0]
    e774:	492d      	ldr	r1, [pc, #180]	; (e82c <main+0xba4>)
    e776:	187a      	adds	r2, r7, r1
    e778:	8812      	ldrh	r2, [r2, #0]
    e77a:	429a      	cmp	r2, r3
    e77c:	d109      	bne.n	e792 <main+0xb0a>
E:\2017-2018\03_Graduation Project\04_Software\04_wangshi\03_UpdateSoftware-180625\02_UEUser\KL36_Update-180627\Debug/../06_NosPrg/main.c:321
				{
					memcpy((uint_8*)(&gUserData),gRecvBuf,mUserLen);
    e77e:	4a2b      	ldr	r2, [pc, #172]	; (e82c <main+0xba4>)
    e780:	18bb      	adds	r3, r7, r2
    e782:	881b      	ldrh	r3, [r3, #0]
    e784:	492a      	ldr	r1, [pc, #168]	; (e830 <main+0xba8>)
    e786:	4a2b      	ldr	r2, [pc, #172]	; (e834 <main+0xbac>)
    e788:	1c08      	adds	r0, r1, #0
    e78a:	1c11      	adds	r1, r2, #0
    e78c:	1c1a      	adds	r2, r3, #0
    e78e:	f001 f807 	bl	f7a0 <memcpy>
E:\2017-2018\03_Graduation Project\04_Software\04_wangshi\03_UpdateSoftware-180625\02_UEUser\KL36_Update-180627\Debug/../06_NosPrg/main.c:324
				}
			}
			if(mSendLen>0)     //
    e792:	4e29      	ldr	r6, [pc, #164]	; (e838 <main+0xbb0>)
    e794:	19bb      	adds	r3, r7, r6
    e796:	881b      	ldrh	r3, [r3, #0]
    e798:	2b00      	cmp	r3, #0
    e79a:	d00d      	beq.n	e7b8 <main+0xb30>
E:\2017-2018\03_Graduation Project\04_Software\04_wangshi\03_UpdateSoftware-180625\02_UEUser\KL36_Update-180627\Debug/../06_NosPrg/main.c:326
			{
				mflag = uecom_send(mSendLen,mSendData); //
    e79c:	4b27      	ldr	r3, [pc, #156]	; (e83c <main+0xbb4>)
    e79e:	681b      	ldr	r3, [r3, #0]
    e7a0:	4827      	ldr	r0, [pc, #156]	; (e840 <main+0xbb8>)
    e7a2:	183c      	adds	r4, r7, r0
    e7a4:	4924      	ldr	r1, [pc, #144]	; (e838 <main+0xbb0>)
    e7a6:	187a      	adds	r2, r7, r1
    e7a8:	8811      	ldrh	r1, [r2, #0]
    e7aa:	1c3a      	adds	r2, r7, #0
    e7ac:	3274      	adds	r2, #116	; 0x74
    e7ae:	1c08      	adds	r0, r1, #0
    e7b0:	1c11      	adds	r1, r2, #0
    e7b2:	4798      	blx	r3
    e7b4:	1c03      	adds	r3, r0, #0
    e7b6:	7023      	strb	r3, [r4, #0]
E:\2017-2018\03_Graduation Project\04_Software\04_wangshi\03_UpdateSoftware-180625\02_UEUser\KL36_Update-180627\Debug/../06_NosPrg/main.c:328
			}
			gRecvLength = 0;     //
    e7b8:	4b1b      	ldr	r3, [pc, #108]	; (e828 <main+0xba0>)
    e7ba:	2200      	movs	r2, #0
    e7bc:	801a      	strh	r2, [r3, #0]
E:\2017-2018\03_Graduation Project\04_Software\04_wangshi\03_UpdateSoftware-180625\02_UEUser\KL36_Update-180627\Debug/../06_NosPrg/main.c:336
			//			else if(mflag == 0xff)
			//				LCD_ShowString(4,300,BLUE,GRAY,"!                  ");
			//			else
			//				LCD_ShowString(4,300,BLUE,GRAY,"!                    ");
			//flash
			if(mFlashFlag == 1)
    e7be:	4a21      	ldr	r2, [pc, #132]	; (e844 <main+0xbbc>)
    e7c0:	18bb      	adds	r3, r7, r2
    e7c2:	781b      	ldrb	r3, [r3, #0]
    e7c4:	2b01      	cmp	r3, #1
    e7c6:	d114      	bne.n	e7f2 <main+0xb6a>
E:\2017-2018\03_Graduation Project\04_Software\04_wangshi\03_UpdateSoftware-180625\02_UEUser\KL36_Update-180627\Debug/../06_NosPrg/main.c:338
			{
				flash_erase(63);
    e7c8:	4b1f      	ldr	r3, [pc, #124]	; (e848 <main+0xbc0>)
    e7ca:	681b      	ldr	r3, [r3, #0]
    e7cc:	203f      	movs	r0, #63	; 0x3f
    e7ce:	4798      	blx	r3
E:\2017-2018\03_Graduation Project\04_Software\04_wangshi\03_UpdateSoftware-180625\02_UEUser\KL36_Update-180627\Debug/../06_NosPrg/main.c:339
				flash_write(63,0,mFlashLen,(uint_8*)(&gFlashData));
    e7d0:	4b1e      	ldr	r3, [pc, #120]	; (e84c <main+0xbc4>)
    e7d2:	681c      	ldr	r4, [r3, #0]
    e7d4:	4e1e      	ldr	r6, [pc, #120]	; (e850 <main+0xbc8>)
    e7d6:	19bb      	adds	r3, r7, r6
    e7d8:	881a      	ldrh	r2, [r3, #0]
    e7da:	4b1e      	ldr	r3, [pc, #120]	; (e854 <main+0xbcc>)
    e7dc:	203f      	movs	r0, #63	; 0x3f
    e7de:	2100      	movs	r1, #0
    e7e0:	47a0      	blx	r4
E:\2017-2018\03_Graduation Project\04_Software\04_wangshi\03_UpdateSoftware-180625\02_UEUser\KL36_Update-180627\Debug/../06_NosPrg/main.c:340
				mFlashFlag = 0;
    e7e2:	4818      	ldr	r0, [pc, #96]	; (e844 <main+0xbbc>)
    e7e4:	183b      	adds	r3, r7, r0
    e7e6:	2200      	movs	r2, #0
    e7e8:	701a      	strb	r2, [r3, #0]
E:\2017-2018\03_Graduation Project\04_Software\04_wangshi\03_UpdateSoftware-180625\02_UEUser\KL36_Update-180627\Debug/../06_NosPrg/main.c:341
				mLCDFlag=1;
    e7ea:	491b      	ldr	r1, [pc, #108]	; (e858 <main+0xbd0>)
    e7ec:	187b      	adds	r3, r7, r1
    e7ee:	2201      	movs	r2, #1
    e7f0:	701a      	strb	r2, [r3, #0]
E:\2017-2018\03_Graduation Project\04_Software\04_wangshi\03_UpdateSoftware-180625\02_UEUser\KL36_Update-180627\Debug/../06_NosPrg/main.c:343
			}
			if(mLCDFlag==1)
    e7f2:	4a19      	ldr	r2, [pc, #100]	; (e858 <main+0xbd0>)
    e7f4:	18bb      	adds	r3, r7, r2
    e7f6:	781b      	ldrb	r3, [r3, #0]
    e7f8:	2b01      	cmp	r3, #1
    e7fa:	d101      	bne.n	e800 <main+0xb78>
E:\2017-2018\03_Graduation Project\04_Software\04_wangshi\03_UpdateSoftware-180625\02_UEUser\KL36_Update-180627\Debug/../06_NosPrg/main.c:345
			{
				LCD_ShowFlash();//LCD
    e7fc:	f000 fa74 	bl	ece8 <LCD_ShowFlash>
E:\2017-2018\03_Graduation Project\04_Software\04_wangshi\03_UpdateSoftware-180625\02_UEUser\KL36_Update-180627\Debug/../06_NosPrg/main.c:350
			}

		}
		//5
		if(mLoopCount%48000)
    e800:	26a4      	movs	r6, #164	; 0xa4
    e802:	00f6      	lsls	r6, r6, #3
    e804:	19f6      	adds	r6, r6, r7
    e806:	6833      	ldr	r3, [r6, #0]
    e808:	6874      	ldr	r4, [r6, #4]
    e80a:	1c18      	adds	r0, r3, #0
    e80c:	1c21      	adds	r1, r4, #0
    e80e:	4b05      	ldr	r3, [pc, #20]	; (e824 <main+0xb9c>)
    e810:	4a03      	ldr	r2, [pc, #12]	; (e820 <main+0xb98>)
    e812:	f7fc ff1d 	bl	b650 <__aeabi_uldivmod>
E:\2017-2018\03_Graduation Project\04_Software\04_wangshi\03_UpdateSoftware-180625\02_UEUser\KL36_Update-180627\Debug/../06_NosPrg/main.c:357
#if ENABLE_WDOG == 1
			wdog_feed();
#endif
		}
		//======================================================
	}
    e816:	f7ff fb1e 	bl	de56 <main+0x1ce>
    e81a:	46c0      	nop			; (mov r8, r8)
    e81c:	46c0      	nop			; (mov r8, r8)
    e81e:	46c0      	nop			; (mov r8, r8)
    e820:	0000bb80 	.word	0x0000bb80
    e824:	00000000 	.word	0x00000000
    e828:	1fffff56 	.word	0x1fffff56
    e82c:	0000050c 	.word	0x0000050c
    e830:	1ffffe3c 	.word	0x1ffffe3c
    e834:	1ffffa2c 	.word	0x1ffffa2c
    e838:	0000051e 	.word	0x0000051e
    e83c:	1ffff904 	.word	0x1ffff904
    e840:	000004ff 	.word	0x000004ff
    e844:	0000052e 	.word	0x0000052e
    e848:	1ffff8bc 	.word	0x1ffff8bc
    e84c:	1ffff888 	.word	0x1ffff888
    e850:	0000050a 	.word	0x0000050a
    e854:	1ffff980 	.word	0x1ffff980
    e858:	0000052d 	.word	0x0000052d
$t():
    e85c:	46c0      	nop			; (mov r8, r8)
    e85e:	46c0      	nop			; (mov r8, r8)

0000e860 <flashData_get>:
flashData_get():
E:\2017-2018\03_Graduation Project\04_Software\04_wangshi\03_UpdateSoftware-180625\02_UEUser\KL36_Update-180627\Debug/../06_NosPrg/main.c:366
//
//data
//comData
//=====================================================================
void flashData_get(struct FlashData *data)
{
    e860:	b590      	push	{r4, r7, lr}
    e862:	b083      	sub	sp, #12
    e864:	af00      	add	r7, sp, #0
    e866:	6078      	str	r0, [r7, #4]
E:\2017-2018\03_Graduation Project\04_Software\04_wangshi\03_UpdateSoftware-180625\02_UEUser\KL36_Update-180627\Debug/../06_NosPrg/main.c:368
	//flash
	flash_read_logic((uint_8*)data,63,0,sizeof(struct FlashData));
    e868:	4b05      	ldr	r3, [pc, #20]	; (e880 <flashData_get+0x20>)
    e86a:	681c      	ldr	r4, [r3, #0]
    e86c:	687b      	ldr	r3, [r7, #4]
    e86e:	1c18      	adds	r0, r3, #0
    e870:	213f      	movs	r1, #63	; 0x3f
    e872:	2200      	movs	r2, #0
    e874:	23ab      	movs	r3, #171	; 0xab
    e876:	47a0      	blx	r4
E:\2017-2018\03_Graduation Project\04_Software\04_wangshi\03_UpdateSoftware-180625\02_UEUser\KL36_Update-180627\Debug/../06_NosPrg/main.c:369
}
    e878:	46bd      	mov	sp, r7
    e87a:	b003      	add	sp, #12
    e87c:	bd90      	pop	{r4, r7, pc}
    e87e:	46c0      	nop			; (mov r8, r8)
    e880:	1ffff910 	.word	0x1ffff910

0000e884 <userData_init>:
userData_init():
E:\2017-2018\03_Graduation Project\04_Software\04_wangshi\03_UpdateSoftware-180625\02_UEUser\KL36_Update-180627\Debug/../06_NosPrg/main.c:378
//
//data
//data
//=====================================================================
void userData_init(struct UserData *data)
{
    e884:	b5f0      	push	{r4, r5, r6, r7, lr}
    e886:	b083      	sub	sp, #12
    e888:	af00      	add	r7, sp, #0
    e88a:	6078      	str	r0, [r7, #4]
E:\2017-2018\03_Graduation Project\04_Software\04_wangshi\03_UpdateSoftware-180625\02_UEUser\KL36_Update-180627\Debug/../06_NosPrg/main.c:379
	strncpy(data->cmd,"U0",2);
    e88c:	687a      	ldr	r2, [r7, #4]
    e88e:	4b8e      	ldr	r3, [pc, #568]	; (eac8 <userData_init+0x244>)
    e890:	1c11      	adds	r1, r2, #0
    e892:	1c1a      	adds	r2, r3, #0
    e894:	2302      	movs	r3, #2
    e896:	1c08      	adds	r0, r1, #0
    e898:	1c11      	adds	r1, r2, #0
    e89a:	1c1a      	adds	r2, r3, #0
    e89c:	f000 ff80 	bl	f7a0 <memcpy>
E:\2017-2018\03_Graduation Project\04_Software\04_wangshi\03_UpdateSoftware-180625\02_UEUser\KL36_Update-180627\Debug/../06_NosPrg/main.c:380
	strncpy(gFrameCmd,data->cmd,2);
    e8a0:	687b      	ldr	r3, [r7, #4]
    e8a2:	4a8a      	ldr	r2, [pc, #552]	; (eacc <userData_init+0x248>)
    e8a4:	1c10      	adds	r0, r2, #0
    e8a6:	1c19      	adds	r1, r3, #0
    e8a8:	2202      	movs	r2, #2
    e8aa:	f000 ff9e 	bl	f7ea <strncpy>
E:\2017-2018\03_Graduation Project\04_Software\04_wangshi\03_UpdateSoftware-180625\02_UEUser\KL36_Update-180627\Debug/../06_NosPrg/main.c:381
	data->sn = 0;
    e8ae:	687b      	ldr	r3, [r7, #4]
    e8b0:	7899      	ldrb	r1, [r3, #2]
    e8b2:	2200      	movs	r2, #0
    e8b4:	400a      	ands	r2, r1
    e8b6:	709a      	strb	r2, [r3, #2]
    e8b8:	78d9      	ldrb	r1, [r3, #3]
    e8ba:	2200      	movs	r2, #0
    e8bc:	400a      	ands	r2, r1
    e8be:	70da      	strb	r2, [r3, #3]
E:\2017-2018\03_Graduation Project\04_Software\04_wangshi\03_UpdateSoftware-180625\02_UEUser\KL36_Update-180627\Debug/../06_NosPrg/main.c:382
	strncpy(data->serverIP,gFlashData.serverIP,15);
    e8c0:	687b      	ldr	r3, [r7, #4]
    e8c2:	1c1a      	adds	r2, r3, #0
    e8c4:	3213      	adds	r2, #19
    e8c6:	4b82      	ldr	r3, [pc, #520]	; (ead0 <userData_init+0x24c>)
    e8c8:	1c10      	adds	r0, r2, #0
    e8ca:	1c19      	adds	r1, r3, #0
    e8cc:	220f      	movs	r2, #15
    e8ce:	f000 ff8c 	bl	f7ea <strncpy>
E:\2017-2018\03_Graduation Project\04_Software\04_wangshi\03_UpdateSoftware-180625\02_UEUser\KL36_Update-180627\Debug/../06_NosPrg/main.c:383
	strncpy(data->serverPort,gFlashData.serverPort,5);
    e8d2:	687b      	ldr	r3, [r7, #4]
    e8d4:	1c1a      	adds	r2, r3, #0
    e8d6:	3222      	adds	r2, #34	; 0x22
    e8d8:	4b7e      	ldr	r3, [pc, #504]	; (ead4 <userData_init+0x250>)
    e8da:	1c10      	adds	r0, r2, #0
    e8dc:	1c19      	adds	r1, r3, #0
    e8de:	2205      	movs	r2, #5
    e8e0:	f000 ff83 	bl	f7ea <strncpy>
E:\2017-2018\03_Graduation Project\04_Software\04_wangshi\03_UpdateSoftware-180625\02_UEUser\KL36_Update-180627\Debug/../06_NosPrg/main.c:384
	data->currentTime = gFlashData.productTime;
    e8e4:	4b7c      	ldr	r3, [pc, #496]	; (ead8 <userData_init+0x254>)
    e8e6:	6e98      	ldr	r0, [r3, #104]	; 0x68
    e8e8:	1c01      	adds	r1, r0, #0
    e8ea:	6edb      	ldr	r3, [r3, #108]	; 0x6c
    e8ec:	1c1a      	adds	r2, r3, #0
    e8ee:	687b      	ldr	r3, [r7, #4]
    e8f0:	20ff      	movs	r0, #255	; 0xff
    e8f2:	1c0c      	adds	r4, r1, #0
    e8f4:	4004      	ands	r4, r0
    e8f6:	2027      	movs	r0, #39	; 0x27
    e8f8:	5c1e      	ldrb	r6, [r3, r0]
    e8fa:	2500      	movs	r5, #0
    e8fc:	4035      	ands	r5, r6
    e8fe:	432c      	orrs	r4, r5
    e900:	541c      	strb	r4, [r3, r0]
    e902:	0a0c      	lsrs	r4, r1, #8
    e904:	20ff      	movs	r0, #255	; 0xff
    e906:	4004      	ands	r4, r0
    e908:	2028      	movs	r0, #40	; 0x28
    e90a:	5c1e      	ldrb	r6, [r3, r0]
    e90c:	2500      	movs	r5, #0
    e90e:	4035      	ands	r5, r6
    e910:	432c      	orrs	r4, r5
    e912:	541c      	strb	r4, [r3, r0]
    e914:	0c0c      	lsrs	r4, r1, #16
    e916:	20ff      	movs	r0, #255	; 0xff
    e918:	4004      	ands	r4, r0
    e91a:	2029      	movs	r0, #41	; 0x29
    e91c:	5c1e      	ldrb	r6, [r3, r0]
    e91e:	2500      	movs	r5, #0
    e920:	4035      	ands	r5, r6
    e922:	432c      	orrs	r4, r5
    e924:	541c      	strb	r4, [r3, r0]
    e926:	0e0c      	lsrs	r4, r1, #24
    e928:	202a      	movs	r0, #42	; 0x2a
    e92a:	5c1e      	ldrb	r6, [r3, r0]
    e92c:	2500      	movs	r5, #0
    e92e:	4035      	ands	r5, r6
    e930:	432c      	orrs	r4, r5
    e932:	541c      	strb	r4, [r3, r0]
    e934:	20ff      	movs	r0, #255	; 0xff
    e936:	1c14      	adds	r4, r2, #0
    e938:	4004      	ands	r4, r0
    e93a:	202b      	movs	r0, #43	; 0x2b
    e93c:	5c1e      	ldrb	r6, [r3, r0]
    e93e:	2500      	movs	r5, #0
    e940:	4035      	ands	r5, r6
    e942:	432c      	orrs	r4, r5
    e944:	541c      	strb	r4, [r3, r0]
    e946:	0a14      	lsrs	r4, r2, #8
    e948:	20ff      	movs	r0, #255	; 0xff
    e94a:	4004      	ands	r4, r0
    e94c:	202c      	movs	r0, #44	; 0x2c
    e94e:	5c1e      	ldrb	r6, [r3, r0]
    e950:	2500      	movs	r5, #0
    e952:	4035      	ands	r5, r6
    e954:	432c      	orrs	r4, r5
    e956:	541c      	strb	r4, [r3, r0]
    e958:	0c14      	lsrs	r4, r2, #16
    e95a:	20ff      	movs	r0, #255	; 0xff
    e95c:	4004      	ands	r4, r0
    e95e:	202d      	movs	r0, #45	; 0x2d
    e960:	5c1e      	ldrb	r6, [r3, r0]
    e962:	2500      	movs	r5, #0
    e964:	4035      	ands	r5, r6
    e966:	432c      	orrs	r4, r5
    e968:	541c      	strb	r4, [r3, r0]
    e96a:	0e11      	lsrs	r1, r2, #24
    e96c:	222e      	movs	r2, #46	; 0x2e
    e96e:	5c9c      	ldrb	r4, [r3, r2]
    e970:	2000      	movs	r0, #0
    e972:	4020      	ands	r0, r4
    e974:	4301      	orrs	r1, r0
    e976:	5499      	strb	r1, [r3, r2]
E:\2017-2018\03_Graduation Project\04_Software\04_wangshi\03_UpdateSoftware-180625\02_UEUser\KL36_Update-180627\Debug/../06_NosPrg/main.c:385
	data->resetCount = gFlashData.resetCount;
    e978:	4b57      	ldr	r3, [pc, #348]	; (ead8 <userData_init+0x254>)
    e97a:	22a7      	movs	r2, #167	; 0xa7
    e97c:	5c9a      	ldrb	r2, [r3, r2]
    e97e:	21a8      	movs	r1, #168	; 0xa8
    e980:	585b      	ldr	r3, [r3, r1]
    e982:	021b      	lsls	r3, r3, #8
    e984:	0a1b      	lsrs	r3, r3, #8
    e986:	021b      	lsls	r3, r3, #8
    e988:	4313      	orrs	r3, r2
    e98a:	1c1a      	adds	r2, r3, #0
    e98c:	687b      	ldr	r3, [r7, #4]
    e98e:	21ff      	movs	r1, #255	; 0xff
    e990:	1c10      	adds	r0, r2, #0
    e992:	4008      	ands	r0, r1
    e994:	212f      	movs	r1, #47	; 0x2f
    e996:	5c5d      	ldrb	r5, [r3, r1]
    e998:	2400      	movs	r4, #0
    e99a:	402c      	ands	r4, r5
    e99c:	4320      	orrs	r0, r4
    e99e:	5458      	strb	r0, [r3, r1]
    e9a0:	0a10      	lsrs	r0, r2, #8
    e9a2:	21ff      	movs	r1, #255	; 0xff
    e9a4:	4008      	ands	r0, r1
    e9a6:	2130      	movs	r1, #48	; 0x30
    e9a8:	5c5d      	ldrb	r5, [r3, r1]
    e9aa:	2400      	movs	r4, #0
    e9ac:	402c      	ands	r4, r5
    e9ae:	4320      	orrs	r0, r4
    e9b0:	5458      	strb	r0, [r3, r1]
    e9b2:	0c10      	lsrs	r0, r2, #16
    e9b4:	21ff      	movs	r1, #255	; 0xff
    e9b6:	4008      	ands	r0, r1
    e9b8:	2131      	movs	r1, #49	; 0x31
    e9ba:	5c5d      	ldrb	r5, [r3, r1]
    e9bc:	2400      	movs	r4, #0
    e9be:	402c      	ands	r4, r5
    e9c0:	4320      	orrs	r0, r4
    e9c2:	5458      	strb	r0, [r3, r1]
    e9c4:	0e11      	lsrs	r1, r2, #24
    e9c6:	2232      	movs	r2, #50	; 0x32
    e9c8:	5c9c      	ldrb	r4, [r3, r2]
    e9ca:	2000      	movs	r0, #0
    e9cc:	4020      	ands	r0, r4
    e9ce:	4301      	orrs	r1, r0
    e9d0:	5499      	strb	r1, [r3, r2]
E:\2017-2018\03_Graduation Project\04_Software\04_wangshi\03_UpdateSoftware-180625\02_UEUser\KL36_Update-180627\Debug/../06_NosPrg/main.c:386
	data->sendFrequencySec = gFlashData.sendFrequencySec;
    e9d2:	4b41      	ldr	r3, [pc, #260]	; (ead8 <userData_init+0x254>)
    e9d4:	22a3      	movs	r2, #163	; 0xa3
    e9d6:	5c9a      	ldrb	r2, [r3, r2]
    e9d8:	21a4      	movs	r1, #164	; 0xa4
    e9da:	585b      	ldr	r3, [r3, r1]
    e9dc:	021b      	lsls	r3, r3, #8
    e9de:	0a1b      	lsrs	r3, r3, #8
    e9e0:	021b      	lsls	r3, r3, #8
    e9e2:	4313      	orrs	r3, r2
    e9e4:	1c1a      	adds	r2, r3, #0
    e9e6:	687b      	ldr	r3, [r7, #4]
    e9e8:	21ff      	movs	r1, #255	; 0xff
    e9ea:	1c10      	adds	r0, r2, #0
    e9ec:	4008      	ands	r0, r1
    e9ee:	2133      	movs	r1, #51	; 0x33
    e9f0:	5c5d      	ldrb	r5, [r3, r1]
    e9f2:	2400      	movs	r4, #0
    e9f4:	402c      	ands	r4, r5
    e9f6:	4320      	orrs	r0, r4
    e9f8:	5458      	strb	r0, [r3, r1]
    e9fa:	0a10      	lsrs	r0, r2, #8
    e9fc:	21ff      	movs	r1, #255	; 0xff
    e9fe:	4008      	ands	r0, r1
    ea00:	2134      	movs	r1, #52	; 0x34
    ea02:	5c5d      	ldrb	r5, [r3, r1]
    ea04:	2400      	movs	r4, #0
    ea06:	402c      	ands	r4, r5
    ea08:	4320      	orrs	r0, r4
    ea0a:	5458      	strb	r0, [r3, r1]
    ea0c:	0c10      	lsrs	r0, r2, #16
    ea0e:	21ff      	movs	r1, #255	; 0xff
    ea10:	4008      	ands	r0, r1
    ea12:	2135      	movs	r1, #53	; 0x35
    ea14:	5c5d      	ldrb	r5, [r3, r1]
    ea16:	2400      	movs	r4, #0
    ea18:	402c      	ands	r4, r5
    ea1a:	4320      	orrs	r0, r4
    ea1c:	5458      	strb	r0, [r3, r1]
    ea1e:	0e11      	lsrs	r1, r2, #24
    ea20:	2236      	movs	r2, #54	; 0x36
    ea22:	5c9c      	ldrb	r4, [r3, r2]
    ea24:	2000      	movs	r0, #0
    ea26:	4020      	ands	r0, r4
    ea28:	4301      	orrs	r1, r0
    ea2a:	5499      	strb	r1, [r3, r2]
E:\2017-2018\03_Graduation Project\04_Software\04_wangshi\03_UpdateSoftware-180625\02_UEUser\KL36_Update-180627\Debug/../06_NosPrg/main.c:387
	strncpy(data->userName,gFlashData.userName,20);
    ea2c:	687b      	ldr	r3, [r7, #4]
    ea2e:	1c1a      	adds	r2, r3, #0
    ea30:	3237      	adds	r2, #55	; 0x37
    ea32:	4b2a      	ldr	r3, [pc, #168]	; (eadc <userData_init+0x258>)
    ea34:	1c10      	adds	r0, r2, #0
    ea36:	1c19      	adds	r1, r3, #0
    ea38:	2214      	movs	r2, #20
    ea3a:	f000 fed6 	bl	f7ea <strncpy>
E:\2017-2018\03_Graduation Project\04_Software\04_wangshi\03_UpdateSoftware-180625\02_UEUser\KL36_Update-180627\Debug/../06_NosPrg/main.c:388
	strncpy(data->softVer,gFlashData.softVer,4);
    ea3e:	687b      	ldr	r3, [r7, #4]
    ea40:	1c1a      	adds	r2, r3, #0
    ea42:	324b      	adds	r2, #75	; 0x4b
    ea44:	4b26      	ldr	r3, [pc, #152]	; (eae0 <userData_init+0x25c>)
    ea46:	1c10      	adds	r0, r2, #0
    ea48:	1c19      	adds	r1, r3, #0
    ea4a:	2204      	movs	r2, #4
    ea4c:	f000 fecd 	bl	f7ea <strncpy>
E:\2017-2018\03_Graduation Project\04_Software\04_wangshi\03_UpdateSoftware-180625\02_UEUser\KL36_Update-180627\Debug/../06_NosPrg/main.c:389
	strncpy(data->equipName,gFlashData.equipName,30);
    ea50:	687b      	ldr	r3, [r7, #4]
    ea52:	1c1a      	adds	r2, r3, #0
    ea54:	324f      	adds	r2, #79	; 0x4f
    ea56:	4b20      	ldr	r3, [pc, #128]	; (ead8 <userData_init+0x254>)
    ea58:	1c10      	adds	r0, r2, #0
    ea5a:	1c19      	adds	r1, r3, #0
    ea5c:	221e      	movs	r2, #30
    ea5e:	f000 fec4 	bl	f7ea <strncpy>
E:\2017-2018\03_Graduation Project\04_Software\04_wangshi\03_UpdateSoftware-180625\02_UEUser\KL36_Update-180627\Debug/../06_NosPrg/main.c:390
	strncpy(data->equipID,gFlashData.equipID,20);
    ea62:	687b      	ldr	r3, [r7, #4]
    ea64:	1c1a      	adds	r2, r3, #0
    ea66:	326d      	adds	r2, #109	; 0x6d
    ea68:	4b1e      	ldr	r3, [pc, #120]	; (eae4 <userData_init+0x260>)
    ea6a:	1c10      	adds	r0, r2, #0
    ea6c:	1c19      	adds	r1, r3, #0
    ea6e:	2214      	movs	r2, #20
    ea70:	f000 febb 	bl	f7ea <strncpy>
E:\2017-2018\03_Graduation Project\04_Software\04_wangshi\03_UpdateSoftware-180625\02_UEUser\KL36_Update-180627\Debug/../06_NosPrg/main.c:391
	strncpy(data->equipType,gFlashData.equipType,20);
    ea74:	687b      	ldr	r3, [r7, #4]
    ea76:	1c1a      	adds	r2, r3, #0
    ea78:	3281      	adds	r2, #129	; 0x81
    ea7a:	4b1b      	ldr	r3, [pc, #108]	; (eae8 <userData_init+0x264>)
    ea7c:	1c10      	adds	r0, r2, #0
    ea7e:	1c19      	adds	r1, r3, #0
    ea80:	2214      	movs	r2, #20
    ea82:	f000 feb2 	bl	f7ea <strncpy>
E:\2017-2018\03_Graduation Project\04_Software\04_wangshi\03_UpdateSoftware-180625\02_UEUser\KL36_Update-180627\Debug/../06_NosPrg/main.c:392
	strncpy(data->vendor,gFlashData.vendor,30);
    ea86:	687b      	ldr	r3, [r7, #4]
    ea88:	1c1a      	adds	r2, r3, #0
    ea8a:	3295      	adds	r2, #149	; 0x95
    ea8c:	4b17      	ldr	r3, [pc, #92]	; (eaec <userData_init+0x268>)
    ea8e:	1c10      	adds	r0, r2, #0
    ea90:	1c19      	adds	r1, r3, #0
    ea92:	221e      	movs	r2, #30
    ea94:	f000 fea9 	bl	f7ea <strncpy>
E:\2017-2018\03_Graduation Project\04_Software\04_wangshi\03_UpdateSoftware-180625\02_UEUser\KL36_Update-180627\Debug/../06_NosPrg/main.c:393
	strncpy(data->phone,gFlashData.phone,11);
    ea98:	687b      	ldr	r3, [r7, #4]
    ea9a:	1c1a      	adds	r2, r3, #0
    ea9c:	32cb      	adds	r2, #203	; 0xcb
    ea9e:	4b14      	ldr	r3, [pc, #80]	; (eaf0 <userData_init+0x26c>)
    eaa0:	1c10      	adds	r0, r2, #0
    eaa2:	1c19      	adds	r1, r3, #0
    eaa4:	220b      	movs	r2, #11
    eaa6:	f000 fea0 	bl	f7ea <strncpy>
E:\2017-2018\03_Graduation Project\04_Software\04_wangshi\03_UpdateSoftware-180625\02_UEUser\KL36_Update-180627\Debug/../06_NosPrg/main.c:394
	data->touchNum = 0;
    eaaa:	687b      	ldr	r3, [r7, #4]
    eaac:	22e8      	movs	r2, #232	; 0xe8
    eaae:	5c98      	ldrb	r0, [r3, r2]
    eab0:	2100      	movs	r1, #0
    eab2:	4001      	ands	r1, r0
    eab4:	5499      	strb	r1, [r3, r2]
    eab6:	22e9      	movs	r2, #233	; 0xe9
    eab8:	5c98      	ldrb	r0, [r3, r2]
    eaba:	2100      	movs	r1, #0
    eabc:	4001      	ands	r1, r0
    eabe:	5499      	strb	r1, [r3, r2]
E:\2017-2018\03_Graduation Project\04_Software\04_wangshi\03_UpdateSoftware-180625\02_UEUser\KL36_Update-180627\Debug/../06_NosPrg/main.c:395
}
    eac0:	46bd      	mov	sp, r7
    eac2:	b003      	add	sp, #12
    eac4:	bdf0      	pop	{r4, r5, r6, r7, pc}
    eac6:	46c0      	nop			; (mov r8, r8)
    eac8:	0000f854 	.word	0x0000f854
    eacc:	1fffff54 	.word	0x1fffff54
    ead0:	1ffffa0f 	.word	0x1ffffa0f
    ead4:	1ffffa1e 	.word	0x1ffffa1e
    ead8:	1ffff980 	.word	0x1ffff980
    eadc:	1ffff9f0 	.word	0x1ffff9f0
    eae0:	1ffff9e4 	.word	0x1ffff9e4
    eae4:	1ffff99e 	.word	0x1ffff99e
    eae8:	1ffff9b2 	.word	0x1ffff9b2
    eaec:	1ffff9c6 	.word	0x1ffff9c6
    eaf0:	1ffffa04 	.word	0x1ffffa04
$d():
    eaf4:	00000000 	.word	0x00000000

0000eaf8 <userData_get>:
userData_get():
E:\2017-2018\03_Graduation Project\04_Software\04_wangshi\03_UpdateSoftware-180625\02_UEUser\KL36_Update-180627\Debug/../06_NosPrg/main.c:404
//
//data
//data
//=====================================================================
void userData_get(struct UserData *data)
{
    eaf8:	b5b0      	push	{r4, r5, r7, lr}
    eafa:	b086      	sub	sp, #24
    eafc:	af00      	add	r7, sp, #0
    eafe:	6078      	str	r0, [r7, #4]
E:\2017-2018\03_Graduation Project\04_Software\04_wangshi\03_UpdateSoftware-180625\02_UEUser\KL36_Update-180627\Debug/../06_NosPrg/main.c:410
	uint_16 tmpAD,brightAD;
	uint_8 sPower;
	uint_8 tempertature[6];
	static uint_32 sn = 4;

	data->sn = sn++;
    eb00:	4b71      	ldr	r3, [pc, #452]	; (ecc8 <userData_get+0x1d0>)
    eb02:	681b      	ldr	r3, [r3, #0]
    eb04:	1c59      	adds	r1, r3, #1
    eb06:	4a70      	ldr	r2, [pc, #448]	; (ecc8 <userData_get+0x1d0>)
    eb08:	6011      	str	r1, [r2, #0]
    eb0a:	b29a      	uxth	r2, r3
    eb0c:	687b      	ldr	r3, [r7, #4]
    eb0e:	21ff      	movs	r1, #255	; 0xff
    eb10:	4011      	ands	r1, r2
    eb12:	789c      	ldrb	r4, [r3, #2]
    eb14:	2000      	movs	r0, #0
    eb16:	4020      	ands	r0, r4
    eb18:	4301      	orrs	r1, r0
    eb1a:	7099      	strb	r1, [r3, #2]
    eb1c:	0a12      	lsrs	r2, r2, #8
    eb1e:	b292      	uxth	r2, r2
    eb20:	78d8      	ldrb	r0, [r3, #3]
    eb22:	2100      	movs	r1, #0
    eb24:	4001      	ands	r1, r0
    eb26:	430a      	orrs	r2, r1
    eb28:	70da      	strb	r2, [r3, #3]
E:\2017-2018\03_Graduation Project\04_Software\04_wangshi\03_UpdateSoftware-180625\02_UEUser\KL36_Update-180627\Debug/../06_NosPrg/main.c:411
	adc_init(MUXSEL_A,0,16,SAMPLE32);
    eb2a:	4b68      	ldr	r3, [pc, #416]	; (eccc <userData_get+0x1d4>)
    eb2c:	681c      	ldr	r4, [r3, #0]
    eb2e:	2000      	movs	r0, #0
    eb30:	2100      	movs	r1, #0
    eb32:	2210      	movs	r2, #16
    eb34:	2303      	movs	r3, #3
    eb36:	47a0      	blx	r4
E:\2017-2018\03_Graduation Project\04_Software\04_wangshi\03_UpdateSoftware-180625\02_UEUser\KL36_Update-180627\Debug/../06_NosPrg/main.c:412
	tmpAD = adc_read(26);
    eb38:	4b65      	ldr	r3, [pc, #404]	; (ecd0 <userData_get+0x1d8>)
    eb3a:	681b      	ldr	r3, [r3, #0]
    eb3c:	1c3c      	adds	r4, r7, #0
    eb3e:	3416      	adds	r4, #22
    eb40:	201a      	movs	r0, #26
    eb42:	4798      	blx	r3
    eb44:	1c03      	adds	r3, r0, #0
    eb46:	8023      	strh	r3, [r4, #0]
E:\2017-2018\03_Graduation Project\04_Software\04_wangshi\03_UpdateSoftware-180625\02_UEUser\KL36_Update-180627\Debug/../06_NosPrg/main.c:413
	data->mcuTemp = (int_32)((25.0-(tmpAD*3.3*1000/65535-719)/1.715)*10);
    eb48:	1c3b      	adds	r3, r7, #0
    eb4a:	3316      	adds	r3, #22
    eb4c:	881b      	ldrh	r3, [r3, #0]
    eb4e:	1c18      	adds	r0, r3, #0
    eb50:	f7fe fb7a 	bl	d248 <__aeabi_i2d>
    eb54:	1c03      	adds	r3, r0, #0
    eb56:	1c0c      	adds	r4, r1, #0
    eb58:	1c18      	adds	r0, r3, #0
    eb5a:	1c21      	adds	r1, r4, #0
    eb5c:	4b4d      	ldr	r3, [pc, #308]	; (ec94 <userData_get+0x19c>)
    eb5e:	4a4c      	ldr	r2, [pc, #304]	; (ec90 <userData_get+0x198>)
    eb60:	f7fd fd7a 	bl	c658 <__aeabi_dmul>
    eb64:	1c03      	adds	r3, r0, #0
    eb66:	1c0c      	adds	r4, r1, #0
    eb68:	1c18      	adds	r0, r3, #0
    eb6a:	1c21      	adds	r1, r4, #0
    eb6c:	4a4a      	ldr	r2, [pc, #296]	; (ec98 <userData_get+0x1a0>)
    eb6e:	4b4b      	ldr	r3, [pc, #300]	; (ec9c <userData_get+0x1a4>)
    eb70:	f7fd fd72 	bl	c658 <__aeabi_dmul>
    eb74:	1c03      	adds	r3, r0, #0
    eb76:	1c0c      	adds	r4, r1, #0
    eb78:	1c18      	adds	r0, r3, #0
    eb7a:	1c21      	adds	r1, r4, #0
    eb7c:	4a48      	ldr	r2, [pc, #288]	; (eca0 <userData_get+0x1a8>)
    eb7e:	4b49      	ldr	r3, [pc, #292]	; (eca4 <userData_get+0x1ac>)
    eb80:	f7fd f900 	bl	bd84 <__aeabi_ddiv>
    eb84:	1c03      	adds	r3, r0, #0
    eb86:	1c0c      	adds	r4, r1, #0
    eb88:	1c18      	adds	r0, r3, #0
    eb8a:	1c21      	adds	r1, r4, #0
    eb8c:	4a46      	ldr	r2, [pc, #280]	; (eca8 <userData_get+0x1b0>)
    eb8e:	4b47      	ldr	r3, [pc, #284]	; (ecac <userData_get+0x1b4>)
    eb90:	f7fd fff2 	bl	cb78 <__aeabi_dsub>
    eb94:	1c03      	adds	r3, r0, #0
    eb96:	1c0c      	adds	r4, r1, #0
    eb98:	1c18      	adds	r0, r3, #0
    eb9a:	1c21      	adds	r1, r4, #0
    eb9c:	4a44      	ldr	r2, [pc, #272]	; (ecb0 <userData_get+0x1b8>)
    eb9e:	4b45      	ldr	r3, [pc, #276]	; (ecb4 <userData_get+0x1bc>)
    eba0:	f7fd f8f0 	bl	bd84 <__aeabi_ddiv>
    eba4:	1c03      	adds	r3, r0, #0
    eba6:	1c0c      	adds	r4, r1, #0
    eba8:	4843      	ldr	r0, [pc, #268]	; (ecb8 <userData_get+0x1c0>)
    ebaa:	4944      	ldr	r1, [pc, #272]	; (ecbc <userData_get+0x1c4>)
    ebac:	1c1a      	adds	r2, r3, #0
    ebae:	1c23      	adds	r3, r4, #0
    ebb0:	f7fd ffe2 	bl	cb78 <__aeabi_dsub>
    ebb4:	1c03      	adds	r3, r0, #0
    ebb6:	1c0c      	adds	r4, r1, #0
    ebb8:	1c18      	adds	r0, r3, #0
    ebba:	1c21      	adds	r1, r4, #0
    ebbc:	4a40      	ldr	r2, [pc, #256]	; (ecc0 <userData_get+0x1c8>)
    ebbe:	4b41      	ldr	r3, [pc, #260]	; (ecc4 <userData_get+0x1cc>)
    ebc0:	f7fd fd4a 	bl	c658 <__aeabi_dmul>
    ebc4:	1c03      	adds	r3, r0, #0
    ebc6:	1c0c      	adds	r4, r1, #0
    ebc8:	1c18      	adds	r0, r3, #0
    ebca:	1c21      	adds	r1, r4, #0
    ebcc:	f7fe fb08 	bl	d1e0 <__aeabi_d2iz>
    ebd0:	1c02      	adds	r2, r0, #0
    ebd2:	687b      	ldr	r3, [r7, #4]
    ebd4:	21ff      	movs	r1, #255	; 0xff
    ebd6:	1c10      	adds	r0, r2, #0
    ebd8:	4008      	ands	r0, r1
    ebda:	21b3      	movs	r1, #179	; 0xb3
    ebdc:	5c5d      	ldrb	r5, [r3, r1]
    ebde:	2400      	movs	r4, #0
    ebe0:	402c      	ands	r4, r5
    ebe2:	4320      	orrs	r0, r4
    ebe4:	5458      	strb	r0, [r3, r1]
    ebe6:	0a10      	lsrs	r0, r2, #8
    ebe8:	21ff      	movs	r1, #255	; 0xff
    ebea:	4008      	ands	r0, r1
    ebec:	21b4      	movs	r1, #180	; 0xb4
    ebee:	5c5d      	ldrb	r5, [r3, r1]
    ebf0:	2400      	movs	r4, #0
    ebf2:	402c      	ands	r4, r5
    ebf4:	4320      	orrs	r0, r4
    ebf6:	5458      	strb	r0, [r3, r1]
    ebf8:	0c10      	lsrs	r0, r2, #16
    ebfa:	21ff      	movs	r1, #255	; 0xff
    ebfc:	4008      	ands	r0, r1
    ebfe:	21b5      	movs	r1, #181	; 0xb5
    ec00:	5c5d      	ldrb	r5, [r3, r1]
    ec02:	2400      	movs	r4, #0
    ec04:	402c      	ands	r4, r5
    ec06:	4320      	orrs	r0, r4
    ec08:	5458      	strb	r0, [r3, r1]
    ec0a:	0e11      	lsrs	r1, r2, #24
    ec0c:	22b6      	movs	r2, #182	; 0xb6
    ec0e:	5c9c      	ldrb	r4, [r3, r2]
    ec10:	2000      	movs	r0, #0
    ec12:	4020      	ands	r0, r4
    ec14:	4301      	orrs	r1, r0
    ec16:	5499      	strb	r1, [r3, r2]
E:\2017-2018\03_Graduation Project\04_Software\04_wangshi\03_UpdateSoftware-180625\02_UEUser\KL36_Update-180627\Debug/../06_NosPrg/main.c:416
	//LCD_ShowString(105,105,BLUE,GRAY,(uint_8*)myFtoa(data->mcuTemp/10.0,1,tempertature));
	//
	brightAD = adc_read(7);
    ec18:	4b2d      	ldr	r3, [pc, #180]	; (ecd0 <userData_get+0x1d8>)
    ec1a:	681b      	ldr	r3, [r3, #0]
    ec1c:	1c3c      	adds	r4, r7, #0
    ec1e:	3414      	adds	r4, #20
    ec20:	2007      	movs	r0, #7
    ec22:	4798      	blx	r3
    ec24:	1c03      	adds	r3, r0, #0
    ec26:	8023      	strh	r3, [r4, #0]
E:\2017-2018\03_Graduation Project\04_Software\04_wangshi\03_UpdateSoftware-180625\02_UEUser\KL36_Update-180627\Debug/../06_NosPrg/main.c:417
	data->bright = brightAD;
    ec28:	687b      	ldr	r3, [r7, #4]
    ec2a:	1c3a      	adds	r2, r7, #0
    ec2c:	3214      	adds	r2, #20
    ec2e:	7810      	ldrb	r0, [r2, #0]
    ec30:	21e6      	movs	r1, #230	; 0xe6
    ec32:	5c5d      	ldrb	r5, [r3, r1]
    ec34:	2400      	movs	r4, #0
    ec36:	402c      	ands	r4, r5
    ec38:	4320      	orrs	r0, r4
    ec3a:	5458      	strb	r0, [r3, r1]
    ec3c:	7851      	ldrb	r1, [r2, #1]
    ec3e:	22e7      	movs	r2, #231	; 0xe7
    ec40:	5c9c      	ldrb	r4, [r3, r2]
    ec42:	2000      	movs	r0, #0
    ec44:	4020      	ands	r0, r4
    ec46:	4301      	orrs	r1, r0
    ec48:	5499      	strb	r1, [r3, r2]
E:\2017-2018\03_Graduation Project\04_Software\04_wangshi\03_UpdateSoftware-180625\02_UEUser\KL36_Update-180627\Debug/../06_NosPrg/main.c:418
	uecom_getIMSI(data->IMSI);
    ec4a:	4b22      	ldr	r3, [pc, #136]	; (ecd4 <userData_get+0x1dc>)
    ec4c:	681b      	ldr	r3, [r3, #0]
    ec4e:	687a      	ldr	r2, [r7, #4]
    ec50:	3204      	adds	r2, #4
    ec52:	1c10      	adds	r0, r2, #0
    ec54:	4798      	blx	r3
E:\2017-2018\03_Graduation Project\04_Software\04_wangshi\03_UpdateSoftware-180625\02_UEUser\KL36_Update-180627\Debug/../06_NosPrg/main.c:419
	uecom_getIMEI(data->IMEI);
    ec56:	4b20      	ldr	r3, [pc, #128]	; (ecd8 <userData_get+0x1e0>)
    ec58:	681b      	ldr	r3, [r3, #0]
    ec5a:	687a      	ldr	r2, [r7, #4]
    ec5c:	32d6      	adds	r2, #214	; 0xd6
    ec5e:	1c10      	adds	r0, r2, #0
    ec60:	4798      	blx	r3
E:\2017-2018\03_Graduation Project\04_Software\04_wangshi\03_UpdateSoftware-180625\02_UEUser\KL36_Update-180627\Debug/../06_NosPrg/main.c:420
	uecom_getSignalPower(&sPower);
    ec62:	4b1e      	ldr	r3, [pc, #120]	; (ecdc <userData_get+0x1e4>)
    ec64:	681b      	ldr	r3, [r3, #0]
    ec66:	1c3a      	adds	r2, r7, #0
    ec68:	3213      	adds	r2, #19
    ec6a:	1c10      	adds	r0, r2, #0
    ec6c:	4798      	blx	r3
E:\2017-2018\03_Graduation Project\04_Software\04_wangshi\03_UpdateSoftware-180625\02_UEUser\KL36_Update-180627\Debug/../06_NosPrg/main.c:421
	data->signalPower = sPower;
    ec6e:	1c3b      	adds	r3, r7, #0
    ec70:	3313      	adds	r3, #19
    ec72:	7819      	ldrb	r1, [r3, #0]
    ec74:	687a      	ldr	r2, [r7, #4]
    ec76:	23e5      	movs	r3, #229	; 0xe5
    ec78:	54d1      	strb	r1, [r2, r3]
E:\2017-2018\03_Graduation Project\04_Software\04_wangshi\03_UpdateSoftware-180625\02_UEUser\KL36_Update-180627\Debug/../06_NosPrg/main.c:422
	uecom_getCurCommunity(data->lbs_location);
    ec7a:	4b19      	ldr	r3, [pc, #100]	; (ece0 <userData_get+0x1e8>)
    ec7c:	681b      	ldr	r3, [r3, #0]
    ec7e:	687a      	ldr	r2, [r7, #4]
    ec80:	32fe      	adds	r2, #254	; 0xfe
    ec82:	1c10      	adds	r0, r2, #0
    ec84:	4798      	blx	r3
E:\2017-2018\03_Graduation Project\04_Software\04_wangshi\03_UpdateSoftware-180625\02_UEUser\KL36_Update-180627\Debug/../06_NosPrg/main.c:437
	//    uecom_getIMSI(data->IMSI);
	//    uecom_getSignalPower(&sPower);
	//    data->signalPower = sPower;
	//    uecom_getCurCommunity(data->lbs_location);

}
    ec86:	46bd      	mov	sp, r7
    ec88:	b006      	add	sp, #24
    ec8a:	bdb0      	pop	{r4, r5, r7, pc}
    ec8c:	46c0      	nop			; (mov r8, r8)
    ec8e:	46c0      	nop			; (mov r8, r8)
    ec90:	66666666 	.word	0x66666666
    ec94:	400a6666 	.word	0x400a6666
    ec98:	00000000 	.word	0x00000000
    ec9c:	408f4000 	.word	0x408f4000
    eca0:	00000000 	.word	0x00000000
    eca4:	40efffe0 	.word	0x40efffe0
    eca8:	00000000 	.word	0x00000000
    ecac:	40867800 	.word	0x40867800
    ecb0:	d70a3d71 	.word	0xd70a3d71
    ecb4:	3ffb70a3 	.word	0x3ffb70a3
    ecb8:	00000000 	.word	0x00000000
    ecbc:	40390000 	.word	0x40390000
    ecc0:	00000000 	.word	0x00000000
    ecc4:	40240000 	.word	0x40240000
    ecc8:	1ffff800 	.word	0x1ffff800
    eccc:	1ffff938 	.word	0x1ffff938
    ecd0:	1ffff8d4 	.word	0x1ffff8d4
    ecd4:	1ffff97c 	.word	0x1ffff97c
    ecd8:	1ffff918 	.word	0x1ffff918
    ecdc:	1ffff89c 	.word	0x1ffff89c
    ece0:	1ffff8cc 	.word	0x1ffff8cc
$t():
    ece4:	46c0      	nop			; (mov r8, r8)
    ece6:	46c0      	nop			; (mov r8, r8)

0000ece8 <LCD_ShowFlash>:
LCD_ShowFlash():
E:\2017-2018\03_Graduation Project\04_Software\04_wangshi\03_UpdateSoftware-180625\02_UEUser\KL36_Update-180627\Debug/../06_NosPrg/main.c:644
//
//
//LCDflash
//=====================================================================
void LCD_ShowFlash()
{
    ece8:	b580      	push	{r7, lr}
    ecea:	af00      	add	r7, sp, #0
E:\2017-2018\03_Graduation Project\04_Software\04_wangshi\03_UpdateSoftware-180625\02_UEUser\KL36_Update-180627\Debug/../06_NosPrg/main.c:668
	//	LCD_ShowString(65,169,BLUE,GRAY,temp);
	//    //6.3PORT
	//	strncpy(temp,gFlashData.serverPort,5);
	//	temp[5]=0;
	//	LCD_ShowString(65,189,BLUE,GRAY,temp);
}
    ecec:	46bd      	mov	sp, r7
    ecee:	bd80      	pop	{r7, pc}

0000ecf0 <myItoa>:
myItoa():
E:\2017-2018\03_Graduation Project\04_Software\04_wangshi\03_UpdateSoftware-180625\02_UEUser\KL36_Update-180627\Debug/../05_SoftComponent/valueType/valueType.c:16
//numstr
//                   radix
//
//=====================================================================
uint_8 *myItoa(uint_32 num,uint_8 *str,uint_8 radix)
{
    ecf0:	b5f0      	push	{r4, r5, r6, r7, lr}
    ecf2:	b093      	sub	sp, #76	; 0x4c
    ecf4:	af00      	add	r7, sp, #0
    ecf6:	6178      	str	r0, [r7, #20]
    ecf8:	6139      	str	r1, [r7, #16]
    ecfa:	1c3b      	adds	r3, r7, #0
    ecfc:	330f      	adds	r3, #15
    ecfe:	701a      	strb	r2, [r3, #0]
E:\2017-2018\03_Graduation Project\04_Software\04_wangshi\03_UpdateSoftware-180625\02_UEUser\KL36_Update-180627\Debug/../05_SoftComponent/valueType/valueType.c:18
	//1
	uint_8 index[]="0123456789ABCDEFGHIJKLMNOPQRSTUVWXYZ";
    ed00:	1c3b      	adds	r3, r7, #0
    ed02:	331c      	adds	r3, #28
    ed04:	4a5e      	ldr	r2, [pc, #376]	; (ee80 <myItoa+0x190>)
    ed06:	ca13      	ldmia	r2!, {r0, r1, r4}
    ed08:	c313      	stmia	r3!, {r0, r1, r4}
    ed0a:	ca13      	ldmia	r2!, {r0, r1, r4}
    ed0c:	c313      	stmia	r3!, {r0, r1, r4}
    ed0e:	ca13      	ldmia	r2!, {r0, r1, r4}
    ed10:	c313      	stmia	r3!, {r0, r1, r4}
    ed12:	7812      	ldrb	r2, [r2, #0]
    ed14:	701a      	strb	r2, [r3, #0]
E:\2017-2018\03_Graduation Project\04_Software\04_wangshi\03_UpdateSoftware-180625\02_UEUser\KL36_Update-180627\Debug/../05_SoftComponent/valueType/valueType.c:20
	uint_32 unum; /*  */
	uint_8 i=0,j,k;
    ed16:	1c3b      	adds	r3, r7, #0
    ed18:	3343      	adds	r3, #67	; 0x43
    ed1a:	2200      	movs	r2, #0
    ed1c:	701a      	strb	r2, [r3, #0]
E:\2017-2018\03_Graduation Project\04_Software\04_wangshi\03_UpdateSoftware-180625\02_UEUser\KL36_Update-180627\Debug/../05_SoftComponent/valueType/valueType.c:28
	{
	    unum=(unsigned)-num;
	    str[i++]='-';
	}
	else                                  //
		unum=(unsigned)num;
    ed1e:	697b      	ldr	r3, [r7, #20]
    ed20:	647b      	str	r3, [r7, #68]	; 0x44
E:\2017-2018\03_Graduation Project\04_Software\04_wangshi\03_UpdateSoftware-180625\02_UEUser\KL36_Update-180627\Debug/../05_SoftComponent/valueType/valueType.c:31 (discriminator 1)
	//3
	do {
	    str[i++]=index[unum%(unsigned)radix];
    ed22:	1c3b      	adds	r3, r7, #0
    ed24:	3343      	adds	r3, #67	; 0x43
    ed26:	781b      	ldrb	r3, [r3, #0]
    ed28:	1c3a      	adds	r2, r7, #0
    ed2a:	3243      	adds	r2, #67	; 0x43
    ed2c:	1c59      	adds	r1, r3, #1
    ed2e:	7011      	strb	r1, [r2, #0]
    ed30:	693a      	ldr	r2, [r7, #16]
    ed32:	18d4      	adds	r4, r2, r3
    ed34:	1c3b      	adds	r3, r7, #0
    ed36:	330f      	adds	r3, #15
    ed38:	781b      	ldrb	r3, [r3, #0]
    ed3a:	6c7a      	ldr	r2, [r7, #68]	; 0x44
    ed3c:	1c10      	adds	r0, r2, #0
    ed3e:	1c19      	adds	r1, r3, #0
    ed40:	f7fc fc3c 	bl	b5bc <__aeabi_uidivmod>
    ed44:	1c0b      	adds	r3, r1, #0
    ed46:	1c3a      	adds	r2, r7, #0
    ed48:	321c      	adds	r2, #28
    ed4a:	5cd3      	ldrb	r3, [r2, r3]
    ed4c:	7023      	strb	r3, [r4, #0]
E:\2017-2018\03_Graduation Project\04_Software\04_wangshi\03_UpdateSoftware-180625\02_UEUser\KL36_Update-180627\Debug/../05_SoftComponent/valueType/valueType.c:32 (discriminator 1)
	    unum/=radix;
    ed4e:	1c3b      	adds	r3, r7, #0
    ed50:	330f      	adds	r3, #15
    ed52:	781b      	ldrb	r3, [r3, #0]
    ed54:	6c78      	ldr	r0, [r7, #68]	; 0x44
    ed56:	1c19      	adds	r1, r3, #0
    ed58:	f7fc fbec 	bl	b534 <__aeabi_uidiv>
    ed5c:	1c03      	adds	r3, r0, #0
    ed5e:	647b      	str	r3, [r7, #68]	; 0x44
E:\2017-2018\03_Graduation Project\04_Software\04_wangshi\03_UpdateSoftware-180625\02_UEUser\KL36_Update-180627\Debug/../05_SoftComponent/valueType/valueType.c:33 (discriminator 1)
	}while(unum);
    ed60:	6c7b      	ldr	r3, [r7, #68]	; 0x44
    ed62:	2b00      	cmp	r3, #0
    ed64:	d1dd      	bne.n	ed22 <myItoa+0x32>
E:\2017-2018\03_Graduation Project\04_Software\04_wangshi\03_UpdateSoftware-180625\02_UEUser\KL36_Update-180627\Debug/../05_SoftComponent/valueType/valueType.c:34
	str[i]='\0';
    ed66:	1c3b      	adds	r3, r7, #0
    ed68:	3343      	adds	r3, #67	; 0x43
    ed6a:	781b      	ldrb	r3, [r3, #0]
    ed6c:	693a      	ldr	r2, [r7, #16]
    ed6e:	18d3      	adds	r3, r2, r3
    ed70:	2200      	movs	r2, #0
    ed72:	701a      	strb	r2, [r3, #0]
E:\2017-2018\03_Graduation Project\04_Software\04_wangshi\03_UpdateSoftware-180625\02_UEUser\KL36_Update-180627\Debug/../05_SoftComponent/valueType/valueType.c:36
	//4
	if(str[0]=='-') k=1; /*  */
    ed74:	693b      	ldr	r3, [r7, #16]
    ed76:	781b      	ldrb	r3, [r3, #0]
    ed78:	2b2d      	cmp	r3, #45	; 0x2d
    ed7a:	d104      	bne.n	ed86 <myItoa+0x96>
E:\2017-2018\03_Graduation Project\04_Software\04_wangshi\03_UpdateSoftware-180625\02_UEUser\KL36_Update-180627\Debug/../05_SoftComponent/valueType/valueType.c:36 (discriminator 1)
    ed7c:	1c3b      	adds	r3, r7, #0
    ed7e:	3341      	adds	r3, #65	; 0x41
    ed80:	2201      	movs	r2, #1
    ed82:	701a      	strb	r2, [r3, #0]
    ed84:	e003      	b.n	ed8e <myItoa+0x9e>
E:\2017-2018\03_Graduation Project\04_Software\04_wangshi\03_UpdateSoftware-180625\02_UEUser\KL36_Update-180627\Debug/../05_SoftComponent/valueType/valueType.c:37
	else k=0;
    ed86:	1c3b      	adds	r3, r7, #0
    ed88:	3341      	adds	r3, #65	; 0x41
    ed8a:	2200      	movs	r2, #0
    ed8c:	701a      	strb	r2, [r3, #0]
E:\2017-2018\03_Graduation Project\04_Software\04_wangshi\03_UpdateSoftware-180625\02_UEUser\KL36_Update-180627\Debug/../05_SoftComponent/valueType/valueType.c:39
	//5 "/2""/2.0",num16~255radix16
	for(j=k;j<=(i-1)/2.0+k;j++)
    ed8e:	1c3b      	adds	r3, r7, #0
    ed90:	3342      	adds	r3, #66	; 0x42
    ed92:	1c3a      	adds	r2, r7, #0
    ed94:	3241      	adds	r2, #65	; 0x41
    ed96:	7812      	ldrb	r2, [r2, #0]
    ed98:	701a      	strb	r2, [r3, #0]
    ed9a:	e033      	b.n	ee04 <myItoa+0x114>
E:\2017-2018\03_Graduation Project\04_Software\04_wangshi\03_UpdateSoftware-180625\02_UEUser\KL36_Update-180627\Debug/../05_SoftComponent/valueType/valueType.c:41 (discriminator 2)
	{
	    num=str[j];
    ed9c:	1c3b      	adds	r3, r7, #0
    ed9e:	3342      	adds	r3, #66	; 0x42
    eda0:	781b      	ldrb	r3, [r3, #0]
    eda2:	693a      	ldr	r2, [r7, #16]
    eda4:	18d3      	adds	r3, r2, r3
    eda6:	781b      	ldrb	r3, [r3, #0]
    eda8:	617b      	str	r3, [r7, #20]
E:\2017-2018\03_Graduation Project\04_Software\04_wangshi\03_UpdateSoftware-180625\02_UEUser\KL36_Update-180627\Debug/../05_SoftComponent/valueType/valueType.c:42 (discriminator 2)
	    str[j]=str[i-j-1+k];
    edaa:	1c3b      	adds	r3, r7, #0
    edac:	3342      	adds	r3, #66	; 0x42
    edae:	781b      	ldrb	r3, [r3, #0]
    edb0:	693a      	ldr	r2, [r7, #16]
    edb2:	18d3      	adds	r3, r2, r3
    edb4:	1c3a      	adds	r2, r7, #0
    edb6:	3243      	adds	r2, #67	; 0x43
    edb8:	7811      	ldrb	r1, [r2, #0]
    edba:	1c3a      	adds	r2, r7, #0
    edbc:	3242      	adds	r2, #66	; 0x42
    edbe:	7812      	ldrb	r2, [r2, #0]
    edc0:	1a8a      	subs	r2, r1, r2
    edc2:	1e51      	subs	r1, r2, #1
    edc4:	1c3a      	adds	r2, r7, #0
    edc6:	3241      	adds	r2, #65	; 0x41
    edc8:	7812      	ldrb	r2, [r2, #0]
    edca:	188a      	adds	r2, r1, r2
    edcc:	6939      	ldr	r1, [r7, #16]
    edce:	188a      	adds	r2, r1, r2
    edd0:	7812      	ldrb	r2, [r2, #0]
    edd2:	701a      	strb	r2, [r3, #0]
E:\2017-2018\03_Graduation Project\04_Software\04_wangshi\03_UpdateSoftware-180625\02_UEUser\KL36_Update-180627\Debug/../05_SoftComponent/valueType/valueType.c:43 (discriminator 2)
	    str[i-j-1+k]=num;
    edd4:	1c3b      	adds	r3, r7, #0
    edd6:	3343      	adds	r3, #67	; 0x43
    edd8:	781a      	ldrb	r2, [r3, #0]
    edda:	1c3b      	adds	r3, r7, #0
    eddc:	3342      	adds	r3, #66	; 0x42
    edde:	781b      	ldrb	r3, [r3, #0]
    ede0:	1ad3      	subs	r3, r2, r3
    ede2:	1e5a      	subs	r2, r3, #1
    ede4:	1c3b      	adds	r3, r7, #0
    ede6:	3341      	adds	r3, #65	; 0x41
    ede8:	781b      	ldrb	r3, [r3, #0]
    edea:	18d3      	adds	r3, r2, r3
    edec:	693a      	ldr	r2, [r7, #16]
    edee:	18d3      	adds	r3, r2, r3
    edf0:	697a      	ldr	r2, [r7, #20]
    edf2:	b2d2      	uxtb	r2, r2
    edf4:	701a      	strb	r2, [r3, #0]
E:\2017-2018\03_Graduation Project\04_Software\04_wangshi\03_UpdateSoftware-180625\02_UEUser\KL36_Update-180627\Debug/../05_SoftComponent/valueType/valueType.c:39 (discriminator 2)
	str[i]='\0';
	//4
	if(str[0]=='-') k=1; /*  */
	else k=0;
	//5 "/2""/2.0",num16~255radix16
	for(j=k;j<=(i-1)/2.0+k;j++)
    edf6:	1c3b      	adds	r3, r7, #0
    edf8:	3342      	adds	r3, #66	; 0x42
    edfa:	781a      	ldrb	r2, [r3, #0]
    edfc:	1c3b      	adds	r3, r7, #0
    edfe:	3342      	adds	r3, #66	; 0x42
    ee00:	3201      	adds	r2, #1
    ee02:	701a      	strb	r2, [r3, #0]
E:\2017-2018\03_Graduation Project\04_Software\04_wangshi\03_UpdateSoftware-180625\02_UEUser\KL36_Update-180627\Debug/../05_SoftComponent/valueType/valueType.c:39 (discriminator 1)
    ee04:	1c3b      	adds	r3, r7, #0
    ee06:	3342      	adds	r3, #66	; 0x42
    ee08:	781b      	ldrb	r3, [r3, #0]
    ee0a:	1c18      	adds	r0, r3, #0
    ee0c:	f7fe fa1c 	bl	d248 <__aeabi_i2d>
    ee10:	1c05      	adds	r5, r0, #0
    ee12:	1c0e      	adds	r6, r1, #0
    ee14:	1c3b      	adds	r3, r7, #0
    ee16:	3343      	adds	r3, #67	; 0x43
    ee18:	781b      	ldrb	r3, [r3, #0]
    ee1a:	3b01      	subs	r3, #1
    ee1c:	1c18      	adds	r0, r3, #0
    ee1e:	f7fe fa13 	bl	d248 <__aeabi_i2d>
    ee22:	1c03      	adds	r3, r0, #0
    ee24:	1c0c      	adds	r4, r1, #0
    ee26:	1c18      	adds	r0, r3, #0
    ee28:	1c21      	adds	r1, r4, #0
    ee2a:	4b14      	ldr	r3, [pc, #80]	; (ee7c <myItoa+0x18c>)
    ee2c:	4a12      	ldr	r2, [pc, #72]	; (ee78 <myItoa+0x188>)
    ee2e:	f7fc ffa9 	bl	bd84 <__aeabi_ddiv>
    ee32:	1c03      	adds	r3, r0, #0
    ee34:	1c0c      	adds	r4, r1, #0
    ee36:	603b      	str	r3, [r7, #0]
    ee38:	607c      	str	r4, [r7, #4]
    ee3a:	1c3b      	adds	r3, r7, #0
    ee3c:	3341      	adds	r3, #65	; 0x41
    ee3e:	781b      	ldrb	r3, [r3, #0]
    ee40:	1c18      	adds	r0, r3, #0
    ee42:	f7fe fa01 	bl	d248 <__aeabi_i2d>
    ee46:	1c03      	adds	r3, r0, #0
    ee48:	1c0c      	adds	r4, r1, #0
    ee4a:	6838      	ldr	r0, [r7, #0]
    ee4c:	6879      	ldr	r1, [r7, #4]
    ee4e:	1c1a      	adds	r2, r3, #0
    ee50:	1c23      	adds	r3, r4, #0
    ee52:	f7fc fc75 	bl	b740 <__aeabi_dadd>
    ee56:	1c03      	adds	r3, r0, #0
    ee58:	1c0c      	adds	r4, r1, #0
    ee5a:	1c28      	adds	r0, r5, #0
    ee5c:	1c31      	adds	r1, r6, #0
    ee5e:	1c1a      	adds	r2, r3, #0
    ee60:	1c23      	adds	r3, r4, #0
    ee62:	f7fc fbd7 	bl	b614 <__aeabi_dcmple>
    ee66:	1c03      	adds	r3, r0, #0
    ee68:	2b00      	cmp	r3, #0
    ee6a:	d197      	bne.n	ed9c <myItoa+0xac>
E:\2017-2018\03_Graduation Project\04_Software\04_wangshi\03_UpdateSoftware-180625\02_UEUser\KL36_Update-180627\Debug/../05_SoftComponent/valueType/valueType.c:45
	{
	    num=str[j];
	    str[j]=str[i-j-1+k];
	    str[i-j-1+k]=num;
	}
	return str;
    ee6c:	693b      	ldr	r3, [r7, #16]
E:\2017-2018\03_Graduation Project\04_Software\04_wangshi\03_UpdateSoftware-180625\02_UEUser\KL36_Update-180627\Debug/../05_SoftComponent/valueType/valueType.c:46
}
    ee6e:	1c18      	adds	r0, r3, #0
    ee70:	46bd      	mov	sp, r7
    ee72:	b013      	add	sp, #76	; 0x4c
    ee74:	bdf0      	pop	{r4, r5, r6, r7, pc}
    ee76:	46c0      	nop			; (mov r8, r8)
    ee78:	00000000 	.word	0x00000000
    ee7c:	40000000 	.word	0x40000000
    ee80:	0000f8f8 	.word	0x0000f8f8
$t():
    ee84:	46c0      	nop			; (mov r8, r8)
    ee86:	46c0      	nop			; (mov r8, r8)

0000ee88 <funPointerInit>:
funPointerInit():
E:\2017-2018\03_Graduation Project\04_Software\04_wangshi\03_UpdateSoftware-180625\02_UEUser\KL36_Update-180627\Debug/../05_SoftComponent/common/common.c:200
//
//
//bootloader
//======================================================================
void funPointerInit()
{
    ee88:	b580      	push	{r7, lr}
    ee8a:	b0c6      	sub	sp, #280	; 0x118
    ee8c:	af00      	add	r7, sp, #0
E:\2017-2018\03_Graduation Project\04_Software\04_wangshi\03_UpdateSoftware-180625\02_UEUser\KL36_Update-180627\Debug/../05_SoftComponent/common/common.c:206
	//1
	uint_8 *src;
	struct funInfo info;

	//2flash43
	src=(uint_8 *)(43*1024);
    ee8e:	23ac      	movs	r3, #172	; 0xac
    ee90:	021b      	lsls	r3, r3, #8
    ee92:	218a      	movs	r1, #138	; 0x8a
    ee94:	0049      	lsls	r1, r1, #1
    ee96:	19c9      	adds	r1, r1, r7
    ee98:	600b      	str	r3, [r1, #0]
E:\2017-2018\03_Graduation Project\04_Software\04_wangshi\03_UpdateSoftware-180625\02_UEUser\KL36_Update-180627\Debug/../05_SoftComponent/common/common.c:207
	memcpy((uint_8*)&info,src,sizeof(struct funInfo));
    ee9a:	4bfd      	ldr	r3, [pc, #1012]	; (f290 <funPointerInit+0x408>)
    ee9c:	218c      	movs	r1, #140	; 0x8c
    ee9e:	0049      	lsls	r1, r1, #1
    eea0:	19c9      	adds	r1, r1, r7
    eea2:	18ca      	adds	r2, r1, r3
    eea4:	218a      	movs	r1, #138	; 0x8a
    eea6:	0049      	lsls	r1, r1, #1
    eea8:	19c9      	adds	r1, r1, r7
    eeaa:	680b      	ldr	r3, [r1, #0]
    eeac:	1c11      	adds	r1, r2, #0
    eeae:	1c1a      	adds	r2, r3, #0
    eeb0:	238a      	movs	r3, #138	; 0x8a
    eeb2:	005b      	lsls	r3, r3, #1
    eeb4:	1c08      	adds	r0, r1, #0
    eeb6:	1c11      	adds	r1, r2, #0
    eeb8:	1c1a      	adds	r2, r3, #0
    eeba:	f000 fc71 	bl	f7a0 <memcpy>
E:\2017-2018\03_Graduation Project\04_Software\04_wangshi\03_UpdateSoftware-180625\02_UEUser\KL36_Update-180627\Debug/../05_SoftComponent/common/common.c:210
	//3
	//3.1bootloader
	systemTimeGet = (fun_systemTimeGet)info.fun_systemTimeGet;
    eebe:	4bf4      	ldr	r3, [pc, #976]	; (f290 <funPointerInit+0x408>)
    eec0:	228c      	movs	r2, #140	; 0x8c
    eec2:	0052      	lsls	r2, r2, #1
    eec4:	19d2      	adds	r2, r2, r7
    eec6:	18d3      	adds	r3, r2, r3
    eec8:	681b      	ldr	r3, [r3, #0]
    eeca:	1c1a      	adds	r2, r3, #0
    eecc:	4bf1      	ldr	r3, [pc, #964]	; (f294 <funPointerInit+0x40c>)
    eece:	601a      	str	r2, [r3, #0]
E:\2017-2018\03_Graduation Project\04_Software\04_wangshi\03_UpdateSoftware-180625\02_UEUser\KL36_Update-180627\Debug/../05_SoftComponent/common/common.c:212
	//3.2adc2
	adc_init = (fun_adc_init)info.fun_adc_init;
    eed0:	4bef      	ldr	r3, [pc, #956]	; (f290 <funPointerInit+0x408>)
    eed2:	218c      	movs	r1, #140	; 0x8c
    eed4:	0049      	lsls	r1, r1, #1
    eed6:	19c9      	adds	r1, r1, r7
    eed8:	18cb      	adds	r3, r1, r3
    eeda:	685b      	ldr	r3, [r3, #4]
    eedc:	1c1a      	adds	r2, r3, #0
    eede:	4bee      	ldr	r3, [pc, #952]	; (f298 <funPointerInit+0x410>)
    eee0:	601a      	str	r2, [r3, #0]
E:\2017-2018\03_Graduation Project\04_Software\04_wangshi\03_UpdateSoftware-180625\02_UEUser\KL36_Update-180627\Debug/../05_SoftComponent/common/common.c:213
	adc_read = (fun_adc_read)info.fun_adc_read;
    eee2:	4beb      	ldr	r3, [pc, #940]	; (f290 <funPointerInit+0x408>)
    eee4:	228c      	movs	r2, #140	; 0x8c
    eee6:	0052      	lsls	r2, r2, #1
    eee8:	19d2      	adds	r2, r2, r7
    eeea:	18d3      	adds	r3, r2, r3
    eeec:	689b      	ldr	r3, [r3, #8]
    eeee:	1c1a      	adds	r2, r3, #0
    eef0:	4bea      	ldr	r3, [pc, #936]	; (f29c <funPointerInit+0x414>)
    eef2:	601a      	str	r2, [r3, #0]
E:\2017-2018\03_Graduation Project\04_Software\04_wangshi\03_UpdateSoftware-180625\02_UEUser\KL36_Update-180627\Debug/../05_SoftComponent/common/common.c:215
	//3.3flash7
	flash_init = (fun_flash_init)info.fun_flash_init;
    eef4:	4be6      	ldr	r3, [pc, #920]	; (f290 <funPointerInit+0x408>)
    eef6:	218c      	movs	r1, #140	; 0x8c
    eef8:	0049      	lsls	r1, r1, #1
    eefa:	19c9      	adds	r1, r1, r7
    eefc:	18cb      	adds	r3, r1, r3
    eefe:	68db      	ldr	r3, [r3, #12]
    ef00:	1c1a      	adds	r2, r3, #0
    ef02:	4be7      	ldr	r3, [pc, #924]	; (f2a0 <funPointerInit+0x418>)
    ef04:	601a      	str	r2, [r3, #0]
E:\2017-2018\03_Graduation Project\04_Software\04_wangshi\03_UpdateSoftware-180625\02_UEUser\KL36_Update-180627\Debug/../05_SoftComponent/common/common.c:216
	flash_erase = (fun_flash_erase)info.fun_flash_erase;
    ef06:	4be2      	ldr	r3, [pc, #904]	; (f290 <funPointerInit+0x408>)
    ef08:	228c      	movs	r2, #140	; 0x8c
    ef0a:	0052      	lsls	r2, r2, #1
    ef0c:	19d2      	adds	r2, r2, r7
    ef0e:	18d3      	adds	r3, r2, r3
    ef10:	691b      	ldr	r3, [r3, #16]
    ef12:	1c1a      	adds	r2, r3, #0
    ef14:	4be3      	ldr	r3, [pc, #908]	; (f2a4 <funPointerInit+0x41c>)
    ef16:	601a      	str	r2, [r3, #0]
E:\2017-2018\03_Graduation Project\04_Software\04_wangshi\03_UpdateSoftware-180625\02_UEUser\KL36_Update-180627\Debug/../05_SoftComponent/common/common.c:217
	flash_write = (fun_flash_write)info.fun_flash_write;
    ef18:	4bdd      	ldr	r3, [pc, #884]	; (f290 <funPointerInit+0x408>)
    ef1a:	218c      	movs	r1, #140	; 0x8c
    ef1c:	0049      	lsls	r1, r1, #1
    ef1e:	19c9      	adds	r1, r1, r7
    ef20:	18cb      	adds	r3, r1, r3
    ef22:	695b      	ldr	r3, [r3, #20]
    ef24:	1c1a      	adds	r2, r3, #0
    ef26:	4be0      	ldr	r3, [pc, #896]	; (f2a8 <funPointerInit+0x420>)
    ef28:	601a      	str	r2, [r3, #0]
E:\2017-2018\03_Graduation Project\04_Software\04_wangshi\03_UpdateSoftware-180625\02_UEUser\KL36_Update-180627\Debug/../05_SoftComponent/common/common.c:218
	flash_read_logic = (fun_flash_read_logic)info.fun_flash_read_logic;
    ef2a:	4bd9      	ldr	r3, [pc, #868]	; (f290 <funPointerInit+0x408>)
    ef2c:	228c      	movs	r2, #140	; 0x8c
    ef2e:	0052      	lsls	r2, r2, #1
    ef30:	19d2      	adds	r2, r2, r7
    ef32:	18d3      	adds	r3, r2, r3
    ef34:	699b      	ldr	r3, [r3, #24]
    ef36:	1c1a      	adds	r2, r3, #0
    ef38:	4bdc      	ldr	r3, [pc, #880]	; (f2ac <funPointerInit+0x424>)
    ef3a:	601a      	str	r2, [r3, #0]
E:\2017-2018\03_Graduation Project\04_Software\04_wangshi\03_UpdateSoftware-180625\02_UEUser\KL36_Update-180627\Debug/../05_SoftComponent/common/common.c:219
	flash_read_physical = (fun_flash_read_physical)info.fun_flash_read_physical;
    ef3c:	4bd4      	ldr	r3, [pc, #848]	; (f290 <funPointerInit+0x408>)
    ef3e:	218c      	movs	r1, #140	; 0x8c
    ef40:	0049      	lsls	r1, r1, #1
    ef42:	19c9      	adds	r1, r1, r7
    ef44:	18cb      	adds	r3, r1, r3
    ef46:	69db      	ldr	r3, [r3, #28]
    ef48:	1c1a      	adds	r2, r3, #0
    ef4a:	4bd9      	ldr	r3, [pc, #868]	; (f2b0 <funPointerInit+0x428>)
    ef4c:	601a      	str	r2, [r3, #0]
E:\2017-2018\03_Graduation Project\04_Software\04_wangshi\03_UpdateSoftware-180625\02_UEUser\KL36_Update-180627\Debug/../05_SoftComponent/common/common.c:220
	flash_protect = (fun_flash_protect)info.fun_flash_protect;
    ef4e:	4bd0      	ldr	r3, [pc, #832]	; (f290 <funPointerInit+0x408>)
    ef50:	228c      	movs	r2, #140	; 0x8c
    ef52:	0052      	lsls	r2, r2, #1
    ef54:	19d2      	adds	r2, r2, r7
    ef56:	18d3      	adds	r3, r2, r3
    ef58:	6a1b      	ldr	r3, [r3, #32]
    ef5a:	1c1a      	adds	r2, r3, #0
    ef5c:	4bd5      	ldr	r3, [pc, #852]	; (f2b4 <funPointerInit+0x42c>)
    ef5e:	601a      	str	r2, [r3, #0]
E:\2017-2018\03_Graduation Project\04_Software\04_wangshi\03_UpdateSoftware-180625\02_UEUser\KL36_Update-180627\Debug/../05_SoftComponent/common/common.c:221
	flash_isempty = (fun_flash_isempty)info.fun_flash_isempty;
    ef60:	4bcb      	ldr	r3, [pc, #812]	; (f290 <funPointerInit+0x408>)
    ef62:	218c      	movs	r1, #140	; 0x8c
    ef64:	0049      	lsls	r1, r1, #1
    ef66:	19c9      	adds	r1, r1, r7
    ef68:	18cb      	adds	r3, r1, r3
    ef6a:	6a5b      	ldr	r3, [r3, #36]	; 0x24
    ef6c:	1c1a      	adds	r2, r3, #0
    ef6e:	4bd2      	ldr	r3, [pc, #840]	; (f2b8 <funPointerInit+0x430>)
    ef70:	601a      	str	r2, [r3, #0]
E:\2017-2018\03_Graduation Project\04_Software\04_wangshi\03_UpdateSoftware-180625\02_UEUser\KL36_Update-180627\Debug/../05_SoftComponent/common/common.c:223
	//3.4gpio11
	gpio_init = (fun_gpio_init)info.fun_gpio_init;
    ef72:	4bc7      	ldr	r3, [pc, #796]	; (f290 <funPointerInit+0x408>)
    ef74:	228c      	movs	r2, #140	; 0x8c
    ef76:	0052      	lsls	r2, r2, #1
    ef78:	19d2      	adds	r2, r2, r7
    ef7a:	18d3      	adds	r3, r2, r3
    ef7c:	6a9b      	ldr	r3, [r3, #40]	; 0x28
    ef7e:	1c1a      	adds	r2, r3, #0
    ef80:	4bce      	ldr	r3, [pc, #824]	; (f2bc <funPointerInit+0x434>)
    ef82:	601a      	str	r2, [r3, #0]
E:\2017-2018\03_Graduation Project\04_Software\04_wangshi\03_UpdateSoftware-180625\02_UEUser\KL36_Update-180627\Debug/../05_SoftComponent/common/common.c:224
	gpio_set = (fun_gpio_set)info.fun_gpio_set;
    ef84:	4bc2      	ldr	r3, [pc, #776]	; (f290 <funPointerInit+0x408>)
    ef86:	218c      	movs	r1, #140	; 0x8c
    ef88:	0049      	lsls	r1, r1, #1
    ef8a:	19c9      	adds	r1, r1, r7
    ef8c:	18cb      	adds	r3, r1, r3
    ef8e:	6adb      	ldr	r3, [r3, #44]	; 0x2c
    ef90:	1c1a      	adds	r2, r3, #0
    ef92:	4bcb      	ldr	r3, [pc, #812]	; (f2c0 <funPointerInit+0x438>)
    ef94:	601a      	str	r2, [r3, #0]
E:\2017-2018\03_Graduation Project\04_Software\04_wangshi\03_UpdateSoftware-180625\02_UEUser\KL36_Update-180627\Debug/../05_SoftComponent/common/common.c:225
	gpio_get = (fun_gpio_get)info.fun_gpio_get;
    ef96:	4bbe      	ldr	r3, [pc, #760]	; (f290 <funPointerInit+0x408>)
    ef98:	228c      	movs	r2, #140	; 0x8c
    ef9a:	0052      	lsls	r2, r2, #1
    ef9c:	19d2      	adds	r2, r2, r7
    ef9e:	18d3      	adds	r3, r2, r3
    efa0:	6b1b      	ldr	r3, [r3, #48]	; 0x30
    efa2:	1c1a      	adds	r2, r3, #0
    efa4:	4bc7      	ldr	r3, [pc, #796]	; (f2c4 <funPointerInit+0x43c>)
    efa6:	601a      	str	r2, [r3, #0]
E:\2017-2018\03_Graduation Project\04_Software\04_wangshi\03_UpdateSoftware-180625\02_UEUser\KL36_Update-180627\Debug/../05_SoftComponent/common/common.c:226
	gpio_reverse = (fun_gpio_reverse)info.fun_gpio_reverse;
    efa8:	4bb9      	ldr	r3, [pc, #740]	; (f290 <funPointerInit+0x408>)
    efaa:	218c      	movs	r1, #140	; 0x8c
    efac:	0049      	lsls	r1, r1, #1
    efae:	19c9      	adds	r1, r1, r7
    efb0:	18cb      	adds	r3, r1, r3
    efb2:	6b5b      	ldr	r3, [r3, #52]	; 0x34
    efb4:	1c1a      	adds	r2, r3, #0
    efb6:	4bc4      	ldr	r3, [pc, #784]	; (f2c8 <funPointerInit+0x440>)
    efb8:	601a      	str	r2, [r3, #0]
E:\2017-2018\03_Graduation Project\04_Software\04_wangshi\03_UpdateSoftware-180625\02_UEUser\KL36_Update-180627\Debug/../05_SoftComponent/common/common.c:227
	gpio_pull = (fun_gpio_pull)info.fun_gpio_pull;
    efba:	4bb5      	ldr	r3, [pc, #724]	; (f290 <funPointerInit+0x408>)
    efbc:	228c      	movs	r2, #140	; 0x8c
    efbe:	0052      	lsls	r2, r2, #1
    efc0:	19d2      	adds	r2, r2, r7
    efc2:	18d3      	adds	r3, r2, r3
    efc4:	6b9b      	ldr	r3, [r3, #56]	; 0x38
    efc6:	1c1a      	adds	r2, r3, #0
    efc8:	4bc0      	ldr	r3, [pc, #768]	; (f2cc <funPointerInit+0x444>)
    efca:	601a      	str	r2, [r3, #0]
E:\2017-2018\03_Graduation Project\04_Software\04_wangshi\03_UpdateSoftware-180625\02_UEUser\KL36_Update-180627\Debug/../05_SoftComponent/common/common.c:228
	gpio_enable_int = (fun_gpio_enable_int)info.fun_gpio_enable_int;
    efcc:	4bb0      	ldr	r3, [pc, #704]	; (f290 <funPointerInit+0x408>)
    efce:	218c      	movs	r1, #140	; 0x8c
    efd0:	0049      	lsls	r1, r1, #1
    efd2:	19c9      	adds	r1, r1, r7
    efd4:	18cb      	adds	r3, r1, r3
    efd6:	6bdb      	ldr	r3, [r3, #60]	; 0x3c
    efd8:	1c1a      	adds	r2, r3, #0
    efda:	4bbd      	ldr	r3, [pc, #756]	; (f2d0 <funPointerInit+0x448>)
    efdc:	601a      	str	r2, [r3, #0]
E:\2017-2018\03_Graduation Project\04_Software\04_wangshi\03_UpdateSoftware-180625\02_UEUser\KL36_Update-180627\Debug/../05_SoftComponent/common/common.c:229
	gpio_disable_int = (fun_gpio_disable_int)info.fun_gpio_disable_int;
    efde:	4bac      	ldr	r3, [pc, #688]	; (f290 <funPointerInit+0x408>)
    efe0:	228c      	movs	r2, #140	; 0x8c
    efe2:	0052      	lsls	r2, r2, #1
    efe4:	19d2      	adds	r2, r2, r7
    efe6:	18d3      	adds	r3, r2, r3
    efe8:	6c1b      	ldr	r3, [r3, #64]	; 0x40
    efea:	1c1a      	adds	r2, r3, #0
    efec:	4bb9      	ldr	r3, [pc, #740]	; (f2d4 <funPointerInit+0x44c>)
    efee:	601a      	str	r2, [r3, #0]
E:\2017-2018\03_Graduation Project\04_Software\04_wangshi\03_UpdateSoftware-180625\02_UEUser\KL36_Update-180627\Debug/../05_SoftComponent/common/common.c:230
	gpio_get_int = (fun_gpio_get_int)info.fun_gpio_get_int;
    eff0:	4ba7      	ldr	r3, [pc, #668]	; (f290 <funPointerInit+0x408>)
    eff2:	218c      	movs	r1, #140	; 0x8c
    eff4:	0049      	lsls	r1, r1, #1
    eff6:	19c9      	adds	r1, r1, r7
    eff8:	18cb      	adds	r3, r1, r3
    effa:	6c5b      	ldr	r3, [r3, #68]	; 0x44
    effc:	1c1a      	adds	r2, r3, #0
    effe:	4bb6      	ldr	r3, [pc, #728]	; (f2d8 <funPointerInit+0x450>)
    f000:	601a      	str	r2, [r3, #0]
E:\2017-2018\03_Graduation Project\04_Software\04_wangshi\03_UpdateSoftware-180625\02_UEUser\KL36_Update-180627\Debug/../05_SoftComponent/common/common.c:231
	gpio_clear_int = (fun_gpio_clear_int)info.fun_gpio_clear_int;
    f002:	4ba3      	ldr	r3, [pc, #652]	; (f290 <funPointerInit+0x408>)
    f004:	228c      	movs	r2, #140	; 0x8c
    f006:	0052      	lsls	r2, r2, #1
    f008:	19d2      	adds	r2, r2, r7
    f00a:	18d3      	adds	r3, r2, r3
    f00c:	6c9b      	ldr	r3, [r3, #72]	; 0x48
    f00e:	1c1a      	adds	r2, r3, #0
    f010:	4bb2      	ldr	r3, [pc, #712]	; (f2dc <funPointerInit+0x454>)
    f012:	601a      	str	r2, [r3, #0]
E:\2017-2018\03_Graduation Project\04_Software\04_wangshi\03_UpdateSoftware-180625\02_UEUser\KL36_Update-180627\Debug/../05_SoftComponent/common/common.c:232
	gpio_clear_allint = (fun_gpio_clear_allint)info.fun_flash_erase;
    f014:	4b9e      	ldr	r3, [pc, #632]	; (f290 <funPointerInit+0x408>)
    f016:	218c      	movs	r1, #140	; 0x8c
    f018:	0049      	lsls	r1, r1, #1
    f01a:	19c9      	adds	r1, r1, r7
    f01c:	18cb      	adds	r3, r1, r3
    f01e:	691b      	ldr	r3, [r3, #16]
    f020:	1c1a      	adds	r2, r3, #0
    f022:	4baf      	ldr	r3, [pc, #700]	; (f2e0 <funPointerInit+0x458>)
    f024:	601a      	str	r2, [r3, #0]
E:\2017-2018\03_Graduation Project\04_Software\04_wangshi\03_UpdateSoftware-180625\02_UEUser\KL36_Update-180627\Debug/../05_SoftComponent/common/common.c:233
	gpio_drive_strength = (fun_gpio_drive_strength)info.fun_gpio_drive_strength;
    f026:	4b9a      	ldr	r3, [pc, #616]	; (f290 <funPointerInit+0x408>)
    f028:	228c      	movs	r2, #140	; 0x8c
    f02a:	0052      	lsls	r2, r2, #1
    f02c:	19d2      	adds	r2, r2, r7
    f02e:	18d3      	adds	r3, r2, r3
    f030:	6d1b      	ldr	r3, [r3, #80]	; 0x50
    f032:	1c1a      	adds	r2, r3, #0
    f034:	4bab      	ldr	r3, [pc, #684]	; (f2e4 <funPointerInit+0x45c>)
    f036:	601a      	str	r2, [r3, #0]
E:\2017-2018\03_Graduation Project\04_Software\04_wangshi\03_UpdateSoftware-180625\02_UEUser\KL36_Update-180627\Debug/../05_SoftComponent/common/common.c:235
	//3.5lptmr4
	lptmr_init = (fun_lptmr_init)info.fun_lptmr_init;
    f038:	4b95      	ldr	r3, [pc, #596]	; (f290 <funPointerInit+0x408>)
    f03a:	218c      	movs	r1, #140	; 0x8c
    f03c:	0049      	lsls	r1, r1, #1
    f03e:	19c9      	adds	r1, r1, r7
    f040:	18cb      	adds	r3, r1, r3
    f042:	6d5b      	ldr	r3, [r3, #84]	; 0x54
    f044:	1c1a      	adds	r2, r3, #0
    f046:	4ba8      	ldr	r3, [pc, #672]	; (f2e8 <funPointerInit+0x460>)
    f048:	601a      	str	r2, [r3, #0]
E:\2017-2018\03_Graduation Project\04_Software\04_wangshi\03_UpdateSoftware-180625\02_UEUser\KL36_Update-180627\Debug/../05_SoftComponent/common/common.c:236
	lptmr_reset = (fun_lptmr_reset)info.fun_lptmr_reset;
    f04a:	4b91      	ldr	r3, [pc, #580]	; (f290 <funPointerInit+0x408>)
    f04c:	228c      	movs	r2, #140	; 0x8c
    f04e:	0052      	lsls	r2, r2, #1
    f050:	19d2      	adds	r2, r2, r7
    f052:	18d3      	adds	r3, r2, r3
    f054:	6d9b      	ldr	r3, [r3, #88]	; 0x58
    f056:	1c1a      	adds	r2, r3, #0
    f058:	4ba4      	ldr	r3, [pc, #656]	; (f2ec <funPointerInit+0x464>)
    f05a:	601a      	str	r2, [r3, #0]
E:\2017-2018\03_Graduation Project\04_Software\04_wangshi\03_UpdateSoftware-180625\02_UEUser\KL36_Update-180627\Debug/../05_SoftComponent/common/common.c:237
	enable_lptmr_int = (fun_enable_lptmr_int)info.fun_enable_lptmr_int;
    f05c:	4b8c      	ldr	r3, [pc, #560]	; (f290 <funPointerInit+0x408>)
    f05e:	218c      	movs	r1, #140	; 0x8c
    f060:	0049      	lsls	r1, r1, #1
    f062:	19c9      	adds	r1, r1, r7
    f064:	18cb      	adds	r3, r1, r3
    f066:	6ddb      	ldr	r3, [r3, #92]	; 0x5c
    f068:	1c1a      	adds	r2, r3, #0
    f06a:	4ba1      	ldr	r3, [pc, #644]	; (f2f0 <funPointerInit+0x468>)
    f06c:	601a      	str	r2, [r3, #0]
E:\2017-2018\03_Graduation Project\04_Software\04_wangshi\03_UpdateSoftware-180625\02_UEUser\KL36_Update-180627\Debug/../05_SoftComponent/common/common.c:238
	disable_lptmr_int = (fun_disable_lptmr_int)info.fun_disable_lptmr_int;
    f06e:	4b88      	ldr	r3, [pc, #544]	; (f290 <funPointerInit+0x408>)
    f070:	228c      	movs	r2, #140	; 0x8c
    f072:	0052      	lsls	r2, r2, #1
    f074:	19d2      	adds	r2, r2, r7
    f076:	18d3      	adds	r3, r2, r3
    f078:	6e1b      	ldr	r3, [r3, #96]	; 0x60
    f07a:	1c1a      	adds	r2, r3, #0
    f07c:	4b9d      	ldr	r3, [pc, #628]	; (f2f4 <funPointerInit+0x46c>)
    f07e:	601a      	str	r2, [r3, #0]
E:\2017-2018\03_Graduation Project\04_Software\04_wangshi\03_UpdateSoftware-180625\02_UEUser\KL36_Update-180627\Debug/../05_SoftComponent/common/common.c:240
	//3.6spi7
	SPI_init = (fun_SPI_init)info.fun_SPI_init;
    f080:	4b83      	ldr	r3, [pc, #524]	; (f290 <funPointerInit+0x408>)
    f082:	218c      	movs	r1, #140	; 0x8c
    f084:	0049      	lsls	r1, r1, #1
    f086:	19c9      	adds	r1, r1, r7
    f088:	18cb      	adds	r3, r1, r3
    f08a:	6e5b      	ldr	r3, [r3, #100]	; 0x64
    f08c:	1c1a      	adds	r2, r3, #0
    f08e:	4b9a      	ldr	r3, [pc, #616]	; (f2f8 <funPointerInit+0x470>)
    f090:	601a      	str	r2, [r3, #0]
E:\2017-2018\03_Graduation Project\04_Software\04_wangshi\03_UpdateSoftware-180625\02_UEUser\KL36_Update-180627\Debug/../05_SoftComponent/common/common.c:241
	SPI_send1 = (fun_SPI_send1)info.fun_SPI_send1;
    f092:	4b7f      	ldr	r3, [pc, #508]	; (f290 <funPointerInit+0x408>)
    f094:	228c      	movs	r2, #140	; 0x8c
    f096:	0052      	lsls	r2, r2, #1
    f098:	19d2      	adds	r2, r2, r7
    f09a:	18d3      	adds	r3, r2, r3
    f09c:	6e9b      	ldr	r3, [r3, #104]	; 0x68
    f09e:	1c1a      	adds	r2, r3, #0
    f0a0:	4b96      	ldr	r3, [pc, #600]	; (f2fc <funPointerInit+0x474>)
    f0a2:	601a      	str	r2, [r3, #0]
E:\2017-2018\03_Graduation Project\04_Software\04_wangshi\03_UpdateSoftware-180625\02_UEUser\KL36_Update-180627\Debug/../05_SoftComponent/common/common.c:242
	SPI_sendN = (fun_SPI_sendN)info.fun_SPI_sendN;
    f0a4:	4b7a      	ldr	r3, [pc, #488]	; (f290 <funPointerInit+0x408>)
    f0a6:	218c      	movs	r1, #140	; 0x8c
    f0a8:	0049      	lsls	r1, r1, #1
    f0aa:	19c9      	adds	r1, r1, r7
    f0ac:	18cb      	adds	r3, r1, r3
    f0ae:	6edb      	ldr	r3, [r3, #108]	; 0x6c
    f0b0:	1c1a      	adds	r2, r3, #0
    f0b2:	4b93      	ldr	r3, [pc, #588]	; (f300 <funPointerInit+0x478>)
    f0b4:	601a      	str	r2, [r3, #0]
E:\2017-2018\03_Graduation Project\04_Software\04_wangshi\03_UpdateSoftware-180625\02_UEUser\KL36_Update-180627\Debug/../05_SoftComponent/common/common.c:243
	SPI_receive1 = (fun_SPI_receive1)info.fun_SPI_receive1;
    f0b6:	4b76      	ldr	r3, [pc, #472]	; (f290 <funPointerInit+0x408>)
    f0b8:	228c      	movs	r2, #140	; 0x8c
    f0ba:	0052      	lsls	r2, r2, #1
    f0bc:	19d2      	adds	r2, r2, r7
    f0be:	18d3      	adds	r3, r2, r3
    f0c0:	6f1b      	ldr	r3, [r3, #112]	; 0x70
    f0c2:	1c1a      	adds	r2, r3, #0
    f0c4:	4b8f      	ldr	r3, [pc, #572]	; (f304 <funPointerInit+0x47c>)
    f0c6:	601a      	str	r2, [r3, #0]
E:\2017-2018\03_Graduation Project\04_Software\04_wangshi\03_UpdateSoftware-180625\02_UEUser\KL36_Update-180627\Debug/../05_SoftComponent/common/common.c:244
	SPI_receiveN = (fun_SPI_receiveN)info.fun_SPI_receiveN;
    f0c8:	4b71      	ldr	r3, [pc, #452]	; (f290 <funPointerInit+0x408>)
    f0ca:	218c      	movs	r1, #140	; 0x8c
    f0cc:	0049      	lsls	r1, r1, #1
    f0ce:	19c9      	adds	r1, r1, r7
    f0d0:	18cb      	adds	r3, r1, r3
    f0d2:	6f5b      	ldr	r3, [r3, #116]	; 0x74
    f0d4:	1c1a      	adds	r2, r3, #0
    f0d6:	4b8c      	ldr	r3, [pc, #560]	; (f308 <funPointerInit+0x480>)
    f0d8:	601a      	str	r2, [r3, #0]
E:\2017-2018\03_Graduation Project\04_Software\04_wangshi\03_UpdateSoftware-180625\02_UEUser\KL36_Update-180627\Debug/../05_SoftComponent/common/common.c:245
	SPI_enable_re_int = (fun_SPI_enable_re_int)info.fun_SPI_enable_re_int;
    f0da:	4b6d      	ldr	r3, [pc, #436]	; (f290 <funPointerInit+0x408>)
    f0dc:	228c      	movs	r2, #140	; 0x8c
    f0de:	0052      	lsls	r2, r2, #1
    f0e0:	19d2      	adds	r2, r2, r7
    f0e2:	18d3      	adds	r3, r2, r3
    f0e4:	6f9b      	ldr	r3, [r3, #120]	; 0x78
    f0e6:	1c1a      	adds	r2, r3, #0
    f0e8:	4b88      	ldr	r3, [pc, #544]	; (f30c <funPointerInit+0x484>)
    f0ea:	601a      	str	r2, [r3, #0]
E:\2017-2018\03_Graduation Project\04_Software\04_wangshi\03_UpdateSoftware-180625\02_UEUser\KL36_Update-180627\Debug/../05_SoftComponent/common/common.c:246
	SPI_disable_re_int = (fun_SPI_disable_re_int)info.fun_SPI_disable_re_int;
    f0ec:	4b68      	ldr	r3, [pc, #416]	; (f290 <funPointerInit+0x408>)
    f0ee:	218c      	movs	r1, #140	; 0x8c
    f0f0:	0049      	lsls	r1, r1, #1
    f0f2:	19c9      	adds	r1, r1, r7
    f0f4:	18cb      	adds	r3, r1, r3
    f0f6:	6fdb      	ldr	r3, [r3, #124]	; 0x7c
    f0f8:	1c1a      	adds	r2, r3, #0
    f0fa:	4b85      	ldr	r3, [pc, #532]	; (f310 <funPointerInit+0x488>)
    f0fc:	601a      	str	r2, [r3, #0]
E:\2017-2018\03_Graduation Project\04_Software\04_wangshi\03_UpdateSoftware-180625\02_UEUser\KL36_Update-180627\Debug/../05_SoftComponent/common/common.c:248
	//3.7tsi6
	tsi_init = (fun_tsi_init)info.fun_tsi_init;
    f0fe:	4b64      	ldr	r3, [pc, #400]	; (f290 <funPointerInit+0x408>)
    f100:	218c      	movs	r1, #140	; 0x8c
    f102:	0049      	lsls	r1, r1, #1
    f104:	19c9      	adds	r1, r1, r7
    f106:	18ca      	adds	r2, r1, r3
    f108:	2380      	movs	r3, #128	; 0x80
    f10a:	58d3      	ldr	r3, [r2, r3]
    f10c:	1c1a      	adds	r2, r3, #0
    f10e:	4b81      	ldr	r3, [pc, #516]	; (f314 <funPointerInit+0x48c>)
    f110:	601a      	str	r2, [r3, #0]
E:\2017-2018\03_Graduation Project\04_Software\04_wangshi\03_UpdateSoftware-180625\02_UEUser\KL36_Update-180627\Debug/../05_SoftComponent/common/common.c:249
	tsi_get_value16 = (fun_tsi_get_value16)info.fun_tsi_get_value16;
    f112:	4b5f      	ldr	r3, [pc, #380]	; (f290 <funPointerInit+0x408>)
    f114:	218c      	movs	r1, #140	; 0x8c
    f116:	0049      	lsls	r1, r1, #1
    f118:	19c9      	adds	r1, r1, r7
    f11a:	18ca      	adds	r2, r1, r3
    f11c:	2384      	movs	r3, #132	; 0x84
    f11e:	58d3      	ldr	r3, [r2, r3]
    f120:	1c1a      	adds	r2, r3, #0
    f122:	4b7d      	ldr	r3, [pc, #500]	; (f318 <funPointerInit+0x490>)
    f124:	601a      	str	r2, [r3, #0]
E:\2017-2018\03_Graduation Project\04_Software\04_wangshi\03_UpdateSoftware-180625\02_UEUser\KL36_Update-180627\Debug/../05_SoftComponent/common/common.c:250
	tsi_set_threshold = (fun_tsi_set_threshold)info.fun_tsi_set_threshold;
    f126:	4b5a      	ldr	r3, [pc, #360]	; (f290 <funPointerInit+0x408>)
    f128:	218c      	movs	r1, #140	; 0x8c
    f12a:	0049      	lsls	r1, r1, #1
    f12c:	19c9      	adds	r1, r1, r7
    f12e:	18ca      	adds	r2, r1, r3
    f130:	2388      	movs	r3, #136	; 0x88
    f132:	58d3      	ldr	r3, [r2, r3]
    f134:	1c1a      	adds	r2, r3, #0
    f136:	4b79      	ldr	r3, [pc, #484]	; (f31c <funPointerInit+0x494>)
    f138:	601a      	str	r2, [r3, #0]
E:\2017-2018\03_Graduation Project\04_Software\04_wangshi\03_UpdateSoftware-180625\02_UEUser\KL36_Update-180627\Debug/../05_SoftComponent/common/common.c:251
	tsi_enable_re_int = (fun_tsi_enable_re_int)info.fun_tsi_enable_re_int;
    f13a:	4b55      	ldr	r3, [pc, #340]	; (f290 <funPointerInit+0x408>)
    f13c:	218c      	movs	r1, #140	; 0x8c
    f13e:	0049      	lsls	r1, r1, #1
    f140:	19c9      	adds	r1, r1, r7
    f142:	18ca      	adds	r2, r1, r3
    f144:	238c      	movs	r3, #140	; 0x8c
    f146:	58d3      	ldr	r3, [r2, r3]
    f148:	1c1a      	adds	r2, r3, #0
    f14a:	4b75      	ldr	r3, [pc, #468]	; (f320 <funPointerInit+0x498>)
    f14c:	601a      	str	r2, [r3, #0]
E:\2017-2018\03_Graduation Project\04_Software\04_wangshi\03_UpdateSoftware-180625\02_UEUser\KL36_Update-180627\Debug/../05_SoftComponent/common/common.c:252
	tsi_disable_re_int = (fun_tsi_disable_re_int)info.fun_tsi_disable_re_int;
    f14e:	4b50      	ldr	r3, [pc, #320]	; (f290 <funPointerInit+0x408>)
    f150:	218c      	movs	r1, #140	; 0x8c
    f152:	0049      	lsls	r1, r1, #1
    f154:	19c9      	adds	r1, r1, r7
    f156:	18ca      	adds	r2, r1, r3
    f158:	2390      	movs	r3, #144	; 0x90
    f15a:	58d3      	ldr	r3, [r2, r3]
    f15c:	1c1a      	adds	r2, r3, #0
    f15e:	4b71      	ldr	r3, [pc, #452]	; (f324 <funPointerInit+0x49c>)
    f160:	601a      	str	r2, [r3, #0]
E:\2017-2018\03_Graduation Project\04_Software\04_wangshi\03_UpdateSoftware-180625\02_UEUser\KL36_Update-180627\Debug/../05_SoftComponent/common/common.c:253
	tsi_softsearch = (fun_tsi_softsearch)info.fun_tsi_softsearch;
    f162:	4b4b      	ldr	r3, [pc, #300]	; (f290 <funPointerInit+0x408>)
    f164:	218c      	movs	r1, #140	; 0x8c
    f166:	0049      	lsls	r1, r1, #1
    f168:	19c9      	adds	r1, r1, r7
    f16a:	18ca      	adds	r2, r1, r3
    f16c:	2394      	movs	r3, #148	; 0x94
    f16e:	58d3      	ldr	r3, [r2, r3]
    f170:	1c1a      	adds	r2, r3, #0
    f172:	4b6d      	ldr	r3, [pc, #436]	; (f328 <funPointerInit+0x4a0>)
    f174:	601a      	str	r2, [r3, #0]
E:\2017-2018\03_Graduation Project\04_Software\04_wangshi\03_UpdateSoftware-180625\02_UEUser\KL36_Update-180627\Debug/../05_SoftComponent/common/common.c:255
	//3.8uart10
	uart_init = (fun_uart_init)info.fun_uart_init;
    f176:	4b46      	ldr	r3, [pc, #280]	; (f290 <funPointerInit+0x408>)
    f178:	218c      	movs	r1, #140	; 0x8c
    f17a:	0049      	lsls	r1, r1, #1
    f17c:	19c9      	adds	r1, r1, r7
    f17e:	18ca      	adds	r2, r1, r3
    f180:	2398      	movs	r3, #152	; 0x98
    f182:	58d3      	ldr	r3, [r2, r3]
    f184:	1c1a      	adds	r2, r3, #0
    f186:	4b69      	ldr	r3, [pc, #420]	; (f32c <funPointerInit+0x4a4>)
    f188:	601a      	str	r2, [r3, #0]
E:\2017-2018\03_Graduation Project\04_Software\04_wangshi\03_UpdateSoftware-180625\02_UEUser\KL36_Update-180627\Debug/../05_SoftComponent/common/common.c:256
	uart_send1 = (fun_uart_send1)info.fun_uart_send1;
    f18a:	4b41      	ldr	r3, [pc, #260]	; (f290 <funPointerInit+0x408>)
    f18c:	218c      	movs	r1, #140	; 0x8c
    f18e:	0049      	lsls	r1, r1, #1
    f190:	19c9      	adds	r1, r1, r7
    f192:	18ca      	adds	r2, r1, r3
    f194:	239c      	movs	r3, #156	; 0x9c
    f196:	58d3      	ldr	r3, [r2, r3]
    f198:	1c1a      	adds	r2, r3, #0
    f19a:	4b65      	ldr	r3, [pc, #404]	; (f330 <funPointerInit+0x4a8>)
    f19c:	601a      	str	r2, [r3, #0]
E:\2017-2018\03_Graduation Project\04_Software\04_wangshi\03_UpdateSoftware-180625\02_UEUser\KL36_Update-180627\Debug/../05_SoftComponent/common/common.c:257
	uart_sendN = (fun_uart_sendN)info.fun_uart_sendN;
    f19e:	4b3c      	ldr	r3, [pc, #240]	; (f290 <funPointerInit+0x408>)
    f1a0:	218c      	movs	r1, #140	; 0x8c
    f1a2:	0049      	lsls	r1, r1, #1
    f1a4:	19c9      	adds	r1, r1, r7
    f1a6:	18ca      	adds	r2, r1, r3
    f1a8:	23a0      	movs	r3, #160	; 0xa0
    f1aa:	58d3      	ldr	r3, [r2, r3]
    f1ac:	1c1a      	adds	r2, r3, #0
    f1ae:	4b61      	ldr	r3, [pc, #388]	; (f334 <funPointerInit+0x4ac>)
    f1b0:	601a      	str	r2, [r3, #0]
E:\2017-2018\03_Graduation Project\04_Software\04_wangshi\03_UpdateSoftware-180625\02_UEUser\KL36_Update-180627\Debug/../05_SoftComponent/common/common.c:258
	uart_send_string = (fun_uart_send_string)info.fun_uart_send_string;
    f1b2:	4b37      	ldr	r3, [pc, #220]	; (f290 <funPointerInit+0x408>)
    f1b4:	218c      	movs	r1, #140	; 0x8c
    f1b6:	0049      	lsls	r1, r1, #1
    f1b8:	19c9      	adds	r1, r1, r7
    f1ba:	18ca      	adds	r2, r1, r3
    f1bc:	23a4      	movs	r3, #164	; 0xa4
    f1be:	58d3      	ldr	r3, [r2, r3]
    f1c0:	1c1a      	adds	r2, r3, #0
    f1c2:	4b5d      	ldr	r3, [pc, #372]	; (f338 <funPointerInit+0x4b0>)
    f1c4:	601a      	str	r2, [r3, #0]
E:\2017-2018\03_Graduation Project\04_Software\04_wangshi\03_UpdateSoftware-180625\02_UEUser\KL36_Update-180627\Debug/../05_SoftComponent/common/common.c:259
	uart_re1 = (fun_uart_re1)info.fun_uart_re1;
    f1c6:	4b32      	ldr	r3, [pc, #200]	; (f290 <funPointerInit+0x408>)
    f1c8:	218c      	movs	r1, #140	; 0x8c
    f1ca:	0049      	lsls	r1, r1, #1
    f1cc:	19c9      	adds	r1, r1, r7
    f1ce:	18ca      	adds	r2, r1, r3
    f1d0:	23a8      	movs	r3, #168	; 0xa8
    f1d2:	58d3      	ldr	r3, [r2, r3]
    f1d4:	1c1a      	adds	r2, r3, #0
    f1d6:	4b59      	ldr	r3, [pc, #356]	; (f33c <funPointerInit+0x4b4>)
    f1d8:	601a      	str	r2, [r3, #0]
E:\2017-2018\03_Graduation Project\04_Software\04_wangshi\03_UpdateSoftware-180625\02_UEUser\KL36_Update-180627\Debug/../05_SoftComponent/common/common.c:260
	uart_reN = (fun_uart_reN)info.fun_uart_reN;
    f1da:	4b2d      	ldr	r3, [pc, #180]	; (f290 <funPointerInit+0x408>)
    f1dc:	218c      	movs	r1, #140	; 0x8c
    f1de:	0049      	lsls	r1, r1, #1
    f1e0:	19c9      	adds	r1, r1, r7
    f1e2:	18ca      	adds	r2, r1, r3
    f1e4:	23ac      	movs	r3, #172	; 0xac
    f1e6:	58d3      	ldr	r3, [r2, r3]
    f1e8:	1c1a      	adds	r2, r3, #0
    f1ea:	4b55      	ldr	r3, [pc, #340]	; (f340 <funPointerInit+0x4b8>)
    f1ec:	601a      	str	r2, [r3, #0]
E:\2017-2018\03_Graduation Project\04_Software\04_wangshi\03_UpdateSoftware-180625\02_UEUser\KL36_Update-180627\Debug/../05_SoftComponent/common/common.c:261
	uart_enable_re_int = (fun_uart_enable_re_int)info.fun_uart_enable_re_int;
    f1ee:	4b28      	ldr	r3, [pc, #160]	; (f290 <funPointerInit+0x408>)
    f1f0:	218c      	movs	r1, #140	; 0x8c
    f1f2:	0049      	lsls	r1, r1, #1
    f1f4:	19c9      	adds	r1, r1, r7
    f1f6:	18ca      	adds	r2, r1, r3
    f1f8:	23b0      	movs	r3, #176	; 0xb0
    f1fa:	58d3      	ldr	r3, [r2, r3]
    f1fc:	1c1a      	adds	r2, r3, #0
    f1fe:	4b51      	ldr	r3, [pc, #324]	; (f344 <funPointerInit+0x4bc>)
    f200:	601a      	str	r2, [r3, #0]
E:\2017-2018\03_Graduation Project\04_Software\04_wangshi\03_UpdateSoftware-180625\02_UEUser\KL36_Update-180627\Debug/../05_SoftComponent/common/common.c:262
	uart_disable_re_int = (fun_uart_disable_re_int)info.fun_uart_disable_re_int;
    f202:	4b23      	ldr	r3, [pc, #140]	; (f290 <funPointerInit+0x408>)
    f204:	218c      	movs	r1, #140	; 0x8c
    f206:	0049      	lsls	r1, r1, #1
    f208:	19c9      	adds	r1, r1, r7
    f20a:	18ca      	adds	r2, r1, r3
    f20c:	23b4      	movs	r3, #180	; 0xb4
    f20e:	58d3      	ldr	r3, [r2, r3]
    f210:	1c1a      	adds	r2, r3, #0
    f212:	4b4d      	ldr	r3, [pc, #308]	; (f348 <funPointerInit+0x4c0>)
    f214:	601a      	str	r2, [r3, #0]
E:\2017-2018\03_Graduation Project\04_Software\04_wangshi\03_UpdateSoftware-180625\02_UEUser\KL36_Update-180627\Debug/../05_SoftComponent/common/common.c:263
	uart_get_re_int = (fun_uart_get_re_int)info.fun_uart_get_re_int;
    f216:	4b1e      	ldr	r3, [pc, #120]	; (f290 <funPointerInit+0x408>)
    f218:	218c      	movs	r1, #140	; 0x8c
    f21a:	0049      	lsls	r1, r1, #1
    f21c:	19c9      	adds	r1, r1, r7
    f21e:	18ca      	adds	r2, r1, r3
    f220:	23b8      	movs	r3, #184	; 0xb8
    f222:	58d3      	ldr	r3, [r2, r3]
    f224:	1c1a      	adds	r2, r3, #0
    f226:	4b49      	ldr	r3, [pc, #292]	; (f34c <funPointerInit+0x4c4>)
    f228:	601a      	str	r2, [r3, #0]
E:\2017-2018\03_Graduation Project\04_Software\04_wangshi\03_UpdateSoftware-180625\02_UEUser\KL36_Update-180627\Debug/../05_SoftComponent/common/common.c:264
	uart_deint = (fun_uart_deint)info.fun_uart_deint;
    f22a:	4b19      	ldr	r3, [pc, #100]	; (f290 <funPointerInit+0x408>)
    f22c:	218c      	movs	r1, #140	; 0x8c
    f22e:	0049      	lsls	r1, r1, #1
    f230:	19c9      	adds	r1, r1, r7
    f232:	18ca      	adds	r2, r1, r3
    f234:	23bc      	movs	r3, #188	; 0xbc
    f236:	58d3      	ldr	r3, [r2, r3]
    f238:	1c1a      	adds	r2, r3, #0
    f23a:	4b45      	ldr	r3, [pc, #276]	; (f350 <funPointerInit+0x4c8>)
    f23c:	601a      	str	r2, [r3, #0]
E:\2017-2018\03_Graduation Project\04_Software\04_wangshi\03_UpdateSoftware-180625\02_UEUser\KL36_Update-180627\Debug/../05_SoftComponent/common/common.c:266
   	//3.9uecom21
    uecom_init = (fun_uecom_init)info.fun_uecom_init;
    f23e:	4b14      	ldr	r3, [pc, #80]	; (f290 <funPointerInit+0x408>)
    f240:	218c      	movs	r1, #140	; 0x8c
    f242:	0049      	lsls	r1, r1, #1
    f244:	19c9      	adds	r1, r1, r7
    f246:	18ca      	adds	r2, r1, r3
    f248:	23c0      	movs	r3, #192	; 0xc0
    f24a:	58d3      	ldr	r3, [r2, r3]
    f24c:	1c1a      	adds	r2, r3, #0
    f24e:	4b41      	ldr	r3, [pc, #260]	; (f354 <funPointerInit+0x4cc>)
    f250:	601a      	str	r2, [r3, #0]
E:\2017-2018\03_Graduation Project\04_Software\04_wangshi\03_UpdateSoftware-180625\02_UEUser\KL36_Update-180627\Debug/../05_SoftComponent/common/common.c:267
    uecom_fast_init = (fun_uecom_fast_init)info.fun_uecom_fast_init;
    f252:	4b0f      	ldr	r3, [pc, #60]	; (f290 <funPointerInit+0x408>)
    f254:	218c      	movs	r1, #140	; 0x8c
    f256:	0049      	lsls	r1, r1, #1
    f258:	19c9      	adds	r1, r1, r7
    f25a:	18ca      	adds	r2, r1, r3
    f25c:	23c4      	movs	r3, #196	; 0xc4
    f25e:	58d3      	ldr	r3, [r2, r3]
    f260:	1c1a      	adds	r2, r3, #0
    f262:	4b3d      	ldr	r3, [pc, #244]	; (f358 <funPointerInit+0x4d0>)
    f264:	601a      	str	r2, [r3, #0]
E:\2017-2018\03_Graduation Project\04_Software\04_wangshi\03_UpdateSoftware-180625\02_UEUser\KL36_Update-180627\Debug/../05_SoftComponent/common/common.c:268
    uecom_deInit = (fun_uecom_deInit)info.fun_uecom_deInit;
    f266:	4b0a      	ldr	r3, [pc, #40]	; (f290 <funPointerInit+0x408>)
    f268:	218c      	movs	r1, #140	; 0x8c
    f26a:	0049      	lsls	r1, r1, #1
    f26c:	19c9      	adds	r1, r1, r7
    f26e:	18ca      	adds	r2, r1, r3
    f270:	23c8      	movs	r3, #200	; 0xc8
    f272:	58d3      	ldr	r3, [r2, r3]
    f274:	1c1a      	adds	r2, r3, #0
    f276:	4b39      	ldr	r3, [pc, #228]	; (f35c <funPointerInit+0x4d4>)
    f278:	601a      	str	r2, [r3, #0]
E:\2017-2018\03_Graduation Project\04_Software\04_wangshi\03_UpdateSoftware-180625\02_UEUser\KL36_Update-180627\Debug/../05_SoftComponent/common/common.c:269
    uecom_switch = (fun_uecom_switch)info.fun_uecom_switch;
    f27a:	4b05      	ldr	r3, [pc, #20]	; (f290 <funPointerInit+0x408>)
    f27c:	218c      	movs	r1, #140	; 0x8c
    f27e:	0049      	lsls	r1, r1, #1
    f280:	19c9      	adds	r1, r1, r7
    f282:	18ca      	adds	r2, r1, r3
    f284:	23cc      	movs	r3, #204	; 0xcc
    f286:	58d3      	ldr	r3, [r2, r3]
    f288:	1c1a      	adds	r2, r3, #0
    f28a:	4b35      	ldr	r3, [pc, #212]	; (f360 <funPointerInit+0x4d8>)
    f28c:	601a      	str	r2, [r3, #0]
    f28e:	e069      	b.n	f364 <funPointerInit+0x4dc>
    f290:	fffffee8 	.word	0xfffffee8
    f294:	1ffff95c 	.word	0x1ffff95c
    f298:	1ffff938 	.word	0x1ffff938
    f29c:	1ffff8d4 	.word	0x1ffff8d4
    f2a0:	1ffff8c4 	.word	0x1ffff8c4
    f2a4:	1ffff8bc 	.word	0x1ffff8bc
    f2a8:	1ffff888 	.word	0x1ffff888
    f2ac:	1ffff910 	.word	0x1ffff910
    f2b0:	1ffff890 	.word	0x1ffff890
    f2b4:	1ffff8b0 	.word	0x1ffff8b0
    f2b8:	1ffff944 	.word	0x1ffff944
    f2bc:	1ffff978 	.word	0x1ffff978
    f2c0:	1ffff964 	.word	0x1ffff964
    f2c4:	1ffff8f0 	.word	0x1ffff8f0
    f2c8:	1ffff96c 	.word	0x1ffff96c
    f2cc:	1ffff94c 	.word	0x1ffff94c
    f2d0:	1ffff948 	.word	0x1ffff948
    f2d4:	1ffff908 	.word	0x1ffff908
    f2d8:	1ffff88c 	.word	0x1ffff88c
    f2dc:	1ffff920 	.word	0x1ffff920
    f2e0:	1ffff8b4 	.word	0x1ffff8b4
    f2e4:	1ffff894 	.word	0x1ffff894
    f2e8:	1ffff900 	.word	0x1ffff900
    f2ec:	1ffff92c 	.word	0x1ffff92c
    f2f0:	1ffff8c8 	.word	0x1ffff8c8
    f2f4:	1ffff8a4 	.word	0x1ffff8a4
    f2f8:	1fffff6c 	.word	0x1fffff6c
    f2fc:	1fffff68 	.word	0x1fffff68
    f300:	1fffff58 	.word	0x1fffff58
    f304:	1fffff60 	.word	0x1fffff60
    f308:	1fffff64 	.word	0x1fffff64
    f30c:	1fffff70 	.word	0x1fffff70
    f310:	1fffff5c 	.word	0x1fffff5c
    f314:	1ffff940 	.word	0x1ffff940
    f318:	1ffff8ec 	.word	0x1ffff8ec
    f31c:	1ffff8b8 	.word	0x1ffff8b8
    f320:	1ffff928 	.word	0x1ffff928
    f324:	1ffff8fc 	.word	0x1ffff8fc
    f328:	1ffff8d0 	.word	0x1ffff8d0
    f32c:	1ffff8e8 	.word	0x1ffff8e8
    f330:	1ffff958 	.word	0x1ffff958
    f334:	1ffff8a0 	.word	0x1ffff8a0
    f338:	1ffff8e4 	.word	0x1ffff8e4
    f33c:	1ffff914 	.word	0x1ffff914
    f340:	1ffff8dc 	.word	0x1ffff8dc
    f344:	1ffff8a8 	.word	0x1ffff8a8
    f348:	1ffff8c0 	.word	0x1ffff8c0
    f34c:	1ffff8d8 	.word	0x1ffff8d8
    f350:	1ffff8f4 	.word	0x1ffff8f4
    f354:	1ffff974 	.word	0x1ffff974
    f358:	1ffff960 	.word	0x1ffff960
    f35c:	1ffff934 	.word	0x1ffff934
    f360:	1ffff950 	.word	0x1ffff950
E:\2017-2018\03_Graduation Project\04_Software\04_wangshi\03_UpdateSoftware-180625\02_UEUser\KL36_Update-180627\Debug/../05_SoftComponent/common/common.c:270
    uecom_send = (fun_uecom_send)info.fun_uecom_send;
    f364:	4b58      	ldr	r3, [pc, #352]	; (f4c8 <funPointerInit+0x640>)
    f366:	218c      	movs	r1, #140	; 0x8c
    f368:	0049      	lsls	r1, r1, #1
    f36a:	19c9      	adds	r1, r1, r7
    f36c:	18ca      	adds	r2, r1, r3
    f36e:	23d0      	movs	r3, #208	; 0xd0
    f370:	58d3      	ldr	r3, [r2, r3]
    f372:	1c1a      	adds	r2, r3, #0
    f374:	4b55      	ldr	r3, [pc, #340]	; (f4cc <funPointerInit+0x644>)
    f376:	601a      	str	r2, [r3, #0]
E:\2017-2018\03_Graduation Project\04_Software\04_wangshi\03_UpdateSoftware-180625\02_UEUser\KL36_Update-180627\Debug/../05_SoftComponent/common/common.c:271
    uecom_getIMEI = (fun_uecom_getIMEI)info.fun_uecom_getIMEI;
    f378:	4b53      	ldr	r3, [pc, #332]	; (f4c8 <funPointerInit+0x640>)
    f37a:	218c      	movs	r1, #140	; 0x8c
    f37c:	0049      	lsls	r1, r1, #1
    f37e:	19c9      	adds	r1, r1, r7
    f380:	18ca      	adds	r2, r1, r3
    f382:	23d4      	movs	r3, #212	; 0xd4
    f384:	58d3      	ldr	r3, [r2, r3]
    f386:	1c1a      	adds	r2, r3, #0
    f388:	4b51      	ldr	r3, [pc, #324]	; (f4d0 <funPointerInit+0x648>)
    f38a:	601a      	str	r2, [r3, #0]
E:\2017-2018\03_Graduation Project\04_Software\04_wangshi\03_UpdateSoftware-180625\02_UEUser\KL36_Update-180627\Debug/../05_SoftComponent/common/common.c:272
    uecom_getIMSI = (fun_uecom_getIMSI)info.fun_uecom_getIMSI;
    f38c:	4b4e      	ldr	r3, [pc, #312]	; (f4c8 <funPointerInit+0x640>)
    f38e:	218c      	movs	r1, #140	; 0x8c
    f390:	0049      	lsls	r1, r1, #1
    f392:	19c9      	adds	r1, r1, r7
    f394:	18ca      	adds	r2, r1, r3
    f396:	23d8      	movs	r3, #216	; 0xd8
    f398:	58d3      	ldr	r3, [r2, r3]
    f39a:	1c1a      	adds	r2, r3, #0
    f39c:	4b4d      	ldr	r3, [pc, #308]	; (f4d4 <funPointerInit+0x64c>)
    f39e:	601a      	str	r2, [r3, #0]
E:\2017-2018\03_Graduation Project\04_Software\04_wangshi\03_UpdateSoftware-180625\02_UEUser\KL36_Update-180627\Debug/../05_SoftComponent/common/common.c:273
    uecom_getFirmVer = (fun_uecom_getFirmVer)info.fun_uecom_getFirmVer;
    f3a0:	4b49      	ldr	r3, [pc, #292]	; (f4c8 <funPointerInit+0x640>)
    f3a2:	218c      	movs	r1, #140	; 0x8c
    f3a4:	0049      	lsls	r1, r1, #1
    f3a6:	19c9      	adds	r1, r1, r7
    f3a8:	18ca      	adds	r2, r1, r3
    f3aa:	23dc      	movs	r3, #220	; 0xdc
    f3ac:	58d3      	ldr	r3, [r2, r3]
    f3ae:	1c1a      	adds	r2, r3, #0
    f3b0:	4b49      	ldr	r3, [pc, #292]	; (f4d8 <funPointerInit+0x650>)
    f3b2:	601a      	str	r2, [r3, #0]
E:\2017-2018\03_Graduation Project\04_Software\04_wangshi\03_UpdateSoftware-180625\02_UEUser\KL36_Update-180627\Debug/../05_SoftComponent/common/common.c:274
    uecom_getSignalPower = (fun_uecom_getSignalPower)info.fun_uecom_getSignalPower;
    f3b4:	4b44      	ldr	r3, [pc, #272]	; (f4c8 <funPointerInit+0x640>)
    f3b6:	218c      	movs	r1, #140	; 0x8c
    f3b8:	0049      	lsls	r1, r1, #1
    f3ba:	19c9      	adds	r1, r1, r7
    f3bc:	18ca      	adds	r2, r1, r3
    f3be:	23e0      	movs	r3, #224	; 0xe0
    f3c0:	58d3      	ldr	r3, [r2, r3]
    f3c2:	1c1a      	adds	r2, r3, #0
    f3c4:	4b45      	ldr	r3, [pc, #276]	; (f4dc <funPointerInit+0x654>)
    f3c6:	601a      	str	r2, [r3, #0]
E:\2017-2018\03_Graduation Project\04_Software\04_wangshi\03_UpdateSoftware-180625\02_UEUser\KL36_Update-180627\Debug/../05_SoftComponent/common/common.c:275
    uecom_getBSNum = (fun_uecom_getBSNum)info.fun_uecom_getBSNum;
    f3c8:	4b3f      	ldr	r3, [pc, #252]	; (f4c8 <funPointerInit+0x640>)
    f3ca:	218c      	movs	r1, #140	; 0x8c
    f3cc:	0049      	lsls	r1, r1, #1
    f3ce:	19c9      	adds	r1, r1, r7
    f3d0:	18ca      	adds	r2, r1, r3
    f3d2:	23e4      	movs	r3, #228	; 0xe4
    f3d4:	58d3      	ldr	r3, [r2, r3]
    f3d6:	1c1a      	adds	r2, r3, #0
    f3d8:	4b41      	ldr	r3, [pc, #260]	; (f4e0 <funPointerInit+0x658>)
    f3da:	601a      	str	r2, [r3, #0]
E:\2017-2018\03_Graduation Project\04_Software\04_wangshi\03_UpdateSoftware-180625\02_UEUser\KL36_Update-180627\Debug/../05_SoftComponent/common/common.c:276
    uecom_getUEIP = (fun_uecom_getUEIP)info.fun_uecom_getUEIP;
    f3dc:	4b3a      	ldr	r3, [pc, #232]	; (f4c8 <funPointerInit+0x640>)
    f3de:	218c      	movs	r1, #140	; 0x8c
    f3e0:	0049      	lsls	r1, r1, #1
    f3e2:	19c9      	adds	r1, r1, r7
    f3e4:	18ca      	adds	r2, r1, r3
    f3e6:	23e8      	movs	r3, #232	; 0xe8
    f3e8:	58d3      	ldr	r3, [r2, r3]
    f3ea:	1c1a      	adds	r2, r3, #0
    f3ec:	4b3d      	ldr	r3, [pc, #244]	; (f4e4 <funPointerInit+0x65c>)
    f3ee:	601a      	str	r2, [r3, #0]
E:\2017-2018\03_Graduation Project\04_Software\04_wangshi\03_UpdateSoftware-180625\02_UEUser\KL36_Update-180627\Debug/../05_SoftComponent/common/common.c:277
    uecom_config = (fun_uecom_config)info.fun_uecom_config;
    f3f0:	4b35      	ldr	r3, [pc, #212]	; (f4c8 <funPointerInit+0x640>)
    f3f2:	218c      	movs	r1, #140	; 0x8c
    f3f4:	0049      	lsls	r1, r1, #1
    f3f6:	19c9      	adds	r1, r1, r7
    f3f8:	18ca      	adds	r2, r1, r3
    f3fa:	23ec      	movs	r3, #236	; 0xec
    f3fc:	58d3      	ldr	r3, [r2, r3]
    f3fe:	1c1a      	adds	r2, r3, #0
    f400:	4b39      	ldr	r3, [pc, #228]	; (f4e8 <funPointerInit+0x660>)
    f402:	601a      	str	r2, [r3, #0]
E:\2017-2018\03_Graduation Project\04_Software\04_wangshi\03_UpdateSoftware-180625\02_UEUser\KL36_Update-180627\Debug/../05_SoftComponent/common/common.c:278
    uecom_getCurCommunity = (fun_uecom_getCurCommunity)info.fun_uecom_getCurCommunity;
    f404:	4b30      	ldr	r3, [pc, #192]	; (f4c8 <funPointerInit+0x640>)
    f406:	218c      	movs	r1, #140	; 0x8c
    f408:	0049      	lsls	r1, r1, #1
    f40a:	19c9      	adds	r1, r1, r7
    f40c:	18ca      	adds	r2, r1, r3
    f40e:	23f0      	movs	r3, #240	; 0xf0
    f410:	58d3      	ldr	r3, [r2, r3]
    f412:	1c1a      	adds	r2, r3, #0
    f414:	4b35      	ldr	r3, [pc, #212]	; (f4ec <funPointerInit+0x664>)
    f416:	601a      	str	r2, [r3, #0]
E:\2017-2018\03_Graduation Project\04_Software\04_wangshi\03_UpdateSoftware-180625\02_UEUser\KL36_Update-180627\Debug/../05_SoftComponent/common/common.c:279
    http_get = (fun_http_get)info.fun_http_get;
    f418:	4b2b      	ldr	r3, [pc, #172]	; (f4c8 <funPointerInit+0x640>)
    f41a:	218c      	movs	r1, #140	; 0x8c
    f41c:	0049      	lsls	r1, r1, #1
    f41e:	19c9      	adds	r1, r1, r7
    f420:	18ca      	adds	r2, r1, r3
    f422:	23f4      	movs	r3, #244	; 0xf4
    f424:	58d3      	ldr	r3, [r2, r3]
    f426:	1c1a      	adds	r2, r3, #0
    f428:	4b31      	ldr	r3, [pc, #196]	; (f4f0 <funPointerInit+0x668>)
    f42a:	601a      	str	r2, [r3, #0]
E:\2017-2018\03_Graduation Project\04_Software\04_wangshi\03_UpdateSoftware-180625\02_UEUser\KL36_Update-180627\Debug/../05_SoftComponent/common/common.c:280
    uecom_interrupt = (fun_uecom_interrupt)info.fun_uecom_interrupt;
    f42c:	4b26      	ldr	r3, [pc, #152]	; (f4c8 <funPointerInit+0x640>)
    f42e:	218c      	movs	r1, #140	; 0x8c
    f430:	0049      	lsls	r1, r1, #1
    f432:	19c9      	adds	r1, r1, r7
    f434:	18ca      	adds	r2, r1, r3
    f436:	23f8      	movs	r3, #248	; 0xf8
    f438:	58d3      	ldr	r3, [r2, r3]
    f43a:	1c1a      	adds	r2, r3, #0
    f43c:	4b2d      	ldr	r3, [pc, #180]	; (f4f4 <funPointerInit+0x66c>)
    f43e:	601a      	str	r2, [r3, #0]
E:\2017-2018\03_Graduation Project\04_Software\04_wangshi\03_UpdateSoftware-180625\02_UEUser\KL36_Update-180627\Debug/../05_SoftComponent/common/common.c:281
    uecom_default_delay_ms = (fun_uecom_default_delay_ms)info.fun_uecom_default_delay_ms;
    f440:	4b21      	ldr	r3, [pc, #132]	; (f4c8 <funPointerInit+0x640>)
    f442:	218c      	movs	r1, #140	; 0x8c
    f444:	0049      	lsls	r1, r1, #1
    f446:	19c9      	adds	r1, r1, r7
    f448:	18ca      	adds	r2, r1, r3
    f44a:	23fc      	movs	r3, #252	; 0xfc
    f44c:	58d3      	ldr	r3, [r2, r3]
    f44e:	1c1a      	adds	r2, r3, #0
    f450:	4b29      	ldr	r3, [pc, #164]	; (f4f8 <funPointerInit+0x670>)
    f452:	601a      	str	r2, [r3, #0]
E:\2017-2018\03_Graduation Project\04_Software\04_wangshi\03_UpdateSoftware-180625\02_UEUser\KL36_Update-180627\Debug/../05_SoftComponent/common/common.c:282
    gnss_init = (fun_gnss_init)info.fun_gnss_init;
    f454:	4b1c      	ldr	r3, [pc, #112]	; (f4c8 <funPointerInit+0x640>)
    f456:	218c      	movs	r1, #140	; 0x8c
    f458:	0049      	lsls	r1, r1, #1
    f45a:	19c9      	adds	r1, r1, r7
    f45c:	18ca      	adds	r2, r1, r3
    f45e:	2380      	movs	r3, #128	; 0x80
    f460:	005b      	lsls	r3, r3, #1
    f462:	58d3      	ldr	r3, [r2, r3]
    f464:	1c1a      	adds	r2, r3, #0
    f466:	4b25      	ldr	r3, [pc, #148]	; (f4fc <funPointerInit+0x674>)
    f468:	601a      	str	r2, [r3, #0]
E:\2017-2018\03_Graduation Project\04_Software\04_wangshi\03_UpdateSoftware-180625\02_UEUser\KL36_Update-180627\Debug/../05_SoftComponent/common/common.c:283
    gnss_get_time = (fun_gnss_get_time)info.fun_gnss_get_time;
    f46a:	4b17      	ldr	r3, [pc, #92]	; (f4c8 <funPointerInit+0x640>)
    f46c:	218c      	movs	r1, #140	; 0x8c
    f46e:	0049      	lsls	r1, r1, #1
    f470:	19c9      	adds	r1, r1, r7
    f472:	18ca      	adds	r2, r1, r3
    f474:	2382      	movs	r3, #130	; 0x82
    f476:	005b      	lsls	r3, r3, #1
    f478:	58d3      	ldr	r3, [r2, r3]
    f47a:	1c1a      	adds	r2, r3, #0
    f47c:	4b20      	ldr	r3, [pc, #128]	; (f500 <funPointerInit+0x678>)
    f47e:	601a      	str	r2, [r3, #0]
E:\2017-2018\03_Graduation Project\04_Software\04_wangshi\03_UpdateSoftware-180625\02_UEUser\KL36_Update-180627\Debug/../05_SoftComponent/common/common.c:284
    gnss_get_speed = (fun_gnss_get_speed)info.fun_gnss_get_speed;
    f480:	4b11      	ldr	r3, [pc, #68]	; (f4c8 <funPointerInit+0x640>)
    f482:	218c      	movs	r1, #140	; 0x8c
    f484:	0049      	lsls	r1, r1, #1
    f486:	19c9      	adds	r1, r1, r7
    f488:	18ca      	adds	r2, r1, r3
    f48a:	2384      	movs	r3, #132	; 0x84
    f48c:	005b      	lsls	r3, r3, #1
    f48e:	58d3      	ldr	r3, [r2, r3]
    f490:	1c1a      	adds	r2, r3, #0
    f492:	4b1c      	ldr	r3, [pc, #112]	; (f504 <funPointerInit+0x67c>)
    f494:	601a      	str	r2, [r3, #0]
E:\2017-2018\03_Graduation Project\04_Software\04_wangshi\03_UpdateSoftware-180625\02_UEUser\KL36_Update-180627\Debug/../05_SoftComponent/common/common.c:285
    gnss_get_location = (fun_gnss_get_location)info.fun_gnss_get_location;
    f496:	4b0c      	ldr	r3, [pc, #48]	; (f4c8 <funPointerInit+0x640>)
    f498:	218c      	movs	r1, #140	; 0x8c
    f49a:	0049      	lsls	r1, r1, #1
    f49c:	19c9      	adds	r1, r1, r7
    f49e:	18ca      	adds	r2, r1, r3
    f4a0:	2386      	movs	r3, #134	; 0x86
    f4a2:	005b      	lsls	r3, r3, #1
    f4a4:	58d3      	ldr	r3, [r2, r3]
    f4a6:	1c1a      	adds	r2, r3, #0
    f4a8:	4b17      	ldr	r3, [pc, #92]	; (f508 <funPointerInit+0x680>)
    f4aa:	601a      	str	r2, [r3, #0]
E:\2017-2018\03_Graduation Project\04_Software\04_wangshi\03_UpdateSoftware-180625\02_UEUser\KL36_Update-180627\Debug/../05_SoftComponent/common/common.c:286
    gnss_get_attitude = (fun_gnss_get_attitude)info.fun_gnss_get_attitude;
    f4ac:	4b06      	ldr	r3, [pc, #24]	; (f4c8 <funPointerInit+0x640>)
    f4ae:	218c      	movs	r1, #140	; 0x8c
    f4b0:	0049      	lsls	r1, r1, #1
    f4b2:	19c9      	adds	r1, r1, r7
    f4b4:	18ca      	adds	r2, r1, r3
    f4b6:	2388      	movs	r3, #136	; 0x88
    f4b8:	005b      	lsls	r3, r3, #1
    f4ba:	58d3      	ldr	r3, [r2, r3]
    f4bc:	1c1a      	adds	r2, r3, #0
    f4be:	4b13      	ldr	r3, [pc, #76]	; (f50c <funPointerInit+0x684>)
    f4c0:	601a      	str	r2, [r3, #0]
E:\2017-2018\03_Graduation Project\04_Software\04_wangshi\03_UpdateSoftware-180625\02_UEUser\KL36_Update-180627\Debug/../05_SoftComponent/common/common.c:288

}
    f4c2:	46bd      	mov	sp, r7
    f4c4:	b046      	add	sp, #280	; 0x118
    f4c6:	bd80      	pop	{r7, pc}
    f4c8:	fffffee8 	.word	0xfffffee8
    f4cc:	1ffff904 	.word	0x1ffff904
    f4d0:	1ffff918 	.word	0x1ffff918
    f4d4:	1ffff97c 	.word	0x1ffff97c
    f4d8:	1ffff970 	.word	0x1ffff970
    f4dc:	1ffff89c 	.word	0x1ffff89c
    f4e0:	1ffff968 	.word	0x1ffff968
    f4e4:	1ffff930 	.word	0x1ffff930
    f4e8:	1ffff898 	.word	0x1ffff898
    f4ec:	1ffff8cc 	.word	0x1ffff8cc
    f4f0:	1ffff8f8 	.word	0x1ffff8f8
    f4f4:	1ffff93c 	.word	0x1ffff93c
    f4f8:	1ffff954 	.word	0x1ffff954
    f4fc:	1ffff8e0 	.word	0x1ffff8e0
    f500:	1ffff8ac 	.word	0x1ffff8ac
    f504:	1ffff924 	.word	0x1ffff924
    f508:	1ffff90c 	.word	0x1ffff90c
    f50c:	1ffff91c 	.word	0x1ffff91c

0000f510 <cpy_nvic>:
cpy_nvic():
E:\2017-2018\03_Graduation Project\04_Software\04_wangshi\03_UpdateSoftware-180625\02_UEUser\KL36_Update-180627\Debug/../05_SoftComponent/common/common.c:297
//
//
//RAM
//======================================================================
void cpy_nvic(void)
{
    f510:	b580      	push	{r7, lr}
    f512:	b084      	sub	sp, #16
    f514:	af00      	add	r7, sp, #0
E:\2017-2018\03_Graduation Project\04_Software\04_wangshi\03_UpdateSoftware-180625\02_UEUser\KL36_Update-180627\Debug/../05_SoftComponent/common/common.c:301
#define NVIC_NUM_VECTORS        (16 + 32)     // CORE + MCU Peripherals
#define NVIC_RAM_VECTOR_ADDRESS 0x1FFFF800    //RAM

	uint32_t *old_vectors = (uint32_t *)SCB->VTOR;    //VTOR
    f516:	4b0f      	ldr	r3, [pc, #60]	; (f554 <cpy_nvic+0x44>)
    f518:	689b      	ldr	r3, [r3, #8]
    f51a:	60bb      	str	r3, [r7, #8]
E:\2017-2018\03_Graduation Project\04_Software\04_wangshi\03_UpdateSoftware-180625\02_UEUser\KL36_Update-180627\Debug/../05_SoftComponent/common/common.c:302
	uint32_t *vectors = (uint32_t*)NVIC_RAM_VECTOR_ADDRESS;
    f51c:	4b0e      	ldr	r3, [pc, #56]	; (f558 <cpy_nvic+0x48>)
    f51e:	607b      	str	r3, [r7, #4]
E:\2017-2018\03_Graduation Project\04_Software\04_wangshi\03_UpdateSoftware-180625\02_UEUser\KL36_Update-180627\Debug/../05_SoftComponent/common/common.c:303
	for (int i = 0; i < NVIC_NUM_VECTORS; i++) {    //48
    f520:	2300      	movs	r3, #0
    f522:	60fb      	str	r3, [r7, #12]
    f524:	e00c      	b.n	f540 <cpy_nvic+0x30>
E:\2017-2018\03_Graduation Project\04_Software\04_wangshi\03_UpdateSoftware-180625\02_UEUser\KL36_Update-180627\Debug/../05_SoftComponent/common/common.c:304 (discriminator 2)
		vectors[i] = old_vectors[i];
    f526:	68fb      	ldr	r3, [r7, #12]
    f528:	009b      	lsls	r3, r3, #2
    f52a:	687a      	ldr	r2, [r7, #4]
    f52c:	18d3      	adds	r3, r2, r3
    f52e:	68fa      	ldr	r2, [r7, #12]
    f530:	0092      	lsls	r2, r2, #2
    f532:	68b9      	ldr	r1, [r7, #8]
    f534:	188a      	adds	r2, r1, r2
    f536:	6812      	ldr	r2, [r2, #0]
    f538:	601a      	str	r2, [r3, #0]
E:\2017-2018\03_Graduation Project\04_Software\04_wangshi\03_UpdateSoftware-180625\02_UEUser\KL36_Update-180627\Debug/../05_SoftComponent/common/common.c:303 (discriminator 2)
#define NVIC_NUM_VECTORS        (16 + 32)     // CORE + MCU Peripherals
#define NVIC_RAM_VECTOR_ADDRESS 0x1FFFF800    //RAM

	uint32_t *old_vectors = (uint32_t *)SCB->VTOR;    //VTOR
	uint32_t *vectors = (uint32_t*)NVIC_RAM_VECTOR_ADDRESS;
	for (int i = 0; i < NVIC_NUM_VECTORS; i++) {    //48
    f53a:	68fb      	ldr	r3, [r7, #12]
    f53c:	3301      	adds	r3, #1
    f53e:	60fb      	str	r3, [r7, #12]
E:\2017-2018\03_Graduation Project\04_Software\04_wangshi\03_UpdateSoftware-180625\02_UEUser\KL36_Update-180627\Debug/../05_SoftComponent/common/common.c:303 (discriminator 1)
    f540:	68fb      	ldr	r3, [r7, #12]
    f542:	2b2f      	cmp	r3, #47	; 0x2f
    f544:	ddef      	ble.n	f526 <cpy_nvic+0x16>
E:\2017-2018\03_Graduation Project\04_Software\04_wangshi\03_UpdateSoftware-180625\02_UEUser\KL36_Update-180627\Debug/../05_SoftComponent/common/common.c:306
		vectors[i] = old_vectors[i];
	}
	SCB->VTOR = (uint32_t)NVIC_RAM_VECTOR_ADDRESS;    //VTOR
    f546:	4b03      	ldr	r3, [pc, #12]	; (f554 <cpy_nvic+0x44>)
    f548:	4a03      	ldr	r2, [pc, #12]	; (f558 <cpy_nvic+0x48>)
    f54a:	609a      	str	r2, [r3, #8]
E:\2017-2018\03_Graduation Project\04_Software\04_wangshi\03_UpdateSoftware-180625\02_UEUser\KL36_Update-180627\Debug/../05_SoftComponent/common/common.c:307
}
    f54c:	46bd      	mov	sp, r7
    f54e:	b004      	add	sp, #16
    f550:	bd80      	pop	{r7, pc}
    f552:	46c0      	nop			; (mov r8, r8)
    f554:	e000ed00 	.word	0xe000ed00
    f558:	1ffff800 	.word	0x1ffff800

0000f55c <setVector>:
setVector():
E:\2017-2018\03_Graduation Project\04_Software\04_wangshi\03_UpdateSoftware-180625\02_UEUser\KL36_Update-180627\Debug/../05_SoftComponent/common/common.c:316
//
//IRQnvector
//
//======================================================================
void setVector(IRQn_Type IRQn, uint32_t vector)
{
    f55c:	b580      	push	{r7, lr}
    f55e:	b084      	sub	sp, #16
    f560:	af00      	add	r7, sp, #0
    f562:	1c02      	adds	r2, r0, #0
    f564:	6039      	str	r1, [r7, #0]
    f566:	1dfb      	adds	r3, r7, #7
    f568:	701a      	strb	r2, [r3, #0]
E:\2017-2018\03_Graduation Project\04_Software\04_wangshi\03_UpdateSoftware-180625\02_UEUser\KL36_Update-180627\Debug/../05_SoftComponent/common/common.c:318
#define NVIC_USER_IRQ_OFFSET          16
	uint32_t *vectors = (uint32_t *)SCB->VTOR;
    f56a:	4b07      	ldr	r3, [pc, #28]	; (f588 <setVector+0x2c>)
    f56c:	689b      	ldr	r3, [r3, #8]
    f56e:	60fb      	str	r3, [r7, #12]
E:\2017-2018\03_Graduation Project\04_Software\04_wangshi\03_UpdateSoftware-180625\02_UEUser\KL36_Update-180627\Debug/../05_SoftComponent/common/common.c:320

	vectors[(int32_t)IRQn + NVIC_USER_IRQ_OFFSET] = vector;
    f570:	1dfb      	adds	r3, r7, #7
    f572:	781b      	ldrb	r3, [r3, #0]
    f574:	b25b      	sxtb	r3, r3
    f576:	3310      	adds	r3, #16
    f578:	009b      	lsls	r3, r3, #2
    f57a:	68fa      	ldr	r2, [r7, #12]
    f57c:	18d3      	adds	r3, r2, r3
    f57e:	683a      	ldr	r2, [r7, #0]
    f580:	601a      	str	r2, [r3, #0]
E:\2017-2018\03_Graduation Project\04_Software\04_wangshi\03_UpdateSoftware-180625\02_UEUser\KL36_Update-180627\Debug/../05_SoftComponent/common/common.c:321
}
    f582:	46bd      	mov	sp, r7
    f584:	b004      	add	sp, #16
    f586:	bd80      	pop	{r7, pc}
    f588:	e000ed00 	.word	0xe000ed00

0000f58c <light_init>:
light_init():
E:\2017-2018\03_Graduation Project\04_Software\04_wangshi\03_UpdateSoftware-180625\02_UEUser\KL36_Update-180627\Debug/../04_UserBoard/light/light.c:16
//       statelight.h
//
//
//=====================================================================
void light_init(uint_16 port_pin, uint_8 state)
{
    f58c:	b580      	push	{r7, lr}
    f58e:	b082      	sub	sp, #8
    f590:	af00      	add	r7, sp, #0
    f592:	1c0a      	adds	r2, r1, #0
    f594:	1dbb      	adds	r3, r7, #6
    f596:	1c01      	adds	r1, r0, #0
    f598:	8019      	strh	r1, [r3, #0]
    f59a:	1d7b      	adds	r3, r7, #5
    f59c:	701a      	strb	r2, [r3, #0]
E:\2017-2018\03_Graduation Project\04_Software\04_wangshi\03_UpdateSoftware-180625\02_UEUser\KL36_Update-180627\Debug/../04_UserBoard/light/light.c:17
    gpio_init(port_pin, GPIO_OUTPUT, state);
    f59e:	4b06      	ldr	r3, [pc, #24]	; (f5b8 <light_init+0x2c>)
    f5a0:	681b      	ldr	r3, [r3, #0]
    f5a2:	1dba      	adds	r2, r7, #6
    f5a4:	8811      	ldrh	r1, [r2, #0]
    f5a6:	1d7a      	adds	r2, r7, #5
    f5a8:	7812      	ldrb	r2, [r2, #0]
    f5aa:	1c08      	adds	r0, r1, #0
    f5ac:	2101      	movs	r1, #1
    f5ae:	4798      	blx	r3
E:\2017-2018\03_Graduation Project\04_Software\04_wangshi\03_UpdateSoftware-180625\02_UEUser\KL36_Update-180627\Debug/../04_UserBoard/light/light.c:18
}
    f5b0:	46bd      	mov	sp, r7
    f5b2:	b002      	add	sp, #8
    f5b4:	bd80      	pop	{r7, pc}
    f5b6:	46c0      	nop			; (mov r8, r8)
    f5b8:	1ffff978 	.word	0x1ffff978

0000f5bc <light_change>:
light_change():
E:\2017-2018\03_Graduation Project\04_Software\04_wangshi\03_UpdateSoftware-180625\02_UEUser\KL36_Update-180627\Debug/../04_UserBoard/light/light.c:39
//port_pin()|()(PTB_NUM)|(9) B9
//
//
//=====================================================================
void light_change(uint_16 port_pin)
{
    f5bc:	b580      	push	{r7, lr}
    f5be:	b082      	sub	sp, #8
    f5c0:	af00      	add	r7, sp, #0
    f5c2:	1c02      	adds	r2, r0, #0
    f5c4:	1dbb      	adds	r3, r7, #6
    f5c6:	801a      	strh	r2, [r3, #0]
E:\2017-2018\03_Graduation Project\04_Software\04_wangshi\03_UpdateSoftware-180625\02_UEUser\KL36_Update-180627\Debug/../04_UserBoard/light/light.c:40
    gpio_reverse(port_pin);
    f5c8:	4b04      	ldr	r3, [pc, #16]	; (f5dc <light_change+0x20>)
    f5ca:	681b      	ldr	r3, [r3, #0]
    f5cc:	1dba      	adds	r2, r7, #6
    f5ce:	8812      	ldrh	r2, [r2, #0]
    f5d0:	1c10      	adds	r0, r2, #0
    f5d2:	4798      	blx	r3
E:\2017-2018\03_Graduation Project\04_Software\04_wangshi\03_UpdateSoftware-180625\02_UEUser\KL36_Update-180627\Debug/../04_UserBoard/light/light.c:41
}
    f5d4:	46bd      	mov	sp, r7
    f5d6:	b002      	add	sp, #8
    f5d8:	bd80      	pop	{r7, pc}
    f5da:	46c0      	nop			; (mov r8, r8)
    f5dc:	1ffff96c 	.word	0x1ffff96c

0000f5e0 <SystemInit>:
SystemInit():
E:\2017-2018\03_Graduation Project\04_Software\04_wangshi\03_UpdateSoftware-180625\02_UEUser\KL36_Update-180627\Debug/../03_MCU/startup/system_MKL36Z4.c:104
   -- SystemInit()
   ---------------------------------------------------------------------------- */

//

void SystemInit (void) {
    f5e0:	b580      	push	{r7, lr}
    f5e2:	af00      	add	r7, sp, #0
E:\2017-2018\03_Graduation Project\04_Software\04_wangshi\03_UpdateSoftware-180625\02_UEUser\KL36_Update-180627\Debug/../03_MCU/startup/system_MKL36Z4.c:112
    //ENABLE_WDOG
    //
    if(ENABLE_WDOG)
    	wdog_start(3);
    else
    	wdog_stop();
    f5e4:	f000 f88e 	bl	f704 <wdog_stop>
E:\2017-2018\03_Graduation Project\04_Software\04_wangshi\03_UpdateSoftware-180625\02_UEUser\KL36_Update-180627\Debug/../03_MCU/startup/system_MKL36Z4.c:115
    /* System clock initialization */
    /* SIM_CLKDIV1: OUTDIV1=0,??=0,??=0,??=0,??=0,??=0,??=0,??=0,??=0,??=0,OUTDIV4=3,??=0,??=0,??=0,??=0,??=0,??=0,??=0,??=0,??=0,??=0,??=0,??=0,??=0,??=0,??=0,??=0 */
    SIM_CLKDIV1 = (SIM_CLKDIV1_OUTDIV1(0x00) | SIM_CLKDIV1_OUTDIV4(0x03)); /* Set the system prescalers to safe value */
    f5e8:	4a3c      	ldr	r2, [pc, #240]	; (f6dc <SystemInit+0xfc>)
    f5ea:	4b3d      	ldr	r3, [pc, #244]	; (f6e0 <SystemInit+0x100>)
    f5ec:	21c0      	movs	r1, #192	; 0xc0
    f5ee:	0289      	lsls	r1, r1, #10
    f5f0:	50d1      	str	r1, [r2, r3]
E:\2017-2018\03_Graduation Project\04_Software\04_wangshi\03_UpdateSoftware-180625\02_UEUser\KL36_Update-180627\Debug/../03_MCU/startup/system_MKL36Z4.c:117
    /* SIM_SCGC5: PORTA=1 */
    SIM_SCGC5 |= SIM_SCGC5_PORTA_MASK;   /* Enable clock gate for ports to enable pin routing */
    f5f2:	4a3a      	ldr	r2, [pc, #232]	; (f6dc <SystemInit+0xfc>)
    f5f4:	4939      	ldr	r1, [pc, #228]	; (f6dc <SystemInit+0xfc>)
    f5f6:	4b3b      	ldr	r3, [pc, #236]	; (f6e4 <SystemInit+0x104>)
    f5f8:	58cb      	ldr	r3, [r1, r3]
    f5fa:	2180      	movs	r1, #128	; 0x80
    f5fc:	0089      	lsls	r1, r1, #2
    f5fe:	4319      	orrs	r1, r3
    f600:	4b38      	ldr	r3, [pc, #224]	; (f6e4 <SystemInit+0x104>)
    f602:	50d1      	str	r1, [r2, r3]
E:\2017-2018\03_Graduation Project\04_Software\04_wangshi\03_UpdateSoftware-180625\02_UEUser\KL36_Update-180627\Debug/../03_MCU/startup/system_MKL36Z4.c:118
    if ((PMC_REGSC & PMC_REGSC_ACKISO_MASK) != 0x0U) {
    f604:	4b38      	ldr	r3, [pc, #224]	; (f6e8 <SystemInit+0x108>)
    f606:	789b      	ldrb	r3, [r3, #2]
    f608:	b2db      	uxtb	r3, r3
    f60a:	1c1a      	adds	r2, r3, #0
    f60c:	2308      	movs	r3, #8
    f60e:	4013      	ands	r3, r2
    f610:	d007      	beq.n	f622 <SystemInit+0x42>
E:\2017-2018\03_Graduation Project\04_Software\04_wangshi\03_UpdateSoftware-180625\02_UEUser\KL36_Update-180627\Debug/../03_MCU/startup/system_MKL36Z4.c:120
        /* PMC_REGSC: ACKISO=1 */
        PMC_REGSC |= PMC_REGSC_ACKISO_MASK; /* Release IO pads after wakeup from VLLS mode. */
    f612:	4b35      	ldr	r3, [pc, #212]	; (f6e8 <SystemInit+0x108>)
    f614:	4a34      	ldr	r2, [pc, #208]	; (f6e8 <SystemInit+0x108>)
    f616:	7892      	ldrb	r2, [r2, #2]
    f618:	b2d2      	uxtb	r2, r2
    f61a:	2108      	movs	r1, #8
    f61c:	430a      	orrs	r2, r1
    f61e:	b2d2      	uxtb	r2, r2
    f620:	709a      	strb	r2, [r3, #2]
E:\2017-2018\03_Graduation Project\04_Software\04_wangshi\03_UpdateSoftware-180625\02_UEUser\KL36_Update-180627\Debug/../03_MCU/startup/system_MKL36Z4.c:123
    }
    /* SIM_CLKDIV1: OUTDIV1=0,??=0,??=0,??=0,??=0,??=0,??=0,??=0,??=0,??=0,OUTDIV4=1,??=0,??=0,??=0,??=0,??=0,??=0,??=0,??=0,??=0,??=0,??=0,??=0,??=0,??=0,??=0,??=0 */
    SIM_CLKDIV1 = (SIM_CLKDIV1_OUTDIV1(0x00) | SIM_CLKDIV1_OUTDIV4(0x01)); /* Update system prescalers */
    f622:	4a2e      	ldr	r2, [pc, #184]	; (f6dc <SystemInit+0xfc>)
    f624:	4b2e      	ldr	r3, [pc, #184]	; (f6e0 <SystemInit+0x100>)
    f626:	2180      	movs	r1, #128	; 0x80
    f628:	0249      	lsls	r1, r1, #9
    f62a:	50d1      	str	r1, [r2, r3]
E:\2017-2018\03_Graduation Project\04_Software\04_wangshi\03_UpdateSoftware-180625\02_UEUser\KL36_Update-180627\Debug/../03_MCU/startup/system_MKL36Z4.c:125
    /* SIM_SOPT2: ??=0,PLLFLLSEL=0 */
    SIM_SOPT2 &= (uint32_t)~(uint32_t)((SIM_SOPT2_PLLFLLSEL_MASK | 0x00020000U)); /* Select FLL as a clock source for various peripherals */
    f62c:	4a2b      	ldr	r2, [pc, #172]	; (f6dc <SystemInit+0xfc>)
    f62e:	492b      	ldr	r1, [pc, #172]	; (f6dc <SystemInit+0xfc>)
    f630:	4b2e      	ldr	r3, [pc, #184]	; (f6ec <SystemInit+0x10c>)
    f632:	58c9      	ldr	r1, [r1, r3]
    f634:	4b2e      	ldr	r3, [pc, #184]	; (f6f0 <SystemInit+0x110>)
    f636:	4019      	ands	r1, r3
    f638:	4b2c      	ldr	r3, [pc, #176]	; (f6ec <SystemInit+0x10c>)
    f63a:	50d1      	str	r1, [r2, r3]
E:\2017-2018\03_Graduation Project\04_Software\04_wangshi\03_UpdateSoftware-180625\02_UEUser\KL36_Update-180627\Debug/../03_MCU/startup/system_MKL36Z4.c:127
    /* SIM_SOPT1: OSC32KSEL=0 */
    SIM_SOPT1 &= (uint32_t)~(uint32_t)(SIM_SOPT1_OSC32KSEL(0x03)); /* System oscillator drives 32 kHz clock for various peripherals */
    f63c:	4b27      	ldr	r3, [pc, #156]	; (f6dc <SystemInit+0xfc>)
    f63e:	4a27      	ldr	r2, [pc, #156]	; (f6dc <SystemInit+0xfc>)
    f640:	6811      	ldr	r1, [r2, #0]
    f642:	4a2c      	ldr	r2, [pc, #176]	; (f6f4 <SystemInit+0x114>)
    f644:	400a      	ands	r2, r1
    f646:	601a      	str	r2, [r3, #0]
E:\2017-2018\03_Graduation Project\04_Software\04_wangshi\03_UpdateSoftware-180625\02_UEUser\KL36_Update-180627\Debug/../03_MCU/startup/system_MKL36Z4.c:129
    /* SIM_SOPT2: TPMSRC=1 */
    SIM_SOPT2 = (uint32_t)((SIM_SOPT2 & (uint32_t)~(uint32_t)(
    f648:	4a24      	ldr	r2, [pc, #144]	; (f6dc <SystemInit+0xfc>)
    f64a:	4924      	ldr	r1, [pc, #144]	; (f6dc <SystemInit+0xfc>)
    f64c:	4b27      	ldr	r3, [pc, #156]	; (f6ec <SystemInit+0x10c>)
    f64e:	58c9      	ldr	r1, [r1, r3]
    f650:	4b29      	ldr	r3, [pc, #164]	; (f6f8 <SystemInit+0x118>)
    f652:	400b      	ands	r3, r1
    f654:	2180      	movs	r1, #128	; 0x80
    f656:	0449      	lsls	r1, r1, #17
    f658:	4319      	orrs	r1, r3
    f65a:	4b24      	ldr	r3, [pc, #144]	; (f6ec <SystemInit+0x10c>)
    f65c:	50d1      	str	r1, [r2, r3]
E:\2017-2018\03_Graduation Project\04_Software\04_wangshi\03_UpdateSoftware-180625\02_UEUser\KL36_Update-180627\Debug/../03_MCU/startup/system_MKL36Z4.c:136
    )) | (uint32_t)(
            SIM_SOPT2_TPMSRC(0x01)
    ));                      /* Set the TPM clock */
    /* Switch to FEI Mode */
    /* MCG_C1: CLKS=0,FRDIV=0,IREFS=1,IRCLKEN=1,IREFSTEN=0 */
    MCG_C1 = MCG_C1_CLKS(0x00) |
    f65e:	4b27      	ldr	r3, [pc, #156]	; (f6fc <SystemInit+0x11c>)
    f660:	2206      	movs	r2, #6
    f662:	701a      	strb	r2, [r3, #0]
E:\2017-2018\03_Graduation Project\04_Software\04_wangshi\03_UpdateSoftware-180625\02_UEUser\KL36_Update-180627\Debug/../03_MCU/startup/system_MKL36Z4.c:141
            MCG_C1_FRDIV(0x00) |
            MCG_C1_IREFS_MASK |
            MCG_C1_IRCLKEN_MASK;
    /* MCG_C2: LOCRE0=0,RANGE0=0,HGO0=0,EREFS0=0,LP=0,IRCS=0 */
    MCG_C2 &= (uint8_t)~(uint8_t)(
    f664:	4b25      	ldr	r3, [pc, #148]	; (f6fc <SystemInit+0x11c>)
    f666:	4a25      	ldr	r2, [pc, #148]	; (f6fc <SystemInit+0x11c>)
    f668:	7852      	ldrb	r2, [r2, #1]
    f66a:	b2d1      	uxtb	r1, r2
    f66c:	2240      	movs	r2, #64	; 0x40
    f66e:	400a      	ands	r2, r1
    f670:	b2d2      	uxtb	r2, r2
    f672:	705a      	strb	r2, [r3, #1]
E:\2017-2018\03_Graduation Project\04_Software\04_wangshi\03_UpdateSoftware-180625\02_UEUser\KL36_Update-180627\Debug/../03_MCU/startup/system_MKL36Z4.c:150
            MCG_C2_EREFS0_MASK |
            MCG_C2_LP_MASK |
            MCG_C2_IRCS_MASK
    );
    /* MCG_C4: DMX32=1,DRST_DRS=1 */
    MCG_C4 = (uint8_t)((MCG_C4 & (uint8_t)~(uint8_t)(
    f674:	4b21      	ldr	r3, [pc, #132]	; (f6fc <SystemInit+0x11c>)
    f676:	4a21      	ldr	r2, [pc, #132]	; (f6fc <SystemInit+0x11c>)
    f678:	78d2      	ldrb	r2, [r2, #3]
    f67a:	b2d2      	uxtb	r2, r2
    f67c:	b2d2      	uxtb	r2, r2
    f67e:	1c11      	adds	r1, r2, #0
    f680:	221f      	movs	r2, #31
    f682:	400a      	ands	r2, r1
    f684:	b2d2      	uxtb	r2, r2
    f686:	2160      	movs	r1, #96	; 0x60
    f688:	4249      	negs	r1, r1
    f68a:	430a      	orrs	r2, r1
    f68c:	b2d2      	uxtb	r2, r2
    f68e:	b2d2      	uxtb	r2, r2
    f690:	70da      	strb	r2, [r3, #3]
E:\2017-2018\03_Graduation Project\04_Software\04_wangshi\03_UpdateSoftware-180625\02_UEUser\KL36_Update-180627\Debug/../03_MCU/startup/system_MKL36Z4.c:157
    )) | (uint8_t)(
            MCG_C4_DMX32_MASK |
            MCG_C4_DRST_DRS(0x01)
    ));
    /* OSC0_CR: ERCLKEN=0,??=0,EREFSTEN=0,??=0,SC2P=0,SC4P=0,SC8P=0,SC16P=0 */
    OSC0_CR = 0x00U;
    f692:	4b1b      	ldr	r3, [pc, #108]	; (f700 <SystemInit+0x120>)
    f694:	2200      	movs	r2, #0
    f696:	701a      	strb	r2, [r3, #0]
E:\2017-2018\03_Graduation Project\04_Software\04_wangshi\03_UpdateSoftware-180625\02_UEUser\KL36_Update-180627\Debug/../03_MCU/startup/system_MKL36Z4.c:159
    /* MCG_C5: ??=0,PLLCLKEN0=0,PLLSTEN0=0,PRDIV0=0 */
    MCG_C5 = MCG_C5_PRDIV0(0x00);
    f698:	4b18      	ldr	r3, [pc, #96]	; (f6fc <SystemInit+0x11c>)
    f69a:	2200      	movs	r2, #0
    f69c:	711a      	strb	r2, [r3, #4]
E:\2017-2018\03_Graduation Project\04_Software\04_wangshi\03_UpdateSoftware-180625\02_UEUser\KL36_Update-180627\Debug/../03_MCU/startup/system_MKL36Z4.c:161
    /* MCG_C6: LOLIE0=0,PLLS=0,CME0=0,VDIV0=0 */
    MCG_C6 = MCG_C6_VDIV0(0x00);
    f69e:	4b17      	ldr	r3, [pc, #92]	; (f6fc <SystemInit+0x11c>)
    f6a0:	2200      	movs	r2, #0
    f6a2:	715a      	strb	r2, [r3, #5]
E:\2017-2018\03_Graduation Project\04_Software\04_wangshi\03_UpdateSoftware-180625\02_UEUser\KL36_Update-180627\Debug/../03_MCU/startup/system_MKL36Z4.c:162
    while((MCG_S & MCG_S_IREFST_MASK) == 0x00U) { /* Check that the source of the FLL reference clock is the internal reference clock. */
    f6a4:	46c0      	nop			; (mov r8, r8)
E:\2017-2018\03_Graduation Project\04_Software\04_wangshi\03_UpdateSoftware-180625\02_UEUser\KL36_Update-180627\Debug/../03_MCU/startup/system_MKL36Z4.c:162 (discriminator 1)
    f6a6:	4b15      	ldr	r3, [pc, #84]	; (f6fc <SystemInit+0x11c>)
    f6a8:	799b      	ldrb	r3, [r3, #6]
    f6aa:	b2db      	uxtb	r3, r3
    f6ac:	1c1a      	adds	r2, r3, #0
    f6ae:	2310      	movs	r3, #16
    f6b0:	4013      	ands	r3, r2
    f6b2:	d0f8      	beq.n	f6a6 <SystemInit+0xc6>
E:\2017-2018\03_Graduation Project\04_Software\04_wangshi\03_UpdateSoftware-180625\02_UEUser\KL36_Update-180627\Debug/../03_MCU/startup/system_MKL36Z4.c:164
    }
    while((MCG_S & 0x0CU) != 0x00U) {    /* Wait until output of the FLL is selected */
    f6b4:	46c0      	nop			; (mov r8, r8)
E:\2017-2018\03_Graduation Project\04_Software\04_wangshi\03_UpdateSoftware-180625\02_UEUser\KL36_Update-180627\Debug/../03_MCU/startup/system_MKL36Z4.c:164 (discriminator 1)
    f6b6:	4b11      	ldr	r3, [pc, #68]	; (f6fc <SystemInit+0x11c>)
    f6b8:	799b      	ldrb	r3, [r3, #6]
    f6ba:	b2db      	uxtb	r3, r3
    f6bc:	1c1a      	adds	r2, r3, #0
    f6be:	230c      	movs	r3, #12
    f6c0:	4013      	ands	r3, r2
    f6c2:	d1f8      	bne.n	f6b6 <SystemInit+0xd6>
E:\2017-2018\03_Graduation Project\04_Software\04_wangshi\03_UpdateSoftware-180625\02_UEUser\KL36_Update-180627\Debug/../03_MCU/startup/system_MKL36Z4.c:237
    //        if (((MCG_S & MCG_S_CLKST_MASK) >> MCG_S_CLKST_SHIFT) == 0x3) break;
    //    }
    //    //4.PEE

    //PORT
    SIM->SCGC5 |= SIM_SCGC5_PORTA_MASK
    f6c4:	4a05      	ldr	r2, [pc, #20]	; (f6dc <SystemInit+0xfc>)
    f6c6:	4905      	ldr	r1, [pc, #20]	; (f6dc <SystemInit+0xfc>)
    f6c8:	4b06      	ldr	r3, [pc, #24]	; (f6e4 <SystemInit+0x104>)
    f6ca:	58cb      	ldr	r3, [r1, r3]
    f6cc:	21f8      	movs	r1, #248	; 0xf8
    f6ce:	0189      	lsls	r1, r1, #6
    f6d0:	4319      	orrs	r1, r3
    f6d2:	4b04      	ldr	r3, [pc, #16]	; (f6e4 <SystemInit+0x104>)
    f6d4:	50d1      	str	r1, [r2, r3]
E:\2017-2018\03_Graduation Project\04_Software\04_wangshi\03_UpdateSoftware-180625\02_UEUser\KL36_Update-180627\Debug/../03_MCU/startup/system_MKL36Z4.c:243
            | SIM_SCGC5_PORTB_MASK
            | SIM_SCGC5_PORTC_MASK
            | SIM_SCGC5_PORTD_MASK
            | SIM_SCGC5_PORTE_MASK;

}
    f6d6:	46bd      	mov	sp, r7
    f6d8:	bd80      	pop	{r7, pc}
    f6da:	46c0      	nop			; (mov r8, r8)
    f6dc:	40047000 	.word	0x40047000
    f6e0:	00001044 	.word	0x00001044
    f6e4:	00001038 	.word	0x00001038
    f6e8:	4007d000 	.word	0x4007d000
    f6ec:	00001004 	.word	0x00001004
    f6f0:	fffcffff 	.word	0xfffcffff
    f6f4:	fff3ffff 	.word	0xfff3ffff
    f6f8:	fcffffff 	.word	0xfcffffff
    f6fc:	40064000 	.word	0x40064000
    f700:	40065000 	.word	0x40065000

0000f704 <wdog_stop>:
wdog_stop():
E:\2017-2018\03_Graduation Project\04_Software\04_wangshi\03_UpdateSoftware-180625\02_UEUser\KL36_Update-180627\Debug/../03_MCU/MCU_drivers/wdog/wdog.c:41
//
//
//
//=========================================================================
void wdog_stop()
{
    f704:	b580      	push	{r7, lr}
    f706:	af00      	add	r7, sp, #0
E:\2017-2018\03_Graduation Project\04_Software\04_wangshi\03_UpdateSoftware-180625\02_UEUser\KL36_Update-180627\Debug/../03_MCU/MCU_drivers/wdog/wdog.c:42
    SIM_COPC &= ~SIM_COPC_COPT_MASK;
    f708:	4a06      	ldr	r2, [pc, #24]	; (f724 <wdog_stop+0x20>)
    f70a:	4906      	ldr	r1, [pc, #24]	; (f724 <wdog_stop+0x20>)
    f70c:	2388      	movs	r3, #136	; 0x88
    f70e:	015b      	lsls	r3, r3, #5
    f710:	58cb      	ldr	r3, [r1, r3]
    f712:	210c      	movs	r1, #12
    f714:	1c18      	adds	r0, r3, #0
    f716:	4388      	bics	r0, r1
    f718:	1c01      	adds	r1, r0, #0
    f71a:	2388      	movs	r3, #136	; 0x88
    f71c:	015b      	lsls	r3, r3, #5
    f71e:	50d1      	str	r1, [r2, r3]
E:\2017-2018\03_Graduation Project\04_Software\04_wangshi\03_UpdateSoftware-180625\02_UEUser\KL36_Update-180627\Debug/../03_MCU/MCU_drivers/wdog/wdog.c:43
}
    f720:	46bd      	mov	sp, r7
    f722:	bd80      	pop	{r7, pc}
    f724:	40047000 	.word	0x40047000

0000f728 <exit>:
exit():
    f728:	4b08      	ldr	r3, [pc, #32]	; (f74c <exit+0x24>)
    f72a:	b510      	push	{r4, lr}
    f72c:	1c04      	adds	r4, r0, #0
    f72e:	2b00      	cmp	r3, #0
    f730:	d002      	beq.n	f738 <exit+0x10>
    f732:	2100      	movs	r1, #0
    f734:	e000      	b.n	f738 <exit+0x10>
    f736:	bf00      	nop
    f738:	4b05      	ldr	r3, [pc, #20]	; (f750 <exit+0x28>)
    f73a:	6818      	ldr	r0, [r3, #0]
    f73c:	6a83      	ldr	r3, [r0, #40]	; 0x28
    f73e:	2b00      	cmp	r3, #0
    f740:	d000      	beq.n	f744 <exit+0x1c>
    f742:	4798      	blx	r3
    f744:	1c20      	adds	r0, r4, #0
    f746:	f000 f865 	bl	f814 <_exit>
    f74a:	46c0      	nop			; (mov r8, r8)
    f74c:	00000000 	.word	0x00000000
    f750:	0000f9a4 	.word	0x0000f9a4

0000f754 <__libc_init_array>:
__libc_init_array():
    f754:	b570      	push	{r4, r5, r6, lr}
    f756:	4b0e      	ldr	r3, [pc, #56]	; (f790 <__libc_init_array+0x3c>)
    f758:	4d0e      	ldr	r5, [pc, #56]	; (f794 <__libc_init_array+0x40>)
    f75a:	2400      	movs	r4, #0
    f75c:	1aed      	subs	r5, r5, r3
    f75e:	10ad      	asrs	r5, r5, #2
    f760:	1c1e      	adds	r6, r3, #0
    f762:	42ac      	cmp	r4, r5
    f764:	d004      	beq.n	f770 <__libc_init_array+0x1c>
    f766:	00a3      	lsls	r3, r4, #2
    f768:	58f3      	ldr	r3, [r6, r3]
    f76a:	4798      	blx	r3
    f76c:	3401      	adds	r4, #1
    f76e:	e7f8      	b.n	f762 <__libc_init_array+0xe>
    f770:	f000 f91a 	bl	f9a8 <_init>
    f774:	4b08      	ldr	r3, [pc, #32]	; (f798 <__libc_init_array+0x44>)
    f776:	4d09      	ldr	r5, [pc, #36]	; (f79c <__libc_init_array+0x48>)
    f778:	2400      	movs	r4, #0
    f77a:	1aed      	subs	r5, r5, r3
    f77c:	10ad      	asrs	r5, r5, #2
    f77e:	1c1e      	adds	r6, r3, #0
    f780:	42ac      	cmp	r4, r5
    f782:	d004      	beq.n	f78e <__libc_init_array+0x3a>
    f784:	00a3      	lsls	r3, r4, #2
    f786:	58f3      	ldr	r3, [r6, r3]
    f788:	4798      	blx	r3
    f78a:	3401      	adds	r4, #1
    f78c:	e7f8      	b.n	f780 <__libc_init_array+0x2c>
    f78e:	bd70      	pop	{r4, r5, r6, pc}
    f790:	0000f9c8 	.word	0x0000f9c8
    f794:	0000f9c8 	.word	0x0000f9c8
    f798:	0000f9c8 	.word	0x0000f9c8
    f79c:	0000f9cc 	.word	0x0000f9cc

0000f7a0 <memcpy>:
memcpy():
    f7a0:	b510      	push	{r4, lr}
    f7a2:	2300      	movs	r3, #0
    f7a4:	4293      	cmp	r3, r2
    f7a6:	d003      	beq.n	f7b0 <memcpy+0x10>
    f7a8:	5ccc      	ldrb	r4, [r1, r3]
    f7aa:	54c4      	strb	r4, [r0, r3]
    f7ac:	3301      	adds	r3, #1
    f7ae:	e7f9      	b.n	f7a4 <memcpy+0x4>
    f7b0:	bd10      	pop	{r4, pc}

0000f7b2 <memset>:
memset():
    f7b2:	1c03      	adds	r3, r0, #0
    f7b4:	1882      	adds	r2, r0, r2
    f7b6:	4293      	cmp	r3, r2
    f7b8:	d002      	beq.n	f7c0 <memset+0xe>
    f7ba:	7019      	strb	r1, [r3, #0]
    f7bc:	3301      	adds	r3, #1
    f7be:	e7fa      	b.n	f7b6 <memset+0x4>
    f7c0:	4770      	bx	lr

0000f7c2 <strcat>:
strcat():
    f7c2:	b510      	push	{r4, lr}
    f7c4:	1c02      	adds	r2, r0, #0
    f7c6:	7813      	ldrb	r3, [r2, #0]
    f7c8:	2b00      	cmp	r3, #0
    f7ca:	d001      	beq.n	f7d0 <strcat+0xe>
    f7cc:	3201      	adds	r2, #1
    f7ce:	e7fa      	b.n	f7c6 <strcat+0x4>
    f7d0:	5ccc      	ldrb	r4, [r1, r3]
    f7d2:	54d4      	strb	r4, [r2, r3]
    f7d4:	3301      	adds	r3, #1
    f7d6:	2c00      	cmp	r4, #0
    f7d8:	d1fa      	bne.n	f7d0 <strcat+0xe>
    f7da:	bd10      	pop	{r4, pc}

0000f7dc <strlen>:
strlen():
    f7dc:	2300      	movs	r3, #0
    f7de:	5cc2      	ldrb	r2, [r0, r3]
    f7e0:	3301      	adds	r3, #1
    f7e2:	2a00      	cmp	r2, #0
    f7e4:	d1fb      	bne.n	f7de <strlen+0x2>
    f7e6:	1e58      	subs	r0, r3, #1
    f7e8:	4770      	bx	lr

0000f7ea <strncpy>:
strncpy():
    f7ea:	b530      	push	{r4, r5, lr}
    f7ec:	1c03      	adds	r3, r0, #0
    f7ee:	2a00      	cmp	r2, #0
    f7f0:	d007      	beq.n	f802 <strncpy+0x18>
    f7f2:	780c      	ldrb	r4, [r1, #0]
    f7f4:	3301      	adds	r3, #1
    f7f6:	1e5d      	subs	r5, r3, #1
    f7f8:	3a01      	subs	r2, #1
    f7fa:	702c      	strb	r4, [r5, #0]
    f7fc:	3101      	adds	r1, #1
    f7fe:	2c00      	cmp	r4, #0
    f800:	d1f5      	bne.n	f7ee <strncpy+0x4>
    f802:	189a      	adds	r2, r3, r2
    f804:	4293      	cmp	r3, r2
    f806:	d003      	beq.n	f810 <strncpy+0x26>
    f808:	2100      	movs	r1, #0
    f80a:	7019      	strb	r1, [r3, #0]
    f80c:	3301      	adds	r3, #1
    f80e:	e7f9      	b.n	f804 <strncpy+0x1a>
    f810:	bd30      	pop	{r4, r5, pc}
	...

0000f814 <_exit>:
_exit():
    f814:	e7fe      	b.n	f814 <_exit>
    f816:	46c0      	nop			; (mov r8, r8)
$d():
    f818:	becae1cc 	.word	0xbecae1cc
    f81c:	002d3146 	.word	0x002d3146
    f820:	4555aca3 	.word	0x4555aca3
    f824:	bccaf5b3 	.word	0xbccaf5b3
    f828:	a7caafbb 	.word	0xa7caafbb
    f82c:	0000dcb0 	.word	0x0000dcb0
    f830:	becae1cc 	.word	0xbecae1cc
    f834:	002d3246 	.word	0x002d3246
    f838:	4555aca3 	.word	0x4555aca3
    f83c:	cdcba2b7 	.word	0xcdcba2b7
    f840:	ddbefdca 	.word	0xddbefdca
    f844:	dcb0a7ca 	.word	0xdcb0a7ca
    f848:	00000000 	.word	0x00000000
    f84c:	63637573 	.word	0x63637573
    f850:	00737365 	.word	0x00737365
    f854:	00003055 	.word	0x00003055
    f858:	00006625 	.word	0x00006625
    f85c:	a1c8f1bb 	.word	0xa1c8f1bb
    f860:	bbcea8b6 	.word	0xbbcea8b6
    f864:	a2cfc5d0 	.word	0xa2cfc5d0
    f868:	dcb0a7ca 	.word	0xdcb0a7ca
    f86c:	00000a0d 	.word	0x00000a0d
    f870:	a1c8f1bb 	.word	0xa1c8f1bb
    f874:	bbcea8b6 	.word	0xbbcea8b6
    f878:	a2cfc5d0 	.word	0xa2cfc5d0
    f87c:	a6b9c9b3 	.word	0xa6b9c9b3
    f880:	00000a0d 	.word	0x00000a0d
    f884:	a1c8f1bb 	.word	0xa1c8f1bb
    f888:	e4bcb1ca 	.word	0xe4bcb1ca
    f88c:	dcb0a7ca 	.word	0xdcb0a7ca
    f890:	00000a0d 	.word	0x00000a0d
    f894:	a1c8f1bb 	.word	0xa1c8f1bb
    f898:	e4bcb1ca 	.word	0xe4bcb1ca
    f89c:	a2cfc5d0 	.word	0xa2cfc5d0
    f8a0:	a6b9c9b3 	.word	0xa6b9c9b3
    f8a4:	00000a0d 	.word	0x00000a0d
    f8a8:	a1c8f1bb 	.word	0xa1c8f1bb
    f8ac:	c8b6d9cb 	.word	0xc8b6d9cb
    f8b0:	dcb0a7ca 	.word	0xdcb0a7ca
    f8b4:	00000a0d 	.word	0x00000a0d
    f8b8:	a1c8f1bb 	.word	0xa1c8f1bb
    f8bc:	c8b6d9cb 	.word	0xc8b6d9cb
    f8c0:	a6b9c9b3 	.word	0xa6b9c9b3
    f8c4:	00000a0d 	.word	0x00000a0d
    f8c8:	a1c8f1bb 	.word	0xa1c8f1bb
    f8cc:	c8b6dfb8 	.word	0xc8b6dfb8
    f8d0:	dcb0a7ca 	.word	0xdcb0a7ca
    f8d4:	00000a0d 	.word	0x00000a0d
    f8d8:	a1c8f1bb 	.word	0xa1c8f1bb
    f8dc:	c8b6dfb8 	.word	0xc8b6dfb8
    f8e0:	a6b9c9b3 	.word	0xa6b9c9b3
    f8e4:	00000a0d 	.word	0x00000a0d
    f8e8:	0000eac4 	.word	0x0000eac4
    f8ec:	0000c2d4 	.word	0x0000c2d4
    f8f0:	0000d5c8 	.word	0x0000d5c8
    f8f4:	0000003a 	.word	0x0000003a
    f8f8:	33323130 	.word	0x33323130
    f8fc:	37363534 	.word	0x37363534
    f900:	42413938 	.word	0x42413938
    f904:	46454443 	.word	0x46454443
    f908:	4a494847 	.word	0x4a494847
    f90c:	4e4d4c4b 	.word	0x4e4d4c4b
    f910:	5251504f 	.word	0x5251504f
    f914:	56555453 	.word	0x56555453
    f918:	5a595857 	.word	0x5a595857
    f91c:	00000000 	.word	0x00000000
    f920:	0000bf6c 	.word	0x0000bf6c
    f924:	0000bf08 	.word	0x0000bf08
    f928:	0000bf50 	.word	0x0000bf50
    f92c:	0000be36 	.word	0x0000be36
    f930:	0000bf50 	.word	0x0000bf50
    f934:	0000bf44 	.word	0x0000bf44
    f938:	0000bf50 	.word	0x0000bf50
    f93c:	0000be36 	.word	0x0000be36
    f940:	0000bf08 	.word	0x0000bf08
    f944:	0000bf08 	.word	0x0000bf08
    f948:	0000bf44 	.word	0x0000bf44
    f94c:	0000be36 	.word	0x0000be36
    f950:	0000be2c 	.word	0x0000be2c
    f954:	0000be2c 	.word	0x0000be2c
    f958:	0000be2c 	.word	0x0000be2c
    f95c:	0000c190 	.word	0x0000c190
    f960:	0000c83c 	.word	0x0000c83c
    f964:	0000ca2a 	.word	0x0000ca2a
    f968:	0000ca2a 	.word	0x0000ca2a
    f96c:	0000c81c 	.word	0x0000c81c
    f970:	0000c706 	.word	0x0000c706
    f974:	0000c706 	.word	0x0000c706
    f978:	0000c80e 	.word	0x0000c80e
    f97c:	0000c81c 	.word	0x0000c81c
    f980:	0000c706 	.word	0x0000c706
    f984:	0000c80e 	.word	0x0000c80e
    f988:	0000c706 	.word	0x0000c706
    f98c:	0000c81c 	.word	0x0000c81c
    f990:	0000c704 	.word	0x0000c704
    f994:	0000c704 	.word	0x0000c704
    f998:	0000c704 	.word	0x0000c704
    f99c:	0000ca32 	.word	0x0000ca32
    f9a0:	00000043 	.word	0x00000043

0000f9a4 <_global_impure_ptr>:
    f9a4:	1ffff804                                ....

0000f9a8 <_init>:
$t():
    f9a8:	b5f8      	push	{r3, r4, r5, r6, r7, lr}
    f9aa:	46c0      	nop			; (mov r8, r8)
    f9ac:	bcf8      	pop	{r3, r4, r5, r6, r7}
    f9ae:	bc08      	pop	{r3}
    f9b0:	469e      	mov	lr, r3
    f9b2:	4770      	bx	lr

0000f9b4 <_fini>:
    f9b4:	b5f8      	push	{r3, r4, r5, r6, r7, lr}
    f9b6:	46c0      	nop			; (mov r8, r8)
    f9b8:	bcf8      	pop	{r3, r4, r5, r6, r7}
    f9ba:	bc08      	pop	{r3}
    f9bc:	469e      	mov	lr, r3
    f9be:	4770      	bx	lr
