
KL36_Update.elf:     file format elf32-littlearm
KL36_Update.elf
architecture: arm, flags 0x00000112:
EXEC_P, HAS_SYMS, D_PAGED
start address 0x00008cd1

Program Header:
    LOAD off    0x00000000 vaddr 0x00000000 paddr 0x00000000 align 2**16
         filesz 0x000088c0 memsz 0x000088c0 flags r--
    LOAD off    0x00008c00 vaddr 0x00008c00 paddr 0x00008c00 align 2**16
         filesz 0x00000010 memsz 0x00000010 flags r--
    LOAD off    0x00008c10 vaddr 0x00008c10 paddr 0x00008c10 align 2**16
         filesz 0x00006344 memsz 0x00006344 flags rwx
    LOAD off    0x0000fc00 vaddr 0x0000fc00 paddr 0x0000fc00 align 2**16
         filesz 0x000000ac memsz 0x000000ac flags r--
    LOAD off    0x00010800 vaddr 0x20000800 paddr 0x0000fcac align 2**16
         filesz 0x00000064 memsz 0x00000a70 flags rw-
private flags = 5000200: [Version5 EABI] [soft-float ABI]

Sections:
Idx Name            Size      VMA       LMA       File off  Algn  Flags
  0 .interrupts     000000c0  00008800  00008800  00008800  2**2  CONTENTS, ALLOC, LOAD, READONLY, DATA
  1 .flash_config   00000010  00008c00  00008c00  00008c00  2**0  CONTENTS, ALLOC, LOAD, READONLY, DATA
  2 .text           00006334  00008c10  00008c10  00008c10  2**2  CONTENTS, ALLOC, LOAD, READONLY, CODE
  3 .ARM            00000008  0000ef44  0000ef44  0000ef44  2**2  CONTENTS, ALLOC, LOAD, READONLY, DATA
  4 .init_array     00000004  0000ef4c  0000ef4c  0000ef4c  2**2  CONTENTS, ALLOC, LOAD, DATA
  5 .fini_array     00000004  0000ef50  0000ef50  0000ef50  2**2  CONTENTS, ALLOC, LOAD, DATA
  6 .mac_config     000000ac  0000fc00  0000fc00  0000fc00  2**2  CONTENTS, ALLOC, LOAD, READONLY, DATA
  7 .mtb            00000000  20000800  20000800  00010864  2**0  CONTENTS
  8 .data           00000064  20000800  0000fcac  00010800  2**2  CONTENTS, ALLOC, LOAD, DATA
  9 .bss            0000070c  20000864  0000fd10  00010864  2**2  ALLOC
 10 .heap           00000200  20000f70  0001041c  00010864  2**0  ALLOC
 11 .stack          00000100  20001170  0001061c  00010864  2**0  ALLOC
 12 .ARM.attributes 00000028  00000000  00000000  00010864  2**0  CONTENTS, READONLY
 13 .debug_info     0000754f  00000000  00000000  0001088c  2**0  CONTENTS, READONLY, DEBUGGING
 14 .debug_abbrev   00000f7d  00000000  00000000  00017ddb  2**0  CONTENTS, READONLY, DEBUGGING
 15 .debug_aranges  00000280  00000000  00000000  00018d58  2**3  CONTENTS, READONLY, DEBUGGING
 16 .debug_ranges   000001e0  00000000  00000000  00018fd8  2**0  CONTENTS, READONLY, DEBUGGING
 17 .debug_macro    0000f4c4  00000000  00000000  000191b8  2**0  CONTENTS, READONLY, DEBUGGING
 18 .debug_line     00004103  00000000  00000000  0002867c  2**0  CONTENTS, READONLY, DEBUGGING
 19 .debug_str      0004f9ce  00000000  00000000  0002c77f  2**0  CONTENTS, READONLY, DEBUGGING
 20 .comment        0000007e  00000000  00000000  0007c14d  2**0  CONTENTS, READONLY
 21 .debug_frame    00000a84  00000000  00000000  0007c1cc  2**2  CONTENTS, READONLY, DEBUGGING
SYMBOL TABLE:
00008800 l    d  .interrupts	00000000 .interrupts
00008c00 l    d  .flash_config	00000000 .flash_config
00008c10 l    d  .text	00000000 .text
0000ef44 l    d  .ARM	00000000 .ARM
0000ef4c l    d  .init_array	00000000 .init_array
0000ef50 l    d  .fini_array	00000000 .fini_array
0000fc00 l    d  .mac_config	00000000 .mac_config
20000800 l    d  .mtb	00000000 .mtb
20000800 l    d  .data	00000000 .data
20000864 l    d  .bss	00000000 .bss
20000f70 l    d  .heap	00000000 .heap
20001170 l    d  .stack	00000000 .stack
00000000 l    d  .ARM.attributes	00000000 .ARM.attributes
00000000 l    d  .debug_info	00000000 .debug_info
00000000 l    d  .debug_abbrev	00000000 .debug_abbrev
00000000 l    d  .debug_aranges	00000000 .debug_aranges
00000000 l    d  .debug_ranges	00000000 .debug_ranges
00000000 l    d  .debug_macro	00000000 .debug_macro
00000000 l    d  .debug_line	00000000 .debug_line
00000000 l    d  .debug_str	00000000 .debug_str
00000000 l    d  .comment	00000000 .comment
00000000 l    d  .debug_frame	00000000 .debug_frame
00000000 l    df *ABS*	00000000 ./03_MCU/startup/startup_MKL36Z4.o
00000000 l    df *ABS*	00000000 crtstuff.c
0000ef2c l     O .text	00000000 __EH_FRAME_BEGIN__
00008c10 l     F .text	00000000 __do_global_dtors_aux
20000864 l       .bss	00000001 completed.8654
0000ef50 l     O .fini_array	00000000 __do_global_dtors_aux_fini_array_entry
00008c38 l     F .text	00000000 frame_dummy
20000868 l       .bss	00000018 object.8659
0000ef4c l     O .init_array	00000000 __frame_dummy_init_array_entry
00000000 l    df *ABS*	00000000 c:/program files (x86)/gnu tools arm embedded/7 2017-q4-major/bin/../lib/gcc/arm-none-eabi/7.2.1/../../../../arm-none-eabi/lib/thumb/v6-m/crt0.o
00000000 l    df *ABS*	00000000 _udivsi3.o
00008d1c l       .text	00000000 .udivsi3_skip_div0_test
00000000 l    df *ABS*	00000000 _dvmd_tls.o
00000000 l    df *ABS*	00000000 _arm_cmpdf2.o
00000000 l    df *ABS*	00000000 _aeabi_uldivmod.o
00000000 l    df *ABS*	00000000 libgcc2.c
00000000 l    df *ABS*	00000000 adddf3.c
00000000 l    df *ABS*	00000000 divdf3.c
00000000 l    df *ABS*	00000000 eqdf2.c
00000000 l    df *ABS*	00000000 gedf2.c
00000000 l    df *ABS*	00000000 ledf2.c
00000000 l    df *ABS*	00000000 muldf3.c
00000000 l    df *ABS*	00000000 subdf3.c
00000000 l    df *ABS*	00000000 fixdfsi.c
00000000 l    df *ABS*	00000000 floatsidf.c
00000000 l    df *ABS*	00000000 truncdfsf2.c
00000000 l    df *ABS*	00000000 _clzsi2.o
00000000 l    df *ABS*	00000000 _clzdi2.o
00000000 l    df *ABS*	00000000 lib_a-strlen.o
00000000 l    df *ABS*	00000000 isr.c
20000880 l     O .bss	00000001 count.6765
00000000 l    df *ABS*	00000000 main.c
20000800 l     O .data	00000004 sn.6847
00000000 l    df *ABS*	00000000 valueType.c
00000000 l    df *ABS*	00000000 common.c
00000000 l    df *ABS*	00000000 light.c
00000000 l    df *ABS*	00000000 lcd.c
0000e87c l     O .text	00000600 nAsciiDot
0000ee7c l     O .text	000000aa GB_16
00000000 l    df *ABS*	00000000 system_MKL36Z4.c
00000000 l    df *ABS*	00000000 wdog.c
00000000 l    df *ABS*	00000000 exit.c
00000000 l    df *ABS*	00000000 init.c
00000000 l    df *ABS*	00000000 memcpy-stub.c
00000000 l    df *ABS*	00000000 memset.c
00000000 l    df *ABS*	00000000 strncpy.c
00000000 l    df *ABS*	00000000 _exit.c
00000000 l    df *ABS*	00000000 impure.c
20000804 l     O .data	00000060 impure_data
00000000 l    df *ABS*	00000000 c:/program files (x86)/gnu tools arm embedded/7 2017-q4-major/bin/../lib/gcc/arm-none-eabi/7.2.1/thumb/v6-m/crti.o
00000000 l    df *ABS*	00000000 c:/program files (x86)/gnu tools arm embedded/7 2017-q4-major/bin/../lib/gcc/arm-none-eabi/7.2.1/thumb/v6-m/crtn.o
00000000 l    df *ABS*	00000000 
0000ef50 l       .init_array	00000000 __init_array_end
0000ef4c l       .init_array	00000000 __preinit_array_end
0000ef4c l       .init_array	00000000 __init_array_start
0000ef4c l       .init_array	00000000 __preinit_array_start
20000884 g     O .bss	00000004 flash_write
20000f70 g       .heap	00000000 __HeapBase
0000d868 g     F .text	00000046 LCD_DrawPoint
00008e74 g     F .text	00000012 .hidden __aeabi_dcmple
20000888 g     O .bss	00000004 gpio_get_int
2000088c g     O .bss	00000004 flash_read_physical
00009cb0 g     F .text	00000078 .hidden __eqdf2
20000890 g     O .bss	00000004 gpio_drive_strength
20000800 g       .data	00000000 __data_start__
00000100 g       *ABS*	00000000 STACK_SIZE
00008d14  w    F .text	00000004 I2C0_IRQHandler
20000894 g     O .bss	00000004 uecom_config
20000898 g     O .bss	00000004 uecom_getSignalPower
00008d14  w    F .text	00000004 HardFault_Handler
20000f54 g     O .bss	00000004 SPI_sendN
00008d14  w    F .text	00000004 SysTick_Handler
0000d5ac g     F .text	00000030 light_init
00008d14  w    F .text	00000004 PendSV_Handler
00008d14  w    F .text	00000004 NMI_Handler
0000ef4c g       .ARM	00000000 __exidx_end
00008d14  w    F .text	00000004 PORTC_PORTD_IRQHandler
2000089c g     O .bss	00000004 uart_sendN
00008d14  w    F .text	00000004 I2C1_IRQHandler
00008d14  w    F .text	00000004 UART1_IRQHandler
00009d28 g     F .text	000000c8 .hidden __gtdf2
0000fcac g       .mac_config	00000000 __etext
200008a0 g     O .bss	00000004 disable_lptmr_int
00008d14  w    F .text	00000004 DMA2_IRQHandler
2000097c g     O .bss	000000ab gFlashData
200008a4 g     O .bss	00000004 uart_enable_re_int
00008d14  w    F .text	00000004 TPM0_IRQHandler
0000e028 g     F .text	0000003c LCD_WR_REG
00008e44 g     F .text	00000010 .hidden __aeabi_cdcmple
200008a8 g     O .bss	00000004 gnss_get_time
00008d14  w    F .text	00000004 I2S0_IRQHandler
00008d14  w    F .text	00000004 LLWU_IRQHandler
00008d14  w    F .text	00000004 TSI0_IRQHandler
0000ae50 g     F .text	00000054 UART0_IRQHandler
0000e300 g     F .text	00000012 memcpy
00008e34 g     F .text	00000020 .hidden __aeabi_cdrcmple
200008ac g     O .bss	00000004 flash_protect
00009df0 g     F .text	000000d0 .hidden __ltdf2
0000ef4c g       .init_array	00000000 __DTOR_END__
00008eb0 g     F .text	0000003e .hidden __aeabi_uldivmod
0000d9da g     F .text	0000009c LCD_DrawSurface
200008b0 g     O .bss	00000004 gpio_clear_allint
00008d14  w    F .text	00000004 ADC0_IRQHandler
0000d8ae g     F .text	0000012c LCD_DrawLine
00008d1c g     F .text	0000010a .hidden __udivsi3
20000864 g       .bss	00000000 __START_BSS
200008b4 g     O .bss	00000004 tsi_set_threshold
0000da76 g     F .text	000000c2 LCD_ShowCharactor
20001170 g       .heap	00000000 __HeapLimit
20000864 g       .bss	00000000 __bss_start__
200008b8 g     O .bss	00000004 flash_erase
00008d14  w    F .text	00000004 SPI1_IRQHandler
00008ef0 g     F .text	00000182 .hidden __udivmoddi4
20000a28 g     O .bss	00000400 gRecvBuf
00008d14  w    F .text	00000004 DefaultISR
200008bc g     O .bss	00000004 uart_disable_re_int
00008e60 g     F .text	00000012 .hidden __aeabi_dcmplt
000096ac g     F .text	00000604 .hidden __aeabi_ddiv
0000ef44 g       .ARM	00000000 __exidx_start
00009ec0 g     F .text	000004e4 .hidden __aeabi_dmul
0000ef28 g     O .text	00000004 _global_impure_ptr
0000e2b8 g     F .text	00000048 __libc_init_array
200008c0 g     O .bss	00000004 flash_init
00008c58 g     F .text	00000000 _mainCRTStartup
0000d578 g     F .text	00000034 setVector
0000c7b8 g     F .text	000001b4 LCD_ShowInit
200008c4 g     O .bss	00000004 enable_lptmr_int
0000ef2c g     F .text	00000000 _init
00008d14  w    F .text	00000004 TPM2_IRQHandler
200008c8 g     O .bss	00000004 uecom_getCurCommunity
0000ab14 g     F .text	00000108 .hidden __aeabi_d2f
200008cc g     O .bss	00000004 tsi_softsearch
00008d14  w    F .text	00000004 RTC_IRQHandler
0000ce3c g     F .text	000006f0 funPointerInit
00008cd0  w    F .text	00000044 Reset_Handler
20000f58 g     O .bss	00000004 SPI_disable_re_int
00008d14  w    F .text	00000004 LCD_IRQHandler
200008d0 g     O .bss	00000004 adc_read
0000dfd8 g     F .text	00000050 LCD_WR_DATA
200008d4 g     O .bss	00000004 uart_get_re_int
200008d8 g     O .bss	00000004 uart_reN
00009074 g     F .text	00000638 .hidden __aeabi_dadd
200008dc g     O .bss	00000004 gnss_init
00009df0 g     F .text	000000d0 .hidden __ledf2
00008d14  w    F .text	00000004 RTC_Seconds_IRQHandler
00008d14  w    F .text	00000004 MCG_IRQHandler
200008e0 g     O .bss	00000004 uart_send_string
00008d14  w    F .text	00000004 UART2_IRQHandler
20000864 g       .data	00000000 __data_end__
0000ef4c g       .init_array	00000000 __CTOR_LIST__
00000200 g       *ABS*	00000000 HEAP_SIZE
00008e88 g     F .text	00000012 .hidden __aeabi_dcmpgt
0000ac1c g     F .text	0000003c .hidden __clzsi2
200008e4 g     O .bss	00000004 uart_init
200008e8 g     O .bss	00000004 tsi_get_value16
20000f70 g       .bss	00000000 __bss_end__
200008ec g     O .bss	00000004 gpio_get
00008d14  w    F .text	00000004 Reserved20_IRQHandler
20000f5c g     O .bss	00000004 SPI_receive1
00008e9c g     F .text	00000012 .hidden __aeabi_dcmpge
20000e28 g     O .bss	0000000e gTime
0000a3a4 g     F .text	00000690 .hidden __aeabi_dsub
00008c58 g     F .text	00000000 _start
200008f0 g     O .bss	00000004 uart_deint
0000dd44 g     F .text	00000258 aotu_panel
200008f4 g     O .bss	00000004 http_get
0000e322 g     F .text	00000028 strncpy
200008f8 g     O .bss	00000004 tsi_disable_re_int
0000c2dc g     F .text	00000024 flashData_get
200008fc g     O .bss	00000004 lptmr_init
20000f60 g     O .bss	00000004 SPI_receiveN
20000900 g     O .bss	00000004 uecom_send
0000aaa0 g     F .text	00000074 .hidden __aeabi_i2d
0000fc00 g     O .mac_config	000000ab flashInit
20000904 g     O .bss	00000004 gpio_disable_int
0000cc0c g     F .text	000001d8 myItoa
20000908 g     O .bss	00000004 gnss_get_location
00008e30  w    F .text	00000002 .hidden __aeabi_ldiv0
2000090c g     O .bss	00000004 flash_read_logic
0000cde4 g     F .text	00000058 Delay_ms
20000f64 g     O .bss	00000004 SPI_send1
20000910 g     O .bss	00000004 uart_re1
20000914 g     O .bss	00000004 uecom_getIMEI
20000918 g     O .bss	00000004 gnss_get_attitude
0000df9c g     F .text	0000003c LCD_WR_DATA8
0000ac80 g     F .text	0000013c LPTMR0_IRQ
2000091c g     O .bss	00000004 gpio_clear_int
0000d600 g     F .text	00000268 LCD_Init
0000d5dc g     F .text	00000024 light_change
0000e312 g     F .text	00000010 memset
00008800 g       .interrupts	000000c0 __isr_vector
0000aef0 g     F .text	000013ec main
0000d52c g     F .text	0000004c cpy_nvic
00008d14  w    F .text	00000004 PIT_IRQHandler
20000920 g     O .bss	00000004 gnss_get_speed
20000e38 g     O .bss	00000117 gUserData
00008d1c g     F .text	00000000 .hidden __aeabi_uidiv
00008d14  w    F .text	00000004 SVC_Handler
20000800 g       .data	00000000 __DATA_RAM
20000924 g     O .bss	00000004 tsi_enable_re_int
20000928 g     O .bss	00000004 lptmr_reset
20000f70 g       .heap	00000000 __end__
2000092c g     O .bss	00000004 uecom_getUEIP
0000ef4c g       .init_array	00000000 __CTOR_END__
00008d14  w    F .text	00000004 DMA3_IRQHandler
0000ef4c g       .init_array	00000000 __DTOR_LIST__
20000f70 g       .bss	00000000 __END_BSS
0000e144 g     F .text	00000124 SystemInit
00008d14  w    F .text	00000004 DMA0_IRQHandler
00009cb0 g     F .text	00000078 .hidden __nedf2
0000ef38 g     F .text	00000000 _fini
20000930 g     O .bss	00000004 uecom_deInit
00008d14  w    F .text	00000004 DAC0_IRQHandler
0000e064 g     F .text	0000002e LCD_WR_REG_DATA
20001800 g       .stack	00000000 __StackTop
20000934 g     O .bss	00000004 adc_init
20000938 g     O .bss	00000004 uecom_interrupt
20000800 g       .mtb	00000000 _mtb_end
2000093c g     O .bss	00000004 tsi_init
0000fd10 g       *ABS*	00000000 __DATA_END
20000940 g     O .bss	00000004 flash_isempty
20000944 g     O .bss	00000004 gpio_enable_int
00008d14  w    F .text	00000004 TPM1_IRQHandler
20001800 g       *ABS*	00000000 __stack
00008e28 g     F .text	00000008 .hidden __aeabi_uidivmod
00008e54 g     F .text	0000000c .hidden __aeabi_dcmpeq
00008d14  w    F .text	00000004 LVD_LVW_IRQHandler
20000f50 g     O .bss	00000002 gFrameCmd
20000948 g     O .bss	00000004 gpio_pull
00008d14  w    F .text	00000004 SPI0_IRQHandler
00008d14  w    F .text	00000004 PORTA_IRQHandler
00008800 g       .interrupts	00000000 __VECTOR_TABLE
0000fcac g       .mac_config	00000000 __DATA_ROM
20001700 g       *ABS*	00000000 __StackLimit
20000f68 g     O .bss	00000004 SPI_init
0000e28c g     F .text	0000002c exit
00008d14  w    F .text	00000004 FTFA_IRQHandler
2000094c g     O .bss	00000004 uecom_switch
0000e092 g     F .text	000000b0 Address_set
0000aa34 g     F .text	0000006c .hidden __aeabi_d2iz
20000800 g       .mtb	00000000 _mtb_start
00008d14  w    F .text	00000004 Reserved40_IRQHandler
20000950 g     O .bss	00000004 uecom_default_delay_ms
0000c300 g     F .text	000002c8 userData_init
00008e30  w    F .text	00000002 .hidden __aeabi_idiv0
0000db38 g     F .text	0000020c LCD_ShowString
0000e34c g     F .text	00000002 _exit
00008d14  w    F .text	00000004 LPTMR0_IRQHandler
0000ac70 g     F .text	0000000e strlen
00008e44 g     F .text	00000010 .hidden __aeabi_cdcmpeq
00009d28 g     F .text	000000c8 .hidden __gedf2
20000954 g     O .bss	00000004 uart_send1
20000958 g     O .bss	00000004 systemTimeGet
2000095c g     O .bss	00000004 uecom_fast_init
0000e268 g     F .text	00000024 wdog_stop
20000960 g     O .bss	00000004 gpio_set
20000964 g     O .bss	00000004 uecom_getBSNum
20000968 g     O .bss	00000004 gpio_reverse
2000096c g     O .bss	00000004 uecom_getFirmVer
20000970 g     O .bss	00000004 uecom_init
20000974 g     O .bss	00000004 gpio_init
0000caf4 g     F .text	00000118 LCD_ShowFlash
20000f6c g     O .bss	00000004 SPI_enable_re_int
20000978 g     O .bss	00000004 uecom_getIMSI
0000ac58 g     F .text	00000016 .hidden __clzdi2
00008d14  w    F .text	00000004 CMP0_IRQHandler
0000aea4 g     F .text	0000004c UART1_IRQ
0000adbc g     F .text	00000094 TSI0_IRQ
0000c5c8 g     F .text	000001f0 userData_get
20000f52 g     O .bss	00000002 gRecvLength
0000c96c g     F .text	00000188 LCDShowTime
00008d14  w    F .text	00000004 DMA1_IRQHandler



Disassembly of section .text:

00008c10 <__do_global_dtors_aux>:
__do_global_dtors_aux():
    8c10:	b510      	push	{r4, lr}
    8c12:	4c06      	ldr	r4, [pc, #24]	; (8c2c <__do_global_dtors_aux+0x1c>)
    8c14:	7823      	ldrb	r3, [r4, #0]
    8c16:	2b00      	cmp	r3, #0
    8c18:	d107      	bne.n	8c2a <__do_global_dtors_aux+0x1a>
    8c1a:	4b05      	ldr	r3, [pc, #20]	; (8c30 <__do_global_dtors_aux+0x20>)
    8c1c:	2b00      	cmp	r3, #0
    8c1e:	d002      	beq.n	8c26 <__do_global_dtors_aux+0x16>
    8c20:	4804      	ldr	r0, [pc, #16]	; (8c34 <__do_global_dtors_aux+0x24>)
    8c22:	e000      	b.n	8c26 <__do_global_dtors_aux+0x16>
    8c24:	bf00      	nop
    8c26:	2301      	movs	r3, #1
    8c28:	7023      	strb	r3, [r4, #0]
    8c2a:	bd10      	pop	{r4, pc}
    8c2c:	20000864 	.word	0x20000864
    8c30:	00000000 	.word	0x00000000
    8c34:	0000ef2c 	.word	0x0000ef2c

00008c38 <frame_dummy>:
frame_dummy():
    8c38:	4b04      	ldr	r3, [pc, #16]	; (8c4c <frame_dummy+0x14>)
    8c3a:	b510      	push	{r4, lr}
    8c3c:	2b00      	cmp	r3, #0
    8c3e:	d003      	beq.n	8c48 <frame_dummy+0x10>
    8c40:	4903      	ldr	r1, [pc, #12]	; (8c50 <frame_dummy+0x18>)
    8c42:	4804      	ldr	r0, [pc, #16]	; (8c54 <frame_dummy+0x1c>)
    8c44:	e000      	b.n	8c48 <frame_dummy+0x10>
    8c46:	bf00      	nop
    8c48:	bd10      	pop	{r4, pc}
    8c4a:	46c0      	nop			; (mov r8, r8)
    8c4c:	00000000 	.word	0x00000000
    8c50:	20000868 	.word	0x20000868
    8c54:	0000ef2c 	.word	0x0000ef2c

00008c58 <_mainCRTStartup>:
_start():
    8c58:	4b16      	ldr	r3, [pc, #88]	; (8cb4 <_mainCRTStartup+0x5c>)
    8c5a:	2b00      	cmp	r3, #0
    8c5c:	d100      	bne.n	8c60 <_mainCRTStartup+0x8>
    8c5e:	4b14      	ldr	r3, [pc, #80]	; (8cb0 <_mainCRTStartup+0x58>)
    8c60:	469d      	mov	sp, r3
    8c62:	2240      	movs	r2, #64	; 0x40
    8c64:	0292      	lsls	r2, r2, #10
    8c66:	1a9a      	subs	r2, r3, r2
    8c68:	4692      	mov	sl, r2
    8c6a:	2100      	movs	r1, #0
    8c6c:	468b      	mov	fp, r1
    8c6e:	460f      	mov	r7, r1
    8c70:	4813      	ldr	r0, [pc, #76]	; (8cc0 <_mainCRTStartup+0x68>)
    8c72:	4a14      	ldr	r2, [pc, #80]	; (8cc4 <_mainCRTStartup+0x6c>)
    8c74:	1a12      	subs	r2, r2, r0
    8c76:	f005 fb4c 	bl	e312 <memset>
    8c7a:	4b0f      	ldr	r3, [pc, #60]	; (8cb8 <_mainCRTStartup+0x60>)
    8c7c:	2b00      	cmp	r3, #0
    8c7e:	d000      	beq.n	8c82 <_mainCRTStartup+0x2a>
    8c80:	4798      	blx	r3
    8c82:	4b0e      	ldr	r3, [pc, #56]	; (8cbc <_mainCRTStartup+0x64>)
    8c84:	2b00      	cmp	r3, #0
    8c86:	d000      	beq.n	8c8a <_mainCRTStartup+0x32>
    8c88:	4798      	blx	r3
    8c8a:	2000      	movs	r0, #0
    8c8c:	2100      	movs	r1, #0
    8c8e:	0004      	movs	r4, r0
    8c90:	000d      	movs	r5, r1
    8c92:	480d      	ldr	r0, [pc, #52]	; (8cc8 <_mainCRTStartup+0x70>)
    8c94:	2800      	cmp	r0, #0
    8c96:	d002      	beq.n	8c9e <_mainCRTStartup+0x46>
    8c98:	480c      	ldr	r0, [pc, #48]	; (8ccc <_mainCRTStartup+0x74>)
    8c9a:	e000      	b.n	8c9e <_mainCRTStartup+0x46>
    8c9c:	bf00      	nop
    8c9e:	f005 fb0b 	bl	e2b8 <__libc_init_array>
    8ca2:	0020      	movs	r0, r4
    8ca4:	0029      	movs	r1, r5
    8ca6:	f002 f923 	bl	aef0 <main>
    8caa:	f005 faef 	bl	e28c <exit>
    8cae:	46c0      	nop			; (mov r8, r8)
    8cb0:	00080000 	.word	0x00080000
    8cb4:	20001800 	.word	0x20001800
	...
    8cc0:	20000864 	.word	0x20000864
    8cc4:	20000f70 	.word	0x20000f70
	...

00008cd0 <Reset_Handler>:
Reset_Handler():
E:\2017-2018\03_Graduation Project\04_Software\05_Wangshi\03_UpdateSoftware-180702\02_UEUser\KL36_Update-180627\Debug/../03_MCU/startup/startup_MKL36Z4.S:118
    .align 2
    .globl   Reset_Handler
    .weak    Reset_Handler
    .type    Reset_Handler, %function
Reset_Handler:
    cpsid   i               /* Mask interrupts */
    8cd0:	b672      	cpsid	i
E:\2017-2018\03_Graduation Project\04_Software\05_Wangshi\03_UpdateSoftware-180702\02_UEUser\KL36_Update-180627\Debug/../03_MCU/startup/startup_MKL36Z4.S:120
#ifndef __NO_SYSTEM_INIT
    bl SystemInit
    8cd2:	f005 fa37 	bl	e144 <SystemInit>
E:\2017-2018\03_Graduation Project\04_Software\05_Wangshi\03_UpdateSoftware-180702\02_UEUser\KL36_Update-180627\Debug/../03_MCU/startup/startup_MKL36Z4.S:122
#endif
    cpsie   i               /* Unmask interrupts */
    8cd6:	b662      	cpsie	i
E:\2017-2018\03_Graduation Project\04_Software\05_Wangshi\03_UpdateSoftware-180702\02_UEUser\KL36_Update-180627\Debug/../03_MCU/startup/startup_MKL36Z4.S:130
 *      linker script.
 *      __etext: End of code section, i.e., begin of data sections to copy from.
 *      __data_start__/__data_end__: RAM address range that data should be
 *      copied to. Both must be aligned to 4 bytes boundary.  */

    ldr    r1, =__etext
    8cd8:	4909      	ldr	r1, [pc, #36]	; (8d00 <Reset_Handler+0x30>)
E:\2017-2018\03_Graduation Project\04_Software\05_Wangshi\03_UpdateSoftware-180702\02_UEUser\KL36_Update-180627\Debug/../03_MCU/startup/startup_MKL36Z4.S:131
    ldr    r2, =__data_start__
    8cda:	4a0a      	ldr	r2, [pc, #40]	; (8d04 <Reset_Handler+0x34>)
E:\2017-2018\03_Graduation Project\04_Software\05_Wangshi\03_UpdateSoftware-180702\02_UEUser\KL36_Update-180627\Debug/../03_MCU/startup/startup_MKL36Z4.S:132
    ldr    r3, =__data_end__
    8cdc:	4b0a      	ldr	r3, [pc, #40]	; (8d08 <Reset_Handler+0x38>)
E:\2017-2018\03_Graduation Project\04_Software\05_Wangshi\03_UpdateSoftware-180702\02_UEUser\KL36_Update-180627\Debug/../03_MCU/startup/startup_MKL36Z4.S:134

    subs    r3, r2
    8cde:	1a9b      	subs	r3, r3, r2
E:\2017-2018\03_Graduation Project\04_Software\05_Wangshi\03_UpdateSoftware-180702\02_UEUser\KL36_Update-180627\Debug/../03_MCU/startup/startup_MKL36Z4.S:135
    ble     .LC0
    8ce0:	dd03      	ble.n	8cea <Reset_Handler+0x1a>
E:\2017-2018\03_Graduation Project\04_Software\05_Wangshi\03_UpdateSoftware-180702\02_UEUser\KL36_Update-180627\Debug/../03_MCU/startup/startup_MKL36Z4.S:138

.LC1:
    subs    r3, 4
    8ce2:	3b04      	subs	r3, #4
E:\2017-2018\03_Graduation Project\04_Software\05_Wangshi\03_UpdateSoftware-180702\02_UEUser\KL36_Update-180627\Debug/../03_MCU/startup/startup_MKL36Z4.S:139
    ldr    r0, [r1,r3]
    8ce4:	58c8      	ldr	r0, [r1, r3]
E:\2017-2018\03_Graduation Project\04_Software\05_Wangshi\03_UpdateSoftware-180702\02_UEUser\KL36_Update-180627\Debug/../03_MCU/startup/startup_MKL36Z4.S:140
    str    r0, [r2,r3]
    8ce6:	50d0      	str	r0, [r2, r3]
E:\2017-2018\03_Graduation Project\04_Software\05_Wangshi\03_UpdateSoftware-180702\02_UEUser\KL36_Update-180627\Debug/../03_MCU/startup/startup_MKL36Z4.S:141
    bgt    .LC1
    8ce8:	dcfb      	bgt.n	8ce2 <Reset_Handler+0x12>
E:\2017-2018\03_Graduation Project\04_Software\05_Wangshi\03_UpdateSoftware-180702\02_UEUser\KL36_Update-180627\Debug/../03_MCU/startup/startup_MKL36Z4.S:154
 *     Loop to zero out BSS section, which uses following symbols
 *     in linker script:
 *      __bss_start__: start of BSS section. Must align to 4
 *      __bss_end__: end of BSS section. Must align to 4
 */
    ldr r1, =__bss_start__
    8cea:	4908      	ldr	r1, [pc, #32]	; (8d0c <Reset_Handler+0x3c>)
E:\2017-2018\03_Graduation Project\04_Software\05_Wangshi\03_UpdateSoftware-180702\02_UEUser\KL36_Update-180627\Debug/../03_MCU/startup/startup_MKL36Z4.S:155
    ldr r2, =__bss_end__
    8cec:	4a08      	ldr	r2, [pc, #32]	; (8d10 <Reset_Handler+0x40>)
E:\2017-2018\03_Graduation Project\04_Software\05_Wangshi\03_UpdateSoftware-180702\02_UEUser\KL36_Update-180627\Debug/../03_MCU/startup/startup_MKL36Z4.S:157

    subs    r2, r1
    8cee:	1a52      	subs	r2, r2, r1
E:\2017-2018\03_Graduation Project\04_Software\05_Wangshi\03_UpdateSoftware-180702\02_UEUser\KL36_Update-180627\Debug/../03_MCU/startup/startup_MKL36Z4.S:158
    ble .LC3
    8cf0:	dd03      	ble.n	8cfa <Reset_Handler+0x2a>
E:\2017-2018\03_Graduation Project\04_Software\05_Wangshi\03_UpdateSoftware-180702\02_UEUser\KL36_Update-180627\Debug/../03_MCU/startup/startup_MKL36Z4.S:160

    movs    r0, 0
    8cf2:	2000      	movs	r0, #0
E:\2017-2018\03_Graduation Project\04_Software\05_Wangshi\03_UpdateSoftware-180702\02_UEUser\KL36_Update-180627\Debug/../03_MCU/startup/startup_MKL36Z4.S:162
.LC2:
    str r0, [r1, r2]
    8cf4:	5088      	str	r0, [r1, r2]
E:\2017-2018\03_Graduation Project\04_Software\05_Wangshi\03_UpdateSoftware-180702\02_UEUser\KL36_Update-180627\Debug/../03_MCU/startup/startup_MKL36Z4.S:163
    subs    r2, 4
    8cf6:	3a04      	subs	r2, #4
E:\2017-2018\03_Graduation Project\04_Software\05_Wangshi\03_UpdateSoftware-180702\02_UEUser\KL36_Update-180627\Debug/../03_MCU/startup/startup_MKL36Z4.S:164
    bge .LC2
    8cf8:	dafc      	bge.n	8cf4 <Reset_Handler+0x24>
E:\2017-2018\03_Graduation Project\04_Software\05_Wangshi\03_UpdateSoftware-180702\02_UEUser\KL36_Update-180627\Debug/../03_MCU/startup/startup_MKL36Z4.S:170
.LC3:
#endif
#ifndef __START
#define __START _start
#endif
    bl    __START
    8cfa:	f7ff ffad 	bl	8c58 <_mainCRTStartup>
    8cfe:	0000      	.short	0x0000
E:\2017-2018\03_Graduation Project\04_Software\05_Wangshi\03_UpdateSoftware-180702\02_UEUser\KL36_Update-180627\Debug/../03_MCU/startup/startup_MKL36Z4.S:130
    ldr    r1, =__etext
    8d00:	0000fcac 	.word	0x0000fcac
E:\2017-2018\03_Graduation Project\04_Software\05_Wangshi\03_UpdateSoftware-180702\02_UEUser\KL36_Update-180627\Debug/../03_MCU/startup/startup_MKL36Z4.S:131
    ldr    r2, =__data_start__
    8d04:	20000800 	.word	0x20000800
E:\2017-2018\03_Graduation Project\04_Software\05_Wangshi\03_UpdateSoftware-180702\02_UEUser\KL36_Update-180627\Debug/../03_MCU/startup/startup_MKL36Z4.S:132
    ldr    r3, =__data_end__
    8d08:	20000864 	.word	0x20000864
E:\2017-2018\03_Graduation Project\04_Software\05_Wangshi\03_UpdateSoftware-180702\02_UEUser\KL36_Update-180627\Debug/../03_MCU/startup/startup_MKL36Z4.S:154
    ldr r1, =__bss_start__
    8d0c:	20000864 	.word	0x20000864
E:\2017-2018\03_Graduation Project\04_Software\05_Wangshi\03_UpdateSoftware-180702\02_UEUser\KL36_Update-180627\Debug/../03_MCU/startup/startup_MKL36Z4.S:155
    ldr r2, =__bss_end__
    8d10:	20000f70 	.word	0x20000f70

00008d14 <ADC0_IRQHandler>:
DMA1_IRQHandler():
E:\2017-2018\03_Graduation Project\04_Software\05_Wangshi\03_UpdateSoftware-180702\02_UEUser\KL36_Update-180627\Debug/../03_MCU/startup/startup_MKL36Z4.S:179
    .align    1
    .thumb_func
    .weak DefaultISR
    .type DefaultISR, %function
DefaultISR:
    ldr    r0, =DefaultISR
    8d14:	4800      	ldr	r0, [pc, #0]	; (8d18 <ADC0_IRQHandler+0x4>)
E:\2017-2018\03_Graduation Project\04_Software\05_Wangshi\03_UpdateSoftware-180702\02_UEUser\KL36_Update-180627\Debug/../03_MCU/startup/startup_MKL36Z4.S:180
    bx r0
    8d16:	4700      	bx	r0
E:\2017-2018\03_Graduation Project\04_Software\05_Wangshi\03_UpdateSoftware-180702\02_UEUser\KL36_Update-180627\Debug/../03_MCU/startup/startup_MKL36Z4.S:179
    ldr    r0, =DefaultISR
    8d18:	00008d15 	.word	0x00008d15

00008d1c <__udivsi3>:
__aeabi_uidiv():
    8d1c:	2200      	movs	r2, #0
    8d1e:	0843      	lsrs	r3, r0, #1
    8d20:	428b      	cmp	r3, r1
    8d22:	d374      	bcc.n	8e0e <__udivsi3+0xf2>
    8d24:	0903      	lsrs	r3, r0, #4
    8d26:	428b      	cmp	r3, r1
    8d28:	d35f      	bcc.n	8dea <__udivsi3+0xce>
    8d2a:	0a03      	lsrs	r3, r0, #8
    8d2c:	428b      	cmp	r3, r1
    8d2e:	d344      	bcc.n	8dba <__udivsi3+0x9e>
    8d30:	0b03      	lsrs	r3, r0, #12
    8d32:	428b      	cmp	r3, r1
    8d34:	d328      	bcc.n	8d88 <__udivsi3+0x6c>
    8d36:	0c03      	lsrs	r3, r0, #16
    8d38:	428b      	cmp	r3, r1
    8d3a:	d30d      	bcc.n	8d58 <__udivsi3+0x3c>
    8d3c:	22ff      	movs	r2, #255	; 0xff
    8d3e:	0209      	lsls	r1, r1, #8
    8d40:	ba12      	rev	r2, r2
    8d42:	0c03      	lsrs	r3, r0, #16
    8d44:	428b      	cmp	r3, r1
    8d46:	d302      	bcc.n	8d4e <__udivsi3+0x32>
    8d48:	1212      	asrs	r2, r2, #8
    8d4a:	0209      	lsls	r1, r1, #8
    8d4c:	d065      	beq.n	8e1a <__udivsi3+0xfe>
    8d4e:	0b03      	lsrs	r3, r0, #12
    8d50:	428b      	cmp	r3, r1
    8d52:	d319      	bcc.n	8d88 <__udivsi3+0x6c>
    8d54:	e000      	b.n	8d58 <__udivsi3+0x3c>
    8d56:	0a09      	lsrs	r1, r1, #8
    8d58:	0bc3      	lsrs	r3, r0, #15
    8d5a:	428b      	cmp	r3, r1
    8d5c:	d301      	bcc.n	8d62 <__udivsi3+0x46>
    8d5e:	03cb      	lsls	r3, r1, #15
    8d60:	1ac0      	subs	r0, r0, r3
    8d62:	4152      	adcs	r2, r2
    8d64:	0b83      	lsrs	r3, r0, #14
    8d66:	428b      	cmp	r3, r1
    8d68:	d301      	bcc.n	8d6e <__udivsi3+0x52>
    8d6a:	038b      	lsls	r3, r1, #14
    8d6c:	1ac0      	subs	r0, r0, r3
    8d6e:	4152      	adcs	r2, r2
    8d70:	0b43      	lsrs	r3, r0, #13
    8d72:	428b      	cmp	r3, r1
    8d74:	d301      	bcc.n	8d7a <__udivsi3+0x5e>
    8d76:	034b      	lsls	r3, r1, #13
    8d78:	1ac0      	subs	r0, r0, r3
    8d7a:	4152      	adcs	r2, r2
    8d7c:	0b03      	lsrs	r3, r0, #12
    8d7e:	428b      	cmp	r3, r1
    8d80:	d301      	bcc.n	8d86 <__udivsi3+0x6a>
    8d82:	030b      	lsls	r3, r1, #12
    8d84:	1ac0      	subs	r0, r0, r3
    8d86:	4152      	adcs	r2, r2
    8d88:	0ac3      	lsrs	r3, r0, #11
    8d8a:	428b      	cmp	r3, r1
    8d8c:	d301      	bcc.n	8d92 <__udivsi3+0x76>
    8d8e:	02cb      	lsls	r3, r1, #11
    8d90:	1ac0      	subs	r0, r0, r3
    8d92:	4152      	adcs	r2, r2
    8d94:	0a83      	lsrs	r3, r0, #10
    8d96:	428b      	cmp	r3, r1
    8d98:	d301      	bcc.n	8d9e <__udivsi3+0x82>
    8d9a:	028b      	lsls	r3, r1, #10
    8d9c:	1ac0      	subs	r0, r0, r3
    8d9e:	4152      	adcs	r2, r2
    8da0:	0a43      	lsrs	r3, r0, #9
    8da2:	428b      	cmp	r3, r1
    8da4:	d301      	bcc.n	8daa <__udivsi3+0x8e>
    8da6:	024b      	lsls	r3, r1, #9
    8da8:	1ac0      	subs	r0, r0, r3
    8daa:	4152      	adcs	r2, r2
    8dac:	0a03      	lsrs	r3, r0, #8
    8dae:	428b      	cmp	r3, r1
    8db0:	d301      	bcc.n	8db6 <__udivsi3+0x9a>
    8db2:	020b      	lsls	r3, r1, #8
    8db4:	1ac0      	subs	r0, r0, r3
    8db6:	4152      	adcs	r2, r2
    8db8:	d2cd      	bcs.n	8d56 <__udivsi3+0x3a>
    8dba:	09c3      	lsrs	r3, r0, #7
    8dbc:	428b      	cmp	r3, r1
    8dbe:	d301      	bcc.n	8dc4 <__udivsi3+0xa8>
    8dc0:	01cb      	lsls	r3, r1, #7
    8dc2:	1ac0      	subs	r0, r0, r3
    8dc4:	4152      	adcs	r2, r2
    8dc6:	0983      	lsrs	r3, r0, #6
    8dc8:	428b      	cmp	r3, r1
    8dca:	d301      	bcc.n	8dd0 <__udivsi3+0xb4>
    8dcc:	018b      	lsls	r3, r1, #6
    8dce:	1ac0      	subs	r0, r0, r3
    8dd0:	4152      	adcs	r2, r2
    8dd2:	0943      	lsrs	r3, r0, #5
    8dd4:	428b      	cmp	r3, r1
    8dd6:	d301      	bcc.n	8ddc <__udivsi3+0xc0>
    8dd8:	014b      	lsls	r3, r1, #5
    8dda:	1ac0      	subs	r0, r0, r3
    8ddc:	4152      	adcs	r2, r2
    8dde:	0903      	lsrs	r3, r0, #4
    8de0:	428b      	cmp	r3, r1
    8de2:	d301      	bcc.n	8de8 <__udivsi3+0xcc>
    8de4:	010b      	lsls	r3, r1, #4
    8de6:	1ac0      	subs	r0, r0, r3
    8de8:	4152      	adcs	r2, r2
    8dea:	08c3      	lsrs	r3, r0, #3
    8dec:	428b      	cmp	r3, r1
    8dee:	d301      	bcc.n	8df4 <__udivsi3+0xd8>
    8df0:	00cb      	lsls	r3, r1, #3
    8df2:	1ac0      	subs	r0, r0, r3
    8df4:	4152      	adcs	r2, r2
    8df6:	0883      	lsrs	r3, r0, #2
    8df8:	428b      	cmp	r3, r1
    8dfa:	d301      	bcc.n	8e00 <__udivsi3+0xe4>
    8dfc:	008b      	lsls	r3, r1, #2
    8dfe:	1ac0      	subs	r0, r0, r3
    8e00:	4152      	adcs	r2, r2
    8e02:	0843      	lsrs	r3, r0, #1
    8e04:	428b      	cmp	r3, r1
    8e06:	d301      	bcc.n	8e0c <__udivsi3+0xf0>
    8e08:	004b      	lsls	r3, r1, #1
    8e0a:	1ac0      	subs	r0, r0, r3
    8e0c:	4152      	adcs	r2, r2
    8e0e:	1a41      	subs	r1, r0, r1
    8e10:	d200      	bcs.n	8e14 <__udivsi3+0xf8>
    8e12:	4601      	mov	r1, r0
    8e14:	4152      	adcs	r2, r2
    8e16:	4610      	mov	r0, r2
    8e18:	4770      	bx	lr
    8e1a:	e7ff      	b.n	8e1c <__udivsi3+0x100>
    8e1c:	b501      	push	{r0, lr}
    8e1e:	2000      	movs	r0, #0
    8e20:	f000 f806 	bl	8e30 <__aeabi_idiv0>
    8e24:	bd02      	pop	{r1, pc}
    8e26:	46c0      	nop			; (mov r8, r8)

00008e28 <__aeabi_uidivmod>:
__aeabi_uidivmod():
    8e28:	2900      	cmp	r1, #0
    8e2a:	d0f7      	beq.n	8e1c <__udivsi3+0x100>
    8e2c:	e776      	b.n	8d1c <__udivsi3>
    8e2e:	4770      	bx	lr

00008e30 <__aeabi_idiv0>:
__aeabi_idiv0():
    8e30:	4770      	bx	lr
    8e32:	46c0      	nop			; (mov r8, r8)

00008e34 <__aeabi_cdrcmple>:
__aeabi_cdrcmple():
    8e34:	4684      	mov	ip, r0
    8e36:	1c10      	adds	r0, r2, #0
    8e38:	4662      	mov	r2, ip
    8e3a:	468c      	mov	ip, r1
    8e3c:	1c19      	adds	r1, r3, #0
    8e3e:	4663      	mov	r3, ip
    8e40:	e000      	b.n	8e44 <__aeabi_cdcmpeq>
    8e42:	46c0      	nop			; (mov r8, r8)

00008e44 <__aeabi_cdcmpeq>:
__aeabi_cdcmpeq():
    8e44:	b51f      	push	{r0, r1, r2, r3, r4, lr}
    8e46:	f000 ffd3 	bl	9df0 <__ledf2>
    8e4a:	2800      	cmp	r0, #0
    8e4c:	d401      	bmi.n	8e52 <__aeabi_cdcmpeq+0xe>
    8e4e:	2100      	movs	r1, #0
    8e50:	42c8      	cmn	r0, r1
    8e52:	bd1f      	pop	{r0, r1, r2, r3, r4, pc}

00008e54 <__aeabi_dcmpeq>:
__aeabi_dcmpeq():
    8e54:	b510      	push	{r4, lr}
    8e56:	f000 ff2b 	bl	9cb0 <__eqdf2>
    8e5a:	4240      	negs	r0, r0
    8e5c:	3001      	adds	r0, #1
    8e5e:	bd10      	pop	{r4, pc}

00008e60 <__aeabi_dcmplt>:
__aeabi_dcmplt():
    8e60:	b510      	push	{r4, lr}
    8e62:	f000 ffc5 	bl	9df0 <__ledf2>
    8e66:	2800      	cmp	r0, #0
    8e68:	db01      	blt.n	8e6e <__aeabi_dcmplt+0xe>
    8e6a:	2000      	movs	r0, #0
    8e6c:	bd10      	pop	{r4, pc}
    8e6e:	2001      	movs	r0, #1
    8e70:	bd10      	pop	{r4, pc}
    8e72:	46c0      	nop			; (mov r8, r8)

00008e74 <__aeabi_dcmple>:
__aeabi_dcmple():
    8e74:	b510      	push	{r4, lr}
    8e76:	f000 ffbb 	bl	9df0 <__ledf2>
    8e7a:	2800      	cmp	r0, #0
    8e7c:	dd01      	ble.n	8e82 <__aeabi_dcmple+0xe>
    8e7e:	2000      	movs	r0, #0
    8e80:	bd10      	pop	{r4, pc}
    8e82:	2001      	movs	r0, #1
    8e84:	bd10      	pop	{r4, pc}
    8e86:	46c0      	nop			; (mov r8, r8)

00008e88 <__aeabi_dcmpgt>:
__aeabi_dcmpgt():
    8e88:	b510      	push	{r4, lr}
    8e8a:	f000 ff4d 	bl	9d28 <__gedf2>
    8e8e:	2800      	cmp	r0, #0
    8e90:	dc01      	bgt.n	8e96 <__aeabi_dcmpgt+0xe>
    8e92:	2000      	movs	r0, #0
    8e94:	bd10      	pop	{r4, pc}
    8e96:	2001      	movs	r0, #1
    8e98:	bd10      	pop	{r4, pc}
    8e9a:	46c0      	nop			; (mov r8, r8)

00008e9c <__aeabi_dcmpge>:
__aeabi_dcmpge():
    8e9c:	b510      	push	{r4, lr}
    8e9e:	f000 ff43 	bl	9d28 <__gedf2>
    8ea2:	2800      	cmp	r0, #0
    8ea4:	da01      	bge.n	8eaa <__aeabi_dcmpge+0xe>
    8ea6:	2000      	movs	r0, #0
    8ea8:	bd10      	pop	{r4, pc}
    8eaa:	2001      	movs	r0, #1
    8eac:	bd10      	pop	{r4, pc}
    8eae:	46c0      	nop			; (mov r8, r8)

00008eb0 <__aeabi_uldivmod>:
__aeabi_uldivmod():
    8eb0:	2b00      	cmp	r3, #0
    8eb2:	d111      	bne.n	8ed8 <__aeabi_uldivmod+0x28>
    8eb4:	2a00      	cmp	r2, #0
    8eb6:	d10f      	bne.n	8ed8 <__aeabi_uldivmod+0x28>
    8eb8:	2900      	cmp	r1, #0
    8eba:	d100      	bne.n	8ebe <__aeabi_uldivmod+0xe>
    8ebc:	2800      	cmp	r0, #0
    8ebe:	d002      	beq.n	8ec6 <__aeabi_uldivmod+0x16>
    8ec0:	2100      	movs	r1, #0
    8ec2:	43c9      	mvns	r1, r1
    8ec4:	1c08      	adds	r0, r1, #0
    8ec6:	b407      	push	{r0, r1, r2}
    8ec8:	4802      	ldr	r0, [pc, #8]	; (8ed4 <__aeabi_uldivmod+0x24>)
    8eca:	a102      	add	r1, pc, #8	; (adr r1, 8ed4 <__aeabi_uldivmod+0x24>)
    8ecc:	1840      	adds	r0, r0, r1
    8ece:	9002      	str	r0, [sp, #8]
    8ed0:	bd03      	pop	{r0, r1, pc}
    8ed2:	46c0      	nop			; (mov r8, r8)
    8ed4:	ffffff5d 	.word	0xffffff5d
    8ed8:	b403      	push	{r0, r1}
    8eda:	4668      	mov	r0, sp
    8edc:	b501      	push	{r0, lr}
    8ede:	9802      	ldr	r0, [sp, #8]
    8ee0:	f000 f806 	bl	8ef0 <__udivmoddi4>
    8ee4:	9b01      	ldr	r3, [sp, #4]
    8ee6:	469e      	mov	lr, r3
    8ee8:	b002      	add	sp, #8
    8eea:	bc0c      	pop	{r2, r3}
    8eec:	4770      	bx	lr
    8eee:	46c0      	nop			; (mov r8, r8)

00008ef0 <__udivmoddi4>:
__udivmoddi4():
    8ef0:	b5f0      	push	{r4, r5, r6, r7, lr}
    8ef2:	464f      	mov	r7, r9
    8ef4:	4646      	mov	r6, r8
    8ef6:	46d6      	mov	lr, sl
    8ef8:	b5c0      	push	{r6, r7, lr}
    8efa:	0004      	movs	r4, r0
    8efc:	b082      	sub	sp, #8
    8efe:	000d      	movs	r5, r1
    8f00:	4691      	mov	r9, r2
    8f02:	4698      	mov	r8, r3
    8f04:	428b      	cmp	r3, r1
    8f06:	d82f      	bhi.n	8f68 <__udivmoddi4+0x78>
    8f08:	d02c      	beq.n	8f64 <__udivmoddi4+0x74>
    8f0a:	4641      	mov	r1, r8
    8f0c:	4648      	mov	r0, r9
    8f0e:	f001 fea3 	bl	ac58 <__clzdi2>
    8f12:	0029      	movs	r1, r5
    8f14:	0006      	movs	r6, r0
    8f16:	0020      	movs	r0, r4
    8f18:	f001 fe9e 	bl	ac58 <__clzdi2>
    8f1c:	1a33      	subs	r3, r6, r0
    8f1e:	469c      	mov	ip, r3
    8f20:	3b20      	subs	r3, #32
    8f22:	469a      	mov	sl, r3
    8f24:	d500      	bpl.n	8f28 <__udivmoddi4+0x38>
    8f26:	e076      	b.n	9016 <__udivmoddi4+0x126>
    8f28:	464b      	mov	r3, r9
    8f2a:	4652      	mov	r2, sl
    8f2c:	4093      	lsls	r3, r2
    8f2e:	001f      	movs	r7, r3
    8f30:	464b      	mov	r3, r9
    8f32:	4662      	mov	r2, ip
    8f34:	4093      	lsls	r3, r2
    8f36:	001e      	movs	r6, r3
    8f38:	42af      	cmp	r7, r5
    8f3a:	d828      	bhi.n	8f8e <__udivmoddi4+0x9e>
    8f3c:	d025      	beq.n	8f8a <__udivmoddi4+0x9a>
    8f3e:	4653      	mov	r3, sl
    8f40:	1ba4      	subs	r4, r4, r6
    8f42:	41bd      	sbcs	r5, r7
    8f44:	2b00      	cmp	r3, #0
    8f46:	da00      	bge.n	8f4a <__udivmoddi4+0x5a>
    8f48:	e07b      	b.n	9042 <__udivmoddi4+0x152>
    8f4a:	2200      	movs	r2, #0
    8f4c:	2300      	movs	r3, #0
    8f4e:	9200      	str	r2, [sp, #0]
    8f50:	9301      	str	r3, [sp, #4]
    8f52:	2301      	movs	r3, #1
    8f54:	4652      	mov	r2, sl
    8f56:	4093      	lsls	r3, r2
    8f58:	9301      	str	r3, [sp, #4]
    8f5a:	2301      	movs	r3, #1
    8f5c:	4662      	mov	r2, ip
    8f5e:	4093      	lsls	r3, r2
    8f60:	9300      	str	r3, [sp, #0]
    8f62:	e018      	b.n	8f96 <__udivmoddi4+0xa6>
    8f64:	4282      	cmp	r2, r0
    8f66:	d9d0      	bls.n	8f0a <__udivmoddi4+0x1a>
    8f68:	2200      	movs	r2, #0
    8f6a:	2300      	movs	r3, #0
    8f6c:	9200      	str	r2, [sp, #0]
    8f6e:	9301      	str	r3, [sp, #4]
    8f70:	9b0a      	ldr	r3, [sp, #40]	; 0x28
    8f72:	2b00      	cmp	r3, #0
    8f74:	d001      	beq.n	8f7a <__udivmoddi4+0x8a>
    8f76:	601c      	str	r4, [r3, #0]
    8f78:	605d      	str	r5, [r3, #4]
    8f7a:	9800      	ldr	r0, [sp, #0]
    8f7c:	9901      	ldr	r1, [sp, #4]
    8f7e:	b002      	add	sp, #8
    8f80:	bc1c      	pop	{r2, r3, r4}
    8f82:	4690      	mov	r8, r2
    8f84:	4699      	mov	r9, r3
    8f86:	46a2      	mov	sl, r4
    8f88:	bdf0      	pop	{r4, r5, r6, r7, pc}
    8f8a:	42a3      	cmp	r3, r4
    8f8c:	d9d7      	bls.n	8f3e <__udivmoddi4+0x4e>
    8f8e:	2200      	movs	r2, #0
    8f90:	2300      	movs	r3, #0
    8f92:	9200      	str	r2, [sp, #0]
    8f94:	9301      	str	r3, [sp, #4]
    8f96:	4663      	mov	r3, ip
    8f98:	2b00      	cmp	r3, #0
    8f9a:	d0e9      	beq.n	8f70 <__udivmoddi4+0x80>
    8f9c:	07fb      	lsls	r3, r7, #31
    8f9e:	4698      	mov	r8, r3
    8fa0:	4641      	mov	r1, r8
    8fa2:	0872      	lsrs	r2, r6, #1
    8fa4:	430a      	orrs	r2, r1
    8fa6:	087b      	lsrs	r3, r7, #1
    8fa8:	4666      	mov	r6, ip
    8faa:	e00e      	b.n	8fca <__udivmoddi4+0xda>
    8fac:	42ab      	cmp	r3, r5
    8fae:	d101      	bne.n	8fb4 <__udivmoddi4+0xc4>
    8fb0:	42a2      	cmp	r2, r4
    8fb2:	d80c      	bhi.n	8fce <__udivmoddi4+0xde>
    8fb4:	1aa4      	subs	r4, r4, r2
    8fb6:	419d      	sbcs	r5, r3
    8fb8:	2001      	movs	r0, #1
    8fba:	1924      	adds	r4, r4, r4
    8fbc:	416d      	adcs	r5, r5
    8fbe:	2100      	movs	r1, #0
    8fc0:	3e01      	subs	r6, #1
    8fc2:	1824      	adds	r4, r4, r0
    8fc4:	414d      	adcs	r5, r1
    8fc6:	2e00      	cmp	r6, #0
    8fc8:	d006      	beq.n	8fd8 <__udivmoddi4+0xe8>
    8fca:	42ab      	cmp	r3, r5
    8fcc:	d9ee      	bls.n	8fac <__udivmoddi4+0xbc>
    8fce:	3e01      	subs	r6, #1
    8fd0:	1924      	adds	r4, r4, r4
    8fd2:	416d      	adcs	r5, r5
    8fd4:	2e00      	cmp	r6, #0
    8fd6:	d1f8      	bne.n	8fca <__udivmoddi4+0xda>
    8fd8:	9800      	ldr	r0, [sp, #0]
    8fda:	9901      	ldr	r1, [sp, #4]
    8fdc:	4653      	mov	r3, sl
    8fde:	1900      	adds	r0, r0, r4
    8fe0:	4169      	adcs	r1, r5
    8fe2:	2b00      	cmp	r3, #0
    8fe4:	db23      	blt.n	902e <__udivmoddi4+0x13e>
    8fe6:	002b      	movs	r3, r5
    8fe8:	4652      	mov	r2, sl
    8fea:	40d3      	lsrs	r3, r2
    8fec:	002a      	movs	r2, r5
    8fee:	4664      	mov	r4, ip
    8ff0:	40e2      	lsrs	r2, r4
    8ff2:	001c      	movs	r4, r3
    8ff4:	4653      	mov	r3, sl
    8ff6:	0015      	movs	r5, r2
    8ff8:	2b00      	cmp	r3, #0
    8ffa:	db2d      	blt.n	9058 <__udivmoddi4+0x168>
    8ffc:	0026      	movs	r6, r4
    8ffe:	4657      	mov	r7, sl
    9000:	40be      	lsls	r6, r7
    9002:	0033      	movs	r3, r6
    9004:	0026      	movs	r6, r4
    9006:	4667      	mov	r7, ip
    9008:	40be      	lsls	r6, r7
    900a:	0032      	movs	r2, r6
    900c:	1a80      	subs	r0, r0, r2
    900e:	4199      	sbcs	r1, r3
    9010:	9000      	str	r0, [sp, #0]
    9012:	9101      	str	r1, [sp, #4]
    9014:	e7ac      	b.n	8f70 <__udivmoddi4+0x80>
    9016:	4662      	mov	r2, ip
    9018:	2320      	movs	r3, #32
    901a:	1a9b      	subs	r3, r3, r2
    901c:	464a      	mov	r2, r9
    901e:	40da      	lsrs	r2, r3
    9020:	4661      	mov	r1, ip
    9022:	0013      	movs	r3, r2
    9024:	4642      	mov	r2, r8
    9026:	408a      	lsls	r2, r1
    9028:	0017      	movs	r7, r2
    902a:	431f      	orrs	r7, r3
    902c:	e780      	b.n	8f30 <__udivmoddi4+0x40>
    902e:	4662      	mov	r2, ip
    9030:	2320      	movs	r3, #32
    9032:	1a9b      	subs	r3, r3, r2
    9034:	002a      	movs	r2, r5
    9036:	4666      	mov	r6, ip
    9038:	409a      	lsls	r2, r3
    903a:	0023      	movs	r3, r4
    903c:	40f3      	lsrs	r3, r6
    903e:	4313      	orrs	r3, r2
    9040:	e7d4      	b.n	8fec <__udivmoddi4+0xfc>
    9042:	4662      	mov	r2, ip
    9044:	2320      	movs	r3, #32
    9046:	2100      	movs	r1, #0
    9048:	1a9b      	subs	r3, r3, r2
    904a:	2200      	movs	r2, #0
    904c:	9100      	str	r1, [sp, #0]
    904e:	9201      	str	r2, [sp, #4]
    9050:	2201      	movs	r2, #1
    9052:	40da      	lsrs	r2, r3
    9054:	9201      	str	r2, [sp, #4]
    9056:	e780      	b.n	8f5a <__udivmoddi4+0x6a>
    9058:	2320      	movs	r3, #32
    905a:	4662      	mov	r2, ip
    905c:	0026      	movs	r6, r4
    905e:	1a9b      	subs	r3, r3, r2
    9060:	40de      	lsrs	r6, r3
    9062:	002f      	movs	r7, r5
    9064:	46b0      	mov	r8, r6
    9066:	4666      	mov	r6, ip
    9068:	40b7      	lsls	r7, r6
    906a:	4646      	mov	r6, r8
    906c:	003b      	movs	r3, r7
    906e:	4333      	orrs	r3, r6
    9070:	e7c8      	b.n	9004 <__udivmoddi4+0x114>
    9072:	46c0      	nop			; (mov r8, r8)

00009074 <__aeabi_dadd>:
__aeabi_dadd():
    9074:	b5f0      	push	{r4, r5, r6, r7, lr}
    9076:	464f      	mov	r7, r9
    9078:	4646      	mov	r6, r8
    907a:	46d6      	mov	lr, sl
    907c:	000c      	movs	r4, r1
    907e:	0309      	lsls	r1, r1, #12
    9080:	b5c0      	push	{r6, r7, lr}
    9082:	0a49      	lsrs	r1, r1, #9
    9084:	0f47      	lsrs	r7, r0, #29
    9086:	005e      	lsls	r6, r3, #1
    9088:	4339      	orrs	r1, r7
    908a:	031f      	lsls	r7, r3, #12
    908c:	0fdb      	lsrs	r3, r3, #31
    908e:	469c      	mov	ip, r3
    9090:	0065      	lsls	r5, r4, #1
    9092:	0a7b      	lsrs	r3, r7, #9
    9094:	0f57      	lsrs	r7, r2, #29
    9096:	431f      	orrs	r7, r3
    9098:	0d6d      	lsrs	r5, r5, #21
    909a:	0fe4      	lsrs	r4, r4, #31
    909c:	0d76      	lsrs	r6, r6, #21
    909e:	46a1      	mov	r9, r4
    90a0:	00c0      	lsls	r0, r0, #3
    90a2:	46b8      	mov	r8, r7
    90a4:	00d2      	lsls	r2, r2, #3
    90a6:	1bab      	subs	r3, r5, r6
    90a8:	4564      	cmp	r4, ip
    90aa:	d07b      	beq.n	91a4 <__aeabi_dadd+0x130>
    90ac:	2b00      	cmp	r3, #0
    90ae:	dd5f      	ble.n	9170 <__aeabi_dadd+0xfc>
    90b0:	2e00      	cmp	r6, #0
    90b2:	d000      	beq.n	90b6 <__aeabi_dadd+0x42>
    90b4:	e0a4      	b.n	9200 <__aeabi_dadd+0x18c>
    90b6:	003e      	movs	r6, r7
    90b8:	4316      	orrs	r6, r2
    90ba:	d100      	bne.n	90be <__aeabi_dadd+0x4a>
    90bc:	e112      	b.n	92e4 <__aeabi_dadd+0x270>
    90be:	1e5e      	subs	r6, r3, #1
    90c0:	2e00      	cmp	r6, #0
    90c2:	d000      	beq.n	90c6 <__aeabi_dadd+0x52>
    90c4:	e19e      	b.n	9404 <__aeabi_dadd+0x390>
    90c6:	1a87      	subs	r7, r0, r2
    90c8:	4643      	mov	r3, r8
    90ca:	42b8      	cmp	r0, r7
    90cc:	4180      	sbcs	r0, r0
    90ce:	2501      	movs	r5, #1
    90d0:	1ac9      	subs	r1, r1, r3
    90d2:	4240      	negs	r0, r0
    90d4:	1a09      	subs	r1, r1, r0
    90d6:	020b      	lsls	r3, r1, #8
    90d8:	d400      	bmi.n	90dc <__aeabi_dadd+0x68>
    90da:	e131      	b.n	9340 <__aeabi_dadd+0x2cc>
    90dc:	0249      	lsls	r1, r1, #9
    90de:	0a4e      	lsrs	r6, r1, #9
    90e0:	2e00      	cmp	r6, #0
    90e2:	d100      	bne.n	90e6 <__aeabi_dadd+0x72>
    90e4:	e16e      	b.n	93c4 <__aeabi_dadd+0x350>
    90e6:	0030      	movs	r0, r6
    90e8:	f001 fd98 	bl	ac1c <__clzsi2>
    90ec:	0003      	movs	r3, r0
    90ee:	3b08      	subs	r3, #8
    90f0:	2b1f      	cmp	r3, #31
    90f2:	dd00      	ble.n	90f6 <__aeabi_dadd+0x82>
    90f4:	e161      	b.n	93ba <__aeabi_dadd+0x346>
    90f6:	2220      	movs	r2, #32
    90f8:	0039      	movs	r1, r7
    90fa:	1ad2      	subs	r2, r2, r3
    90fc:	409e      	lsls	r6, r3
    90fe:	40d1      	lsrs	r1, r2
    9100:	409f      	lsls	r7, r3
    9102:	430e      	orrs	r6, r1
    9104:	429d      	cmp	r5, r3
    9106:	dd00      	ble.n	910a <__aeabi_dadd+0x96>
    9108:	e151      	b.n	93ae <__aeabi_dadd+0x33a>
    910a:	1b5d      	subs	r5, r3, r5
    910c:	1c6b      	adds	r3, r5, #1
    910e:	2b1f      	cmp	r3, #31
    9110:	dd00      	ble.n	9114 <__aeabi_dadd+0xa0>
    9112:	e17c      	b.n	940e <__aeabi_dadd+0x39a>
    9114:	2120      	movs	r1, #32
    9116:	1ac9      	subs	r1, r1, r3
    9118:	003d      	movs	r5, r7
    911a:	0030      	movs	r0, r6
    911c:	408f      	lsls	r7, r1
    911e:	4088      	lsls	r0, r1
    9120:	40dd      	lsrs	r5, r3
    9122:	1e79      	subs	r1, r7, #1
    9124:	418f      	sbcs	r7, r1
    9126:	0031      	movs	r1, r6
    9128:	2207      	movs	r2, #7
    912a:	4328      	orrs	r0, r5
    912c:	40d9      	lsrs	r1, r3
    912e:	2500      	movs	r5, #0
    9130:	4307      	orrs	r7, r0
    9132:	403a      	ands	r2, r7
    9134:	2a00      	cmp	r2, #0
    9136:	d009      	beq.n	914c <__aeabi_dadd+0xd8>
    9138:	230f      	movs	r3, #15
    913a:	403b      	ands	r3, r7
    913c:	2b04      	cmp	r3, #4
    913e:	d005      	beq.n	914c <__aeabi_dadd+0xd8>
    9140:	1d3b      	adds	r3, r7, #4
    9142:	42bb      	cmp	r3, r7
    9144:	41bf      	sbcs	r7, r7
    9146:	427f      	negs	r7, r7
    9148:	19c9      	adds	r1, r1, r7
    914a:	001f      	movs	r7, r3
    914c:	020b      	lsls	r3, r1, #8
    914e:	d400      	bmi.n	9152 <__aeabi_dadd+0xde>
    9150:	e226      	b.n	95a0 <__aeabi_dadd+0x52c>
    9152:	1c6a      	adds	r2, r5, #1
    9154:	4bc6      	ldr	r3, [pc, #792]	; (9470 <__aeabi_dadd+0x3fc>)
    9156:	0555      	lsls	r5, r2, #21
    9158:	0d6d      	lsrs	r5, r5, #21
    915a:	429a      	cmp	r2, r3
    915c:	d100      	bne.n	9160 <__aeabi_dadd+0xec>
    915e:	e106      	b.n	936e <__aeabi_dadd+0x2fa>
    9160:	4ac4      	ldr	r2, [pc, #784]	; (9474 <__aeabi_dadd+0x400>)
    9162:	08ff      	lsrs	r7, r7, #3
    9164:	400a      	ands	r2, r1
    9166:	0753      	lsls	r3, r2, #29
    9168:	0252      	lsls	r2, r2, #9
    916a:	433b      	orrs	r3, r7
    916c:	0b12      	lsrs	r2, r2, #12
    916e:	e08e      	b.n	928e <__aeabi_dadd+0x21a>
    9170:	2b00      	cmp	r3, #0
    9172:	d000      	beq.n	9176 <__aeabi_dadd+0x102>
    9174:	e0b8      	b.n	92e8 <__aeabi_dadd+0x274>
    9176:	1c6b      	adds	r3, r5, #1
    9178:	055b      	lsls	r3, r3, #21
    917a:	0d5b      	lsrs	r3, r3, #21
    917c:	2b01      	cmp	r3, #1
    917e:	dc00      	bgt.n	9182 <__aeabi_dadd+0x10e>
    9180:	e130      	b.n	93e4 <__aeabi_dadd+0x370>
    9182:	1a87      	subs	r7, r0, r2
    9184:	4643      	mov	r3, r8
    9186:	42b8      	cmp	r0, r7
    9188:	41b6      	sbcs	r6, r6
    918a:	1acb      	subs	r3, r1, r3
    918c:	4276      	negs	r6, r6
    918e:	1b9e      	subs	r6, r3, r6
    9190:	0233      	lsls	r3, r6, #8
    9192:	d500      	bpl.n	9196 <__aeabi_dadd+0x122>
    9194:	e14c      	b.n	9430 <__aeabi_dadd+0x3bc>
    9196:	003b      	movs	r3, r7
    9198:	4333      	orrs	r3, r6
    919a:	d1a1      	bne.n	90e0 <__aeabi_dadd+0x6c>
    919c:	2200      	movs	r2, #0
    919e:	2400      	movs	r4, #0
    91a0:	2500      	movs	r5, #0
    91a2:	e070      	b.n	9286 <__aeabi_dadd+0x212>
    91a4:	2b00      	cmp	r3, #0
    91a6:	dc00      	bgt.n	91aa <__aeabi_dadd+0x136>
    91a8:	e0e5      	b.n	9376 <__aeabi_dadd+0x302>
    91aa:	2e00      	cmp	r6, #0
    91ac:	d100      	bne.n	91b0 <__aeabi_dadd+0x13c>
    91ae:	e083      	b.n	92b8 <__aeabi_dadd+0x244>
    91b0:	4eaf      	ldr	r6, [pc, #700]	; (9470 <__aeabi_dadd+0x3fc>)
    91b2:	42b5      	cmp	r5, r6
    91b4:	d060      	beq.n	9278 <__aeabi_dadd+0x204>
    91b6:	2680      	movs	r6, #128	; 0x80
    91b8:	0436      	lsls	r6, r6, #16
    91ba:	4337      	orrs	r7, r6
    91bc:	46b8      	mov	r8, r7
    91be:	2b38      	cmp	r3, #56	; 0x38
    91c0:	dc00      	bgt.n	91c4 <__aeabi_dadd+0x150>
    91c2:	e13e      	b.n	9442 <__aeabi_dadd+0x3ce>
    91c4:	4643      	mov	r3, r8
    91c6:	4313      	orrs	r3, r2
    91c8:	001f      	movs	r7, r3
    91ca:	1e7a      	subs	r2, r7, #1
    91cc:	4197      	sbcs	r7, r2
    91ce:	183f      	adds	r7, r7, r0
    91d0:	4287      	cmp	r7, r0
    91d2:	4180      	sbcs	r0, r0
    91d4:	4240      	negs	r0, r0
    91d6:	1809      	adds	r1, r1, r0
    91d8:	020b      	lsls	r3, r1, #8
    91da:	d400      	bmi.n	91de <__aeabi_dadd+0x16a>
    91dc:	e0b0      	b.n	9340 <__aeabi_dadd+0x2cc>
    91de:	4ba4      	ldr	r3, [pc, #656]	; (9470 <__aeabi_dadd+0x3fc>)
    91e0:	3501      	adds	r5, #1
    91e2:	429d      	cmp	r5, r3
    91e4:	d100      	bne.n	91e8 <__aeabi_dadd+0x174>
    91e6:	e0c3      	b.n	9370 <__aeabi_dadd+0x2fc>
    91e8:	4aa2      	ldr	r2, [pc, #648]	; (9474 <__aeabi_dadd+0x400>)
    91ea:	087b      	lsrs	r3, r7, #1
    91ec:	400a      	ands	r2, r1
    91ee:	2101      	movs	r1, #1
    91f0:	400f      	ands	r7, r1
    91f2:	431f      	orrs	r7, r3
    91f4:	0851      	lsrs	r1, r2, #1
    91f6:	07d3      	lsls	r3, r2, #31
    91f8:	2207      	movs	r2, #7
    91fa:	431f      	orrs	r7, r3
    91fc:	403a      	ands	r2, r7
    91fe:	e799      	b.n	9134 <__aeabi_dadd+0xc0>
    9200:	4e9b      	ldr	r6, [pc, #620]	; (9470 <__aeabi_dadd+0x3fc>)
    9202:	42b5      	cmp	r5, r6
    9204:	d038      	beq.n	9278 <__aeabi_dadd+0x204>
    9206:	2680      	movs	r6, #128	; 0x80
    9208:	0436      	lsls	r6, r6, #16
    920a:	4337      	orrs	r7, r6
    920c:	46b8      	mov	r8, r7
    920e:	2b38      	cmp	r3, #56	; 0x38
    9210:	dd00      	ble.n	9214 <__aeabi_dadd+0x1a0>
    9212:	e0dc      	b.n	93ce <__aeabi_dadd+0x35a>
    9214:	2b1f      	cmp	r3, #31
    9216:	dc00      	bgt.n	921a <__aeabi_dadd+0x1a6>
    9218:	e130      	b.n	947c <__aeabi_dadd+0x408>
    921a:	001e      	movs	r6, r3
    921c:	4647      	mov	r7, r8
    921e:	3e20      	subs	r6, #32
    9220:	40f7      	lsrs	r7, r6
    9222:	46bc      	mov	ip, r7
    9224:	2b20      	cmp	r3, #32
    9226:	d004      	beq.n	9232 <__aeabi_dadd+0x1be>
    9228:	2640      	movs	r6, #64	; 0x40
    922a:	1af3      	subs	r3, r6, r3
    922c:	4646      	mov	r6, r8
    922e:	409e      	lsls	r6, r3
    9230:	4332      	orrs	r2, r6
    9232:	0017      	movs	r7, r2
    9234:	4663      	mov	r3, ip
    9236:	1e7a      	subs	r2, r7, #1
    9238:	4197      	sbcs	r7, r2
    923a:	431f      	orrs	r7, r3
    923c:	e0cc      	b.n	93d8 <__aeabi_dadd+0x364>
    923e:	2b00      	cmp	r3, #0
    9240:	d100      	bne.n	9244 <__aeabi_dadd+0x1d0>
    9242:	e204      	b.n	964e <__aeabi_dadd+0x5da>
    9244:	4643      	mov	r3, r8
    9246:	4313      	orrs	r3, r2
    9248:	d100      	bne.n	924c <__aeabi_dadd+0x1d8>
    924a:	e159      	b.n	9500 <__aeabi_dadd+0x48c>
    924c:	074b      	lsls	r3, r1, #29
    924e:	08c0      	lsrs	r0, r0, #3
    9250:	4318      	orrs	r0, r3
    9252:	2380      	movs	r3, #128	; 0x80
    9254:	08c9      	lsrs	r1, r1, #3
    9256:	031b      	lsls	r3, r3, #12
    9258:	4219      	tst	r1, r3
    925a:	d008      	beq.n	926e <__aeabi_dadd+0x1fa>
    925c:	4645      	mov	r5, r8
    925e:	08ed      	lsrs	r5, r5, #3
    9260:	421d      	tst	r5, r3
    9262:	d104      	bne.n	926e <__aeabi_dadd+0x1fa>
    9264:	4643      	mov	r3, r8
    9266:	08d0      	lsrs	r0, r2, #3
    9268:	0759      	lsls	r1, r3, #29
    926a:	4308      	orrs	r0, r1
    926c:	0029      	movs	r1, r5
    926e:	0f42      	lsrs	r2, r0, #29
    9270:	00c9      	lsls	r1, r1, #3
    9272:	4d7f      	ldr	r5, [pc, #508]	; (9470 <__aeabi_dadd+0x3fc>)
    9274:	4311      	orrs	r1, r2
    9276:	00c0      	lsls	r0, r0, #3
    9278:	074b      	lsls	r3, r1, #29
    927a:	08ca      	lsrs	r2, r1, #3
    927c:	497c      	ldr	r1, [pc, #496]	; (9470 <__aeabi_dadd+0x3fc>)
    927e:	08c0      	lsrs	r0, r0, #3
    9280:	4303      	orrs	r3, r0
    9282:	428d      	cmp	r5, r1
    9284:	d068      	beq.n	9358 <__aeabi_dadd+0x2e4>
    9286:	0312      	lsls	r2, r2, #12
    9288:	056d      	lsls	r5, r5, #21
    928a:	0b12      	lsrs	r2, r2, #12
    928c:	0d6d      	lsrs	r5, r5, #21
    928e:	2100      	movs	r1, #0
    9290:	0312      	lsls	r2, r2, #12
    9292:	0018      	movs	r0, r3
    9294:	0b13      	lsrs	r3, r2, #12
    9296:	0d0a      	lsrs	r2, r1, #20
    9298:	0512      	lsls	r2, r2, #20
    929a:	431a      	orrs	r2, r3
    929c:	4b76      	ldr	r3, [pc, #472]	; (9478 <__aeabi_dadd+0x404>)
    929e:	052d      	lsls	r5, r5, #20
    92a0:	4013      	ands	r3, r2
    92a2:	432b      	orrs	r3, r5
    92a4:	005b      	lsls	r3, r3, #1
    92a6:	07e4      	lsls	r4, r4, #31
    92a8:	085b      	lsrs	r3, r3, #1
    92aa:	4323      	orrs	r3, r4
    92ac:	0019      	movs	r1, r3
    92ae:	bc1c      	pop	{r2, r3, r4}
    92b0:	4690      	mov	r8, r2
    92b2:	4699      	mov	r9, r3
    92b4:	46a2      	mov	sl, r4
    92b6:	bdf0      	pop	{r4, r5, r6, r7, pc}
    92b8:	003e      	movs	r6, r7
    92ba:	4316      	orrs	r6, r2
    92bc:	d012      	beq.n	92e4 <__aeabi_dadd+0x270>
    92be:	1e5e      	subs	r6, r3, #1
    92c0:	2e00      	cmp	r6, #0
    92c2:	d000      	beq.n	92c6 <__aeabi_dadd+0x252>
    92c4:	e100      	b.n	94c8 <__aeabi_dadd+0x454>
    92c6:	1887      	adds	r7, r0, r2
    92c8:	4287      	cmp	r7, r0
    92ca:	4180      	sbcs	r0, r0
    92cc:	4441      	add	r1, r8
    92ce:	4240      	negs	r0, r0
    92d0:	1809      	adds	r1, r1, r0
    92d2:	2501      	movs	r5, #1
    92d4:	020b      	lsls	r3, r1, #8
    92d6:	d533      	bpl.n	9340 <__aeabi_dadd+0x2cc>
    92d8:	2502      	movs	r5, #2
    92da:	e785      	b.n	91e8 <__aeabi_dadd+0x174>
    92dc:	4664      	mov	r4, ip
    92de:	0033      	movs	r3, r6
    92e0:	4641      	mov	r1, r8
    92e2:	0010      	movs	r0, r2
    92e4:	001d      	movs	r5, r3
    92e6:	e7c7      	b.n	9278 <__aeabi_dadd+0x204>
    92e8:	2d00      	cmp	r5, #0
    92ea:	d000      	beq.n	92ee <__aeabi_dadd+0x27a>
    92ec:	e0da      	b.n	94a4 <__aeabi_dadd+0x430>
    92ee:	000c      	movs	r4, r1
    92f0:	4304      	orrs	r4, r0
    92f2:	d0f3      	beq.n	92dc <__aeabi_dadd+0x268>
    92f4:	1c5c      	adds	r4, r3, #1
    92f6:	d100      	bne.n	92fa <__aeabi_dadd+0x286>
    92f8:	e19f      	b.n	963a <__aeabi_dadd+0x5c6>
    92fa:	4c5d      	ldr	r4, [pc, #372]	; (9470 <__aeabi_dadd+0x3fc>)
    92fc:	42a6      	cmp	r6, r4
    92fe:	d100      	bne.n	9302 <__aeabi_dadd+0x28e>
    9300:	e12f      	b.n	9562 <__aeabi_dadd+0x4ee>
    9302:	43db      	mvns	r3, r3
    9304:	2b38      	cmp	r3, #56	; 0x38
    9306:	dd00      	ble.n	930a <__aeabi_dadd+0x296>
    9308:	e166      	b.n	95d8 <__aeabi_dadd+0x564>
    930a:	2b1f      	cmp	r3, #31
    930c:	dd00      	ble.n	9310 <__aeabi_dadd+0x29c>
    930e:	e183      	b.n	9618 <__aeabi_dadd+0x5a4>
    9310:	2420      	movs	r4, #32
    9312:	0005      	movs	r5, r0
    9314:	1ae4      	subs	r4, r4, r3
    9316:	000f      	movs	r7, r1
    9318:	40dd      	lsrs	r5, r3
    931a:	40d9      	lsrs	r1, r3
    931c:	40a0      	lsls	r0, r4
    931e:	4643      	mov	r3, r8
    9320:	40a7      	lsls	r7, r4
    9322:	1a5b      	subs	r3, r3, r1
    9324:	1e44      	subs	r4, r0, #1
    9326:	41a0      	sbcs	r0, r4
    9328:	4698      	mov	r8, r3
    932a:	432f      	orrs	r7, r5
    932c:	4338      	orrs	r0, r7
    932e:	1a17      	subs	r7, r2, r0
    9330:	42ba      	cmp	r2, r7
    9332:	4192      	sbcs	r2, r2
    9334:	4643      	mov	r3, r8
    9336:	4252      	negs	r2, r2
    9338:	1a99      	subs	r1, r3, r2
    933a:	4664      	mov	r4, ip
    933c:	0035      	movs	r5, r6
    933e:	e6ca      	b.n	90d6 <__aeabi_dadd+0x62>
    9340:	2207      	movs	r2, #7
    9342:	403a      	ands	r2, r7
    9344:	2a00      	cmp	r2, #0
    9346:	d000      	beq.n	934a <__aeabi_dadd+0x2d6>
    9348:	e6f6      	b.n	9138 <__aeabi_dadd+0xc4>
    934a:	074b      	lsls	r3, r1, #29
    934c:	08ca      	lsrs	r2, r1, #3
    934e:	4948      	ldr	r1, [pc, #288]	; (9470 <__aeabi_dadd+0x3fc>)
    9350:	08ff      	lsrs	r7, r7, #3
    9352:	433b      	orrs	r3, r7
    9354:	428d      	cmp	r5, r1
    9356:	d196      	bne.n	9286 <__aeabi_dadd+0x212>
    9358:	0019      	movs	r1, r3
    935a:	4311      	orrs	r1, r2
    935c:	d100      	bne.n	9360 <__aeabi_dadd+0x2ec>
    935e:	e19e      	b.n	969e <__aeabi_dadd+0x62a>
    9360:	2180      	movs	r1, #128	; 0x80
    9362:	0309      	lsls	r1, r1, #12
    9364:	430a      	orrs	r2, r1
    9366:	0312      	lsls	r2, r2, #12
    9368:	0b12      	lsrs	r2, r2, #12
    936a:	4d41      	ldr	r5, [pc, #260]	; (9470 <__aeabi_dadd+0x3fc>)
    936c:	e78f      	b.n	928e <__aeabi_dadd+0x21a>
    936e:	0015      	movs	r5, r2
    9370:	2200      	movs	r2, #0
    9372:	2300      	movs	r3, #0
    9374:	e78b      	b.n	928e <__aeabi_dadd+0x21a>
    9376:	2b00      	cmp	r3, #0
    9378:	d000      	beq.n	937c <__aeabi_dadd+0x308>
    937a:	e0c7      	b.n	950c <__aeabi_dadd+0x498>
    937c:	1c6b      	adds	r3, r5, #1
    937e:	055f      	lsls	r7, r3, #21
    9380:	0d7f      	lsrs	r7, r7, #21
    9382:	2f01      	cmp	r7, #1
    9384:	dc00      	bgt.n	9388 <__aeabi_dadd+0x314>
    9386:	e0f1      	b.n	956c <__aeabi_dadd+0x4f8>
    9388:	4d39      	ldr	r5, [pc, #228]	; (9470 <__aeabi_dadd+0x3fc>)
    938a:	42ab      	cmp	r3, r5
    938c:	d100      	bne.n	9390 <__aeabi_dadd+0x31c>
    938e:	e0b9      	b.n	9504 <__aeabi_dadd+0x490>
    9390:	1885      	adds	r5, r0, r2
    9392:	000a      	movs	r2, r1
    9394:	4285      	cmp	r5, r0
    9396:	4189      	sbcs	r1, r1
    9398:	4442      	add	r2, r8
    939a:	4249      	negs	r1, r1
    939c:	1851      	adds	r1, r2, r1
    939e:	2207      	movs	r2, #7
    93a0:	07cf      	lsls	r7, r1, #31
    93a2:	086d      	lsrs	r5, r5, #1
    93a4:	432f      	orrs	r7, r5
    93a6:	0849      	lsrs	r1, r1, #1
    93a8:	403a      	ands	r2, r7
    93aa:	001d      	movs	r5, r3
    93ac:	e6c2      	b.n	9134 <__aeabi_dadd+0xc0>
    93ae:	2207      	movs	r2, #7
    93b0:	4930      	ldr	r1, [pc, #192]	; (9474 <__aeabi_dadd+0x400>)
    93b2:	1aed      	subs	r5, r5, r3
    93b4:	4031      	ands	r1, r6
    93b6:	403a      	ands	r2, r7
    93b8:	e6bc      	b.n	9134 <__aeabi_dadd+0xc0>
    93ba:	003e      	movs	r6, r7
    93bc:	3828      	subs	r0, #40	; 0x28
    93be:	4086      	lsls	r6, r0
    93c0:	2700      	movs	r7, #0
    93c2:	e69f      	b.n	9104 <__aeabi_dadd+0x90>
    93c4:	0038      	movs	r0, r7
    93c6:	f001 fc29 	bl	ac1c <__clzsi2>
    93ca:	3020      	adds	r0, #32
    93cc:	e68e      	b.n	90ec <__aeabi_dadd+0x78>
    93ce:	4643      	mov	r3, r8
    93d0:	4313      	orrs	r3, r2
    93d2:	001f      	movs	r7, r3
    93d4:	1e7a      	subs	r2, r7, #1
    93d6:	4197      	sbcs	r7, r2
    93d8:	1bc7      	subs	r7, r0, r7
    93da:	42b8      	cmp	r0, r7
    93dc:	4180      	sbcs	r0, r0
    93de:	4240      	negs	r0, r0
    93e0:	1a09      	subs	r1, r1, r0
    93e2:	e678      	b.n	90d6 <__aeabi_dadd+0x62>
    93e4:	000e      	movs	r6, r1
    93e6:	003b      	movs	r3, r7
    93e8:	4306      	orrs	r6, r0
    93ea:	4313      	orrs	r3, r2
    93ec:	2d00      	cmp	r5, #0
    93ee:	d161      	bne.n	94b4 <__aeabi_dadd+0x440>
    93f0:	2e00      	cmp	r6, #0
    93f2:	d000      	beq.n	93f6 <__aeabi_dadd+0x382>
    93f4:	e0f4      	b.n	95e0 <__aeabi_dadd+0x56c>
    93f6:	2b00      	cmp	r3, #0
    93f8:	d100      	bne.n	93fc <__aeabi_dadd+0x388>
    93fa:	e11b      	b.n	9634 <__aeabi_dadd+0x5c0>
    93fc:	4664      	mov	r4, ip
    93fe:	0039      	movs	r1, r7
    9400:	0010      	movs	r0, r2
    9402:	e739      	b.n	9278 <__aeabi_dadd+0x204>
    9404:	4f1a      	ldr	r7, [pc, #104]	; (9470 <__aeabi_dadd+0x3fc>)
    9406:	42bb      	cmp	r3, r7
    9408:	d07a      	beq.n	9500 <__aeabi_dadd+0x48c>
    940a:	0033      	movs	r3, r6
    940c:	e6ff      	b.n	920e <__aeabi_dadd+0x19a>
    940e:	0030      	movs	r0, r6
    9410:	3d1f      	subs	r5, #31
    9412:	40e8      	lsrs	r0, r5
    9414:	2b20      	cmp	r3, #32
    9416:	d003      	beq.n	9420 <__aeabi_dadd+0x3ac>
    9418:	2140      	movs	r1, #64	; 0x40
    941a:	1acb      	subs	r3, r1, r3
    941c:	409e      	lsls	r6, r3
    941e:	4337      	orrs	r7, r6
    9420:	1e7b      	subs	r3, r7, #1
    9422:	419f      	sbcs	r7, r3
    9424:	2207      	movs	r2, #7
    9426:	4307      	orrs	r7, r0
    9428:	403a      	ands	r2, r7
    942a:	2100      	movs	r1, #0
    942c:	2500      	movs	r5, #0
    942e:	e789      	b.n	9344 <__aeabi_dadd+0x2d0>
    9430:	1a17      	subs	r7, r2, r0
    9432:	4643      	mov	r3, r8
    9434:	42ba      	cmp	r2, r7
    9436:	41b6      	sbcs	r6, r6
    9438:	1a59      	subs	r1, r3, r1
    943a:	4276      	negs	r6, r6
    943c:	1b8e      	subs	r6, r1, r6
    943e:	4664      	mov	r4, ip
    9440:	e64e      	b.n	90e0 <__aeabi_dadd+0x6c>
    9442:	2b1f      	cmp	r3, #31
    9444:	dd00      	ble.n	9448 <__aeabi_dadd+0x3d4>
    9446:	e0ad      	b.n	95a4 <__aeabi_dadd+0x530>
    9448:	2620      	movs	r6, #32
    944a:	4647      	mov	r7, r8
    944c:	1af6      	subs	r6, r6, r3
    944e:	40b7      	lsls	r7, r6
    9450:	46b9      	mov	r9, r7
    9452:	0017      	movs	r7, r2
    9454:	46b2      	mov	sl, r6
    9456:	40df      	lsrs	r7, r3
    9458:	464e      	mov	r6, r9
    945a:	433e      	orrs	r6, r7
    945c:	0037      	movs	r7, r6
    945e:	4656      	mov	r6, sl
    9460:	40b2      	lsls	r2, r6
    9462:	1e56      	subs	r6, r2, #1
    9464:	41b2      	sbcs	r2, r6
    9466:	4317      	orrs	r7, r2
    9468:	4642      	mov	r2, r8
    946a:	40da      	lsrs	r2, r3
    946c:	1889      	adds	r1, r1, r2
    946e:	e6ae      	b.n	91ce <__aeabi_dadd+0x15a>
    9470:	000007ff 	.word	0x000007ff
    9474:	ff7fffff 	.word	0xff7fffff
    9478:	800fffff 	.word	0x800fffff
    947c:	2620      	movs	r6, #32
    947e:	4647      	mov	r7, r8
    9480:	1af6      	subs	r6, r6, r3
    9482:	40b7      	lsls	r7, r6
    9484:	46b9      	mov	r9, r7
    9486:	0017      	movs	r7, r2
    9488:	46b2      	mov	sl, r6
    948a:	40df      	lsrs	r7, r3
    948c:	464e      	mov	r6, r9
    948e:	433e      	orrs	r6, r7
    9490:	0037      	movs	r7, r6
    9492:	4656      	mov	r6, sl
    9494:	40b2      	lsls	r2, r6
    9496:	1e56      	subs	r6, r2, #1
    9498:	41b2      	sbcs	r2, r6
    949a:	4317      	orrs	r7, r2
    949c:	4642      	mov	r2, r8
    949e:	40da      	lsrs	r2, r3
    94a0:	1a89      	subs	r1, r1, r2
    94a2:	e799      	b.n	93d8 <__aeabi_dadd+0x364>
    94a4:	4c7f      	ldr	r4, [pc, #508]	; (96a4 <__aeabi_dadd+0x630>)
    94a6:	42a6      	cmp	r6, r4
    94a8:	d05b      	beq.n	9562 <__aeabi_dadd+0x4ee>
    94aa:	2480      	movs	r4, #128	; 0x80
    94ac:	0424      	lsls	r4, r4, #16
    94ae:	425b      	negs	r3, r3
    94b0:	4321      	orrs	r1, r4
    94b2:	e727      	b.n	9304 <__aeabi_dadd+0x290>
    94b4:	2e00      	cmp	r6, #0
    94b6:	d10c      	bne.n	94d2 <__aeabi_dadd+0x45e>
    94b8:	2b00      	cmp	r3, #0
    94ba:	d100      	bne.n	94be <__aeabi_dadd+0x44a>
    94bc:	e0cb      	b.n	9656 <__aeabi_dadd+0x5e2>
    94be:	4664      	mov	r4, ip
    94c0:	0039      	movs	r1, r7
    94c2:	0010      	movs	r0, r2
    94c4:	4d77      	ldr	r5, [pc, #476]	; (96a4 <__aeabi_dadd+0x630>)
    94c6:	e6d7      	b.n	9278 <__aeabi_dadd+0x204>
    94c8:	4f76      	ldr	r7, [pc, #472]	; (96a4 <__aeabi_dadd+0x630>)
    94ca:	42bb      	cmp	r3, r7
    94cc:	d018      	beq.n	9500 <__aeabi_dadd+0x48c>
    94ce:	0033      	movs	r3, r6
    94d0:	e675      	b.n	91be <__aeabi_dadd+0x14a>
    94d2:	2b00      	cmp	r3, #0
    94d4:	d014      	beq.n	9500 <__aeabi_dadd+0x48c>
    94d6:	074b      	lsls	r3, r1, #29
    94d8:	08c0      	lsrs	r0, r0, #3
    94da:	4318      	orrs	r0, r3
    94dc:	2380      	movs	r3, #128	; 0x80
    94de:	08c9      	lsrs	r1, r1, #3
    94e0:	031b      	lsls	r3, r3, #12
    94e2:	4219      	tst	r1, r3
    94e4:	d007      	beq.n	94f6 <__aeabi_dadd+0x482>
    94e6:	08fc      	lsrs	r4, r7, #3
    94e8:	421c      	tst	r4, r3
    94ea:	d104      	bne.n	94f6 <__aeabi_dadd+0x482>
    94ec:	0779      	lsls	r1, r7, #29
    94ee:	08d0      	lsrs	r0, r2, #3
    94f0:	4308      	orrs	r0, r1
    94f2:	46e1      	mov	r9, ip
    94f4:	0021      	movs	r1, r4
    94f6:	464c      	mov	r4, r9
    94f8:	0f42      	lsrs	r2, r0, #29
    94fa:	00c9      	lsls	r1, r1, #3
    94fc:	4311      	orrs	r1, r2
    94fe:	00c0      	lsls	r0, r0, #3
    9500:	4d68      	ldr	r5, [pc, #416]	; (96a4 <__aeabi_dadd+0x630>)
    9502:	e6b9      	b.n	9278 <__aeabi_dadd+0x204>
    9504:	001d      	movs	r5, r3
    9506:	2200      	movs	r2, #0
    9508:	2300      	movs	r3, #0
    950a:	e6c0      	b.n	928e <__aeabi_dadd+0x21a>
    950c:	2d00      	cmp	r5, #0
    950e:	d15b      	bne.n	95c8 <__aeabi_dadd+0x554>
    9510:	000d      	movs	r5, r1
    9512:	4305      	orrs	r5, r0
    9514:	d100      	bne.n	9518 <__aeabi_dadd+0x4a4>
    9516:	e6e2      	b.n	92de <__aeabi_dadd+0x26a>
    9518:	1c5d      	adds	r5, r3, #1
    951a:	d100      	bne.n	951e <__aeabi_dadd+0x4aa>
    951c:	e0b0      	b.n	9680 <__aeabi_dadd+0x60c>
    951e:	4d61      	ldr	r5, [pc, #388]	; (96a4 <__aeabi_dadd+0x630>)
    9520:	42ae      	cmp	r6, r5
    9522:	d01f      	beq.n	9564 <__aeabi_dadd+0x4f0>
    9524:	43db      	mvns	r3, r3
    9526:	2b38      	cmp	r3, #56	; 0x38
    9528:	dc71      	bgt.n	960e <__aeabi_dadd+0x59a>
    952a:	2b1f      	cmp	r3, #31
    952c:	dd00      	ble.n	9530 <__aeabi_dadd+0x4bc>
    952e:	e096      	b.n	965e <__aeabi_dadd+0x5ea>
    9530:	2520      	movs	r5, #32
    9532:	000f      	movs	r7, r1
    9534:	1aed      	subs	r5, r5, r3
    9536:	40af      	lsls	r7, r5
    9538:	46b9      	mov	r9, r7
    953a:	0007      	movs	r7, r0
    953c:	46aa      	mov	sl, r5
    953e:	40df      	lsrs	r7, r3
    9540:	464d      	mov	r5, r9
    9542:	433d      	orrs	r5, r7
    9544:	002f      	movs	r7, r5
    9546:	4655      	mov	r5, sl
    9548:	40a8      	lsls	r0, r5
    954a:	40d9      	lsrs	r1, r3
    954c:	1e45      	subs	r5, r0, #1
    954e:	41a8      	sbcs	r0, r5
    9550:	4488      	add	r8, r1
    9552:	4307      	orrs	r7, r0
    9554:	18bf      	adds	r7, r7, r2
    9556:	4297      	cmp	r7, r2
    9558:	4192      	sbcs	r2, r2
    955a:	4251      	negs	r1, r2
    955c:	4441      	add	r1, r8
    955e:	0035      	movs	r5, r6
    9560:	e63a      	b.n	91d8 <__aeabi_dadd+0x164>
    9562:	4664      	mov	r4, ip
    9564:	0035      	movs	r5, r6
    9566:	4641      	mov	r1, r8
    9568:	0010      	movs	r0, r2
    956a:	e685      	b.n	9278 <__aeabi_dadd+0x204>
    956c:	000b      	movs	r3, r1
    956e:	4303      	orrs	r3, r0
    9570:	2d00      	cmp	r5, #0
    9572:	d000      	beq.n	9576 <__aeabi_dadd+0x502>
    9574:	e663      	b.n	923e <__aeabi_dadd+0x1ca>
    9576:	2b00      	cmp	r3, #0
    9578:	d0f5      	beq.n	9566 <__aeabi_dadd+0x4f2>
    957a:	4643      	mov	r3, r8
    957c:	4313      	orrs	r3, r2
    957e:	d100      	bne.n	9582 <__aeabi_dadd+0x50e>
    9580:	e67a      	b.n	9278 <__aeabi_dadd+0x204>
    9582:	1887      	adds	r7, r0, r2
    9584:	4287      	cmp	r7, r0
    9586:	4180      	sbcs	r0, r0
    9588:	2207      	movs	r2, #7
    958a:	4441      	add	r1, r8
    958c:	4240      	negs	r0, r0
    958e:	1809      	adds	r1, r1, r0
    9590:	403a      	ands	r2, r7
    9592:	020b      	lsls	r3, r1, #8
    9594:	d400      	bmi.n	9598 <__aeabi_dadd+0x524>
    9596:	e6d5      	b.n	9344 <__aeabi_dadd+0x2d0>
    9598:	4b43      	ldr	r3, [pc, #268]	; (96a8 <__aeabi_dadd+0x634>)
    959a:	3501      	adds	r5, #1
    959c:	4019      	ands	r1, r3
    959e:	e5c9      	b.n	9134 <__aeabi_dadd+0xc0>
    95a0:	0038      	movs	r0, r7
    95a2:	e669      	b.n	9278 <__aeabi_dadd+0x204>
    95a4:	001e      	movs	r6, r3
    95a6:	4647      	mov	r7, r8
    95a8:	3e20      	subs	r6, #32
    95aa:	40f7      	lsrs	r7, r6
    95ac:	46bc      	mov	ip, r7
    95ae:	2b20      	cmp	r3, #32
    95b0:	d004      	beq.n	95bc <__aeabi_dadd+0x548>
    95b2:	2640      	movs	r6, #64	; 0x40
    95b4:	1af3      	subs	r3, r6, r3
    95b6:	4646      	mov	r6, r8
    95b8:	409e      	lsls	r6, r3
    95ba:	4332      	orrs	r2, r6
    95bc:	0017      	movs	r7, r2
    95be:	4663      	mov	r3, ip
    95c0:	1e7a      	subs	r2, r7, #1
    95c2:	4197      	sbcs	r7, r2
    95c4:	431f      	orrs	r7, r3
    95c6:	e602      	b.n	91ce <__aeabi_dadd+0x15a>
    95c8:	4d36      	ldr	r5, [pc, #216]	; (96a4 <__aeabi_dadd+0x630>)
    95ca:	42ae      	cmp	r6, r5
    95cc:	d0ca      	beq.n	9564 <__aeabi_dadd+0x4f0>
    95ce:	2580      	movs	r5, #128	; 0x80
    95d0:	042d      	lsls	r5, r5, #16
    95d2:	425b      	negs	r3, r3
    95d4:	4329      	orrs	r1, r5
    95d6:	e7a6      	b.n	9526 <__aeabi_dadd+0x4b2>
    95d8:	4308      	orrs	r0, r1
    95da:	1e41      	subs	r1, r0, #1
    95dc:	4188      	sbcs	r0, r1
    95de:	e6a6      	b.n	932e <__aeabi_dadd+0x2ba>
    95e0:	2b00      	cmp	r3, #0
    95e2:	d100      	bne.n	95e6 <__aeabi_dadd+0x572>
    95e4:	e648      	b.n	9278 <__aeabi_dadd+0x204>
    95e6:	1a87      	subs	r7, r0, r2
    95e8:	4643      	mov	r3, r8
    95ea:	42b8      	cmp	r0, r7
    95ec:	41b6      	sbcs	r6, r6
    95ee:	1acb      	subs	r3, r1, r3
    95f0:	4276      	negs	r6, r6
    95f2:	1b9e      	subs	r6, r3, r6
    95f4:	0233      	lsls	r3, r6, #8
    95f6:	d54b      	bpl.n	9690 <__aeabi_dadd+0x61c>
    95f8:	1a17      	subs	r7, r2, r0
    95fa:	4643      	mov	r3, r8
    95fc:	42ba      	cmp	r2, r7
    95fe:	4192      	sbcs	r2, r2
    9600:	1a59      	subs	r1, r3, r1
    9602:	4252      	negs	r2, r2
    9604:	1a89      	subs	r1, r1, r2
    9606:	2207      	movs	r2, #7
    9608:	4664      	mov	r4, ip
    960a:	403a      	ands	r2, r7
    960c:	e592      	b.n	9134 <__aeabi_dadd+0xc0>
    960e:	4301      	orrs	r1, r0
    9610:	000f      	movs	r7, r1
    9612:	1e79      	subs	r1, r7, #1
    9614:	418f      	sbcs	r7, r1
    9616:	e79d      	b.n	9554 <__aeabi_dadd+0x4e0>
    9618:	001c      	movs	r4, r3
    961a:	000f      	movs	r7, r1
    961c:	3c20      	subs	r4, #32
    961e:	40e7      	lsrs	r7, r4
    9620:	2b20      	cmp	r3, #32
    9622:	d003      	beq.n	962c <__aeabi_dadd+0x5b8>
    9624:	2440      	movs	r4, #64	; 0x40
    9626:	1ae3      	subs	r3, r4, r3
    9628:	4099      	lsls	r1, r3
    962a:	4308      	orrs	r0, r1
    962c:	1e41      	subs	r1, r0, #1
    962e:	4188      	sbcs	r0, r1
    9630:	4338      	orrs	r0, r7
    9632:	e67c      	b.n	932e <__aeabi_dadd+0x2ba>
    9634:	2200      	movs	r2, #0
    9636:	2400      	movs	r4, #0
    9638:	e625      	b.n	9286 <__aeabi_dadd+0x212>
    963a:	1a17      	subs	r7, r2, r0
    963c:	4643      	mov	r3, r8
    963e:	42ba      	cmp	r2, r7
    9640:	4192      	sbcs	r2, r2
    9642:	1a59      	subs	r1, r3, r1
    9644:	4252      	negs	r2, r2
    9646:	1a89      	subs	r1, r1, r2
    9648:	4664      	mov	r4, ip
    964a:	0035      	movs	r5, r6
    964c:	e543      	b.n	90d6 <__aeabi_dadd+0x62>
    964e:	4641      	mov	r1, r8
    9650:	0010      	movs	r0, r2
    9652:	4d14      	ldr	r5, [pc, #80]	; (96a4 <__aeabi_dadd+0x630>)
    9654:	e610      	b.n	9278 <__aeabi_dadd+0x204>
    9656:	2280      	movs	r2, #128	; 0x80
    9658:	2400      	movs	r4, #0
    965a:	0312      	lsls	r2, r2, #12
    965c:	e680      	b.n	9360 <__aeabi_dadd+0x2ec>
    965e:	001d      	movs	r5, r3
    9660:	000f      	movs	r7, r1
    9662:	3d20      	subs	r5, #32
    9664:	40ef      	lsrs	r7, r5
    9666:	46bc      	mov	ip, r7
    9668:	2b20      	cmp	r3, #32
    966a:	d003      	beq.n	9674 <__aeabi_dadd+0x600>
    966c:	2540      	movs	r5, #64	; 0x40
    966e:	1aeb      	subs	r3, r5, r3
    9670:	4099      	lsls	r1, r3
    9672:	4308      	orrs	r0, r1
    9674:	0007      	movs	r7, r0
    9676:	4663      	mov	r3, ip
    9678:	1e78      	subs	r0, r7, #1
    967a:	4187      	sbcs	r7, r0
    967c:	431f      	orrs	r7, r3
    967e:	e769      	b.n	9554 <__aeabi_dadd+0x4e0>
    9680:	1887      	adds	r7, r0, r2
    9682:	4297      	cmp	r7, r2
    9684:	419b      	sbcs	r3, r3
    9686:	4441      	add	r1, r8
    9688:	425b      	negs	r3, r3
    968a:	18c9      	adds	r1, r1, r3
    968c:	0035      	movs	r5, r6
    968e:	e5a3      	b.n	91d8 <__aeabi_dadd+0x164>
    9690:	003b      	movs	r3, r7
    9692:	4333      	orrs	r3, r6
    9694:	d0ce      	beq.n	9634 <__aeabi_dadd+0x5c0>
    9696:	2207      	movs	r2, #7
    9698:	0031      	movs	r1, r6
    969a:	403a      	ands	r2, r7
    969c:	e652      	b.n	9344 <__aeabi_dadd+0x2d0>
    969e:	2300      	movs	r3, #0
    96a0:	001a      	movs	r2, r3
    96a2:	e5f4      	b.n	928e <__aeabi_dadd+0x21a>
    96a4:	000007ff 	.word	0x000007ff
    96a8:	ff7fffff 	.word	0xff7fffff

000096ac <__aeabi_ddiv>:
__aeabi_ddiv():
    96ac:	b5f0      	push	{r4, r5, r6, r7, lr}
    96ae:	4657      	mov	r7, sl
    96b0:	46de      	mov	lr, fp
    96b2:	464e      	mov	r6, r9
    96b4:	4645      	mov	r5, r8
    96b6:	b5e0      	push	{r5, r6, r7, lr}
    96b8:	4683      	mov	fp, r0
    96ba:	0007      	movs	r7, r0
    96bc:	030e      	lsls	r6, r1, #12
    96be:	0048      	lsls	r0, r1, #1
    96c0:	b085      	sub	sp, #20
    96c2:	4692      	mov	sl, r2
    96c4:	001c      	movs	r4, r3
    96c6:	0b36      	lsrs	r6, r6, #12
    96c8:	0d40      	lsrs	r0, r0, #21
    96ca:	0fcd      	lsrs	r5, r1, #31
    96cc:	2800      	cmp	r0, #0
    96ce:	d100      	bne.n	96d2 <__aeabi_ddiv+0x26>
    96d0:	e09d      	b.n	980e <__aeabi_ddiv+0x162>
    96d2:	4b95      	ldr	r3, [pc, #596]	; (9928 <__aeabi_ddiv+0x27c>)
    96d4:	4298      	cmp	r0, r3
    96d6:	d039      	beq.n	974c <__aeabi_ddiv+0xa0>
    96d8:	2380      	movs	r3, #128	; 0x80
    96da:	00f6      	lsls	r6, r6, #3
    96dc:	041b      	lsls	r3, r3, #16
    96de:	431e      	orrs	r6, r3
    96e0:	4a92      	ldr	r2, [pc, #584]	; (992c <__aeabi_ddiv+0x280>)
    96e2:	0f7b      	lsrs	r3, r7, #29
    96e4:	4333      	orrs	r3, r6
    96e6:	4699      	mov	r9, r3
    96e8:	4694      	mov	ip, r2
    96ea:	0003      	movs	r3, r0
    96ec:	4463      	add	r3, ip
    96ee:	9300      	str	r3, [sp, #0]
    96f0:	2300      	movs	r3, #0
    96f2:	2600      	movs	r6, #0
    96f4:	00ff      	lsls	r7, r7, #3
    96f6:	9302      	str	r3, [sp, #8]
    96f8:	0323      	lsls	r3, r4, #12
    96fa:	0b1b      	lsrs	r3, r3, #12
    96fc:	4698      	mov	r8, r3
    96fe:	0063      	lsls	r3, r4, #1
    9700:	0fe4      	lsrs	r4, r4, #31
    9702:	4652      	mov	r2, sl
    9704:	0d5b      	lsrs	r3, r3, #21
    9706:	9401      	str	r4, [sp, #4]
    9708:	d100      	bne.n	970c <__aeabi_ddiv+0x60>
    970a:	e0b3      	b.n	9874 <__aeabi_ddiv+0x1c8>
    970c:	4986      	ldr	r1, [pc, #536]	; (9928 <__aeabi_ddiv+0x27c>)
    970e:	428b      	cmp	r3, r1
    9710:	d100      	bne.n	9714 <__aeabi_ddiv+0x68>
    9712:	e09e      	b.n	9852 <__aeabi_ddiv+0x1a6>
    9714:	4642      	mov	r2, r8
    9716:	00d1      	lsls	r1, r2, #3
    9718:	2280      	movs	r2, #128	; 0x80
    971a:	0412      	lsls	r2, r2, #16
    971c:	430a      	orrs	r2, r1
    971e:	4651      	mov	r1, sl
    9720:	0f49      	lsrs	r1, r1, #29
    9722:	4311      	orrs	r1, r2
    9724:	468b      	mov	fp, r1
    9726:	4981      	ldr	r1, [pc, #516]	; (992c <__aeabi_ddiv+0x280>)
    9728:	4652      	mov	r2, sl
    972a:	468c      	mov	ip, r1
    972c:	9900      	ldr	r1, [sp, #0]
    972e:	4463      	add	r3, ip
    9730:	1acb      	subs	r3, r1, r3
    9732:	2100      	movs	r1, #0
    9734:	00d2      	lsls	r2, r2, #3
    9736:	9300      	str	r3, [sp, #0]
    9738:	002b      	movs	r3, r5
    973a:	4063      	eors	r3, r4
    973c:	469a      	mov	sl, r3
    973e:	2e0f      	cmp	r6, #15
    9740:	d900      	bls.n	9744 <__aeabi_ddiv+0x98>
    9742:	e105      	b.n	9950 <__aeabi_ddiv+0x2a4>
    9744:	4b7a      	ldr	r3, [pc, #488]	; (9930 <__aeabi_ddiv+0x284>)
    9746:	00b6      	lsls	r6, r6, #2
    9748:	599b      	ldr	r3, [r3, r6]
    974a:	469f      	mov	pc, r3
    974c:	465b      	mov	r3, fp
    974e:	4333      	orrs	r3, r6
    9750:	4699      	mov	r9, r3
    9752:	d000      	beq.n	9756 <__aeabi_ddiv+0xaa>
    9754:	e0b8      	b.n	98c8 <__aeabi_ddiv+0x21c>
    9756:	2302      	movs	r3, #2
    9758:	2608      	movs	r6, #8
    975a:	2700      	movs	r7, #0
    975c:	9000      	str	r0, [sp, #0]
    975e:	9302      	str	r3, [sp, #8]
    9760:	e7ca      	b.n	96f8 <__aeabi_ddiv+0x4c>
    9762:	46cb      	mov	fp, r9
    9764:	003a      	movs	r2, r7
    9766:	9902      	ldr	r1, [sp, #8]
    9768:	9501      	str	r5, [sp, #4]
    976a:	9b01      	ldr	r3, [sp, #4]
    976c:	469a      	mov	sl, r3
    976e:	2902      	cmp	r1, #2
    9770:	d027      	beq.n	97c2 <__aeabi_ddiv+0x116>
    9772:	2903      	cmp	r1, #3
    9774:	d100      	bne.n	9778 <__aeabi_ddiv+0xcc>
    9776:	e280      	b.n	9c7a <__aeabi_ddiv+0x5ce>
    9778:	2901      	cmp	r1, #1
    977a:	d044      	beq.n	9806 <__aeabi_ddiv+0x15a>
    977c:	496d      	ldr	r1, [pc, #436]	; (9934 <__aeabi_ddiv+0x288>)
    977e:	9b00      	ldr	r3, [sp, #0]
    9780:	468c      	mov	ip, r1
    9782:	4463      	add	r3, ip
    9784:	001c      	movs	r4, r3
    9786:	2c00      	cmp	r4, #0
    9788:	dd38      	ble.n	97fc <__aeabi_ddiv+0x150>
    978a:	0753      	lsls	r3, r2, #29
    978c:	d000      	beq.n	9790 <__aeabi_ddiv+0xe4>
    978e:	e213      	b.n	9bb8 <__aeabi_ddiv+0x50c>
    9790:	08d2      	lsrs	r2, r2, #3
    9792:	465b      	mov	r3, fp
    9794:	01db      	lsls	r3, r3, #7
    9796:	d509      	bpl.n	97ac <__aeabi_ddiv+0x100>
    9798:	4659      	mov	r1, fp
    979a:	4b67      	ldr	r3, [pc, #412]	; (9938 <__aeabi_ddiv+0x28c>)
    979c:	4019      	ands	r1, r3
    979e:	468b      	mov	fp, r1
    97a0:	2180      	movs	r1, #128	; 0x80
    97a2:	00c9      	lsls	r1, r1, #3
    97a4:	468c      	mov	ip, r1
    97a6:	9b00      	ldr	r3, [sp, #0]
    97a8:	4463      	add	r3, ip
    97aa:	001c      	movs	r4, r3
    97ac:	4b63      	ldr	r3, [pc, #396]	; (993c <__aeabi_ddiv+0x290>)
    97ae:	429c      	cmp	r4, r3
    97b0:	dc07      	bgt.n	97c2 <__aeabi_ddiv+0x116>
    97b2:	465b      	mov	r3, fp
    97b4:	0564      	lsls	r4, r4, #21
    97b6:	075f      	lsls	r7, r3, #29
    97b8:	025b      	lsls	r3, r3, #9
    97ba:	4317      	orrs	r7, r2
    97bc:	0b1b      	lsrs	r3, r3, #12
    97be:	0d62      	lsrs	r2, r4, #21
    97c0:	e002      	b.n	97c8 <__aeabi_ddiv+0x11c>
    97c2:	2300      	movs	r3, #0
    97c4:	2700      	movs	r7, #0
    97c6:	4a58      	ldr	r2, [pc, #352]	; (9928 <__aeabi_ddiv+0x27c>)
    97c8:	2100      	movs	r1, #0
    97ca:	031b      	lsls	r3, r3, #12
    97cc:	0b1c      	lsrs	r4, r3, #12
    97ce:	0d0b      	lsrs	r3, r1, #20
    97d0:	051b      	lsls	r3, r3, #20
    97d2:	4323      	orrs	r3, r4
    97d4:	0514      	lsls	r4, r2, #20
    97d6:	4a5a      	ldr	r2, [pc, #360]	; (9940 <__aeabi_ddiv+0x294>)
    97d8:	0038      	movs	r0, r7
    97da:	4013      	ands	r3, r2
    97dc:	431c      	orrs	r4, r3
    97de:	4653      	mov	r3, sl
    97e0:	0064      	lsls	r4, r4, #1
    97e2:	07db      	lsls	r3, r3, #31
    97e4:	0864      	lsrs	r4, r4, #1
    97e6:	431c      	orrs	r4, r3
    97e8:	0021      	movs	r1, r4
    97ea:	b005      	add	sp, #20
    97ec:	bc3c      	pop	{r2, r3, r4, r5}
    97ee:	4690      	mov	r8, r2
    97f0:	4699      	mov	r9, r3
    97f2:	46a2      	mov	sl, r4
    97f4:	46ab      	mov	fp, r5
    97f6:	bdf0      	pop	{r4, r5, r6, r7, pc}
    97f8:	2201      	movs	r2, #1
    97fa:	4252      	negs	r2, r2
    97fc:	2301      	movs	r3, #1
    97fe:	1b1b      	subs	r3, r3, r4
    9800:	2b38      	cmp	r3, #56	; 0x38
    9802:	dc00      	bgt.n	9806 <__aeabi_ddiv+0x15a>
    9804:	e1ad      	b.n	9b62 <__aeabi_ddiv+0x4b6>
    9806:	2200      	movs	r2, #0
    9808:	2300      	movs	r3, #0
    980a:	2700      	movs	r7, #0
    980c:	e7dc      	b.n	97c8 <__aeabi_ddiv+0x11c>
    980e:	465b      	mov	r3, fp
    9810:	4333      	orrs	r3, r6
    9812:	4699      	mov	r9, r3
    9814:	d05e      	beq.n	98d4 <__aeabi_ddiv+0x228>
    9816:	2e00      	cmp	r6, #0
    9818:	d100      	bne.n	981c <__aeabi_ddiv+0x170>
    981a:	e18a      	b.n	9b32 <__aeabi_ddiv+0x486>
    981c:	0030      	movs	r0, r6
    981e:	f001 f9fd 	bl	ac1c <__clzsi2>
    9822:	0003      	movs	r3, r0
    9824:	3b0b      	subs	r3, #11
    9826:	2b1c      	cmp	r3, #28
    9828:	dd00      	ble.n	982c <__aeabi_ddiv+0x180>
    982a:	e17b      	b.n	9b24 <__aeabi_ddiv+0x478>
    982c:	221d      	movs	r2, #29
    982e:	1ad3      	subs	r3, r2, r3
    9830:	465a      	mov	r2, fp
    9832:	0001      	movs	r1, r0
    9834:	40da      	lsrs	r2, r3
    9836:	3908      	subs	r1, #8
    9838:	408e      	lsls	r6, r1
    983a:	0013      	movs	r3, r2
    983c:	465f      	mov	r7, fp
    983e:	4333      	orrs	r3, r6
    9840:	4699      	mov	r9, r3
    9842:	408f      	lsls	r7, r1
    9844:	4b3f      	ldr	r3, [pc, #252]	; (9944 <__aeabi_ddiv+0x298>)
    9846:	2600      	movs	r6, #0
    9848:	1a1b      	subs	r3, r3, r0
    984a:	9300      	str	r3, [sp, #0]
    984c:	2300      	movs	r3, #0
    984e:	9302      	str	r3, [sp, #8]
    9850:	e752      	b.n	96f8 <__aeabi_ddiv+0x4c>
    9852:	4641      	mov	r1, r8
    9854:	4653      	mov	r3, sl
    9856:	430b      	orrs	r3, r1
    9858:	493b      	ldr	r1, [pc, #236]	; (9948 <__aeabi_ddiv+0x29c>)
    985a:	469b      	mov	fp, r3
    985c:	468c      	mov	ip, r1
    985e:	9b00      	ldr	r3, [sp, #0]
    9860:	4463      	add	r3, ip
    9862:	9300      	str	r3, [sp, #0]
    9864:	465b      	mov	r3, fp
    9866:	2b00      	cmp	r3, #0
    9868:	d13b      	bne.n	98e2 <__aeabi_ddiv+0x236>
    986a:	2302      	movs	r3, #2
    986c:	2200      	movs	r2, #0
    986e:	431e      	orrs	r6, r3
    9870:	2102      	movs	r1, #2
    9872:	e761      	b.n	9738 <__aeabi_ddiv+0x8c>
    9874:	4643      	mov	r3, r8
    9876:	4313      	orrs	r3, r2
    9878:	469b      	mov	fp, r3
    987a:	d037      	beq.n	98ec <__aeabi_ddiv+0x240>
    987c:	4643      	mov	r3, r8
    987e:	2b00      	cmp	r3, #0
    9880:	d100      	bne.n	9884 <__aeabi_ddiv+0x1d8>
    9882:	e162      	b.n	9b4a <__aeabi_ddiv+0x49e>
    9884:	4640      	mov	r0, r8
    9886:	f001 f9c9 	bl	ac1c <__clzsi2>
    988a:	0003      	movs	r3, r0
    988c:	3b0b      	subs	r3, #11
    988e:	2b1c      	cmp	r3, #28
    9890:	dd00      	ble.n	9894 <__aeabi_ddiv+0x1e8>
    9892:	e153      	b.n	9b3c <__aeabi_ddiv+0x490>
    9894:	0002      	movs	r2, r0
    9896:	4641      	mov	r1, r8
    9898:	3a08      	subs	r2, #8
    989a:	4091      	lsls	r1, r2
    989c:	4688      	mov	r8, r1
    989e:	211d      	movs	r1, #29
    98a0:	1acb      	subs	r3, r1, r3
    98a2:	4651      	mov	r1, sl
    98a4:	40d9      	lsrs	r1, r3
    98a6:	000b      	movs	r3, r1
    98a8:	4641      	mov	r1, r8
    98aa:	430b      	orrs	r3, r1
    98ac:	469b      	mov	fp, r3
    98ae:	4653      	mov	r3, sl
    98b0:	4093      	lsls	r3, r2
    98b2:	001a      	movs	r2, r3
    98b4:	9b00      	ldr	r3, [sp, #0]
    98b6:	4925      	ldr	r1, [pc, #148]	; (994c <__aeabi_ddiv+0x2a0>)
    98b8:	469c      	mov	ip, r3
    98ba:	4460      	add	r0, ip
    98bc:	0003      	movs	r3, r0
    98be:	468c      	mov	ip, r1
    98c0:	4463      	add	r3, ip
    98c2:	9300      	str	r3, [sp, #0]
    98c4:	2100      	movs	r1, #0
    98c6:	e737      	b.n	9738 <__aeabi_ddiv+0x8c>
    98c8:	2303      	movs	r3, #3
    98ca:	46b1      	mov	r9, r6
    98cc:	9000      	str	r0, [sp, #0]
    98ce:	260c      	movs	r6, #12
    98d0:	9302      	str	r3, [sp, #8]
    98d2:	e711      	b.n	96f8 <__aeabi_ddiv+0x4c>
    98d4:	2300      	movs	r3, #0
    98d6:	9300      	str	r3, [sp, #0]
    98d8:	3301      	adds	r3, #1
    98da:	2604      	movs	r6, #4
    98dc:	2700      	movs	r7, #0
    98de:	9302      	str	r3, [sp, #8]
    98e0:	e70a      	b.n	96f8 <__aeabi_ddiv+0x4c>
    98e2:	2303      	movs	r3, #3
    98e4:	46c3      	mov	fp, r8
    98e6:	431e      	orrs	r6, r3
    98e8:	2103      	movs	r1, #3
    98ea:	e725      	b.n	9738 <__aeabi_ddiv+0x8c>
    98ec:	3301      	adds	r3, #1
    98ee:	431e      	orrs	r6, r3
    98f0:	2200      	movs	r2, #0
    98f2:	2101      	movs	r1, #1
    98f4:	e720      	b.n	9738 <__aeabi_ddiv+0x8c>
    98f6:	2300      	movs	r3, #0
    98f8:	469a      	mov	sl, r3
    98fa:	2380      	movs	r3, #128	; 0x80
    98fc:	2700      	movs	r7, #0
    98fe:	031b      	lsls	r3, r3, #12
    9900:	4a09      	ldr	r2, [pc, #36]	; (9928 <__aeabi_ddiv+0x27c>)
    9902:	e761      	b.n	97c8 <__aeabi_ddiv+0x11c>
    9904:	2380      	movs	r3, #128	; 0x80
    9906:	4649      	mov	r1, r9
    9908:	031b      	lsls	r3, r3, #12
    990a:	4219      	tst	r1, r3
    990c:	d100      	bne.n	9910 <__aeabi_ddiv+0x264>
    990e:	e0e2      	b.n	9ad6 <__aeabi_ddiv+0x42a>
    9910:	4659      	mov	r1, fp
    9912:	4219      	tst	r1, r3
    9914:	d000      	beq.n	9918 <__aeabi_ddiv+0x26c>
    9916:	e0de      	b.n	9ad6 <__aeabi_ddiv+0x42a>
    9918:	430b      	orrs	r3, r1
    991a:	031b      	lsls	r3, r3, #12
    991c:	0017      	movs	r7, r2
    991e:	0b1b      	lsrs	r3, r3, #12
    9920:	46a2      	mov	sl, r4
    9922:	4a01      	ldr	r2, [pc, #4]	; (9928 <__aeabi_ddiv+0x27c>)
    9924:	e750      	b.n	97c8 <__aeabi_ddiv+0x11c>
    9926:	46c0      	nop			; (mov r8, r8)
    9928:	000007ff 	.word	0x000007ff
    992c:	fffffc01 	.word	0xfffffc01
    9930:	0000e7d0 	.word	0x0000e7d0
    9934:	000003ff 	.word	0x000003ff
    9938:	feffffff 	.word	0xfeffffff
    993c:	000007fe 	.word	0x000007fe
    9940:	800fffff 	.word	0x800fffff
    9944:	fffffc0d 	.word	0xfffffc0d
    9948:	fffff801 	.word	0xfffff801
    994c:	000003f3 	.word	0x000003f3
    9950:	45d9      	cmp	r9, fp
    9952:	d900      	bls.n	9956 <__aeabi_ddiv+0x2aa>
    9954:	e0cb      	b.n	9aee <__aeabi_ddiv+0x442>
    9956:	d100      	bne.n	995a <__aeabi_ddiv+0x2ae>
    9958:	e0c6      	b.n	9ae8 <__aeabi_ddiv+0x43c>
    995a:	003c      	movs	r4, r7
    995c:	4648      	mov	r0, r9
    995e:	2700      	movs	r7, #0
    9960:	9b00      	ldr	r3, [sp, #0]
    9962:	3b01      	subs	r3, #1
    9964:	9300      	str	r3, [sp, #0]
    9966:	465b      	mov	r3, fp
    9968:	0e16      	lsrs	r6, r2, #24
    996a:	021b      	lsls	r3, r3, #8
    996c:	431e      	orrs	r6, r3
    996e:	0213      	lsls	r3, r2, #8
    9970:	4698      	mov	r8, r3
    9972:	0433      	lsls	r3, r6, #16
    9974:	0c1b      	lsrs	r3, r3, #16
    9976:	4699      	mov	r9, r3
    9978:	0c31      	lsrs	r1, r6, #16
    997a:	9101      	str	r1, [sp, #4]
    997c:	f7ff fa54 	bl	8e28 <__aeabi_uidivmod>
    9980:	464a      	mov	r2, r9
    9982:	4342      	muls	r2, r0
    9984:	040b      	lsls	r3, r1, #16
    9986:	0c21      	lsrs	r1, r4, #16
    9988:	0005      	movs	r5, r0
    998a:	4319      	orrs	r1, r3
    998c:	428a      	cmp	r2, r1
    998e:	d907      	bls.n	99a0 <__aeabi_ddiv+0x2f4>
    9990:	1989      	adds	r1, r1, r6
    9992:	3d01      	subs	r5, #1
    9994:	428e      	cmp	r6, r1
    9996:	d803      	bhi.n	99a0 <__aeabi_ddiv+0x2f4>
    9998:	428a      	cmp	r2, r1
    999a:	d901      	bls.n	99a0 <__aeabi_ddiv+0x2f4>
    999c:	1e85      	subs	r5, r0, #2
    999e:	1989      	adds	r1, r1, r6
    99a0:	1a88      	subs	r0, r1, r2
    99a2:	9901      	ldr	r1, [sp, #4]
    99a4:	f7ff fa40 	bl	8e28 <__aeabi_uidivmod>
    99a8:	0409      	lsls	r1, r1, #16
    99aa:	468c      	mov	ip, r1
    99ac:	464a      	mov	r2, r9
    99ae:	0421      	lsls	r1, r4, #16
    99b0:	4664      	mov	r4, ip
    99b2:	4342      	muls	r2, r0
    99b4:	0c09      	lsrs	r1, r1, #16
    99b6:	0003      	movs	r3, r0
    99b8:	4321      	orrs	r1, r4
    99ba:	428a      	cmp	r2, r1
    99bc:	d904      	bls.n	99c8 <__aeabi_ddiv+0x31c>
    99be:	1989      	adds	r1, r1, r6
    99c0:	3b01      	subs	r3, #1
    99c2:	428e      	cmp	r6, r1
    99c4:	d800      	bhi.n	99c8 <__aeabi_ddiv+0x31c>
    99c6:	e0f1      	b.n	9bac <__aeabi_ddiv+0x500>
    99c8:	042d      	lsls	r5, r5, #16
    99ca:	431d      	orrs	r5, r3
    99cc:	46ab      	mov	fp, r5
    99ce:	4643      	mov	r3, r8
    99d0:	1a89      	subs	r1, r1, r2
    99d2:	4642      	mov	r2, r8
    99d4:	0c28      	lsrs	r0, r5, #16
    99d6:	0412      	lsls	r2, r2, #16
    99d8:	0c1d      	lsrs	r5, r3, #16
    99da:	465b      	mov	r3, fp
    99dc:	0c14      	lsrs	r4, r2, #16
    99de:	0022      	movs	r2, r4
    99e0:	041b      	lsls	r3, r3, #16
    99e2:	0c1b      	lsrs	r3, r3, #16
    99e4:	435a      	muls	r2, r3
    99e6:	9403      	str	r4, [sp, #12]
    99e8:	436b      	muls	r3, r5
    99ea:	4344      	muls	r4, r0
    99ec:	9502      	str	r5, [sp, #8]
    99ee:	4368      	muls	r0, r5
    99f0:	191b      	adds	r3, r3, r4
    99f2:	0c15      	lsrs	r5, r2, #16
    99f4:	18eb      	adds	r3, r5, r3
    99f6:	429c      	cmp	r4, r3
    99f8:	d903      	bls.n	9a02 <__aeabi_ddiv+0x356>
    99fa:	2480      	movs	r4, #128	; 0x80
    99fc:	0264      	lsls	r4, r4, #9
    99fe:	46a4      	mov	ip, r4
    9a00:	4460      	add	r0, ip
    9a02:	0c1c      	lsrs	r4, r3, #16
    9a04:	0415      	lsls	r5, r2, #16
    9a06:	041b      	lsls	r3, r3, #16
    9a08:	0c2d      	lsrs	r5, r5, #16
    9a0a:	1820      	adds	r0, r4, r0
    9a0c:	195d      	adds	r5, r3, r5
    9a0e:	4281      	cmp	r1, r0
    9a10:	d377      	bcc.n	9b02 <__aeabi_ddiv+0x456>
    9a12:	d073      	beq.n	9afc <__aeabi_ddiv+0x450>
    9a14:	1a0c      	subs	r4, r1, r0
    9a16:	4aa2      	ldr	r2, [pc, #648]	; (9ca0 <__aeabi_ddiv+0x5f4>)
    9a18:	1b7d      	subs	r5, r7, r5
    9a1a:	42af      	cmp	r7, r5
    9a1c:	41bf      	sbcs	r7, r7
    9a1e:	4694      	mov	ip, r2
    9a20:	9b00      	ldr	r3, [sp, #0]
    9a22:	427f      	negs	r7, r7
    9a24:	4463      	add	r3, ip
    9a26:	1be0      	subs	r0, r4, r7
    9a28:	001c      	movs	r4, r3
    9a2a:	4286      	cmp	r6, r0
    9a2c:	d100      	bne.n	9a30 <__aeabi_ddiv+0x384>
    9a2e:	e0db      	b.n	9be8 <__aeabi_ddiv+0x53c>
    9a30:	9901      	ldr	r1, [sp, #4]
    9a32:	f7ff f9f9 	bl	8e28 <__aeabi_uidivmod>
    9a36:	464a      	mov	r2, r9
    9a38:	4342      	muls	r2, r0
    9a3a:	040b      	lsls	r3, r1, #16
    9a3c:	0c29      	lsrs	r1, r5, #16
    9a3e:	0007      	movs	r7, r0
    9a40:	4319      	orrs	r1, r3
    9a42:	428a      	cmp	r2, r1
    9a44:	d907      	bls.n	9a56 <__aeabi_ddiv+0x3aa>
    9a46:	1989      	adds	r1, r1, r6
    9a48:	3f01      	subs	r7, #1
    9a4a:	428e      	cmp	r6, r1
    9a4c:	d803      	bhi.n	9a56 <__aeabi_ddiv+0x3aa>
    9a4e:	428a      	cmp	r2, r1
    9a50:	d901      	bls.n	9a56 <__aeabi_ddiv+0x3aa>
    9a52:	1e87      	subs	r7, r0, #2
    9a54:	1989      	adds	r1, r1, r6
    9a56:	1a88      	subs	r0, r1, r2
    9a58:	9901      	ldr	r1, [sp, #4]
    9a5a:	f7ff f9e5 	bl	8e28 <__aeabi_uidivmod>
    9a5e:	0409      	lsls	r1, r1, #16
    9a60:	464a      	mov	r2, r9
    9a62:	4689      	mov	r9, r1
    9a64:	0429      	lsls	r1, r5, #16
    9a66:	464d      	mov	r5, r9
    9a68:	4342      	muls	r2, r0
    9a6a:	0c09      	lsrs	r1, r1, #16
    9a6c:	0003      	movs	r3, r0
    9a6e:	4329      	orrs	r1, r5
    9a70:	428a      	cmp	r2, r1
    9a72:	d907      	bls.n	9a84 <__aeabi_ddiv+0x3d8>
    9a74:	1989      	adds	r1, r1, r6
    9a76:	3b01      	subs	r3, #1
    9a78:	428e      	cmp	r6, r1
    9a7a:	d803      	bhi.n	9a84 <__aeabi_ddiv+0x3d8>
    9a7c:	428a      	cmp	r2, r1
    9a7e:	d901      	bls.n	9a84 <__aeabi_ddiv+0x3d8>
    9a80:	1e83      	subs	r3, r0, #2
    9a82:	1989      	adds	r1, r1, r6
    9a84:	043f      	lsls	r7, r7, #16
    9a86:	1a89      	subs	r1, r1, r2
    9a88:	003a      	movs	r2, r7
    9a8a:	9f03      	ldr	r7, [sp, #12]
    9a8c:	431a      	orrs	r2, r3
    9a8e:	0038      	movs	r0, r7
    9a90:	0413      	lsls	r3, r2, #16
    9a92:	0c1b      	lsrs	r3, r3, #16
    9a94:	4358      	muls	r0, r3
    9a96:	4681      	mov	r9, r0
    9a98:	9802      	ldr	r0, [sp, #8]
    9a9a:	0c15      	lsrs	r5, r2, #16
    9a9c:	436f      	muls	r7, r5
    9a9e:	4343      	muls	r3, r0
    9aa0:	4345      	muls	r5, r0
    9aa2:	4648      	mov	r0, r9
    9aa4:	0c00      	lsrs	r0, r0, #16
    9aa6:	4684      	mov	ip, r0
    9aa8:	19db      	adds	r3, r3, r7
    9aaa:	4463      	add	r3, ip
    9aac:	429f      	cmp	r7, r3
    9aae:	d903      	bls.n	9ab8 <__aeabi_ddiv+0x40c>
    9ab0:	2080      	movs	r0, #128	; 0x80
    9ab2:	0240      	lsls	r0, r0, #9
    9ab4:	4684      	mov	ip, r0
    9ab6:	4465      	add	r5, ip
    9ab8:	4648      	mov	r0, r9
    9aba:	0c1f      	lsrs	r7, r3, #16
    9abc:	0400      	lsls	r0, r0, #16
    9abe:	041b      	lsls	r3, r3, #16
    9ac0:	0c00      	lsrs	r0, r0, #16
    9ac2:	197d      	adds	r5, r7, r5
    9ac4:	1818      	adds	r0, r3, r0
    9ac6:	42a9      	cmp	r1, r5
    9ac8:	d200      	bcs.n	9acc <__aeabi_ddiv+0x420>
    9aca:	e084      	b.n	9bd6 <__aeabi_ddiv+0x52a>
    9acc:	d100      	bne.n	9ad0 <__aeabi_ddiv+0x424>
    9ace:	e07f      	b.n	9bd0 <__aeabi_ddiv+0x524>
    9ad0:	2301      	movs	r3, #1
    9ad2:	431a      	orrs	r2, r3
    9ad4:	e657      	b.n	9786 <__aeabi_ddiv+0xda>
    9ad6:	2380      	movs	r3, #128	; 0x80
    9ad8:	464a      	mov	r2, r9
    9ada:	031b      	lsls	r3, r3, #12
    9adc:	4313      	orrs	r3, r2
    9ade:	031b      	lsls	r3, r3, #12
    9ae0:	0b1b      	lsrs	r3, r3, #12
    9ae2:	46aa      	mov	sl, r5
    9ae4:	4a6f      	ldr	r2, [pc, #444]	; (9ca4 <__aeabi_ddiv+0x5f8>)
    9ae6:	e66f      	b.n	97c8 <__aeabi_ddiv+0x11c>
    9ae8:	42ba      	cmp	r2, r7
    9aea:	d900      	bls.n	9aee <__aeabi_ddiv+0x442>
    9aec:	e735      	b.n	995a <__aeabi_ddiv+0x2ae>
    9aee:	464b      	mov	r3, r9
    9af0:	07dc      	lsls	r4, r3, #31
    9af2:	0858      	lsrs	r0, r3, #1
    9af4:	087b      	lsrs	r3, r7, #1
    9af6:	431c      	orrs	r4, r3
    9af8:	07ff      	lsls	r7, r7, #31
    9afa:	e734      	b.n	9966 <__aeabi_ddiv+0x2ba>
    9afc:	2400      	movs	r4, #0
    9afe:	42af      	cmp	r7, r5
    9b00:	d289      	bcs.n	9a16 <__aeabi_ddiv+0x36a>
    9b02:	4447      	add	r7, r8
    9b04:	4547      	cmp	r7, r8
    9b06:	41a4      	sbcs	r4, r4
    9b08:	465b      	mov	r3, fp
    9b0a:	4264      	negs	r4, r4
    9b0c:	19a4      	adds	r4, r4, r6
    9b0e:	1864      	adds	r4, r4, r1
    9b10:	3b01      	subs	r3, #1
    9b12:	42a6      	cmp	r6, r4
    9b14:	d21e      	bcs.n	9b54 <__aeabi_ddiv+0x4a8>
    9b16:	42a0      	cmp	r0, r4
    9b18:	d86d      	bhi.n	9bf6 <__aeabi_ddiv+0x54a>
    9b1a:	d100      	bne.n	9b1e <__aeabi_ddiv+0x472>
    9b1c:	e0b6      	b.n	9c8c <__aeabi_ddiv+0x5e0>
    9b1e:	1a24      	subs	r4, r4, r0
    9b20:	469b      	mov	fp, r3
    9b22:	e778      	b.n	9a16 <__aeabi_ddiv+0x36a>
    9b24:	0003      	movs	r3, r0
    9b26:	465a      	mov	r2, fp
    9b28:	3b28      	subs	r3, #40	; 0x28
    9b2a:	409a      	lsls	r2, r3
    9b2c:	2700      	movs	r7, #0
    9b2e:	4691      	mov	r9, r2
    9b30:	e688      	b.n	9844 <__aeabi_ddiv+0x198>
    9b32:	4658      	mov	r0, fp
    9b34:	f001 f872 	bl	ac1c <__clzsi2>
    9b38:	3020      	adds	r0, #32
    9b3a:	e672      	b.n	9822 <__aeabi_ddiv+0x176>
    9b3c:	0003      	movs	r3, r0
    9b3e:	4652      	mov	r2, sl
    9b40:	3b28      	subs	r3, #40	; 0x28
    9b42:	409a      	lsls	r2, r3
    9b44:	4693      	mov	fp, r2
    9b46:	2200      	movs	r2, #0
    9b48:	e6b4      	b.n	98b4 <__aeabi_ddiv+0x208>
    9b4a:	4650      	mov	r0, sl
    9b4c:	f001 f866 	bl	ac1c <__clzsi2>
    9b50:	3020      	adds	r0, #32
    9b52:	e69a      	b.n	988a <__aeabi_ddiv+0x1de>
    9b54:	42a6      	cmp	r6, r4
    9b56:	d1e2      	bne.n	9b1e <__aeabi_ddiv+0x472>
    9b58:	45b8      	cmp	r8, r7
    9b5a:	d9dc      	bls.n	9b16 <__aeabi_ddiv+0x46a>
    9b5c:	1a34      	subs	r4, r6, r0
    9b5e:	469b      	mov	fp, r3
    9b60:	e759      	b.n	9a16 <__aeabi_ddiv+0x36a>
    9b62:	2b1f      	cmp	r3, #31
    9b64:	dc65      	bgt.n	9c32 <__aeabi_ddiv+0x586>
    9b66:	4c50      	ldr	r4, [pc, #320]	; (9ca8 <__aeabi_ddiv+0x5fc>)
    9b68:	9900      	ldr	r1, [sp, #0]
    9b6a:	46a4      	mov	ip, r4
    9b6c:	465c      	mov	r4, fp
    9b6e:	4461      	add	r1, ip
    9b70:	0008      	movs	r0, r1
    9b72:	408c      	lsls	r4, r1
    9b74:	0011      	movs	r1, r2
    9b76:	4082      	lsls	r2, r0
    9b78:	40d9      	lsrs	r1, r3
    9b7a:	1e50      	subs	r0, r2, #1
    9b7c:	4182      	sbcs	r2, r0
    9b7e:	430c      	orrs	r4, r1
    9b80:	4314      	orrs	r4, r2
    9b82:	465a      	mov	r2, fp
    9b84:	40da      	lsrs	r2, r3
    9b86:	0013      	movs	r3, r2
    9b88:	0762      	lsls	r2, r4, #29
    9b8a:	d009      	beq.n	9ba0 <__aeabi_ddiv+0x4f4>
    9b8c:	220f      	movs	r2, #15
    9b8e:	4022      	ands	r2, r4
    9b90:	2a04      	cmp	r2, #4
    9b92:	d005      	beq.n	9ba0 <__aeabi_ddiv+0x4f4>
    9b94:	0022      	movs	r2, r4
    9b96:	1d14      	adds	r4, r2, #4
    9b98:	4294      	cmp	r4, r2
    9b9a:	4189      	sbcs	r1, r1
    9b9c:	4249      	negs	r1, r1
    9b9e:	185b      	adds	r3, r3, r1
    9ba0:	021a      	lsls	r2, r3, #8
    9ba2:	d562      	bpl.n	9c6a <__aeabi_ddiv+0x5be>
    9ba4:	2201      	movs	r2, #1
    9ba6:	2300      	movs	r3, #0
    9ba8:	2700      	movs	r7, #0
    9baa:	e60d      	b.n	97c8 <__aeabi_ddiv+0x11c>
    9bac:	428a      	cmp	r2, r1
    9bae:	d800      	bhi.n	9bb2 <__aeabi_ddiv+0x506>
    9bb0:	e70a      	b.n	99c8 <__aeabi_ddiv+0x31c>
    9bb2:	1e83      	subs	r3, r0, #2
    9bb4:	1989      	adds	r1, r1, r6
    9bb6:	e707      	b.n	99c8 <__aeabi_ddiv+0x31c>
    9bb8:	230f      	movs	r3, #15
    9bba:	4013      	ands	r3, r2
    9bbc:	2b04      	cmp	r3, #4
    9bbe:	d100      	bne.n	9bc2 <__aeabi_ddiv+0x516>
    9bc0:	e5e6      	b.n	9790 <__aeabi_ddiv+0xe4>
    9bc2:	1d17      	adds	r7, r2, #4
    9bc4:	4297      	cmp	r7, r2
    9bc6:	4192      	sbcs	r2, r2
    9bc8:	4253      	negs	r3, r2
    9bca:	449b      	add	fp, r3
    9bcc:	08fa      	lsrs	r2, r7, #3
    9bce:	e5e0      	b.n	9792 <__aeabi_ddiv+0xe6>
    9bd0:	2800      	cmp	r0, #0
    9bd2:	d100      	bne.n	9bd6 <__aeabi_ddiv+0x52a>
    9bd4:	e5d7      	b.n	9786 <__aeabi_ddiv+0xda>
    9bd6:	1871      	adds	r1, r6, r1
    9bd8:	1e53      	subs	r3, r2, #1
    9bda:	42b1      	cmp	r1, r6
    9bdc:	d327      	bcc.n	9c2e <__aeabi_ddiv+0x582>
    9bde:	42a9      	cmp	r1, r5
    9be0:	d315      	bcc.n	9c0e <__aeabi_ddiv+0x562>
    9be2:	d058      	beq.n	9c96 <__aeabi_ddiv+0x5ea>
    9be4:	001a      	movs	r2, r3
    9be6:	e773      	b.n	9ad0 <__aeabi_ddiv+0x424>
    9be8:	2b00      	cmp	r3, #0
    9bea:	dc00      	bgt.n	9bee <__aeabi_ddiv+0x542>
    9bec:	e604      	b.n	97f8 <__aeabi_ddiv+0x14c>
    9bee:	2301      	movs	r3, #1
    9bf0:	2200      	movs	r2, #0
    9bf2:	449b      	add	fp, r3
    9bf4:	e5cd      	b.n	9792 <__aeabi_ddiv+0xe6>
    9bf6:	2302      	movs	r3, #2
    9bf8:	4447      	add	r7, r8
    9bfa:	4547      	cmp	r7, r8
    9bfc:	4189      	sbcs	r1, r1
    9bfe:	425b      	negs	r3, r3
    9c00:	469c      	mov	ip, r3
    9c02:	4249      	negs	r1, r1
    9c04:	1989      	adds	r1, r1, r6
    9c06:	190c      	adds	r4, r1, r4
    9c08:	44e3      	add	fp, ip
    9c0a:	1a24      	subs	r4, r4, r0
    9c0c:	e703      	b.n	9a16 <__aeabi_ddiv+0x36a>
    9c0e:	4643      	mov	r3, r8
    9c10:	005f      	lsls	r7, r3, #1
    9c12:	4547      	cmp	r7, r8
    9c14:	419b      	sbcs	r3, r3
    9c16:	46b8      	mov	r8, r7
    9c18:	425b      	negs	r3, r3
    9c1a:	199e      	adds	r6, r3, r6
    9c1c:	3a02      	subs	r2, #2
    9c1e:	1989      	adds	r1, r1, r6
    9c20:	42a9      	cmp	r1, r5
    9c22:	d000      	beq.n	9c26 <__aeabi_ddiv+0x57a>
    9c24:	e754      	b.n	9ad0 <__aeabi_ddiv+0x424>
    9c26:	4540      	cmp	r0, r8
    9c28:	d000      	beq.n	9c2c <__aeabi_ddiv+0x580>
    9c2a:	e751      	b.n	9ad0 <__aeabi_ddiv+0x424>
    9c2c:	e5ab      	b.n	9786 <__aeabi_ddiv+0xda>
    9c2e:	001a      	movs	r2, r3
    9c30:	e7f6      	b.n	9c20 <__aeabi_ddiv+0x574>
    9c32:	211f      	movs	r1, #31
    9c34:	465f      	mov	r7, fp
    9c36:	4249      	negs	r1, r1
    9c38:	1b0c      	subs	r4, r1, r4
    9c3a:	40e7      	lsrs	r7, r4
    9c3c:	2b20      	cmp	r3, #32
    9c3e:	d007      	beq.n	9c50 <__aeabi_ddiv+0x5a4>
    9c40:	491a      	ldr	r1, [pc, #104]	; (9cac <__aeabi_ddiv+0x600>)
    9c42:	9b00      	ldr	r3, [sp, #0]
    9c44:	468c      	mov	ip, r1
    9c46:	4463      	add	r3, ip
    9c48:	0018      	movs	r0, r3
    9c4a:	465b      	mov	r3, fp
    9c4c:	4083      	lsls	r3, r0
    9c4e:	431a      	orrs	r2, r3
    9c50:	1e50      	subs	r0, r2, #1
    9c52:	4182      	sbcs	r2, r0
    9c54:	433a      	orrs	r2, r7
    9c56:	2707      	movs	r7, #7
    9c58:	2300      	movs	r3, #0
    9c5a:	4017      	ands	r7, r2
    9c5c:	d009      	beq.n	9c72 <__aeabi_ddiv+0x5c6>
    9c5e:	210f      	movs	r1, #15
    9c60:	2300      	movs	r3, #0
    9c62:	4011      	ands	r1, r2
    9c64:	0014      	movs	r4, r2
    9c66:	2904      	cmp	r1, #4
    9c68:	d195      	bne.n	9b96 <__aeabi_ddiv+0x4ea>
    9c6a:	0022      	movs	r2, r4
    9c6c:	075f      	lsls	r7, r3, #29
    9c6e:	025b      	lsls	r3, r3, #9
    9c70:	0b1b      	lsrs	r3, r3, #12
    9c72:	08d2      	lsrs	r2, r2, #3
    9c74:	4317      	orrs	r7, r2
    9c76:	2200      	movs	r2, #0
    9c78:	e5a6      	b.n	97c8 <__aeabi_ddiv+0x11c>
    9c7a:	2380      	movs	r3, #128	; 0x80
    9c7c:	4659      	mov	r1, fp
    9c7e:	031b      	lsls	r3, r3, #12
    9c80:	430b      	orrs	r3, r1
    9c82:	031b      	lsls	r3, r3, #12
    9c84:	0017      	movs	r7, r2
    9c86:	0b1b      	lsrs	r3, r3, #12
    9c88:	4a06      	ldr	r2, [pc, #24]	; (9ca4 <__aeabi_ddiv+0x5f8>)
    9c8a:	e59d      	b.n	97c8 <__aeabi_ddiv+0x11c>
    9c8c:	42bd      	cmp	r5, r7
    9c8e:	d8b2      	bhi.n	9bf6 <__aeabi_ddiv+0x54a>
    9c90:	469b      	mov	fp, r3
    9c92:	2400      	movs	r4, #0
    9c94:	e6bf      	b.n	9a16 <__aeabi_ddiv+0x36a>
    9c96:	4580      	cmp	r8, r0
    9c98:	d3b9      	bcc.n	9c0e <__aeabi_ddiv+0x562>
    9c9a:	001a      	movs	r2, r3
    9c9c:	e7c3      	b.n	9c26 <__aeabi_ddiv+0x57a>
    9c9e:	46c0      	nop			; (mov r8, r8)
    9ca0:	000003ff 	.word	0x000003ff
    9ca4:	000007ff 	.word	0x000007ff
    9ca8:	0000041e 	.word	0x0000041e
    9cac:	0000043e 	.word	0x0000043e

00009cb0 <__eqdf2>:
__nedf2():
    9cb0:	b5f0      	push	{r4, r5, r6, r7, lr}
    9cb2:	464f      	mov	r7, r9
    9cb4:	4646      	mov	r6, r8
    9cb6:	46d6      	mov	lr, sl
    9cb8:	4684      	mov	ip, r0
    9cba:	b5c0      	push	{r6, r7, lr}
    9cbc:	4680      	mov	r8, r0
    9cbe:	4e19      	ldr	r6, [pc, #100]	; (9d24 <__eqdf2+0x74>)
    9cc0:	0318      	lsls	r0, r3, #12
    9cc2:	030f      	lsls	r7, r1, #12
    9cc4:	004d      	lsls	r5, r1, #1
    9cc6:	0b00      	lsrs	r0, r0, #12
    9cc8:	005c      	lsls	r4, r3, #1
    9cca:	4682      	mov	sl, r0
    9ccc:	0b3f      	lsrs	r7, r7, #12
    9cce:	0d6d      	lsrs	r5, r5, #21
    9cd0:	0fc9      	lsrs	r1, r1, #31
    9cd2:	4691      	mov	r9, r2
    9cd4:	0d64      	lsrs	r4, r4, #21
    9cd6:	0fdb      	lsrs	r3, r3, #31
    9cd8:	2001      	movs	r0, #1
    9cda:	42b5      	cmp	r5, r6
    9cdc:	d00a      	beq.n	9cf4 <__eqdf2+0x44>
    9cde:	42b4      	cmp	r4, r6
    9ce0:	d003      	beq.n	9cea <__eqdf2+0x3a>
    9ce2:	42a5      	cmp	r5, r4
    9ce4:	d101      	bne.n	9cea <__eqdf2+0x3a>
    9ce6:	4557      	cmp	r7, sl
    9ce8:	d00c      	beq.n	9d04 <__eqdf2+0x54>
    9cea:	bc1c      	pop	{r2, r3, r4}
    9cec:	4690      	mov	r8, r2
    9cee:	4699      	mov	r9, r3
    9cf0:	46a2      	mov	sl, r4
    9cf2:	bdf0      	pop	{r4, r5, r6, r7, pc}
    9cf4:	4666      	mov	r6, ip
    9cf6:	433e      	orrs	r6, r7
    9cf8:	d1f7      	bne.n	9cea <__eqdf2+0x3a>
    9cfa:	42ac      	cmp	r4, r5
    9cfc:	d1f5      	bne.n	9cea <__eqdf2+0x3a>
    9cfe:	4654      	mov	r4, sl
    9d00:	4314      	orrs	r4, r2
    9d02:	d1f2      	bne.n	9cea <__eqdf2+0x3a>
    9d04:	2001      	movs	r0, #1
    9d06:	45c8      	cmp	r8, r9
    9d08:	d1ef      	bne.n	9cea <__eqdf2+0x3a>
    9d0a:	4299      	cmp	r1, r3
    9d0c:	d007      	beq.n	9d1e <__eqdf2+0x6e>
    9d0e:	2d00      	cmp	r5, #0
    9d10:	d1eb      	bne.n	9cea <__eqdf2+0x3a>
    9d12:	4663      	mov	r3, ip
    9d14:	431f      	orrs	r7, r3
    9d16:	0038      	movs	r0, r7
    9d18:	1e47      	subs	r7, r0, #1
    9d1a:	41b8      	sbcs	r0, r7
    9d1c:	e7e5      	b.n	9cea <__eqdf2+0x3a>
    9d1e:	2000      	movs	r0, #0
    9d20:	e7e3      	b.n	9cea <__eqdf2+0x3a>
    9d22:	46c0      	nop			; (mov r8, r8)
    9d24:	000007ff 	.word	0x000007ff

00009d28 <__gedf2>:
__gedf2():
    9d28:	b5f0      	push	{r4, r5, r6, r7, lr}
    9d2a:	464f      	mov	r7, r9
    9d2c:	4646      	mov	r6, r8
    9d2e:	46d6      	mov	lr, sl
    9d30:	004d      	lsls	r5, r1, #1
    9d32:	b5c0      	push	{r6, r7, lr}
    9d34:	030e      	lsls	r6, r1, #12
    9d36:	0fc9      	lsrs	r1, r1, #31
    9d38:	468a      	mov	sl, r1
    9d3a:	492c      	ldr	r1, [pc, #176]	; (9dec <__gedf2+0xc4>)
    9d3c:	031f      	lsls	r7, r3, #12
    9d3e:	005c      	lsls	r4, r3, #1
    9d40:	4680      	mov	r8, r0
    9d42:	0b36      	lsrs	r6, r6, #12
    9d44:	0d6d      	lsrs	r5, r5, #21
    9d46:	4691      	mov	r9, r2
    9d48:	0b3f      	lsrs	r7, r7, #12
    9d4a:	0d64      	lsrs	r4, r4, #21
    9d4c:	0fdb      	lsrs	r3, r3, #31
    9d4e:	428d      	cmp	r5, r1
    9d50:	d01e      	beq.n	9d90 <__gedf2+0x68>
    9d52:	428c      	cmp	r4, r1
    9d54:	d016      	beq.n	9d84 <__gedf2+0x5c>
    9d56:	2d00      	cmp	r5, #0
    9d58:	d11e      	bne.n	9d98 <__gedf2+0x70>
    9d5a:	4330      	orrs	r0, r6
    9d5c:	4684      	mov	ip, r0
    9d5e:	2c00      	cmp	r4, #0
    9d60:	d101      	bne.n	9d66 <__gedf2+0x3e>
    9d62:	433a      	orrs	r2, r7
    9d64:	d023      	beq.n	9dae <__gedf2+0x86>
    9d66:	4662      	mov	r2, ip
    9d68:	2a00      	cmp	r2, #0
    9d6a:	d01a      	beq.n	9da2 <__gedf2+0x7a>
    9d6c:	459a      	cmp	sl, r3
    9d6e:	d029      	beq.n	9dc4 <__gedf2+0x9c>
    9d70:	4651      	mov	r1, sl
    9d72:	2002      	movs	r0, #2
    9d74:	3901      	subs	r1, #1
    9d76:	4008      	ands	r0, r1
    9d78:	3801      	subs	r0, #1
    9d7a:	bc1c      	pop	{r2, r3, r4}
    9d7c:	4690      	mov	r8, r2
    9d7e:	4699      	mov	r9, r3
    9d80:	46a2      	mov	sl, r4
    9d82:	bdf0      	pop	{r4, r5, r6, r7, pc}
    9d84:	0039      	movs	r1, r7
    9d86:	4311      	orrs	r1, r2
    9d88:	d0e5      	beq.n	9d56 <__gedf2+0x2e>
    9d8a:	2002      	movs	r0, #2
    9d8c:	4240      	negs	r0, r0
    9d8e:	e7f4      	b.n	9d7a <__gedf2+0x52>
    9d90:	4330      	orrs	r0, r6
    9d92:	d1fa      	bne.n	9d8a <__gedf2+0x62>
    9d94:	42ac      	cmp	r4, r5
    9d96:	d00f      	beq.n	9db8 <__gedf2+0x90>
    9d98:	2c00      	cmp	r4, #0
    9d9a:	d10f      	bne.n	9dbc <__gedf2+0x94>
    9d9c:	433a      	orrs	r2, r7
    9d9e:	d0e7      	beq.n	9d70 <__gedf2+0x48>
    9da0:	e00c      	b.n	9dbc <__gedf2+0x94>
    9da2:	2201      	movs	r2, #1
    9da4:	3b01      	subs	r3, #1
    9da6:	4393      	bics	r3, r2
    9da8:	0018      	movs	r0, r3
    9daa:	3001      	adds	r0, #1
    9dac:	e7e5      	b.n	9d7a <__gedf2+0x52>
    9dae:	4663      	mov	r3, ip
    9db0:	2000      	movs	r0, #0
    9db2:	2b00      	cmp	r3, #0
    9db4:	d0e1      	beq.n	9d7a <__gedf2+0x52>
    9db6:	e7db      	b.n	9d70 <__gedf2+0x48>
    9db8:	433a      	orrs	r2, r7
    9dba:	d1e6      	bne.n	9d8a <__gedf2+0x62>
    9dbc:	459a      	cmp	sl, r3
    9dbe:	d1d7      	bne.n	9d70 <__gedf2+0x48>
    9dc0:	42a5      	cmp	r5, r4
    9dc2:	dcd5      	bgt.n	9d70 <__gedf2+0x48>
    9dc4:	42a5      	cmp	r5, r4
    9dc6:	db05      	blt.n	9dd4 <__gedf2+0xac>
    9dc8:	42be      	cmp	r6, r7
    9dca:	d8d1      	bhi.n	9d70 <__gedf2+0x48>
    9dcc:	d008      	beq.n	9de0 <__gedf2+0xb8>
    9dce:	2000      	movs	r0, #0
    9dd0:	42be      	cmp	r6, r7
    9dd2:	d2d2      	bcs.n	9d7a <__gedf2+0x52>
    9dd4:	4650      	mov	r0, sl
    9dd6:	2301      	movs	r3, #1
    9dd8:	3801      	subs	r0, #1
    9dda:	4398      	bics	r0, r3
    9ddc:	3001      	adds	r0, #1
    9dde:	e7cc      	b.n	9d7a <__gedf2+0x52>
    9de0:	45c8      	cmp	r8, r9
    9de2:	d8c5      	bhi.n	9d70 <__gedf2+0x48>
    9de4:	2000      	movs	r0, #0
    9de6:	45c8      	cmp	r8, r9
    9de8:	d3f4      	bcc.n	9dd4 <__gedf2+0xac>
    9dea:	e7c6      	b.n	9d7a <__gedf2+0x52>
    9dec:	000007ff 	.word	0x000007ff

00009df0 <__ledf2>:
__ledf2():
    9df0:	b5f0      	push	{r4, r5, r6, r7, lr}
    9df2:	464f      	mov	r7, r9
    9df4:	4646      	mov	r6, r8
    9df6:	46d6      	mov	lr, sl
    9df8:	004d      	lsls	r5, r1, #1
    9dfa:	b5c0      	push	{r6, r7, lr}
    9dfc:	030e      	lsls	r6, r1, #12
    9dfe:	0fc9      	lsrs	r1, r1, #31
    9e00:	468a      	mov	sl, r1
    9e02:	492e      	ldr	r1, [pc, #184]	; (9ebc <__ledf2+0xcc>)
    9e04:	031f      	lsls	r7, r3, #12
    9e06:	005c      	lsls	r4, r3, #1
    9e08:	4680      	mov	r8, r0
    9e0a:	0b36      	lsrs	r6, r6, #12
    9e0c:	0d6d      	lsrs	r5, r5, #21
    9e0e:	4691      	mov	r9, r2
    9e10:	0b3f      	lsrs	r7, r7, #12
    9e12:	0d64      	lsrs	r4, r4, #21
    9e14:	0fdb      	lsrs	r3, r3, #31
    9e16:	428d      	cmp	r5, r1
    9e18:	d018      	beq.n	9e4c <__ledf2+0x5c>
    9e1a:	428c      	cmp	r4, r1
    9e1c:	d011      	beq.n	9e42 <__ledf2+0x52>
    9e1e:	2d00      	cmp	r5, #0
    9e20:	d118      	bne.n	9e54 <__ledf2+0x64>
    9e22:	4330      	orrs	r0, r6
    9e24:	4684      	mov	ip, r0
    9e26:	2c00      	cmp	r4, #0
    9e28:	d11e      	bne.n	9e68 <__ledf2+0x78>
    9e2a:	433a      	orrs	r2, r7
    9e2c:	d11c      	bne.n	9e68 <__ledf2+0x78>
    9e2e:	4663      	mov	r3, ip
    9e30:	2000      	movs	r0, #0
    9e32:	2b00      	cmp	r3, #0
    9e34:	d030      	beq.n	9e98 <__ledf2+0xa8>
    9e36:	4651      	mov	r1, sl
    9e38:	2002      	movs	r0, #2
    9e3a:	3901      	subs	r1, #1
    9e3c:	4008      	ands	r0, r1
    9e3e:	3801      	subs	r0, #1
    9e40:	e02a      	b.n	9e98 <__ledf2+0xa8>
    9e42:	0039      	movs	r1, r7
    9e44:	4311      	orrs	r1, r2
    9e46:	d0ea      	beq.n	9e1e <__ledf2+0x2e>
    9e48:	2002      	movs	r0, #2
    9e4a:	e025      	b.n	9e98 <__ledf2+0xa8>
    9e4c:	4330      	orrs	r0, r6
    9e4e:	d1fb      	bne.n	9e48 <__ledf2+0x58>
    9e50:	42ac      	cmp	r4, r5
    9e52:	d026      	beq.n	9ea2 <__ledf2+0xb2>
    9e54:	2c00      	cmp	r4, #0
    9e56:	d126      	bne.n	9ea6 <__ledf2+0xb6>
    9e58:	433a      	orrs	r2, r7
    9e5a:	d124      	bne.n	9ea6 <__ledf2+0xb6>
    9e5c:	4651      	mov	r1, sl
    9e5e:	2002      	movs	r0, #2
    9e60:	3901      	subs	r1, #1
    9e62:	4008      	ands	r0, r1
    9e64:	3801      	subs	r0, #1
    9e66:	e017      	b.n	9e98 <__ledf2+0xa8>
    9e68:	4662      	mov	r2, ip
    9e6a:	2a00      	cmp	r2, #0
    9e6c:	d00f      	beq.n	9e8e <__ledf2+0x9e>
    9e6e:	459a      	cmp	sl, r3
    9e70:	d1e1      	bne.n	9e36 <__ledf2+0x46>
    9e72:	42a5      	cmp	r5, r4
    9e74:	db05      	blt.n	9e82 <__ledf2+0x92>
    9e76:	42be      	cmp	r6, r7
    9e78:	d8dd      	bhi.n	9e36 <__ledf2+0x46>
    9e7a:	d019      	beq.n	9eb0 <__ledf2+0xc0>
    9e7c:	2000      	movs	r0, #0
    9e7e:	42be      	cmp	r6, r7
    9e80:	d20a      	bcs.n	9e98 <__ledf2+0xa8>
    9e82:	4650      	mov	r0, sl
    9e84:	2301      	movs	r3, #1
    9e86:	3801      	subs	r0, #1
    9e88:	4398      	bics	r0, r3
    9e8a:	3001      	adds	r0, #1
    9e8c:	e004      	b.n	9e98 <__ledf2+0xa8>
    9e8e:	2201      	movs	r2, #1
    9e90:	3b01      	subs	r3, #1
    9e92:	4393      	bics	r3, r2
    9e94:	0018      	movs	r0, r3
    9e96:	3001      	adds	r0, #1
    9e98:	bc1c      	pop	{r2, r3, r4}
    9e9a:	4690      	mov	r8, r2
    9e9c:	4699      	mov	r9, r3
    9e9e:	46a2      	mov	sl, r4
    9ea0:	bdf0      	pop	{r4, r5, r6, r7, pc}
    9ea2:	433a      	orrs	r2, r7
    9ea4:	d1d0      	bne.n	9e48 <__ledf2+0x58>
    9ea6:	459a      	cmp	sl, r3
    9ea8:	d1c5      	bne.n	9e36 <__ledf2+0x46>
    9eaa:	42a5      	cmp	r5, r4
    9eac:	dcc3      	bgt.n	9e36 <__ledf2+0x46>
    9eae:	e7e0      	b.n	9e72 <__ledf2+0x82>
    9eb0:	45c8      	cmp	r8, r9
    9eb2:	d8c0      	bhi.n	9e36 <__ledf2+0x46>
    9eb4:	2000      	movs	r0, #0
    9eb6:	45c8      	cmp	r8, r9
    9eb8:	d3e3      	bcc.n	9e82 <__ledf2+0x92>
    9eba:	e7ed      	b.n	9e98 <__ledf2+0xa8>
    9ebc:	000007ff 	.word	0x000007ff

00009ec0 <__aeabi_dmul>:
__aeabi_dmul():
    9ec0:	b5f0      	push	{r4, r5, r6, r7, lr}
    9ec2:	4657      	mov	r7, sl
    9ec4:	46de      	mov	lr, fp
    9ec6:	464e      	mov	r6, r9
    9ec8:	4645      	mov	r5, r8
    9eca:	b5e0      	push	{r5, r6, r7, lr}
    9ecc:	4683      	mov	fp, r0
    9ece:	0006      	movs	r6, r0
    9ed0:	030f      	lsls	r7, r1, #12
    9ed2:	0048      	lsls	r0, r1, #1
    9ed4:	b087      	sub	sp, #28
    9ed6:	4692      	mov	sl, r2
    9ed8:	001d      	movs	r5, r3
    9eda:	0b3f      	lsrs	r7, r7, #12
    9edc:	0d40      	lsrs	r0, r0, #21
    9ede:	0fcc      	lsrs	r4, r1, #31
    9ee0:	2800      	cmp	r0, #0
    9ee2:	d100      	bne.n	9ee6 <__aeabi_dmul+0x26>
    9ee4:	e06f      	b.n	9fc6 <__aeabi_dmul+0x106>
    9ee6:	4bde      	ldr	r3, [pc, #888]	; (a260 <__aeabi_dmul+0x3a0>)
    9ee8:	4298      	cmp	r0, r3
    9eea:	d038      	beq.n	9f5e <__aeabi_dmul+0x9e>
    9eec:	2380      	movs	r3, #128	; 0x80
    9eee:	00ff      	lsls	r7, r7, #3
    9ef0:	041b      	lsls	r3, r3, #16
    9ef2:	431f      	orrs	r7, r3
    9ef4:	0f73      	lsrs	r3, r6, #29
    9ef6:	433b      	orrs	r3, r7
    9ef8:	9301      	str	r3, [sp, #4]
    9efa:	4bda      	ldr	r3, [pc, #872]	; (a264 <__aeabi_dmul+0x3a4>)
    9efc:	2700      	movs	r7, #0
    9efe:	4699      	mov	r9, r3
    9f00:	2300      	movs	r3, #0
    9f02:	469b      	mov	fp, r3
    9f04:	00f6      	lsls	r6, r6, #3
    9f06:	4481      	add	r9, r0
    9f08:	032b      	lsls	r3, r5, #12
    9f0a:	0069      	lsls	r1, r5, #1
    9f0c:	0b1b      	lsrs	r3, r3, #12
    9f0e:	4652      	mov	r2, sl
    9f10:	4698      	mov	r8, r3
    9f12:	0d49      	lsrs	r1, r1, #21
    9f14:	0fed      	lsrs	r5, r5, #31
    9f16:	2900      	cmp	r1, #0
    9f18:	d100      	bne.n	9f1c <__aeabi_dmul+0x5c>
    9f1a:	e085      	b.n	a028 <__aeabi_dmul+0x168>
    9f1c:	4bd0      	ldr	r3, [pc, #832]	; (a260 <__aeabi_dmul+0x3a0>)
    9f1e:	4299      	cmp	r1, r3
    9f20:	d100      	bne.n	9f24 <__aeabi_dmul+0x64>
    9f22:	e073      	b.n	a00c <__aeabi_dmul+0x14c>
    9f24:	4643      	mov	r3, r8
    9f26:	00da      	lsls	r2, r3, #3
    9f28:	2380      	movs	r3, #128	; 0x80
    9f2a:	041b      	lsls	r3, r3, #16
    9f2c:	4313      	orrs	r3, r2
    9f2e:	4652      	mov	r2, sl
    9f30:	48cc      	ldr	r0, [pc, #816]	; (a264 <__aeabi_dmul+0x3a4>)
    9f32:	0f52      	lsrs	r2, r2, #29
    9f34:	4684      	mov	ip, r0
    9f36:	4313      	orrs	r3, r2
    9f38:	4652      	mov	r2, sl
    9f3a:	2000      	movs	r0, #0
    9f3c:	4461      	add	r1, ip
    9f3e:	00d2      	lsls	r2, r2, #3
    9f40:	4489      	add	r9, r1
    9f42:	0021      	movs	r1, r4
    9f44:	4069      	eors	r1, r5
    9f46:	9100      	str	r1, [sp, #0]
    9f48:	468c      	mov	ip, r1
    9f4a:	2101      	movs	r1, #1
    9f4c:	4449      	add	r1, r9
    9f4e:	468a      	mov	sl, r1
    9f50:	2f0f      	cmp	r7, #15
    9f52:	d900      	bls.n	9f56 <__aeabi_dmul+0x96>
    9f54:	e090      	b.n	a078 <__aeabi_dmul+0x1b8>
    9f56:	49c4      	ldr	r1, [pc, #784]	; (a268 <__aeabi_dmul+0x3a8>)
    9f58:	00bf      	lsls	r7, r7, #2
    9f5a:	59cf      	ldr	r7, [r1, r7]
    9f5c:	46bf      	mov	pc, r7
    9f5e:	465b      	mov	r3, fp
    9f60:	433b      	orrs	r3, r7
    9f62:	9301      	str	r3, [sp, #4]
    9f64:	d000      	beq.n	9f68 <__aeabi_dmul+0xa8>
    9f66:	e16a      	b.n	a23e <__aeabi_dmul+0x37e>
    9f68:	2302      	movs	r3, #2
    9f6a:	2708      	movs	r7, #8
    9f6c:	2600      	movs	r6, #0
    9f6e:	4681      	mov	r9, r0
    9f70:	469b      	mov	fp, r3
    9f72:	e7c9      	b.n	9f08 <__aeabi_dmul+0x48>
    9f74:	0032      	movs	r2, r6
    9f76:	4658      	mov	r0, fp
    9f78:	9b01      	ldr	r3, [sp, #4]
    9f7a:	4661      	mov	r1, ip
    9f7c:	9100      	str	r1, [sp, #0]
    9f7e:	2802      	cmp	r0, #2
    9f80:	d100      	bne.n	9f84 <__aeabi_dmul+0xc4>
    9f82:	e075      	b.n	a070 <__aeabi_dmul+0x1b0>
    9f84:	2803      	cmp	r0, #3
    9f86:	d100      	bne.n	9f8a <__aeabi_dmul+0xca>
    9f88:	e1fe      	b.n	a388 <__aeabi_dmul+0x4c8>
    9f8a:	2801      	cmp	r0, #1
    9f8c:	d000      	beq.n	9f90 <__aeabi_dmul+0xd0>
    9f8e:	e12c      	b.n	a1ea <__aeabi_dmul+0x32a>
    9f90:	2300      	movs	r3, #0
    9f92:	2700      	movs	r7, #0
    9f94:	2600      	movs	r6, #0
    9f96:	2500      	movs	r5, #0
    9f98:	033f      	lsls	r7, r7, #12
    9f9a:	0d2a      	lsrs	r2, r5, #20
    9f9c:	0b3f      	lsrs	r7, r7, #12
    9f9e:	48b3      	ldr	r0, [pc, #716]	; (a26c <__aeabi_dmul+0x3ac>)
    9fa0:	0512      	lsls	r2, r2, #20
    9fa2:	433a      	orrs	r2, r7
    9fa4:	4002      	ands	r2, r0
    9fa6:	051b      	lsls	r3, r3, #20
    9fa8:	4313      	orrs	r3, r2
    9faa:	9a00      	ldr	r2, [sp, #0]
    9fac:	005b      	lsls	r3, r3, #1
    9fae:	07d1      	lsls	r1, r2, #31
    9fb0:	085b      	lsrs	r3, r3, #1
    9fb2:	430b      	orrs	r3, r1
    9fb4:	0030      	movs	r0, r6
    9fb6:	0019      	movs	r1, r3
    9fb8:	b007      	add	sp, #28
    9fba:	bc3c      	pop	{r2, r3, r4, r5}
    9fbc:	4690      	mov	r8, r2
    9fbe:	4699      	mov	r9, r3
    9fc0:	46a2      	mov	sl, r4
    9fc2:	46ab      	mov	fp, r5
    9fc4:	bdf0      	pop	{r4, r5, r6, r7, pc}
    9fc6:	465b      	mov	r3, fp
    9fc8:	433b      	orrs	r3, r7
    9fca:	9301      	str	r3, [sp, #4]
    9fcc:	d100      	bne.n	9fd0 <__aeabi_dmul+0x110>
    9fce:	e12f      	b.n	a230 <__aeabi_dmul+0x370>
    9fd0:	2f00      	cmp	r7, #0
    9fd2:	d100      	bne.n	9fd6 <__aeabi_dmul+0x116>
    9fd4:	e1a5      	b.n	a322 <__aeabi_dmul+0x462>
    9fd6:	0038      	movs	r0, r7
    9fd8:	f000 fe20 	bl	ac1c <__clzsi2>
    9fdc:	0003      	movs	r3, r0
    9fde:	3b0b      	subs	r3, #11
    9fe0:	2b1c      	cmp	r3, #28
    9fe2:	dd00      	ble.n	9fe6 <__aeabi_dmul+0x126>
    9fe4:	e196      	b.n	a314 <__aeabi_dmul+0x454>
    9fe6:	221d      	movs	r2, #29
    9fe8:	1ad3      	subs	r3, r2, r3
    9fea:	465a      	mov	r2, fp
    9fec:	0001      	movs	r1, r0
    9fee:	40da      	lsrs	r2, r3
    9ff0:	465e      	mov	r6, fp
    9ff2:	3908      	subs	r1, #8
    9ff4:	408f      	lsls	r7, r1
    9ff6:	0013      	movs	r3, r2
    9ff8:	408e      	lsls	r6, r1
    9ffa:	433b      	orrs	r3, r7
    9ffc:	9301      	str	r3, [sp, #4]
    9ffe:	4b9c      	ldr	r3, [pc, #624]	; (a270 <__aeabi_dmul+0x3b0>)
    a000:	2700      	movs	r7, #0
    a002:	1a1b      	subs	r3, r3, r0
    a004:	4699      	mov	r9, r3
    a006:	2300      	movs	r3, #0
    a008:	469b      	mov	fp, r3
    a00a:	e77d      	b.n	9f08 <__aeabi_dmul+0x48>
    a00c:	4641      	mov	r1, r8
    a00e:	4653      	mov	r3, sl
    a010:	430b      	orrs	r3, r1
    a012:	4993      	ldr	r1, [pc, #588]	; (a260 <__aeabi_dmul+0x3a0>)
    a014:	468c      	mov	ip, r1
    a016:	44e1      	add	r9, ip
    a018:	2b00      	cmp	r3, #0
    a01a:	d000      	beq.n	a01e <__aeabi_dmul+0x15e>
    a01c:	e11a      	b.n	a254 <__aeabi_dmul+0x394>
    a01e:	2202      	movs	r2, #2
    a020:	2002      	movs	r0, #2
    a022:	4317      	orrs	r7, r2
    a024:	2200      	movs	r2, #0
    a026:	e78c      	b.n	9f42 <__aeabi_dmul+0x82>
    a028:	4313      	orrs	r3, r2
    a02a:	d100      	bne.n	a02e <__aeabi_dmul+0x16e>
    a02c:	e10d      	b.n	a24a <__aeabi_dmul+0x38a>
    a02e:	4643      	mov	r3, r8
    a030:	2b00      	cmp	r3, #0
    a032:	d100      	bne.n	a036 <__aeabi_dmul+0x176>
    a034:	e181      	b.n	a33a <__aeabi_dmul+0x47a>
    a036:	4640      	mov	r0, r8
    a038:	f000 fdf0 	bl	ac1c <__clzsi2>
    a03c:	0002      	movs	r2, r0
    a03e:	3a0b      	subs	r2, #11
    a040:	2a1c      	cmp	r2, #28
    a042:	dd00      	ble.n	a046 <__aeabi_dmul+0x186>
    a044:	e172      	b.n	a32c <__aeabi_dmul+0x46c>
    a046:	0001      	movs	r1, r0
    a048:	4643      	mov	r3, r8
    a04a:	3908      	subs	r1, #8
    a04c:	408b      	lsls	r3, r1
    a04e:	4698      	mov	r8, r3
    a050:	231d      	movs	r3, #29
    a052:	1a9a      	subs	r2, r3, r2
    a054:	4653      	mov	r3, sl
    a056:	40d3      	lsrs	r3, r2
    a058:	001a      	movs	r2, r3
    a05a:	4643      	mov	r3, r8
    a05c:	4313      	orrs	r3, r2
    a05e:	4652      	mov	r2, sl
    a060:	408a      	lsls	r2, r1
    a062:	4649      	mov	r1, r9
    a064:	1a08      	subs	r0, r1, r0
    a066:	4982      	ldr	r1, [pc, #520]	; (a270 <__aeabi_dmul+0x3b0>)
    a068:	4689      	mov	r9, r1
    a06a:	4481      	add	r9, r0
    a06c:	2000      	movs	r0, #0
    a06e:	e768      	b.n	9f42 <__aeabi_dmul+0x82>
    a070:	4b7b      	ldr	r3, [pc, #492]	; (a260 <__aeabi_dmul+0x3a0>)
    a072:	2700      	movs	r7, #0
    a074:	2600      	movs	r6, #0
    a076:	e78e      	b.n	9f96 <__aeabi_dmul+0xd6>
    a078:	0c14      	lsrs	r4, r2, #16
    a07a:	0412      	lsls	r2, r2, #16
    a07c:	0c12      	lsrs	r2, r2, #16
    a07e:	0011      	movs	r1, r2
    a080:	0c37      	lsrs	r7, r6, #16
    a082:	0436      	lsls	r6, r6, #16
    a084:	0c35      	lsrs	r5, r6, #16
    a086:	4379      	muls	r1, r7
    a088:	0028      	movs	r0, r5
    a08a:	468c      	mov	ip, r1
    a08c:	002e      	movs	r6, r5
    a08e:	4360      	muls	r0, r4
    a090:	4460      	add	r0, ip
    a092:	4683      	mov	fp, r0
    a094:	4356      	muls	r6, r2
    a096:	0021      	movs	r1, r4
    a098:	0c30      	lsrs	r0, r6, #16
    a09a:	4680      	mov	r8, r0
    a09c:	4658      	mov	r0, fp
    a09e:	4379      	muls	r1, r7
    a0a0:	4440      	add	r0, r8
    a0a2:	9102      	str	r1, [sp, #8]
    a0a4:	4584      	cmp	ip, r0
    a0a6:	d906      	bls.n	a0b6 <__aeabi_dmul+0x1f6>
    a0a8:	4688      	mov	r8, r1
    a0aa:	2180      	movs	r1, #128	; 0x80
    a0ac:	0249      	lsls	r1, r1, #9
    a0ae:	468c      	mov	ip, r1
    a0b0:	44e0      	add	r8, ip
    a0b2:	4641      	mov	r1, r8
    a0b4:	9102      	str	r1, [sp, #8]
    a0b6:	0436      	lsls	r6, r6, #16
    a0b8:	0c01      	lsrs	r1, r0, #16
    a0ba:	0c36      	lsrs	r6, r6, #16
    a0bc:	0400      	lsls	r0, r0, #16
    a0be:	468b      	mov	fp, r1
    a0c0:	1981      	adds	r1, r0, r6
    a0c2:	0c1e      	lsrs	r6, r3, #16
    a0c4:	041b      	lsls	r3, r3, #16
    a0c6:	0c1b      	lsrs	r3, r3, #16
    a0c8:	9103      	str	r1, [sp, #12]
    a0ca:	0019      	movs	r1, r3
    a0cc:	4379      	muls	r1, r7
    a0ce:	468c      	mov	ip, r1
    a0d0:	0028      	movs	r0, r5
    a0d2:	4375      	muls	r5, r6
    a0d4:	4465      	add	r5, ip
    a0d6:	46a8      	mov	r8, r5
    a0d8:	4358      	muls	r0, r3
    a0da:	0c05      	lsrs	r5, r0, #16
    a0dc:	4445      	add	r5, r8
    a0de:	4377      	muls	r7, r6
    a0e0:	42a9      	cmp	r1, r5
    a0e2:	d903      	bls.n	a0ec <__aeabi_dmul+0x22c>
    a0e4:	2180      	movs	r1, #128	; 0x80
    a0e6:	0249      	lsls	r1, r1, #9
    a0e8:	468c      	mov	ip, r1
    a0ea:	4467      	add	r7, ip
    a0ec:	0c29      	lsrs	r1, r5, #16
    a0ee:	468c      	mov	ip, r1
    a0f0:	0039      	movs	r1, r7
    a0f2:	0400      	lsls	r0, r0, #16
    a0f4:	0c00      	lsrs	r0, r0, #16
    a0f6:	042d      	lsls	r5, r5, #16
    a0f8:	182d      	adds	r5, r5, r0
    a0fa:	4461      	add	r1, ip
    a0fc:	44ab      	add	fp, r5
    a0fe:	9105      	str	r1, [sp, #20]
    a100:	4659      	mov	r1, fp
    a102:	9104      	str	r1, [sp, #16]
    a104:	9901      	ldr	r1, [sp, #4]
    a106:	040f      	lsls	r7, r1, #16
    a108:	0c3f      	lsrs	r7, r7, #16
    a10a:	0c08      	lsrs	r0, r1, #16
    a10c:	0039      	movs	r1, r7
    a10e:	4351      	muls	r1, r2
    a110:	4342      	muls	r2, r0
    a112:	4690      	mov	r8, r2
    a114:	0002      	movs	r2, r0
    a116:	468c      	mov	ip, r1
    a118:	0c09      	lsrs	r1, r1, #16
    a11a:	468b      	mov	fp, r1
    a11c:	4362      	muls	r2, r4
    a11e:	437c      	muls	r4, r7
    a120:	4444      	add	r4, r8
    a122:	445c      	add	r4, fp
    a124:	45a0      	cmp	r8, r4
    a126:	d903      	bls.n	a130 <__aeabi_dmul+0x270>
    a128:	2180      	movs	r1, #128	; 0x80
    a12a:	0249      	lsls	r1, r1, #9
    a12c:	4688      	mov	r8, r1
    a12e:	4442      	add	r2, r8
    a130:	0c21      	lsrs	r1, r4, #16
    a132:	4688      	mov	r8, r1
    a134:	4661      	mov	r1, ip
    a136:	0409      	lsls	r1, r1, #16
    a138:	0c09      	lsrs	r1, r1, #16
    a13a:	468c      	mov	ip, r1
    a13c:	0039      	movs	r1, r7
    a13e:	4359      	muls	r1, r3
    a140:	4343      	muls	r3, r0
    a142:	4370      	muls	r0, r6
    a144:	437e      	muls	r6, r7
    a146:	0c0f      	lsrs	r7, r1, #16
    a148:	18f6      	adds	r6, r6, r3
    a14a:	0424      	lsls	r4, r4, #16
    a14c:	19be      	adds	r6, r7, r6
    a14e:	4464      	add	r4, ip
    a150:	4442      	add	r2, r8
    a152:	468c      	mov	ip, r1
    a154:	42b3      	cmp	r3, r6
    a156:	d903      	bls.n	a160 <__aeabi_dmul+0x2a0>
    a158:	2380      	movs	r3, #128	; 0x80
    a15a:	025b      	lsls	r3, r3, #9
    a15c:	4698      	mov	r8, r3
    a15e:	4440      	add	r0, r8
    a160:	9b02      	ldr	r3, [sp, #8]
    a162:	4661      	mov	r1, ip
    a164:	4698      	mov	r8, r3
    a166:	9b04      	ldr	r3, [sp, #16]
    a168:	0437      	lsls	r7, r6, #16
    a16a:	4443      	add	r3, r8
    a16c:	469b      	mov	fp, r3
    a16e:	45ab      	cmp	fp, r5
    a170:	41ad      	sbcs	r5, r5
    a172:	426b      	negs	r3, r5
    a174:	040d      	lsls	r5, r1, #16
    a176:	9905      	ldr	r1, [sp, #20]
    a178:	0c2d      	lsrs	r5, r5, #16
    a17a:	468c      	mov	ip, r1
    a17c:	197f      	adds	r7, r7, r5
    a17e:	4467      	add	r7, ip
    a180:	18fd      	adds	r5, r7, r3
    a182:	46a8      	mov	r8, r5
    a184:	465d      	mov	r5, fp
    a186:	192d      	adds	r5, r5, r4
    a188:	42a5      	cmp	r5, r4
    a18a:	41a4      	sbcs	r4, r4
    a18c:	4693      	mov	fp, r2
    a18e:	4264      	negs	r4, r4
    a190:	46a4      	mov	ip, r4
    a192:	44c3      	add	fp, r8
    a194:	44dc      	add	ip, fp
    a196:	428f      	cmp	r7, r1
    a198:	41bf      	sbcs	r7, r7
    a19a:	4598      	cmp	r8, r3
    a19c:	419b      	sbcs	r3, r3
    a19e:	4593      	cmp	fp, r2
    a1a0:	4192      	sbcs	r2, r2
    a1a2:	45a4      	cmp	ip, r4
    a1a4:	41a4      	sbcs	r4, r4
    a1a6:	425b      	negs	r3, r3
    a1a8:	427f      	negs	r7, r7
    a1aa:	431f      	orrs	r7, r3
    a1ac:	0c36      	lsrs	r6, r6, #16
    a1ae:	4252      	negs	r2, r2
    a1b0:	4264      	negs	r4, r4
    a1b2:	19bf      	adds	r7, r7, r6
    a1b4:	4322      	orrs	r2, r4
    a1b6:	18bf      	adds	r7, r7, r2
    a1b8:	4662      	mov	r2, ip
    a1ba:	1838      	adds	r0, r7, r0
    a1bc:	0243      	lsls	r3, r0, #9
    a1be:	0dd2      	lsrs	r2, r2, #23
    a1c0:	9903      	ldr	r1, [sp, #12]
    a1c2:	4313      	orrs	r3, r2
    a1c4:	026a      	lsls	r2, r5, #9
    a1c6:	430a      	orrs	r2, r1
    a1c8:	1e50      	subs	r0, r2, #1
    a1ca:	4182      	sbcs	r2, r0
    a1cc:	4661      	mov	r1, ip
    a1ce:	0ded      	lsrs	r5, r5, #23
    a1d0:	432a      	orrs	r2, r5
    a1d2:	024e      	lsls	r6, r1, #9
    a1d4:	4332      	orrs	r2, r6
    a1d6:	01d9      	lsls	r1, r3, #7
    a1d8:	d400      	bmi.n	a1dc <__aeabi_dmul+0x31c>
    a1da:	e0b3      	b.n	a344 <__aeabi_dmul+0x484>
    a1dc:	2601      	movs	r6, #1
    a1de:	0850      	lsrs	r0, r2, #1
    a1e0:	4032      	ands	r2, r6
    a1e2:	4302      	orrs	r2, r0
    a1e4:	07de      	lsls	r6, r3, #31
    a1e6:	4332      	orrs	r2, r6
    a1e8:	085b      	lsrs	r3, r3, #1
    a1ea:	4c22      	ldr	r4, [pc, #136]	; (a274 <__aeabi_dmul+0x3b4>)
    a1ec:	4454      	add	r4, sl
    a1ee:	2c00      	cmp	r4, #0
    a1f0:	dd62      	ble.n	a2b8 <__aeabi_dmul+0x3f8>
    a1f2:	0751      	lsls	r1, r2, #29
    a1f4:	d009      	beq.n	a20a <__aeabi_dmul+0x34a>
    a1f6:	200f      	movs	r0, #15
    a1f8:	4010      	ands	r0, r2
    a1fa:	2804      	cmp	r0, #4
    a1fc:	d005      	beq.n	a20a <__aeabi_dmul+0x34a>
    a1fe:	1d10      	adds	r0, r2, #4
    a200:	4290      	cmp	r0, r2
    a202:	4192      	sbcs	r2, r2
    a204:	4252      	negs	r2, r2
    a206:	189b      	adds	r3, r3, r2
    a208:	0002      	movs	r2, r0
    a20a:	01d9      	lsls	r1, r3, #7
    a20c:	d504      	bpl.n	a218 <__aeabi_dmul+0x358>
    a20e:	2480      	movs	r4, #128	; 0x80
    a210:	4819      	ldr	r0, [pc, #100]	; (a278 <__aeabi_dmul+0x3b8>)
    a212:	00e4      	lsls	r4, r4, #3
    a214:	4003      	ands	r3, r0
    a216:	4454      	add	r4, sl
    a218:	4818      	ldr	r0, [pc, #96]	; (a27c <__aeabi_dmul+0x3bc>)
    a21a:	4284      	cmp	r4, r0
    a21c:	dd00      	ble.n	a220 <__aeabi_dmul+0x360>
    a21e:	e727      	b.n	a070 <__aeabi_dmul+0x1b0>
    a220:	075e      	lsls	r6, r3, #29
    a222:	025b      	lsls	r3, r3, #9
    a224:	08d2      	lsrs	r2, r2, #3
    a226:	0b1f      	lsrs	r7, r3, #12
    a228:	0563      	lsls	r3, r4, #21
    a22a:	4316      	orrs	r6, r2
    a22c:	0d5b      	lsrs	r3, r3, #21
    a22e:	e6b2      	b.n	9f96 <__aeabi_dmul+0xd6>
    a230:	2300      	movs	r3, #0
    a232:	4699      	mov	r9, r3
    a234:	3301      	adds	r3, #1
    a236:	2704      	movs	r7, #4
    a238:	2600      	movs	r6, #0
    a23a:	469b      	mov	fp, r3
    a23c:	e664      	b.n	9f08 <__aeabi_dmul+0x48>
    a23e:	2303      	movs	r3, #3
    a240:	9701      	str	r7, [sp, #4]
    a242:	4681      	mov	r9, r0
    a244:	270c      	movs	r7, #12
    a246:	469b      	mov	fp, r3
    a248:	e65e      	b.n	9f08 <__aeabi_dmul+0x48>
    a24a:	2201      	movs	r2, #1
    a24c:	2001      	movs	r0, #1
    a24e:	4317      	orrs	r7, r2
    a250:	2200      	movs	r2, #0
    a252:	e676      	b.n	9f42 <__aeabi_dmul+0x82>
    a254:	2303      	movs	r3, #3
    a256:	2003      	movs	r0, #3
    a258:	431f      	orrs	r7, r3
    a25a:	4643      	mov	r3, r8
    a25c:	e671      	b.n	9f42 <__aeabi_dmul+0x82>
    a25e:	46c0      	nop			; (mov r8, r8)
    a260:	000007ff 	.word	0x000007ff
    a264:	fffffc01 	.word	0xfffffc01
    a268:	0000e810 	.word	0x0000e810
    a26c:	800fffff 	.word	0x800fffff
    a270:	fffffc0d 	.word	0xfffffc0d
    a274:	000003ff 	.word	0x000003ff
    a278:	feffffff 	.word	0xfeffffff
    a27c:	000007fe 	.word	0x000007fe
    a280:	2300      	movs	r3, #0
    a282:	2780      	movs	r7, #128	; 0x80
    a284:	9300      	str	r3, [sp, #0]
    a286:	033f      	lsls	r7, r7, #12
    a288:	2600      	movs	r6, #0
    a28a:	4b43      	ldr	r3, [pc, #268]	; (a398 <__aeabi_dmul+0x4d8>)
    a28c:	e683      	b.n	9f96 <__aeabi_dmul+0xd6>
    a28e:	9b01      	ldr	r3, [sp, #4]
    a290:	0032      	movs	r2, r6
    a292:	46a4      	mov	ip, r4
    a294:	4658      	mov	r0, fp
    a296:	e670      	b.n	9f7a <__aeabi_dmul+0xba>
    a298:	46ac      	mov	ip, r5
    a29a:	e66e      	b.n	9f7a <__aeabi_dmul+0xba>
    a29c:	2780      	movs	r7, #128	; 0x80
    a29e:	9901      	ldr	r1, [sp, #4]
    a2a0:	033f      	lsls	r7, r7, #12
    a2a2:	4239      	tst	r1, r7
    a2a4:	d02d      	beq.n	a302 <__aeabi_dmul+0x442>
    a2a6:	423b      	tst	r3, r7
    a2a8:	d12b      	bne.n	a302 <__aeabi_dmul+0x442>
    a2aa:	431f      	orrs	r7, r3
    a2ac:	033f      	lsls	r7, r7, #12
    a2ae:	0b3f      	lsrs	r7, r7, #12
    a2b0:	9500      	str	r5, [sp, #0]
    a2b2:	0016      	movs	r6, r2
    a2b4:	4b38      	ldr	r3, [pc, #224]	; (a398 <__aeabi_dmul+0x4d8>)
    a2b6:	e66e      	b.n	9f96 <__aeabi_dmul+0xd6>
    a2b8:	2501      	movs	r5, #1
    a2ba:	1b2d      	subs	r5, r5, r4
    a2bc:	2d38      	cmp	r5, #56	; 0x38
    a2be:	dd00      	ble.n	a2c2 <__aeabi_dmul+0x402>
    a2c0:	e666      	b.n	9f90 <__aeabi_dmul+0xd0>
    a2c2:	2d1f      	cmp	r5, #31
    a2c4:	dc40      	bgt.n	a348 <__aeabi_dmul+0x488>
    a2c6:	4835      	ldr	r0, [pc, #212]	; (a39c <__aeabi_dmul+0x4dc>)
    a2c8:	001c      	movs	r4, r3
    a2ca:	4450      	add	r0, sl
    a2cc:	0016      	movs	r6, r2
    a2ce:	4082      	lsls	r2, r0
    a2d0:	4084      	lsls	r4, r0
    a2d2:	40ee      	lsrs	r6, r5
    a2d4:	1e50      	subs	r0, r2, #1
    a2d6:	4182      	sbcs	r2, r0
    a2d8:	4334      	orrs	r4, r6
    a2da:	4314      	orrs	r4, r2
    a2dc:	40eb      	lsrs	r3, r5
    a2de:	0762      	lsls	r2, r4, #29
    a2e0:	d009      	beq.n	a2f6 <__aeabi_dmul+0x436>
    a2e2:	220f      	movs	r2, #15
    a2e4:	4022      	ands	r2, r4
    a2e6:	2a04      	cmp	r2, #4
    a2e8:	d005      	beq.n	a2f6 <__aeabi_dmul+0x436>
    a2ea:	0022      	movs	r2, r4
    a2ec:	1d14      	adds	r4, r2, #4
    a2ee:	4294      	cmp	r4, r2
    a2f0:	4180      	sbcs	r0, r0
    a2f2:	4240      	negs	r0, r0
    a2f4:	181b      	adds	r3, r3, r0
    a2f6:	021a      	lsls	r2, r3, #8
    a2f8:	d53e      	bpl.n	a378 <__aeabi_dmul+0x4b8>
    a2fa:	2301      	movs	r3, #1
    a2fc:	2700      	movs	r7, #0
    a2fe:	2600      	movs	r6, #0
    a300:	e649      	b.n	9f96 <__aeabi_dmul+0xd6>
    a302:	2780      	movs	r7, #128	; 0x80
    a304:	9b01      	ldr	r3, [sp, #4]
    a306:	033f      	lsls	r7, r7, #12
    a308:	431f      	orrs	r7, r3
    a30a:	033f      	lsls	r7, r7, #12
    a30c:	0b3f      	lsrs	r7, r7, #12
    a30e:	9400      	str	r4, [sp, #0]
    a310:	4b21      	ldr	r3, [pc, #132]	; (a398 <__aeabi_dmul+0x4d8>)
    a312:	e640      	b.n	9f96 <__aeabi_dmul+0xd6>
    a314:	0003      	movs	r3, r0
    a316:	465a      	mov	r2, fp
    a318:	3b28      	subs	r3, #40	; 0x28
    a31a:	409a      	lsls	r2, r3
    a31c:	2600      	movs	r6, #0
    a31e:	9201      	str	r2, [sp, #4]
    a320:	e66d      	b.n	9ffe <__aeabi_dmul+0x13e>
    a322:	4658      	mov	r0, fp
    a324:	f000 fc7a 	bl	ac1c <__clzsi2>
    a328:	3020      	adds	r0, #32
    a32a:	e657      	b.n	9fdc <__aeabi_dmul+0x11c>
    a32c:	0003      	movs	r3, r0
    a32e:	4652      	mov	r2, sl
    a330:	3b28      	subs	r3, #40	; 0x28
    a332:	409a      	lsls	r2, r3
    a334:	0013      	movs	r3, r2
    a336:	2200      	movs	r2, #0
    a338:	e693      	b.n	a062 <__aeabi_dmul+0x1a2>
    a33a:	4650      	mov	r0, sl
    a33c:	f000 fc6e 	bl	ac1c <__clzsi2>
    a340:	3020      	adds	r0, #32
    a342:	e67b      	b.n	a03c <__aeabi_dmul+0x17c>
    a344:	46ca      	mov	sl, r9
    a346:	e750      	b.n	a1ea <__aeabi_dmul+0x32a>
    a348:	201f      	movs	r0, #31
    a34a:	001e      	movs	r6, r3
    a34c:	4240      	negs	r0, r0
    a34e:	1b04      	subs	r4, r0, r4
    a350:	40e6      	lsrs	r6, r4
    a352:	2d20      	cmp	r5, #32
    a354:	d003      	beq.n	a35e <__aeabi_dmul+0x49e>
    a356:	4c12      	ldr	r4, [pc, #72]	; (a3a0 <__aeabi_dmul+0x4e0>)
    a358:	4454      	add	r4, sl
    a35a:	40a3      	lsls	r3, r4
    a35c:	431a      	orrs	r2, r3
    a35e:	1e50      	subs	r0, r2, #1
    a360:	4182      	sbcs	r2, r0
    a362:	4332      	orrs	r2, r6
    a364:	2607      	movs	r6, #7
    a366:	2700      	movs	r7, #0
    a368:	4016      	ands	r6, r2
    a36a:	d009      	beq.n	a380 <__aeabi_dmul+0x4c0>
    a36c:	200f      	movs	r0, #15
    a36e:	2300      	movs	r3, #0
    a370:	4010      	ands	r0, r2
    a372:	0014      	movs	r4, r2
    a374:	2804      	cmp	r0, #4
    a376:	d1b9      	bne.n	a2ec <__aeabi_dmul+0x42c>
    a378:	0022      	movs	r2, r4
    a37a:	075e      	lsls	r6, r3, #29
    a37c:	025b      	lsls	r3, r3, #9
    a37e:	0b1f      	lsrs	r7, r3, #12
    a380:	08d2      	lsrs	r2, r2, #3
    a382:	4316      	orrs	r6, r2
    a384:	2300      	movs	r3, #0
    a386:	e606      	b.n	9f96 <__aeabi_dmul+0xd6>
    a388:	2780      	movs	r7, #128	; 0x80
    a38a:	033f      	lsls	r7, r7, #12
    a38c:	431f      	orrs	r7, r3
    a38e:	033f      	lsls	r7, r7, #12
    a390:	0b3f      	lsrs	r7, r7, #12
    a392:	0016      	movs	r6, r2
    a394:	4b00      	ldr	r3, [pc, #0]	; (a398 <__aeabi_dmul+0x4d8>)
    a396:	e5fe      	b.n	9f96 <__aeabi_dmul+0xd6>
    a398:	000007ff 	.word	0x000007ff
    a39c:	0000041e 	.word	0x0000041e
    a3a0:	0000043e 	.word	0x0000043e

0000a3a4 <__aeabi_dsub>:
__aeabi_dsub():
    a3a4:	b5f8      	push	{r3, r4, r5, r6, r7, lr}
    a3a6:	4657      	mov	r7, sl
    a3a8:	464e      	mov	r6, r9
    a3aa:	4645      	mov	r5, r8
    a3ac:	46de      	mov	lr, fp
    a3ae:	000c      	movs	r4, r1
    a3b0:	0309      	lsls	r1, r1, #12
    a3b2:	b5e0      	push	{r5, r6, r7, lr}
    a3b4:	0a49      	lsrs	r1, r1, #9
    a3b6:	0f46      	lsrs	r6, r0, #29
    a3b8:	005f      	lsls	r7, r3, #1
    a3ba:	4331      	orrs	r1, r6
    a3bc:	031e      	lsls	r6, r3, #12
    a3be:	0fdb      	lsrs	r3, r3, #31
    a3c0:	0a76      	lsrs	r6, r6, #9
    a3c2:	469b      	mov	fp, r3
    a3c4:	0f53      	lsrs	r3, r2, #29
    a3c6:	4333      	orrs	r3, r6
    a3c8:	4ec8      	ldr	r6, [pc, #800]	; (a6ec <__aeabi_dsub+0x348>)
    a3ca:	0065      	lsls	r5, r4, #1
    a3cc:	00c0      	lsls	r0, r0, #3
    a3ce:	0fe4      	lsrs	r4, r4, #31
    a3d0:	00d2      	lsls	r2, r2, #3
    a3d2:	0d6d      	lsrs	r5, r5, #21
    a3d4:	46a2      	mov	sl, r4
    a3d6:	4681      	mov	r9, r0
    a3d8:	0d7f      	lsrs	r7, r7, #21
    a3da:	469c      	mov	ip, r3
    a3dc:	4690      	mov	r8, r2
    a3de:	42b7      	cmp	r7, r6
    a3e0:	d100      	bne.n	a3e4 <__aeabi_dsub+0x40>
    a3e2:	e0b9      	b.n	a558 <__aeabi_dsub+0x1b4>
    a3e4:	465b      	mov	r3, fp
    a3e6:	2601      	movs	r6, #1
    a3e8:	4073      	eors	r3, r6
    a3ea:	469b      	mov	fp, r3
    a3ec:	1bee      	subs	r6, r5, r7
    a3ee:	45a3      	cmp	fp, r4
    a3f0:	d100      	bne.n	a3f4 <__aeabi_dsub+0x50>
    a3f2:	e083      	b.n	a4fc <__aeabi_dsub+0x158>
    a3f4:	2e00      	cmp	r6, #0
    a3f6:	dd63      	ble.n	a4c0 <__aeabi_dsub+0x11c>
    a3f8:	2f00      	cmp	r7, #0
    a3fa:	d000      	beq.n	a3fe <__aeabi_dsub+0x5a>
    a3fc:	e0b1      	b.n	a562 <__aeabi_dsub+0x1be>
    a3fe:	4663      	mov	r3, ip
    a400:	4313      	orrs	r3, r2
    a402:	d100      	bne.n	a406 <__aeabi_dsub+0x62>
    a404:	e123      	b.n	a64e <__aeabi_dsub+0x2aa>
    a406:	1e73      	subs	r3, r6, #1
    a408:	2b00      	cmp	r3, #0
    a40a:	d000      	beq.n	a40e <__aeabi_dsub+0x6a>
    a40c:	e1ba      	b.n	a784 <__aeabi_dsub+0x3e0>
    a40e:	1a86      	subs	r6, r0, r2
    a410:	4663      	mov	r3, ip
    a412:	42b0      	cmp	r0, r6
    a414:	4180      	sbcs	r0, r0
    a416:	2501      	movs	r5, #1
    a418:	1ac9      	subs	r1, r1, r3
    a41a:	4240      	negs	r0, r0
    a41c:	1a09      	subs	r1, r1, r0
    a41e:	020b      	lsls	r3, r1, #8
    a420:	d400      	bmi.n	a424 <__aeabi_dsub+0x80>
    a422:	e147      	b.n	a6b4 <__aeabi_dsub+0x310>
    a424:	0249      	lsls	r1, r1, #9
    a426:	0a4b      	lsrs	r3, r1, #9
    a428:	4698      	mov	r8, r3
    a42a:	4643      	mov	r3, r8
    a42c:	2b00      	cmp	r3, #0
    a42e:	d100      	bne.n	a432 <__aeabi_dsub+0x8e>
    a430:	e189      	b.n	a746 <__aeabi_dsub+0x3a2>
    a432:	4640      	mov	r0, r8
    a434:	f000 fbf2 	bl	ac1c <__clzsi2>
    a438:	0003      	movs	r3, r0
    a43a:	3b08      	subs	r3, #8
    a43c:	2b1f      	cmp	r3, #31
    a43e:	dd00      	ble.n	a442 <__aeabi_dsub+0x9e>
    a440:	e17c      	b.n	a73c <__aeabi_dsub+0x398>
    a442:	2220      	movs	r2, #32
    a444:	0030      	movs	r0, r6
    a446:	1ad2      	subs	r2, r2, r3
    a448:	4641      	mov	r1, r8
    a44a:	40d0      	lsrs	r0, r2
    a44c:	4099      	lsls	r1, r3
    a44e:	0002      	movs	r2, r0
    a450:	409e      	lsls	r6, r3
    a452:	430a      	orrs	r2, r1
    a454:	429d      	cmp	r5, r3
    a456:	dd00      	ble.n	a45a <__aeabi_dsub+0xb6>
    a458:	e16a      	b.n	a730 <__aeabi_dsub+0x38c>
    a45a:	1b5d      	subs	r5, r3, r5
    a45c:	1c6b      	adds	r3, r5, #1
    a45e:	2b1f      	cmp	r3, #31
    a460:	dd00      	ble.n	a464 <__aeabi_dsub+0xc0>
    a462:	e194      	b.n	a78e <__aeabi_dsub+0x3ea>
    a464:	2120      	movs	r1, #32
    a466:	0010      	movs	r0, r2
    a468:	0035      	movs	r5, r6
    a46a:	1ac9      	subs	r1, r1, r3
    a46c:	408e      	lsls	r6, r1
    a46e:	40da      	lsrs	r2, r3
    a470:	4088      	lsls	r0, r1
    a472:	40dd      	lsrs	r5, r3
    a474:	1e71      	subs	r1, r6, #1
    a476:	418e      	sbcs	r6, r1
    a478:	0011      	movs	r1, r2
    a47a:	2207      	movs	r2, #7
    a47c:	4328      	orrs	r0, r5
    a47e:	2500      	movs	r5, #0
    a480:	4306      	orrs	r6, r0
    a482:	4032      	ands	r2, r6
    a484:	2a00      	cmp	r2, #0
    a486:	d009      	beq.n	a49c <__aeabi_dsub+0xf8>
    a488:	230f      	movs	r3, #15
    a48a:	4033      	ands	r3, r6
    a48c:	2b04      	cmp	r3, #4
    a48e:	d005      	beq.n	a49c <__aeabi_dsub+0xf8>
    a490:	1d33      	adds	r3, r6, #4
    a492:	42b3      	cmp	r3, r6
    a494:	41b6      	sbcs	r6, r6
    a496:	4276      	negs	r6, r6
    a498:	1989      	adds	r1, r1, r6
    a49a:	001e      	movs	r6, r3
    a49c:	020b      	lsls	r3, r1, #8
    a49e:	d400      	bmi.n	a4a2 <__aeabi_dsub+0xfe>
    a4a0:	e23d      	b.n	a91e <__aeabi_dsub+0x57a>
    a4a2:	1c6a      	adds	r2, r5, #1
    a4a4:	4b91      	ldr	r3, [pc, #580]	; (a6ec <__aeabi_dsub+0x348>)
    a4a6:	0555      	lsls	r5, r2, #21
    a4a8:	0d6d      	lsrs	r5, r5, #21
    a4aa:	429a      	cmp	r2, r3
    a4ac:	d100      	bne.n	a4b0 <__aeabi_dsub+0x10c>
    a4ae:	e119      	b.n	a6e4 <__aeabi_dsub+0x340>
    a4b0:	4a8f      	ldr	r2, [pc, #572]	; (a6f0 <__aeabi_dsub+0x34c>)
    a4b2:	08f6      	lsrs	r6, r6, #3
    a4b4:	400a      	ands	r2, r1
    a4b6:	0757      	lsls	r7, r2, #29
    a4b8:	0252      	lsls	r2, r2, #9
    a4ba:	4337      	orrs	r7, r6
    a4bc:	0b12      	lsrs	r2, r2, #12
    a4be:	e09b      	b.n	a5f8 <__aeabi_dsub+0x254>
    a4c0:	2e00      	cmp	r6, #0
    a4c2:	d000      	beq.n	a4c6 <__aeabi_dsub+0x122>
    a4c4:	e0c5      	b.n	a652 <__aeabi_dsub+0x2ae>
    a4c6:	1c6e      	adds	r6, r5, #1
    a4c8:	0576      	lsls	r6, r6, #21
    a4ca:	0d76      	lsrs	r6, r6, #21
    a4cc:	2e01      	cmp	r6, #1
    a4ce:	dc00      	bgt.n	a4d2 <__aeabi_dsub+0x12e>
    a4d0:	e148      	b.n	a764 <__aeabi_dsub+0x3c0>
    a4d2:	4667      	mov	r7, ip
    a4d4:	1a86      	subs	r6, r0, r2
    a4d6:	1bcb      	subs	r3, r1, r7
    a4d8:	42b0      	cmp	r0, r6
    a4da:	41bf      	sbcs	r7, r7
    a4dc:	427f      	negs	r7, r7
    a4de:	46b8      	mov	r8, r7
    a4e0:	001f      	movs	r7, r3
    a4e2:	4643      	mov	r3, r8
    a4e4:	1aff      	subs	r7, r7, r3
    a4e6:	003b      	movs	r3, r7
    a4e8:	46b8      	mov	r8, r7
    a4ea:	021b      	lsls	r3, r3, #8
    a4ec:	d500      	bpl.n	a4f0 <__aeabi_dsub+0x14c>
    a4ee:	e15f      	b.n	a7b0 <__aeabi_dsub+0x40c>
    a4f0:	4337      	orrs	r7, r6
    a4f2:	d19a      	bne.n	a42a <__aeabi_dsub+0x86>
    a4f4:	2200      	movs	r2, #0
    a4f6:	2400      	movs	r4, #0
    a4f8:	2500      	movs	r5, #0
    a4fa:	e079      	b.n	a5f0 <__aeabi_dsub+0x24c>
    a4fc:	2e00      	cmp	r6, #0
    a4fe:	dc00      	bgt.n	a502 <__aeabi_dsub+0x15e>
    a500:	e0fa      	b.n	a6f8 <__aeabi_dsub+0x354>
    a502:	2f00      	cmp	r7, #0
    a504:	d100      	bne.n	a508 <__aeabi_dsub+0x164>
    a506:	e08d      	b.n	a624 <__aeabi_dsub+0x280>
    a508:	4b78      	ldr	r3, [pc, #480]	; (a6ec <__aeabi_dsub+0x348>)
    a50a:	429d      	cmp	r5, r3
    a50c:	d067      	beq.n	a5de <__aeabi_dsub+0x23a>
    a50e:	2380      	movs	r3, #128	; 0x80
    a510:	4667      	mov	r7, ip
    a512:	041b      	lsls	r3, r3, #16
    a514:	431f      	orrs	r7, r3
    a516:	46bc      	mov	ip, r7
    a518:	2e38      	cmp	r6, #56	; 0x38
    a51a:	dc00      	bgt.n	a51e <__aeabi_dsub+0x17a>
    a51c:	e152      	b.n	a7c4 <__aeabi_dsub+0x420>
    a51e:	4663      	mov	r3, ip
    a520:	4313      	orrs	r3, r2
    a522:	1e5a      	subs	r2, r3, #1
    a524:	4193      	sbcs	r3, r2
    a526:	181e      	adds	r6, r3, r0
    a528:	4286      	cmp	r6, r0
    a52a:	4180      	sbcs	r0, r0
    a52c:	4240      	negs	r0, r0
    a52e:	1809      	adds	r1, r1, r0
    a530:	020b      	lsls	r3, r1, #8
    a532:	d400      	bmi.n	a536 <__aeabi_dsub+0x192>
    a534:	e0be      	b.n	a6b4 <__aeabi_dsub+0x310>
    a536:	4b6d      	ldr	r3, [pc, #436]	; (a6ec <__aeabi_dsub+0x348>)
    a538:	3501      	adds	r5, #1
    a53a:	429d      	cmp	r5, r3
    a53c:	d100      	bne.n	a540 <__aeabi_dsub+0x19c>
    a53e:	e0d2      	b.n	a6e6 <__aeabi_dsub+0x342>
    a540:	4a6b      	ldr	r2, [pc, #428]	; (a6f0 <__aeabi_dsub+0x34c>)
    a542:	0873      	lsrs	r3, r6, #1
    a544:	400a      	ands	r2, r1
    a546:	2101      	movs	r1, #1
    a548:	400e      	ands	r6, r1
    a54a:	431e      	orrs	r6, r3
    a54c:	0851      	lsrs	r1, r2, #1
    a54e:	07d3      	lsls	r3, r2, #31
    a550:	2207      	movs	r2, #7
    a552:	431e      	orrs	r6, r3
    a554:	4032      	ands	r2, r6
    a556:	e795      	b.n	a484 <__aeabi_dsub+0xe0>
    a558:	001e      	movs	r6, r3
    a55a:	4316      	orrs	r6, r2
    a55c:	d000      	beq.n	a560 <__aeabi_dsub+0x1bc>
    a55e:	e745      	b.n	a3ec <__aeabi_dsub+0x48>
    a560:	e740      	b.n	a3e4 <__aeabi_dsub+0x40>
    a562:	4b62      	ldr	r3, [pc, #392]	; (a6ec <__aeabi_dsub+0x348>)
    a564:	429d      	cmp	r5, r3
    a566:	d03a      	beq.n	a5de <__aeabi_dsub+0x23a>
    a568:	2380      	movs	r3, #128	; 0x80
    a56a:	4667      	mov	r7, ip
    a56c:	041b      	lsls	r3, r3, #16
    a56e:	431f      	orrs	r7, r3
    a570:	46bc      	mov	ip, r7
    a572:	2e38      	cmp	r6, #56	; 0x38
    a574:	dd00      	ble.n	a578 <__aeabi_dsub+0x1d4>
    a576:	e0eb      	b.n	a750 <__aeabi_dsub+0x3ac>
    a578:	2e1f      	cmp	r6, #31
    a57a:	dc00      	bgt.n	a57e <__aeabi_dsub+0x1da>
    a57c:	e13a      	b.n	a7f4 <__aeabi_dsub+0x450>
    a57e:	0033      	movs	r3, r6
    a580:	4667      	mov	r7, ip
    a582:	3b20      	subs	r3, #32
    a584:	40df      	lsrs	r7, r3
    a586:	003b      	movs	r3, r7
    a588:	2e20      	cmp	r6, #32
    a58a:	d005      	beq.n	a598 <__aeabi_dsub+0x1f4>
    a58c:	2740      	movs	r7, #64	; 0x40
    a58e:	1bbf      	subs	r7, r7, r6
    a590:	4666      	mov	r6, ip
    a592:	40be      	lsls	r6, r7
    a594:	4332      	orrs	r2, r6
    a596:	4690      	mov	r8, r2
    a598:	4646      	mov	r6, r8
    a59a:	1e72      	subs	r2, r6, #1
    a59c:	4196      	sbcs	r6, r2
    a59e:	4333      	orrs	r3, r6
    a5a0:	e0da      	b.n	a758 <__aeabi_dsub+0x3b4>
    a5a2:	2b00      	cmp	r3, #0
    a5a4:	d100      	bne.n	a5a8 <__aeabi_dsub+0x204>
    a5a6:	e214      	b.n	a9d2 <__aeabi_dsub+0x62e>
    a5a8:	4663      	mov	r3, ip
    a5aa:	4313      	orrs	r3, r2
    a5ac:	d100      	bne.n	a5b0 <__aeabi_dsub+0x20c>
    a5ae:	e168      	b.n	a882 <__aeabi_dsub+0x4de>
    a5b0:	2380      	movs	r3, #128	; 0x80
    a5b2:	074e      	lsls	r6, r1, #29
    a5b4:	08c0      	lsrs	r0, r0, #3
    a5b6:	08c9      	lsrs	r1, r1, #3
    a5b8:	031b      	lsls	r3, r3, #12
    a5ba:	4306      	orrs	r6, r0
    a5bc:	4219      	tst	r1, r3
    a5be:	d008      	beq.n	a5d2 <__aeabi_dsub+0x22e>
    a5c0:	4660      	mov	r0, ip
    a5c2:	08c0      	lsrs	r0, r0, #3
    a5c4:	4218      	tst	r0, r3
    a5c6:	d104      	bne.n	a5d2 <__aeabi_dsub+0x22e>
    a5c8:	4663      	mov	r3, ip
    a5ca:	0001      	movs	r1, r0
    a5cc:	08d2      	lsrs	r2, r2, #3
    a5ce:	075e      	lsls	r6, r3, #29
    a5d0:	4316      	orrs	r6, r2
    a5d2:	00f3      	lsls	r3, r6, #3
    a5d4:	4699      	mov	r9, r3
    a5d6:	00c9      	lsls	r1, r1, #3
    a5d8:	0f72      	lsrs	r2, r6, #29
    a5da:	4d44      	ldr	r5, [pc, #272]	; (a6ec <__aeabi_dsub+0x348>)
    a5dc:	4311      	orrs	r1, r2
    a5de:	464b      	mov	r3, r9
    a5e0:	08de      	lsrs	r6, r3, #3
    a5e2:	4b42      	ldr	r3, [pc, #264]	; (a6ec <__aeabi_dsub+0x348>)
    a5e4:	074f      	lsls	r7, r1, #29
    a5e6:	4337      	orrs	r7, r6
    a5e8:	08ca      	lsrs	r2, r1, #3
    a5ea:	429d      	cmp	r5, r3
    a5ec:	d100      	bne.n	a5f0 <__aeabi_dsub+0x24c>
    a5ee:	e06e      	b.n	a6ce <__aeabi_dsub+0x32a>
    a5f0:	0312      	lsls	r2, r2, #12
    a5f2:	056d      	lsls	r5, r5, #21
    a5f4:	0b12      	lsrs	r2, r2, #12
    a5f6:	0d6d      	lsrs	r5, r5, #21
    a5f8:	2100      	movs	r1, #0
    a5fa:	0312      	lsls	r2, r2, #12
    a5fc:	0b13      	lsrs	r3, r2, #12
    a5fe:	0d0a      	lsrs	r2, r1, #20
    a600:	0512      	lsls	r2, r2, #20
    a602:	431a      	orrs	r2, r3
    a604:	4b3b      	ldr	r3, [pc, #236]	; (a6f4 <__aeabi_dsub+0x350>)
    a606:	052d      	lsls	r5, r5, #20
    a608:	4013      	ands	r3, r2
    a60a:	432b      	orrs	r3, r5
    a60c:	005b      	lsls	r3, r3, #1
    a60e:	07e4      	lsls	r4, r4, #31
    a610:	085b      	lsrs	r3, r3, #1
    a612:	4323      	orrs	r3, r4
    a614:	0038      	movs	r0, r7
    a616:	0019      	movs	r1, r3
    a618:	bc3c      	pop	{r2, r3, r4, r5}
    a61a:	4690      	mov	r8, r2
    a61c:	4699      	mov	r9, r3
    a61e:	46a2      	mov	sl, r4
    a620:	46ab      	mov	fp, r5
    a622:	bdf8      	pop	{r3, r4, r5, r6, r7, pc}
    a624:	4663      	mov	r3, ip
    a626:	4313      	orrs	r3, r2
    a628:	d011      	beq.n	a64e <__aeabi_dsub+0x2aa>
    a62a:	1e73      	subs	r3, r6, #1
    a62c:	2b00      	cmp	r3, #0
    a62e:	d000      	beq.n	a632 <__aeabi_dsub+0x28e>
    a630:	e107      	b.n	a842 <__aeabi_dsub+0x49e>
    a632:	1886      	adds	r6, r0, r2
    a634:	4286      	cmp	r6, r0
    a636:	4180      	sbcs	r0, r0
    a638:	4461      	add	r1, ip
    a63a:	4240      	negs	r0, r0
    a63c:	1809      	adds	r1, r1, r0
    a63e:	2501      	movs	r5, #1
    a640:	020b      	lsls	r3, r1, #8
    a642:	d537      	bpl.n	a6b4 <__aeabi_dsub+0x310>
    a644:	2502      	movs	r5, #2
    a646:	e77b      	b.n	a540 <__aeabi_dsub+0x19c>
    a648:	003e      	movs	r6, r7
    a64a:	4661      	mov	r1, ip
    a64c:	4691      	mov	r9, r2
    a64e:	0035      	movs	r5, r6
    a650:	e7c5      	b.n	a5de <__aeabi_dsub+0x23a>
    a652:	465c      	mov	r4, fp
    a654:	2d00      	cmp	r5, #0
    a656:	d000      	beq.n	a65a <__aeabi_dsub+0x2b6>
    a658:	e0e1      	b.n	a81e <__aeabi_dsub+0x47a>
    a65a:	000b      	movs	r3, r1
    a65c:	4303      	orrs	r3, r0
    a65e:	d0f3      	beq.n	a648 <__aeabi_dsub+0x2a4>
    a660:	1c73      	adds	r3, r6, #1
    a662:	d100      	bne.n	a666 <__aeabi_dsub+0x2c2>
    a664:	e1ac      	b.n	a9c0 <__aeabi_dsub+0x61c>
    a666:	4b21      	ldr	r3, [pc, #132]	; (a6ec <__aeabi_dsub+0x348>)
    a668:	429f      	cmp	r7, r3
    a66a:	d100      	bne.n	a66e <__aeabi_dsub+0x2ca>
    a66c:	e13a      	b.n	a8e4 <__aeabi_dsub+0x540>
    a66e:	43f3      	mvns	r3, r6
    a670:	2b38      	cmp	r3, #56	; 0x38
    a672:	dd00      	ble.n	a676 <__aeabi_dsub+0x2d2>
    a674:	e16f      	b.n	a956 <__aeabi_dsub+0x5b2>
    a676:	2b1f      	cmp	r3, #31
    a678:	dd00      	ble.n	a67c <__aeabi_dsub+0x2d8>
    a67a:	e18c      	b.n	a996 <__aeabi_dsub+0x5f2>
    a67c:	2520      	movs	r5, #32
    a67e:	000e      	movs	r6, r1
    a680:	1aed      	subs	r5, r5, r3
    a682:	40ae      	lsls	r6, r5
    a684:	46b0      	mov	r8, r6
    a686:	0006      	movs	r6, r0
    a688:	46aa      	mov	sl, r5
    a68a:	40de      	lsrs	r6, r3
    a68c:	4645      	mov	r5, r8
    a68e:	4335      	orrs	r5, r6
    a690:	002e      	movs	r6, r5
    a692:	4655      	mov	r5, sl
    a694:	40d9      	lsrs	r1, r3
    a696:	40a8      	lsls	r0, r5
    a698:	4663      	mov	r3, ip
    a69a:	1e45      	subs	r5, r0, #1
    a69c:	41a8      	sbcs	r0, r5
    a69e:	1a5b      	subs	r3, r3, r1
    a6a0:	469c      	mov	ip, r3
    a6a2:	4330      	orrs	r0, r6
    a6a4:	1a16      	subs	r6, r2, r0
    a6a6:	42b2      	cmp	r2, r6
    a6a8:	4192      	sbcs	r2, r2
    a6aa:	4663      	mov	r3, ip
    a6ac:	4252      	negs	r2, r2
    a6ae:	1a99      	subs	r1, r3, r2
    a6b0:	003d      	movs	r5, r7
    a6b2:	e6b4      	b.n	a41e <__aeabi_dsub+0x7a>
    a6b4:	2207      	movs	r2, #7
    a6b6:	4032      	ands	r2, r6
    a6b8:	2a00      	cmp	r2, #0
    a6ba:	d000      	beq.n	a6be <__aeabi_dsub+0x31a>
    a6bc:	e6e4      	b.n	a488 <__aeabi_dsub+0xe4>
    a6be:	4b0b      	ldr	r3, [pc, #44]	; (a6ec <__aeabi_dsub+0x348>)
    a6c0:	08f6      	lsrs	r6, r6, #3
    a6c2:	074f      	lsls	r7, r1, #29
    a6c4:	4337      	orrs	r7, r6
    a6c6:	08ca      	lsrs	r2, r1, #3
    a6c8:	429d      	cmp	r5, r3
    a6ca:	d000      	beq.n	a6ce <__aeabi_dsub+0x32a>
    a6cc:	e790      	b.n	a5f0 <__aeabi_dsub+0x24c>
    a6ce:	003b      	movs	r3, r7
    a6d0:	4313      	orrs	r3, r2
    a6d2:	d100      	bne.n	a6d6 <__aeabi_dsub+0x332>
    a6d4:	e1a6      	b.n	aa24 <__aeabi_dsub+0x680>
    a6d6:	2380      	movs	r3, #128	; 0x80
    a6d8:	031b      	lsls	r3, r3, #12
    a6da:	431a      	orrs	r2, r3
    a6dc:	0312      	lsls	r2, r2, #12
    a6de:	0b12      	lsrs	r2, r2, #12
    a6e0:	4d02      	ldr	r5, [pc, #8]	; (a6ec <__aeabi_dsub+0x348>)
    a6e2:	e789      	b.n	a5f8 <__aeabi_dsub+0x254>
    a6e4:	0015      	movs	r5, r2
    a6e6:	2200      	movs	r2, #0
    a6e8:	2700      	movs	r7, #0
    a6ea:	e785      	b.n	a5f8 <__aeabi_dsub+0x254>
    a6ec:	000007ff 	.word	0x000007ff
    a6f0:	ff7fffff 	.word	0xff7fffff
    a6f4:	800fffff 	.word	0x800fffff
    a6f8:	2e00      	cmp	r6, #0
    a6fa:	d000      	beq.n	a6fe <__aeabi_dsub+0x35a>
    a6fc:	e0c7      	b.n	a88e <__aeabi_dsub+0x4ea>
    a6fe:	1c6b      	adds	r3, r5, #1
    a700:	055e      	lsls	r6, r3, #21
    a702:	0d76      	lsrs	r6, r6, #21
    a704:	2e01      	cmp	r6, #1
    a706:	dc00      	bgt.n	a70a <__aeabi_dsub+0x366>
    a708:	e0f0      	b.n	a8ec <__aeabi_dsub+0x548>
    a70a:	4dc8      	ldr	r5, [pc, #800]	; (aa2c <__aeabi_dsub+0x688>)
    a70c:	42ab      	cmp	r3, r5
    a70e:	d100      	bne.n	a712 <__aeabi_dsub+0x36e>
    a710:	e0b9      	b.n	a886 <__aeabi_dsub+0x4e2>
    a712:	1885      	adds	r5, r0, r2
    a714:	000a      	movs	r2, r1
    a716:	4285      	cmp	r5, r0
    a718:	4189      	sbcs	r1, r1
    a71a:	4462      	add	r2, ip
    a71c:	4249      	negs	r1, r1
    a71e:	1851      	adds	r1, r2, r1
    a720:	2207      	movs	r2, #7
    a722:	07ce      	lsls	r6, r1, #31
    a724:	086d      	lsrs	r5, r5, #1
    a726:	432e      	orrs	r6, r5
    a728:	0849      	lsrs	r1, r1, #1
    a72a:	4032      	ands	r2, r6
    a72c:	001d      	movs	r5, r3
    a72e:	e6a9      	b.n	a484 <__aeabi_dsub+0xe0>
    a730:	49bf      	ldr	r1, [pc, #764]	; (aa30 <__aeabi_dsub+0x68c>)
    a732:	1aed      	subs	r5, r5, r3
    a734:	4011      	ands	r1, r2
    a736:	2207      	movs	r2, #7
    a738:	4032      	ands	r2, r6
    a73a:	e6a3      	b.n	a484 <__aeabi_dsub+0xe0>
    a73c:	0032      	movs	r2, r6
    a73e:	3828      	subs	r0, #40	; 0x28
    a740:	4082      	lsls	r2, r0
    a742:	2600      	movs	r6, #0
    a744:	e686      	b.n	a454 <__aeabi_dsub+0xb0>
    a746:	0030      	movs	r0, r6
    a748:	f000 fa68 	bl	ac1c <__clzsi2>
    a74c:	3020      	adds	r0, #32
    a74e:	e673      	b.n	a438 <__aeabi_dsub+0x94>
    a750:	4663      	mov	r3, ip
    a752:	4313      	orrs	r3, r2
    a754:	1e5a      	subs	r2, r3, #1
    a756:	4193      	sbcs	r3, r2
    a758:	1ac6      	subs	r6, r0, r3
    a75a:	42b0      	cmp	r0, r6
    a75c:	4180      	sbcs	r0, r0
    a75e:	4240      	negs	r0, r0
    a760:	1a09      	subs	r1, r1, r0
    a762:	e65c      	b.n	a41e <__aeabi_dsub+0x7a>
    a764:	000e      	movs	r6, r1
    a766:	4667      	mov	r7, ip
    a768:	4306      	orrs	r6, r0
    a76a:	4317      	orrs	r7, r2
    a76c:	2d00      	cmp	r5, #0
    a76e:	d15e      	bne.n	a82e <__aeabi_dsub+0x48a>
    a770:	2e00      	cmp	r6, #0
    a772:	d000      	beq.n	a776 <__aeabi_dsub+0x3d2>
    a774:	e0f3      	b.n	a95e <__aeabi_dsub+0x5ba>
    a776:	2f00      	cmp	r7, #0
    a778:	d100      	bne.n	a77c <__aeabi_dsub+0x3d8>
    a77a:	e11e      	b.n	a9ba <__aeabi_dsub+0x616>
    a77c:	465c      	mov	r4, fp
    a77e:	4661      	mov	r1, ip
    a780:	4691      	mov	r9, r2
    a782:	e72c      	b.n	a5de <__aeabi_dsub+0x23a>
    a784:	4fa9      	ldr	r7, [pc, #676]	; (aa2c <__aeabi_dsub+0x688>)
    a786:	42be      	cmp	r6, r7
    a788:	d07b      	beq.n	a882 <__aeabi_dsub+0x4de>
    a78a:	001e      	movs	r6, r3
    a78c:	e6f1      	b.n	a572 <__aeabi_dsub+0x1ce>
    a78e:	0010      	movs	r0, r2
    a790:	3d1f      	subs	r5, #31
    a792:	40e8      	lsrs	r0, r5
    a794:	2b20      	cmp	r3, #32
    a796:	d003      	beq.n	a7a0 <__aeabi_dsub+0x3fc>
    a798:	2140      	movs	r1, #64	; 0x40
    a79a:	1acb      	subs	r3, r1, r3
    a79c:	409a      	lsls	r2, r3
    a79e:	4316      	orrs	r6, r2
    a7a0:	1e73      	subs	r3, r6, #1
    a7a2:	419e      	sbcs	r6, r3
    a7a4:	2207      	movs	r2, #7
    a7a6:	4306      	orrs	r6, r0
    a7a8:	4032      	ands	r2, r6
    a7aa:	2100      	movs	r1, #0
    a7ac:	2500      	movs	r5, #0
    a7ae:	e783      	b.n	a6b8 <__aeabi_dsub+0x314>
    a7b0:	1a16      	subs	r6, r2, r0
    a7b2:	4663      	mov	r3, ip
    a7b4:	42b2      	cmp	r2, r6
    a7b6:	4180      	sbcs	r0, r0
    a7b8:	1a59      	subs	r1, r3, r1
    a7ba:	4240      	negs	r0, r0
    a7bc:	1a0b      	subs	r3, r1, r0
    a7be:	4698      	mov	r8, r3
    a7c0:	465c      	mov	r4, fp
    a7c2:	e632      	b.n	a42a <__aeabi_dsub+0x86>
    a7c4:	2e1f      	cmp	r6, #31
    a7c6:	dd00      	ble.n	a7ca <__aeabi_dsub+0x426>
    a7c8:	e0ab      	b.n	a922 <__aeabi_dsub+0x57e>
    a7ca:	2720      	movs	r7, #32
    a7cc:	1bbb      	subs	r3, r7, r6
    a7ce:	469a      	mov	sl, r3
    a7d0:	4663      	mov	r3, ip
    a7d2:	4657      	mov	r7, sl
    a7d4:	40bb      	lsls	r3, r7
    a7d6:	4699      	mov	r9, r3
    a7d8:	0013      	movs	r3, r2
    a7da:	464f      	mov	r7, r9
    a7dc:	40f3      	lsrs	r3, r6
    a7de:	431f      	orrs	r7, r3
    a7e0:	003b      	movs	r3, r7
    a7e2:	4657      	mov	r7, sl
    a7e4:	40ba      	lsls	r2, r7
    a7e6:	1e57      	subs	r7, r2, #1
    a7e8:	41ba      	sbcs	r2, r7
    a7ea:	4313      	orrs	r3, r2
    a7ec:	4662      	mov	r2, ip
    a7ee:	40f2      	lsrs	r2, r6
    a7f0:	1889      	adds	r1, r1, r2
    a7f2:	e698      	b.n	a526 <__aeabi_dsub+0x182>
    a7f4:	2720      	movs	r7, #32
    a7f6:	1bbb      	subs	r3, r7, r6
    a7f8:	469a      	mov	sl, r3
    a7fa:	4663      	mov	r3, ip
    a7fc:	4657      	mov	r7, sl
    a7fe:	40bb      	lsls	r3, r7
    a800:	4699      	mov	r9, r3
    a802:	0013      	movs	r3, r2
    a804:	464f      	mov	r7, r9
    a806:	40f3      	lsrs	r3, r6
    a808:	431f      	orrs	r7, r3
    a80a:	003b      	movs	r3, r7
    a80c:	4657      	mov	r7, sl
    a80e:	40ba      	lsls	r2, r7
    a810:	1e57      	subs	r7, r2, #1
    a812:	41ba      	sbcs	r2, r7
    a814:	4313      	orrs	r3, r2
    a816:	4662      	mov	r2, ip
    a818:	40f2      	lsrs	r2, r6
    a81a:	1a89      	subs	r1, r1, r2
    a81c:	e79c      	b.n	a758 <__aeabi_dsub+0x3b4>
    a81e:	4b83      	ldr	r3, [pc, #524]	; (aa2c <__aeabi_dsub+0x688>)
    a820:	429f      	cmp	r7, r3
    a822:	d05f      	beq.n	a8e4 <__aeabi_dsub+0x540>
    a824:	2580      	movs	r5, #128	; 0x80
    a826:	042d      	lsls	r5, r5, #16
    a828:	4273      	negs	r3, r6
    a82a:	4329      	orrs	r1, r5
    a82c:	e720      	b.n	a670 <__aeabi_dsub+0x2cc>
    a82e:	2e00      	cmp	r6, #0
    a830:	d10c      	bne.n	a84c <__aeabi_dsub+0x4a8>
    a832:	2f00      	cmp	r7, #0
    a834:	d100      	bne.n	a838 <__aeabi_dsub+0x494>
    a836:	e0d0      	b.n	a9da <__aeabi_dsub+0x636>
    a838:	465c      	mov	r4, fp
    a83a:	4661      	mov	r1, ip
    a83c:	4691      	mov	r9, r2
    a83e:	4d7b      	ldr	r5, [pc, #492]	; (aa2c <__aeabi_dsub+0x688>)
    a840:	e6cd      	b.n	a5de <__aeabi_dsub+0x23a>
    a842:	4f7a      	ldr	r7, [pc, #488]	; (aa2c <__aeabi_dsub+0x688>)
    a844:	42be      	cmp	r6, r7
    a846:	d01c      	beq.n	a882 <__aeabi_dsub+0x4de>
    a848:	001e      	movs	r6, r3
    a84a:	e665      	b.n	a518 <__aeabi_dsub+0x174>
    a84c:	2f00      	cmp	r7, #0
    a84e:	d018      	beq.n	a882 <__aeabi_dsub+0x4de>
    a850:	08c0      	lsrs	r0, r0, #3
    a852:	074e      	lsls	r6, r1, #29
    a854:	4306      	orrs	r6, r0
    a856:	2080      	movs	r0, #128	; 0x80
    a858:	08c9      	lsrs	r1, r1, #3
    a85a:	0300      	lsls	r0, r0, #12
    a85c:	4201      	tst	r1, r0
    a85e:	d008      	beq.n	a872 <__aeabi_dsub+0x4ce>
    a860:	4663      	mov	r3, ip
    a862:	08dc      	lsrs	r4, r3, #3
    a864:	4204      	tst	r4, r0
    a866:	d104      	bne.n	a872 <__aeabi_dsub+0x4ce>
    a868:	0021      	movs	r1, r4
    a86a:	46da      	mov	sl, fp
    a86c:	08d2      	lsrs	r2, r2, #3
    a86e:	075e      	lsls	r6, r3, #29
    a870:	4316      	orrs	r6, r2
    a872:	00f3      	lsls	r3, r6, #3
    a874:	4699      	mov	r9, r3
    a876:	2401      	movs	r4, #1
    a878:	4653      	mov	r3, sl
    a87a:	00c9      	lsls	r1, r1, #3
    a87c:	0f72      	lsrs	r2, r6, #29
    a87e:	4311      	orrs	r1, r2
    a880:	401c      	ands	r4, r3
    a882:	4d6a      	ldr	r5, [pc, #424]	; (aa2c <__aeabi_dsub+0x688>)
    a884:	e6ab      	b.n	a5de <__aeabi_dsub+0x23a>
    a886:	001d      	movs	r5, r3
    a888:	2200      	movs	r2, #0
    a88a:	2700      	movs	r7, #0
    a88c:	e6b4      	b.n	a5f8 <__aeabi_dsub+0x254>
    a88e:	2d00      	cmp	r5, #0
    a890:	d159      	bne.n	a946 <__aeabi_dsub+0x5a2>
    a892:	000b      	movs	r3, r1
    a894:	4303      	orrs	r3, r0
    a896:	d100      	bne.n	a89a <__aeabi_dsub+0x4f6>
    a898:	e6d6      	b.n	a648 <__aeabi_dsub+0x2a4>
    a89a:	1c73      	adds	r3, r6, #1
    a89c:	d100      	bne.n	a8a0 <__aeabi_dsub+0x4fc>
    a89e:	e0b2      	b.n	aa06 <__aeabi_dsub+0x662>
    a8a0:	4b62      	ldr	r3, [pc, #392]	; (aa2c <__aeabi_dsub+0x688>)
    a8a2:	429f      	cmp	r7, r3
    a8a4:	d01e      	beq.n	a8e4 <__aeabi_dsub+0x540>
    a8a6:	43f3      	mvns	r3, r6
    a8a8:	2b38      	cmp	r3, #56	; 0x38
    a8aa:	dc6f      	bgt.n	a98c <__aeabi_dsub+0x5e8>
    a8ac:	2b1f      	cmp	r3, #31
    a8ae:	dd00      	ble.n	a8b2 <__aeabi_dsub+0x50e>
    a8b0:	e097      	b.n	a9e2 <__aeabi_dsub+0x63e>
    a8b2:	2520      	movs	r5, #32
    a8b4:	000e      	movs	r6, r1
    a8b6:	1aed      	subs	r5, r5, r3
    a8b8:	40ae      	lsls	r6, r5
    a8ba:	46b0      	mov	r8, r6
    a8bc:	0006      	movs	r6, r0
    a8be:	46aa      	mov	sl, r5
    a8c0:	40de      	lsrs	r6, r3
    a8c2:	4645      	mov	r5, r8
    a8c4:	4335      	orrs	r5, r6
    a8c6:	002e      	movs	r6, r5
    a8c8:	4655      	mov	r5, sl
    a8ca:	40a8      	lsls	r0, r5
    a8cc:	40d9      	lsrs	r1, r3
    a8ce:	1e45      	subs	r5, r0, #1
    a8d0:	41a8      	sbcs	r0, r5
    a8d2:	448c      	add	ip, r1
    a8d4:	4306      	orrs	r6, r0
    a8d6:	18b6      	adds	r6, r6, r2
    a8d8:	4296      	cmp	r6, r2
    a8da:	4192      	sbcs	r2, r2
    a8dc:	4251      	negs	r1, r2
    a8de:	4461      	add	r1, ip
    a8e0:	003d      	movs	r5, r7
    a8e2:	e625      	b.n	a530 <__aeabi_dsub+0x18c>
    a8e4:	003d      	movs	r5, r7
    a8e6:	4661      	mov	r1, ip
    a8e8:	4691      	mov	r9, r2
    a8ea:	e678      	b.n	a5de <__aeabi_dsub+0x23a>
    a8ec:	000b      	movs	r3, r1
    a8ee:	4303      	orrs	r3, r0
    a8f0:	2d00      	cmp	r5, #0
    a8f2:	d000      	beq.n	a8f6 <__aeabi_dsub+0x552>
    a8f4:	e655      	b.n	a5a2 <__aeabi_dsub+0x1fe>
    a8f6:	2b00      	cmp	r3, #0
    a8f8:	d0f5      	beq.n	a8e6 <__aeabi_dsub+0x542>
    a8fa:	4663      	mov	r3, ip
    a8fc:	4313      	orrs	r3, r2
    a8fe:	d100      	bne.n	a902 <__aeabi_dsub+0x55e>
    a900:	e66d      	b.n	a5de <__aeabi_dsub+0x23a>
    a902:	1886      	adds	r6, r0, r2
    a904:	4286      	cmp	r6, r0
    a906:	4180      	sbcs	r0, r0
    a908:	4461      	add	r1, ip
    a90a:	4240      	negs	r0, r0
    a90c:	1809      	adds	r1, r1, r0
    a90e:	2200      	movs	r2, #0
    a910:	020b      	lsls	r3, r1, #8
    a912:	d400      	bmi.n	a916 <__aeabi_dsub+0x572>
    a914:	e6d0      	b.n	a6b8 <__aeabi_dsub+0x314>
    a916:	4b46      	ldr	r3, [pc, #280]	; (aa30 <__aeabi_dsub+0x68c>)
    a918:	3501      	adds	r5, #1
    a91a:	4019      	ands	r1, r3
    a91c:	e5b2      	b.n	a484 <__aeabi_dsub+0xe0>
    a91e:	46b1      	mov	r9, r6
    a920:	e65d      	b.n	a5de <__aeabi_dsub+0x23a>
    a922:	0033      	movs	r3, r6
    a924:	4667      	mov	r7, ip
    a926:	3b20      	subs	r3, #32
    a928:	40df      	lsrs	r7, r3
    a92a:	003b      	movs	r3, r7
    a92c:	2e20      	cmp	r6, #32
    a92e:	d005      	beq.n	a93c <__aeabi_dsub+0x598>
    a930:	2740      	movs	r7, #64	; 0x40
    a932:	1bbf      	subs	r7, r7, r6
    a934:	4666      	mov	r6, ip
    a936:	40be      	lsls	r6, r7
    a938:	4332      	orrs	r2, r6
    a93a:	4690      	mov	r8, r2
    a93c:	4646      	mov	r6, r8
    a93e:	1e72      	subs	r2, r6, #1
    a940:	4196      	sbcs	r6, r2
    a942:	4333      	orrs	r3, r6
    a944:	e5ef      	b.n	a526 <__aeabi_dsub+0x182>
    a946:	4b39      	ldr	r3, [pc, #228]	; (aa2c <__aeabi_dsub+0x688>)
    a948:	429f      	cmp	r7, r3
    a94a:	d0cb      	beq.n	a8e4 <__aeabi_dsub+0x540>
    a94c:	2580      	movs	r5, #128	; 0x80
    a94e:	042d      	lsls	r5, r5, #16
    a950:	4273      	negs	r3, r6
    a952:	4329      	orrs	r1, r5
    a954:	e7a8      	b.n	a8a8 <__aeabi_dsub+0x504>
    a956:	4308      	orrs	r0, r1
    a958:	1e41      	subs	r1, r0, #1
    a95a:	4188      	sbcs	r0, r1
    a95c:	e6a2      	b.n	a6a4 <__aeabi_dsub+0x300>
    a95e:	2f00      	cmp	r7, #0
    a960:	d100      	bne.n	a964 <__aeabi_dsub+0x5c0>
    a962:	e63c      	b.n	a5de <__aeabi_dsub+0x23a>
    a964:	4663      	mov	r3, ip
    a966:	1a86      	subs	r6, r0, r2
    a968:	1acf      	subs	r7, r1, r3
    a96a:	42b0      	cmp	r0, r6
    a96c:	419b      	sbcs	r3, r3
    a96e:	425b      	negs	r3, r3
    a970:	1afb      	subs	r3, r7, r3
    a972:	4698      	mov	r8, r3
    a974:	021b      	lsls	r3, r3, #8
    a976:	d54e      	bpl.n	aa16 <__aeabi_dsub+0x672>
    a978:	1a16      	subs	r6, r2, r0
    a97a:	4663      	mov	r3, ip
    a97c:	42b2      	cmp	r2, r6
    a97e:	4192      	sbcs	r2, r2
    a980:	1a59      	subs	r1, r3, r1
    a982:	4252      	negs	r2, r2
    a984:	1a89      	subs	r1, r1, r2
    a986:	465c      	mov	r4, fp
    a988:	2200      	movs	r2, #0
    a98a:	e57b      	b.n	a484 <__aeabi_dsub+0xe0>
    a98c:	4301      	orrs	r1, r0
    a98e:	000e      	movs	r6, r1
    a990:	1e71      	subs	r1, r6, #1
    a992:	418e      	sbcs	r6, r1
    a994:	e79f      	b.n	a8d6 <__aeabi_dsub+0x532>
    a996:	001d      	movs	r5, r3
    a998:	000e      	movs	r6, r1
    a99a:	3d20      	subs	r5, #32
    a99c:	40ee      	lsrs	r6, r5
    a99e:	46b0      	mov	r8, r6
    a9a0:	2b20      	cmp	r3, #32
    a9a2:	d004      	beq.n	a9ae <__aeabi_dsub+0x60a>
    a9a4:	2540      	movs	r5, #64	; 0x40
    a9a6:	1aeb      	subs	r3, r5, r3
    a9a8:	4099      	lsls	r1, r3
    a9aa:	4308      	orrs	r0, r1
    a9ac:	4681      	mov	r9, r0
    a9ae:	4648      	mov	r0, r9
    a9b0:	4643      	mov	r3, r8
    a9b2:	1e41      	subs	r1, r0, #1
    a9b4:	4188      	sbcs	r0, r1
    a9b6:	4318      	orrs	r0, r3
    a9b8:	e674      	b.n	a6a4 <__aeabi_dsub+0x300>
    a9ba:	2200      	movs	r2, #0
    a9bc:	2400      	movs	r4, #0
    a9be:	e617      	b.n	a5f0 <__aeabi_dsub+0x24c>
    a9c0:	1a16      	subs	r6, r2, r0
    a9c2:	4663      	mov	r3, ip
    a9c4:	42b2      	cmp	r2, r6
    a9c6:	4192      	sbcs	r2, r2
    a9c8:	1a59      	subs	r1, r3, r1
    a9ca:	4252      	negs	r2, r2
    a9cc:	1a89      	subs	r1, r1, r2
    a9ce:	003d      	movs	r5, r7
    a9d0:	e525      	b.n	a41e <__aeabi_dsub+0x7a>
    a9d2:	4661      	mov	r1, ip
    a9d4:	4691      	mov	r9, r2
    a9d6:	4d15      	ldr	r5, [pc, #84]	; (aa2c <__aeabi_dsub+0x688>)
    a9d8:	e601      	b.n	a5de <__aeabi_dsub+0x23a>
    a9da:	2280      	movs	r2, #128	; 0x80
    a9dc:	2400      	movs	r4, #0
    a9de:	0312      	lsls	r2, r2, #12
    a9e0:	e679      	b.n	a6d6 <__aeabi_dsub+0x332>
    a9e2:	001d      	movs	r5, r3
    a9e4:	000e      	movs	r6, r1
    a9e6:	3d20      	subs	r5, #32
    a9e8:	40ee      	lsrs	r6, r5
    a9ea:	46b0      	mov	r8, r6
    a9ec:	2b20      	cmp	r3, #32
    a9ee:	d004      	beq.n	a9fa <__aeabi_dsub+0x656>
    a9f0:	2540      	movs	r5, #64	; 0x40
    a9f2:	1aeb      	subs	r3, r5, r3
    a9f4:	4099      	lsls	r1, r3
    a9f6:	4308      	orrs	r0, r1
    a9f8:	4681      	mov	r9, r0
    a9fa:	464e      	mov	r6, r9
    a9fc:	4643      	mov	r3, r8
    a9fe:	1e71      	subs	r1, r6, #1
    aa00:	418e      	sbcs	r6, r1
    aa02:	431e      	orrs	r6, r3
    aa04:	e767      	b.n	a8d6 <__aeabi_dsub+0x532>
    aa06:	1886      	adds	r6, r0, r2
    aa08:	4296      	cmp	r6, r2
    aa0a:	419b      	sbcs	r3, r3
    aa0c:	4461      	add	r1, ip
    aa0e:	425b      	negs	r3, r3
    aa10:	18c9      	adds	r1, r1, r3
    aa12:	003d      	movs	r5, r7
    aa14:	e58c      	b.n	a530 <__aeabi_dsub+0x18c>
    aa16:	4647      	mov	r7, r8
    aa18:	4337      	orrs	r7, r6
    aa1a:	d0ce      	beq.n	a9ba <__aeabi_dsub+0x616>
    aa1c:	2207      	movs	r2, #7
    aa1e:	4641      	mov	r1, r8
    aa20:	4032      	ands	r2, r6
    aa22:	e649      	b.n	a6b8 <__aeabi_dsub+0x314>
    aa24:	2700      	movs	r7, #0
    aa26:	003a      	movs	r2, r7
    aa28:	e5e6      	b.n	a5f8 <__aeabi_dsub+0x254>
    aa2a:	46c0      	nop			; (mov r8, r8)
    aa2c:	000007ff 	.word	0x000007ff
    aa30:	ff7fffff 	.word	0xff7fffff

0000aa34 <__aeabi_d2iz>:
__aeabi_d2iz():
    aa34:	b530      	push	{r4, r5, lr}
    aa36:	4d14      	ldr	r5, [pc, #80]	; (aa88 <__aeabi_d2iz+0x54>)
    aa38:	030a      	lsls	r2, r1, #12
    aa3a:	004b      	lsls	r3, r1, #1
    aa3c:	0b12      	lsrs	r2, r2, #12
    aa3e:	0d5b      	lsrs	r3, r3, #21
    aa40:	0fc9      	lsrs	r1, r1, #31
    aa42:	2400      	movs	r4, #0
    aa44:	42ab      	cmp	r3, r5
    aa46:	dd11      	ble.n	aa6c <__aeabi_d2iz+0x38>
    aa48:	4c10      	ldr	r4, [pc, #64]	; (aa8c <__aeabi_d2iz+0x58>)
    aa4a:	42a3      	cmp	r3, r4
    aa4c:	dc10      	bgt.n	aa70 <__aeabi_d2iz+0x3c>
    aa4e:	2480      	movs	r4, #128	; 0x80
    aa50:	0364      	lsls	r4, r4, #13
    aa52:	4322      	orrs	r2, r4
    aa54:	4c0e      	ldr	r4, [pc, #56]	; (aa90 <__aeabi_d2iz+0x5c>)
    aa56:	1ae4      	subs	r4, r4, r3
    aa58:	2c1f      	cmp	r4, #31
    aa5a:	dd0c      	ble.n	aa76 <__aeabi_d2iz+0x42>
    aa5c:	480d      	ldr	r0, [pc, #52]	; (aa94 <__aeabi_d2iz+0x60>)
    aa5e:	1ac3      	subs	r3, r0, r3
    aa60:	40da      	lsrs	r2, r3
    aa62:	0013      	movs	r3, r2
    aa64:	425c      	negs	r4, r3
    aa66:	2900      	cmp	r1, #0
    aa68:	d100      	bne.n	aa6c <__aeabi_d2iz+0x38>
    aa6a:	001c      	movs	r4, r3
    aa6c:	0020      	movs	r0, r4
    aa6e:	bd30      	pop	{r4, r5, pc}
    aa70:	4b09      	ldr	r3, [pc, #36]	; (aa98 <__aeabi_d2iz+0x64>)
    aa72:	18cc      	adds	r4, r1, r3
    aa74:	e7fa      	b.n	aa6c <__aeabi_d2iz+0x38>
    aa76:	4d09      	ldr	r5, [pc, #36]	; (aa9c <__aeabi_d2iz+0x68>)
    aa78:	40e0      	lsrs	r0, r4
    aa7a:	46ac      	mov	ip, r5
    aa7c:	4463      	add	r3, ip
    aa7e:	409a      	lsls	r2, r3
    aa80:	0013      	movs	r3, r2
    aa82:	4303      	orrs	r3, r0
    aa84:	e7ee      	b.n	aa64 <__aeabi_d2iz+0x30>
    aa86:	46c0      	nop			; (mov r8, r8)
    aa88:	000003fe 	.word	0x000003fe
    aa8c:	0000041d 	.word	0x0000041d
    aa90:	00000433 	.word	0x00000433
    aa94:	00000413 	.word	0x00000413
    aa98:	7fffffff 	.word	0x7fffffff
    aa9c:	fffffbed 	.word	0xfffffbed

0000aaa0 <__aeabi_i2d>:
__aeabi_i2d():
    aaa0:	b570      	push	{r4, r5, r6, lr}
    aaa2:	2800      	cmp	r0, #0
    aaa4:	d02d      	beq.n	ab02 <__aeabi_i2d+0x62>
    aaa6:	17c3      	asrs	r3, r0, #31
    aaa8:	18c5      	adds	r5, r0, r3
    aaaa:	405d      	eors	r5, r3
    aaac:	0fc4      	lsrs	r4, r0, #31
    aaae:	0028      	movs	r0, r5
    aab0:	f000 f8b4 	bl	ac1c <__clzsi2>
    aab4:	4b15      	ldr	r3, [pc, #84]	; (ab0c <__aeabi_i2d+0x6c>)
    aab6:	1a1b      	subs	r3, r3, r0
    aab8:	055b      	lsls	r3, r3, #21
    aaba:	0d5b      	lsrs	r3, r3, #21
    aabc:	280a      	cmp	r0, #10
    aabe:	dd15      	ble.n	aaec <__aeabi_i2d+0x4c>
    aac0:	380b      	subs	r0, #11
    aac2:	4085      	lsls	r5, r0
    aac4:	2200      	movs	r2, #0
    aac6:	032d      	lsls	r5, r5, #12
    aac8:	0b2d      	lsrs	r5, r5, #12
    aaca:	2100      	movs	r1, #0
    aacc:	0010      	movs	r0, r2
    aace:	032d      	lsls	r5, r5, #12
    aad0:	0d0a      	lsrs	r2, r1, #20
    aad2:	0b2d      	lsrs	r5, r5, #12
    aad4:	0512      	lsls	r2, r2, #20
    aad6:	432a      	orrs	r2, r5
    aad8:	4d0d      	ldr	r5, [pc, #52]	; (ab10 <__aeabi_i2d+0x70>)
    aada:	051b      	lsls	r3, r3, #20
    aadc:	402a      	ands	r2, r5
    aade:	4313      	orrs	r3, r2
    aae0:	005b      	lsls	r3, r3, #1
    aae2:	07e4      	lsls	r4, r4, #31
    aae4:	085b      	lsrs	r3, r3, #1
    aae6:	4323      	orrs	r3, r4
    aae8:	0019      	movs	r1, r3
    aaea:	bd70      	pop	{r4, r5, r6, pc}
    aaec:	0002      	movs	r2, r0
    aaee:	0029      	movs	r1, r5
    aaf0:	3215      	adds	r2, #21
    aaf2:	4091      	lsls	r1, r2
    aaf4:	000a      	movs	r2, r1
    aaf6:	210b      	movs	r1, #11
    aaf8:	1a08      	subs	r0, r1, r0
    aafa:	40c5      	lsrs	r5, r0
    aafc:	032d      	lsls	r5, r5, #12
    aafe:	0b2d      	lsrs	r5, r5, #12
    ab00:	e7e3      	b.n	aaca <__aeabi_i2d+0x2a>
    ab02:	2400      	movs	r4, #0
    ab04:	2300      	movs	r3, #0
    ab06:	2500      	movs	r5, #0
    ab08:	2200      	movs	r2, #0
    ab0a:	e7de      	b.n	aaca <__aeabi_i2d+0x2a>
    ab0c:	0000041e 	.word	0x0000041e
    ab10:	800fffff 	.word	0x800fffff

0000ab14 <__aeabi_d2f>:
__aeabi_d2f():
    ab14:	b5f0      	push	{r4, r5, r6, r7, lr}
    ab16:	004c      	lsls	r4, r1, #1
    ab18:	0d64      	lsrs	r4, r4, #21
    ab1a:	030b      	lsls	r3, r1, #12
    ab1c:	1c62      	adds	r2, r4, #1
    ab1e:	0a5b      	lsrs	r3, r3, #9
    ab20:	0f46      	lsrs	r6, r0, #29
    ab22:	0552      	lsls	r2, r2, #21
    ab24:	0fc9      	lsrs	r1, r1, #31
    ab26:	431e      	orrs	r6, r3
    ab28:	00c5      	lsls	r5, r0, #3
    ab2a:	0d52      	lsrs	r2, r2, #21
    ab2c:	2a01      	cmp	r2, #1
    ab2e:	dd29      	ble.n	ab84 <__aeabi_d2f+0x70>
    ab30:	4b37      	ldr	r3, [pc, #220]	; (ac10 <__aeabi_d2f+0xfc>)
    ab32:	18e7      	adds	r7, r4, r3
    ab34:	2ffe      	cmp	r7, #254	; 0xfe
    ab36:	dc1c      	bgt.n	ab72 <__aeabi_d2f+0x5e>
    ab38:	2f00      	cmp	r7, #0
    ab3a:	dd3b      	ble.n	abb4 <__aeabi_d2f+0xa0>
    ab3c:	0180      	lsls	r0, r0, #6
    ab3e:	1e43      	subs	r3, r0, #1
    ab40:	4198      	sbcs	r0, r3
    ab42:	2207      	movs	r2, #7
    ab44:	00f3      	lsls	r3, r6, #3
    ab46:	0f6d      	lsrs	r5, r5, #29
    ab48:	4303      	orrs	r3, r0
    ab4a:	432b      	orrs	r3, r5
    ab4c:	401a      	ands	r2, r3
    ab4e:	2a00      	cmp	r2, #0
    ab50:	d004      	beq.n	ab5c <__aeabi_d2f+0x48>
    ab52:	220f      	movs	r2, #15
    ab54:	401a      	ands	r2, r3
    ab56:	2a04      	cmp	r2, #4
    ab58:	d000      	beq.n	ab5c <__aeabi_d2f+0x48>
    ab5a:	3304      	adds	r3, #4
    ab5c:	2280      	movs	r2, #128	; 0x80
    ab5e:	04d2      	lsls	r2, r2, #19
    ab60:	401a      	ands	r2, r3
    ab62:	d024      	beq.n	abae <__aeabi_d2f+0x9a>
    ab64:	3701      	adds	r7, #1
    ab66:	b2fa      	uxtb	r2, r7
    ab68:	2fff      	cmp	r7, #255	; 0xff
    ab6a:	d002      	beq.n	ab72 <__aeabi_d2f+0x5e>
    ab6c:	019b      	lsls	r3, r3, #6
    ab6e:	0a58      	lsrs	r0, r3, #9
    ab70:	e001      	b.n	ab76 <__aeabi_d2f+0x62>
    ab72:	22ff      	movs	r2, #255	; 0xff
    ab74:	2000      	movs	r0, #0
    ab76:	0240      	lsls	r0, r0, #9
    ab78:	05d2      	lsls	r2, r2, #23
    ab7a:	0a40      	lsrs	r0, r0, #9
    ab7c:	07c9      	lsls	r1, r1, #31
    ab7e:	4310      	orrs	r0, r2
    ab80:	4308      	orrs	r0, r1
    ab82:	bdf0      	pop	{r4, r5, r6, r7, pc}
    ab84:	4335      	orrs	r5, r6
    ab86:	2c00      	cmp	r4, #0
    ab88:	d104      	bne.n	ab94 <__aeabi_d2f+0x80>
    ab8a:	2d00      	cmp	r5, #0
    ab8c:	d10a      	bne.n	aba4 <__aeabi_d2f+0x90>
    ab8e:	2200      	movs	r2, #0
    ab90:	2000      	movs	r0, #0
    ab92:	e7f0      	b.n	ab76 <__aeabi_d2f+0x62>
    ab94:	2d00      	cmp	r5, #0
    ab96:	d0ec      	beq.n	ab72 <__aeabi_d2f+0x5e>
    ab98:	2080      	movs	r0, #128	; 0x80
    ab9a:	03c0      	lsls	r0, r0, #15
    ab9c:	4330      	orrs	r0, r6
    ab9e:	22ff      	movs	r2, #255	; 0xff
    aba0:	e7e9      	b.n	ab76 <__aeabi_d2f+0x62>
    aba2:	2400      	movs	r4, #0
    aba4:	2300      	movs	r3, #0
    aba6:	025b      	lsls	r3, r3, #9
    aba8:	0a58      	lsrs	r0, r3, #9
    abaa:	b2e2      	uxtb	r2, r4
    abac:	e7e3      	b.n	ab76 <__aeabi_d2f+0x62>
    abae:	08db      	lsrs	r3, r3, #3
    abb0:	003c      	movs	r4, r7
    abb2:	e7f8      	b.n	aba6 <__aeabi_d2f+0x92>
    abb4:	003b      	movs	r3, r7
    abb6:	3317      	adds	r3, #23
    abb8:	dbf3      	blt.n	aba2 <__aeabi_d2f+0x8e>
    abba:	2380      	movs	r3, #128	; 0x80
    abbc:	041b      	lsls	r3, r3, #16
    abbe:	4333      	orrs	r3, r6
    abc0:	261e      	movs	r6, #30
    abc2:	1bf6      	subs	r6, r6, r7
    abc4:	2e1f      	cmp	r6, #31
    abc6:	dd14      	ble.n	abf2 <__aeabi_d2f+0xde>
    abc8:	2202      	movs	r2, #2
    abca:	4252      	negs	r2, r2
    abcc:	1bd7      	subs	r7, r2, r7
    abce:	001a      	movs	r2, r3
    abd0:	40fa      	lsrs	r2, r7
    abd2:	0017      	movs	r7, r2
    abd4:	2e20      	cmp	r6, #32
    abd6:	d004      	beq.n	abe2 <__aeabi_d2f+0xce>
    abd8:	4a0e      	ldr	r2, [pc, #56]	; (ac14 <__aeabi_d2f+0x100>)
    abda:	4694      	mov	ip, r2
    abdc:	4464      	add	r4, ip
    abde:	40a3      	lsls	r3, r4
    abe0:	431d      	orrs	r5, r3
    abe2:	002b      	movs	r3, r5
    abe4:	1e5d      	subs	r5, r3, #1
    abe6:	41ab      	sbcs	r3, r5
    abe8:	2207      	movs	r2, #7
    abea:	433b      	orrs	r3, r7
    abec:	401a      	ands	r2, r3
    abee:	2700      	movs	r7, #0
    abf0:	e7ad      	b.n	ab4e <__aeabi_d2f+0x3a>
    abf2:	4a09      	ldr	r2, [pc, #36]	; (ac18 <__aeabi_d2f+0x104>)
    abf4:	0028      	movs	r0, r5
    abf6:	18a2      	adds	r2, r4, r2
    abf8:	4095      	lsls	r5, r2
    abfa:	4093      	lsls	r3, r2
    abfc:	1e6c      	subs	r4, r5, #1
    abfe:	41a5      	sbcs	r5, r4
    ac00:	40f0      	lsrs	r0, r6
    ac02:	2207      	movs	r2, #7
    ac04:	432b      	orrs	r3, r5
    ac06:	4303      	orrs	r3, r0
    ac08:	401a      	ands	r2, r3
    ac0a:	2700      	movs	r7, #0
    ac0c:	e79f      	b.n	ab4e <__aeabi_d2f+0x3a>
    ac0e:	46c0      	nop			; (mov r8, r8)
    ac10:	fffffc80 	.word	0xfffffc80
    ac14:	fffffca2 	.word	0xfffffca2
    ac18:	fffffc82 	.word	0xfffffc82

0000ac1c <__clzsi2>:
__clzsi2():
    ac1c:	211c      	movs	r1, #28
    ac1e:	2301      	movs	r3, #1
    ac20:	041b      	lsls	r3, r3, #16
    ac22:	4298      	cmp	r0, r3
    ac24:	d301      	bcc.n	ac2a <__clzsi2+0xe>
    ac26:	0c00      	lsrs	r0, r0, #16
    ac28:	3910      	subs	r1, #16
    ac2a:	0a1b      	lsrs	r3, r3, #8
    ac2c:	4298      	cmp	r0, r3
    ac2e:	d301      	bcc.n	ac34 <__clzsi2+0x18>
    ac30:	0a00      	lsrs	r0, r0, #8
    ac32:	3908      	subs	r1, #8
    ac34:	091b      	lsrs	r3, r3, #4
    ac36:	4298      	cmp	r0, r3
    ac38:	d301      	bcc.n	ac3e <__clzsi2+0x22>
    ac3a:	0900      	lsrs	r0, r0, #4
    ac3c:	3904      	subs	r1, #4
    ac3e:	a202      	add	r2, pc, #8	; (adr r2, ac48 <__clzsi2+0x2c>)
    ac40:	5c10      	ldrb	r0, [r2, r0]
    ac42:	1840      	adds	r0, r0, r1
    ac44:	4770      	bx	lr
    ac46:	46c0      	nop			; (mov r8, r8)
    ac48:	02020304 	.word	0x02020304
    ac4c:	01010101 	.word	0x01010101
	...

0000ac58 <__clzdi2>:
__clzdi2():
    ac58:	b510      	push	{r4, lr}
    ac5a:	2900      	cmp	r1, #0
    ac5c:	d103      	bne.n	ac66 <__clzdi2+0xe>
    ac5e:	f7ff ffdd 	bl	ac1c <__clzsi2>
    ac62:	3020      	adds	r0, #32
    ac64:	e002      	b.n	ac6c <__clzdi2+0x14>
    ac66:	1c08      	adds	r0, r1, #0
    ac68:	f7ff ffd8 	bl	ac1c <__clzsi2>
    ac6c:	bd10      	pop	{r4, pc}
    ac6e:	46c0      	nop			; (mov r8, r8)

0000ac70 <strlen>:
strlen():
    ac70:	2300      	movs	r3, #0
    ac72:	5cc2      	ldrb	r2, [r0, r3]
    ac74:	3301      	adds	r3, #1
    ac76:	2a00      	cmp	r2, #0
    ac78:	d1fb      	bne.n	ac72 <strlen+0x2>
    ac7a:	1e58      	subs	r0, r3, #1
    ac7c:	4770      	bx	lr
	...

0000ac80 <LPTMR0_IRQ>:
LPTMR0_IRQ():
E:\2017-2018\03_Graduation Project\04_Software\05_Wangshi\03_UpdateSoftware-180702\02_UEUser\KL36_Update-180627\Debug/../06_NosPrg/isr.c:19
//         +1gcd.currentTime++
//         )gTime[14]
//2017.8.11WYH
//======================================================================
void LPTMR0_IRQ(void)
{
    ac80:	b5b0      	push	{r4, r5, r7, lr}
    ac82:	af00      	add	r7, sp, #0
__disable_irq():
E:\2017-2018\03_Graduation Project\04_Software\05_Wangshi\03_UpdateSoftware-180702\02_UEUser\KL36_Update-180627\02_Core/core_cmFunc.h:344
  This function disables IRQ interrupts by setting the I-bit in the CPSR.
  Can only be executed in Privileged modes.
 */
__attribute__( ( always_inline ) ) __STATIC_INLINE void __disable_irq(void)
{
  __ASM volatile ("cpsid i" : : : "memory");
    ac84:	b672      	cpsid	i
LPTMR0_IRQ():
E:\2017-2018\03_Graduation Project\04_Software\05_Wangshi\03_UpdateSoftware-180702\02_UEUser\KL36_Update-180627\Debug/../06_NosPrg/isr.c:22
	static uint_8 count = 0;
	DISABLE_INTERRUPTS;        //
	CLEAR_LPTMR_FLAG;          //
    ac86:	4b49      	ldr	r3, [pc, #292]	; (adac <LPTMR0_IRQ+0x12c>)
    ac88:	681a      	ldr	r2, [r3, #0]
    ac8a:	4b48      	ldr	r3, [pc, #288]	; (adac <LPTMR0_IRQ+0x12c>)
    ac8c:	2180      	movs	r1, #128	; 0x80
    ac8e:	430a      	orrs	r2, r1
    ac90:	601a      	str	r2, [r3, #0]
E:\2017-2018\03_Graduation Project\04_Software\05_Wangshi\03_UpdateSoftware-180702\02_UEUser\KL36_Update-180627\Debug/../06_NosPrg/isr.c:24
	//--------------------------------
	count++;
    ac92:	4b47      	ldr	r3, [pc, #284]	; (adb0 <LPTMR0_IRQ+0x130>)
    ac94:	781b      	ldrb	r3, [r3, #0]
    ac96:	3301      	adds	r3, #1
    ac98:	b2da      	uxtb	r2, r3
    ac9a:	4b45      	ldr	r3, [pc, #276]	; (adb0 <LPTMR0_IRQ+0x130>)
    ac9c:	701a      	strb	r2, [r3, #0]
E:\2017-2018\03_Graduation Project\04_Software\05_Wangshi\03_UpdateSoftware-180702\02_UEUser\KL36_Update-180627\Debug/../06_NosPrg/isr.c:25
	if(count >= 2)
    ac9e:	4b44      	ldr	r3, [pc, #272]	; (adb0 <LPTMR0_IRQ+0x130>)
    aca0:	781b      	ldrb	r3, [r3, #0]
    aca2:	2b01      	cmp	r3, #1
    aca4:	d977      	bls.n	ad96 <LPTMR0_IRQ+0x116>
E:\2017-2018\03_Graduation Project\04_Software\05_Wangshi\03_UpdateSoftware-180702\02_UEUser\KL36_Update-180627\Debug/../06_NosPrg/isr.c:27
	{
		count = 0;
    aca6:	4b42      	ldr	r3, [pc, #264]	; (adb0 <LPTMR0_IRQ+0x130>)
    aca8:	2200      	movs	r2, #0
    acaa:	701a      	strb	r2, [r3, #0]
E:\2017-2018\03_Graduation Project\04_Software\05_Wangshi\03_UpdateSoftware-180702\02_UEUser\KL36_Update-180627\Debug/../06_NosPrg/isr.c:28
		gUserData.currentTime++;                    //+1
    acac:	4b41      	ldr	r3, [pc, #260]	; (adb4 <LPTMR0_IRQ+0x134>)
    acae:	2027      	movs	r0, #39	; 0x27
    acb0:	5c18      	ldrb	r0, [r3, r0]
    acb2:	2428      	movs	r4, #40	; 0x28
    acb4:	5d1c      	ldrb	r4, [r3, r4]
    acb6:	0224      	lsls	r4, r4, #8
    acb8:	4320      	orrs	r0, r4
    acba:	2429      	movs	r4, #41	; 0x29
    acbc:	5d1c      	ldrb	r4, [r3, r4]
    acbe:	0424      	lsls	r4, r4, #16
    acc0:	4320      	orrs	r0, r4
    acc2:	242a      	movs	r4, #42	; 0x2a
    acc4:	5d1c      	ldrb	r4, [r3, r4]
    acc6:	0624      	lsls	r4, r4, #24
    acc8:	4320      	orrs	r0, r4
    acca:	0001      	movs	r1, r0
    accc:	202b      	movs	r0, #43	; 0x2b
    acce:	5c18      	ldrb	r0, [r3, r0]
    acd0:	242c      	movs	r4, #44	; 0x2c
    acd2:	5d1c      	ldrb	r4, [r3, r4]
    acd4:	0224      	lsls	r4, r4, #8
    acd6:	4320      	orrs	r0, r4
    acd8:	242d      	movs	r4, #45	; 0x2d
    acda:	5d1c      	ldrb	r4, [r3, r4]
    acdc:	0424      	lsls	r4, r4, #16
    acde:	4320      	orrs	r0, r4
    ace0:	242e      	movs	r4, #46	; 0x2e
    ace2:	5d1b      	ldrb	r3, [r3, r4]
    ace4:	061b      	lsls	r3, r3, #24
    ace6:	4303      	orrs	r3, r0
    ace8:	001a      	movs	r2, r3
    acea:	2301      	movs	r3, #1
    acec:	2400      	movs	r4, #0
    acee:	18c9      	adds	r1, r1, r3
    acf0:	4162      	adcs	r2, r4
    acf2:	4b30      	ldr	r3, [pc, #192]	; (adb4 <LPTMR0_IRQ+0x134>)
    acf4:	3327      	adds	r3, #39	; 0x27
    acf6:	20ff      	movs	r0, #255	; 0xff
    acf8:	4008      	ands	r0, r1
    acfa:	0005      	movs	r5, r0
    acfc:	7818      	ldrb	r0, [r3, #0]
    acfe:	2400      	movs	r4, #0
    ad00:	4020      	ands	r0, r4
    ad02:	1c04      	adds	r4, r0, #0
    ad04:	1c28      	adds	r0, r5, #0
    ad06:	4320      	orrs	r0, r4
    ad08:	7018      	strb	r0, [r3, #0]
    ad0a:	0a08      	lsrs	r0, r1, #8
    ad0c:	24ff      	movs	r4, #255	; 0xff
    ad0e:	4020      	ands	r0, r4
    ad10:	0005      	movs	r5, r0
    ad12:	7858      	ldrb	r0, [r3, #1]
    ad14:	2400      	movs	r4, #0
    ad16:	4020      	ands	r0, r4
    ad18:	1c04      	adds	r4, r0, #0
    ad1a:	1c28      	adds	r0, r5, #0
    ad1c:	4320      	orrs	r0, r4
    ad1e:	7058      	strb	r0, [r3, #1]
    ad20:	0c08      	lsrs	r0, r1, #16
    ad22:	24ff      	movs	r4, #255	; 0xff
    ad24:	4020      	ands	r0, r4
    ad26:	0005      	movs	r5, r0
    ad28:	7898      	ldrb	r0, [r3, #2]
    ad2a:	2400      	movs	r4, #0
    ad2c:	4020      	ands	r0, r4
    ad2e:	1c04      	adds	r4, r0, #0
    ad30:	1c28      	adds	r0, r5, #0
    ad32:	4320      	orrs	r0, r4
    ad34:	7098      	strb	r0, [r3, #2]
    ad36:	0e0d      	lsrs	r5, r1, #24
    ad38:	78d8      	ldrb	r0, [r3, #3]
    ad3a:	2400      	movs	r4, #0
    ad3c:	4020      	ands	r0, r4
    ad3e:	1c04      	adds	r4, r0, #0
    ad40:	1c28      	adds	r0, r5, #0
    ad42:	4320      	orrs	r0, r4
    ad44:	70d8      	strb	r0, [r3, #3]
    ad46:	20ff      	movs	r0, #255	; 0xff
    ad48:	4010      	ands	r0, r2
    ad4a:	0005      	movs	r5, r0
    ad4c:	7918      	ldrb	r0, [r3, #4]
    ad4e:	2400      	movs	r4, #0
    ad50:	4020      	ands	r0, r4
    ad52:	1c04      	adds	r4, r0, #0
    ad54:	1c28      	adds	r0, r5, #0
    ad56:	4320      	orrs	r0, r4
    ad58:	7118      	strb	r0, [r3, #4]
    ad5a:	0a10      	lsrs	r0, r2, #8
    ad5c:	24ff      	movs	r4, #255	; 0xff
    ad5e:	4020      	ands	r0, r4
    ad60:	0005      	movs	r5, r0
    ad62:	7958      	ldrb	r0, [r3, #5]
    ad64:	2400      	movs	r4, #0
    ad66:	4020      	ands	r0, r4
    ad68:	1c04      	adds	r4, r0, #0
    ad6a:	1c28      	adds	r0, r5, #0
    ad6c:	4320      	orrs	r0, r4
    ad6e:	7158      	strb	r0, [r3, #5]
    ad70:	0c10      	lsrs	r0, r2, #16
    ad72:	24ff      	movs	r4, #255	; 0xff
    ad74:	4020      	ands	r0, r4
    ad76:	0005      	movs	r5, r0
    ad78:	7998      	ldrb	r0, [r3, #6]
    ad7a:	2400      	movs	r4, #0
    ad7c:	4020      	ands	r0, r4
    ad7e:	1c04      	adds	r4, r0, #0
    ad80:	1c28      	adds	r0, r5, #0
    ad82:	4320      	orrs	r0, r4
    ad84:	7198      	strb	r0, [r3, #6]
    ad86:	0e10      	lsrs	r0, r2, #24
    ad88:	79da      	ldrb	r2, [r3, #7]
    ad8a:	2100      	movs	r1, #0
    ad8c:	400a      	ands	r2, r1
    ad8e:	1c11      	adds	r1, r2, #0
    ad90:	1c02      	adds	r2, r0, #0
    ad92:	430a      	orrs	r2, r1
    ad94:	71da      	strb	r2, [r3, #7]
E:\2017-2018\03_Graduation Project\04_Software\05_Wangshi\03_UpdateSoftware-180702\02_UEUser\KL36_Update-180627\Debug/../06_NosPrg/isr.c:30
	}
	BSET(TSI_GENCS_TSIEN_SHIFT,TSI0_GENCS);
    ad96:	4b08      	ldr	r3, [pc, #32]	; (adb8 <LPTMR0_IRQ+0x138>)
    ad98:	681a      	ldr	r2, [r3, #0]
    ad9a:	4b07      	ldr	r3, [pc, #28]	; (adb8 <LPTMR0_IRQ+0x138>)
    ad9c:	2180      	movs	r1, #128	; 0x80
    ad9e:	430a      	orrs	r2, r1
    ada0:	601a      	str	r2, [r3, #0]
__enable_irq():
E:\2017-2018\03_Graduation Project\04_Software\05_Wangshi\03_UpdateSoftware-180702\02_UEUser\KL36_Update-180627\02_Core/core_cmFunc.h:333
  __ASM volatile ("cpsie i" : : : "memory");
    ada2:	b662      	cpsie	i
LPTMR0_IRQ():
E:\2017-2018\03_Graduation Project\04_Software\05_Wangshi\03_UpdateSoftware-180702\02_UEUser\KL36_Update-180627\Debug/../06_NosPrg/isr.c:33
    //--------------------------------
    ENABLE_INTERRUPTS;       //
}
    ada4:	46c0      	nop			; (mov r8, r8)
    ada6:	46bd      	mov	sp, r7
    ada8:	bdb0      	pop	{r4, r5, r7, pc}
    adaa:	46c0      	nop			; (mov r8, r8)
    adac:	40040000 	.word	0x40040000
    adb0:	20000880 	.word	0x20000880
    adb4:	20000e38 	.word	0x20000e38
    adb8:	40045000 	.word	0x40045000

0000adbc <TSI0_IRQ>:
TSI0_IRQ():
E:\2017-2018\03_Graduation Project\04_Software\05_Wangshi\03_UpdateSoftware-180702\02_UEUser\KL36_Update-180627\Debug/../06_NosPrg/isr.c:43
//
//
//TSITSI
//======================================================================
void TSI0_IRQ(void)
{
    adbc:	b5b0      	push	{r4, r5, r7, lr}
    adbe:	b084      	sub	sp, #16
    adc0:	af00      	add	r7, sp, #0
__disable_irq():
E:\2017-2018\03_Graduation Project\04_Software\05_Wangshi\03_UpdateSoftware-180702\02_UEUser\KL36_Update-180627\02_Core/core_cmFunc.h:344
  __ASM volatile ("cpsid i" : : : "memory");
    adc2:	b672      	cpsid	i
TSI0_IRQ():
E:\2017-2018\03_Graduation Project\04_Software\05_Wangshi\03_UpdateSoftware-180702\02_UEUser\KL36_Update-180627\Debug/../06_NosPrg/isr.c:50
	uint_16 i;
	uint_8 touchNum[10];
	DISABLE_INTERRUPTS;      //
	//-------------------------------

	if(TSI0_GENCS & TSI_GENCS_OUTRGF_MASK)//
    adc4:	4b20      	ldr	r3, [pc, #128]	; (ae48 <TSI0_IRQ+0x8c>)
    adc6:	681b      	ldr	r3, [r3, #0]
    adc8:	2b00      	cmp	r3, #0
    adca:	da2a      	bge.n	ae22 <TSI0_IRQ+0x66>
E:\2017-2018\03_Graduation Project\04_Software\05_Wangshi\03_UpdateSoftware-180702\02_UEUser\KL36_Update-180627\Debug/../06_NosPrg/isr.c:54
	{
		//
//		i = tsi_get_value16();
		i = (TSI0_DATA & TSI_DATA_TSICNT_MASK);      //;
    adcc:	4b1e      	ldr	r3, [pc, #120]	; (ae48 <TSI0_IRQ+0x8c>)
    adce:	685a      	ldr	r2, [r3, #4]
    add0:	210e      	movs	r1, #14
    add2:	187b      	adds	r3, r7, r1
    add4:	801a      	strh	r2, [r3, #0]
E:\2017-2018\03_Graduation Project\04_Software\05_Wangshi\03_UpdateSoftware-180702\02_UEUser\KL36_Update-180627\Debug/../06_NosPrg/isr.c:55
		if(i>500)
    add6:	187b      	adds	r3, r7, r1
    add8:	881a      	ldrh	r2, [r3, #0]
    adda:	23fa      	movs	r3, #250	; 0xfa
    addc:	005b      	lsls	r3, r3, #1
    adde:	429a      	cmp	r2, r3
    ade0:	d91f      	bls.n	ae22 <TSI0_IRQ+0x66>
E:\2017-2018\03_Graduation Project\04_Software\05_Wangshi\03_UpdateSoftware-180702\02_UEUser\KL36_Update-180627\Debug/../06_NosPrg/isr.c:57
		{
			gUserData.touchNum++;
    ade2:	4b1a      	ldr	r3, [pc, #104]	; (ae4c <TSI0_IRQ+0x90>)
    ade4:	22e8      	movs	r2, #232	; 0xe8
    ade6:	5c9a      	ldrb	r2, [r3, r2]
    ade8:	21e9      	movs	r1, #233	; 0xe9
    adea:	5c5b      	ldrb	r3, [r3, r1]
    adec:	021b      	lsls	r3, r3, #8
    adee:	4313      	orrs	r3, r2
    adf0:	b29b      	uxth	r3, r3
    adf2:	3301      	adds	r3, #1
    adf4:	b299      	uxth	r1, r3
    adf6:	4b15      	ldr	r3, [pc, #84]	; (ae4c <TSI0_IRQ+0x90>)
    adf8:	22e8      	movs	r2, #232	; 0xe8
    adfa:	20ff      	movs	r0, #255	; 0xff
    adfc:	4008      	ands	r0, r1
    adfe:	0005      	movs	r5, r0
    ae00:	5c98      	ldrb	r0, [r3, r2]
    ae02:	2400      	movs	r4, #0
    ae04:	4020      	ands	r0, r4
    ae06:	1c04      	adds	r4, r0, #0
    ae08:	1c28      	adds	r0, r5, #0
    ae0a:	4320      	orrs	r0, r4
    ae0c:	5498      	strb	r0, [r3, r2]
    ae0e:	0a09      	lsrs	r1, r1, #8
    ae10:	b288      	uxth	r0, r1
    ae12:	189b      	adds	r3, r3, r2
    ae14:	785a      	ldrb	r2, [r3, #1]
    ae16:	2100      	movs	r1, #0
    ae18:	400a      	ands	r2, r1
    ae1a:	1c11      	adds	r1, r2, #0
    ae1c:	1c02      	adds	r2, r0, #0
    ae1e:	430a      	orrs	r2, r1
    ae20:	705a      	strb	r2, [r3, #1]
E:\2017-2018\03_Graduation Project\04_Software\05_Wangshi\03_UpdateSoftware-180702\02_UEUser\KL36_Update-180627\Debug/../06_NosPrg/isr.c:62
            //LCD_ShowString(36,209,BLUE,GRAY,(uint_8 *)myItoa(gUserData.touchNum,touchNum,10));
		}
	}
	//1
	TSI0_GENCS |=  TSI_GENCS_OUTRGF_MASK;//1
    ae22:	4b09      	ldr	r3, [pc, #36]	; (ae48 <TSI0_IRQ+0x8c>)
    ae24:	681a      	ldr	r2, [r3, #0]
    ae26:	4b08      	ldr	r3, [pc, #32]	; (ae48 <TSI0_IRQ+0x8c>)
    ae28:	2180      	movs	r1, #128	; 0x80
    ae2a:	0609      	lsls	r1, r1, #24
    ae2c:	430a      	orrs	r2, r1
    ae2e:	601a      	str	r2, [r3, #0]
E:\2017-2018\03_Graduation Project\04_Software\05_Wangshi\03_UpdateSoftware-180702\02_UEUser\KL36_Update-180627\Debug/../06_NosPrg/isr.c:63
	BCLR(TSI_GENCS_TSIEN_SHIFT,TSI0_GENCS);
    ae30:	4b05      	ldr	r3, [pc, #20]	; (ae48 <TSI0_IRQ+0x8c>)
    ae32:	681a      	ldr	r2, [r3, #0]
    ae34:	4b04      	ldr	r3, [pc, #16]	; (ae48 <TSI0_IRQ+0x8c>)
    ae36:	2180      	movs	r1, #128	; 0x80
    ae38:	438a      	bics	r2, r1
    ae3a:	601a      	str	r2, [r3, #0]
__enable_irq():
E:\2017-2018\03_Graduation Project\04_Software\05_Wangshi\03_UpdateSoftware-180702\02_UEUser\KL36_Update-180627\02_Core/core_cmFunc.h:333
  __ASM volatile ("cpsie i" : : : "memory");
    ae3c:	b662      	cpsie	i
TSI0_IRQ():
E:\2017-2018\03_Graduation Project\04_Software\05_Wangshi\03_UpdateSoftware-180702\02_UEUser\KL36_Update-180627\Debug/../06_NosPrg/isr.c:66
	//-------------------------------
	ENABLE_INTERRUPTS;       //
}
    ae3e:	46c0      	nop			; (mov r8, r8)
    ae40:	46bd      	mov	sp, r7
    ae42:	b004      	add	sp, #16
    ae44:	bdb0      	pop	{r4, r5, r7, pc}
    ae46:	46c0      	nop			; (mov r8, r8)
    ae48:	40045000 	.word	0x40045000
    ae4c:	20000e38 	.word	0x20000e38

0000ae50 <UART0_IRQHandler>:
UART0_IRQHandler():
E:\2017-2018\03_Graduation Project\04_Software\05_Wangshi\03_UpdateSoftware-180702\02_UEUser\KL36_Update-180627\Debug/../06_NosPrg/isr.c:75
//
//
//0
//======================================================================
void UART0_IRQHandler(void)
{
    ae50:	b590      	push	{r4, r7, lr}
    ae52:	b083      	sub	sp, #12
    ae54:	af00      	add	r7, sp, #0
__disable_irq():
E:\2017-2018\03_Graduation Project\04_Software\05_Wangshi\03_UpdateSoftware-180702\02_UEUser\KL36_Update-180627\02_Core/core_cmFunc.h:344
  __ASM volatile ("cpsid i" : : : "memory");
    ae56:	b672      	cpsid	i
UART0_IRQHandler():
E:\2017-2018\03_Graduation Project\04_Software\05_Wangshi\03_UpdateSoftware-180702\02_UEUser\KL36_Update-180627\Debug/../06_NosPrg/isr.c:80
	uint_8 ch;
	uint_8 flag;
	DISABLE_INTERRUPTS;      //
	//-------------------------------
	if(uart_get_re_int(UART_0))
    ae58:	4b0f      	ldr	r3, [pc, #60]	; (ae98 <UART0_IRQHandler+0x48>)
    ae5a:	681b      	ldr	r3, [r3, #0]
    ae5c:	2000      	movs	r0, #0
    ae5e:	4798      	blx	r3
    ae60:	1e03      	subs	r3, r0, #0
    ae62:	d013      	beq.n	ae8c <UART0_IRQHandler+0x3c>
E:\2017-2018\03_Graduation Project\04_Software\05_Wangshi\03_UpdateSoftware-180702\02_UEUser\KL36_Update-180627\Debug/../06_NosPrg/isr.c:82
	{
		ch = uart_re1 (UART_0, &flag);    //
    ae64:	4b0d      	ldr	r3, [pc, #52]	; (ae9c <UART0_IRQHandler+0x4c>)
    ae66:	681b      	ldr	r3, [r3, #0]
    ae68:	1dfc      	adds	r4, r7, #7
    ae6a:	1dba      	adds	r2, r7, #6
    ae6c:	0011      	movs	r1, r2
    ae6e:	2000      	movs	r0, #0
    ae70:	4798      	blx	r3
    ae72:	0003      	movs	r3, r0
    ae74:	7023      	strb	r3, [r4, #0]
E:\2017-2018\03_Graduation Project\04_Software\05_Wangshi\03_UpdateSoftware-180702\02_UEUser\KL36_Update-180627\Debug/../06_NosPrg/isr.c:83
		if(flag)
    ae76:	1dbb      	adds	r3, r7, #6
    ae78:	781b      	ldrb	r3, [r3, #0]
    ae7a:	2b00      	cmp	r3, #0
    ae7c:	d006      	beq.n	ae8c <UART0_IRQHandler+0x3c>
E:\2017-2018\03_Graduation Project\04_Software\05_Wangshi\03_UpdateSoftware-180702\02_UEUser\KL36_Update-180627\Debug/../06_NosPrg/isr.c:85
		{
			uart_send1(UART_0, ch);     //
    ae7e:	4b08      	ldr	r3, [pc, #32]	; (aea0 <UART0_IRQHandler+0x50>)
    ae80:	681b      	ldr	r3, [r3, #0]
    ae82:	1dfa      	adds	r2, r7, #7
    ae84:	7812      	ldrb	r2, [r2, #0]
    ae86:	0011      	movs	r1, r2
    ae88:	2000      	movs	r0, #0
    ae8a:	4798      	blx	r3
__enable_irq():
E:\2017-2018\03_Graduation Project\04_Software\05_Wangshi\03_UpdateSoftware-180702\02_UEUser\KL36_Update-180627\02_Core/core_cmFunc.h:333
  __ASM volatile ("cpsie i" : : : "memory");
    ae8c:	b662      	cpsie	i
UART0_IRQHandler():
E:\2017-2018\03_Graduation Project\04_Software\05_Wangshi\03_UpdateSoftware-180702\02_UEUser\KL36_Update-180627\Debug/../06_NosPrg/isr.c:90
		}
	}
	//-------------------------------
	ENABLE_INTERRUPTS;       //
}
    ae8e:	46c0      	nop			; (mov r8, r8)
    ae90:	46bd      	mov	sp, r7
    ae92:	b003      	add	sp, #12
    ae94:	bd90      	pop	{r4, r7, pc}
    ae96:	46c0      	nop			; (mov r8, r8)
    ae98:	200008d4 	.word	0x200008d4
    ae9c:	20000910 	.word	0x20000910
    aea0:	20000954 	.word	0x20000954

0000aea4 <UART1_IRQ>:
UART1_IRQ():
E:\2017-2018\03_Graduation Project\04_Software\05_Wangshi\03_UpdateSoftware-180702\02_UEUser\KL36_Update-180627\Debug/../06_NosPrg/isr.c:99
//
//
//1
//======================================================================
void UART1_IRQ(void)
{
    aea4:	b590      	push	{r4, r7, lr}
    aea6:	b083      	sub	sp, #12
    aea8:	af00      	add	r7, sp, #0
__disable_irq():
E:\2017-2018\03_Graduation Project\04_Software\05_Wangshi\03_UpdateSoftware-180702\02_UEUser\KL36_Update-180627\02_Core/core_cmFunc.h:344
  __ASM volatile ("cpsid i" : : : "memory");
    aeaa:	b672      	cpsid	i
UART1_IRQ():
E:\2017-2018\03_Graduation Project\04_Software\05_Wangshi\03_UpdateSoftware-180702\02_UEUser\KL36_Update-180627\Debug/../06_NosPrg/isr.c:105
	uint_8 ch;
	uint_8 flag;
	DISABLE_INTERRUPTS;      //
	//-------------------------------
    //
	ch = uart_re1(UART_1, &flag);   //
    aeac:	4b0c      	ldr	r3, [pc, #48]	; (aee0 <UART1_IRQ+0x3c>)
    aeae:	681b      	ldr	r3, [r3, #0]
    aeb0:	1dfc      	adds	r4, r7, #7
    aeb2:	1dba      	adds	r2, r7, #6
    aeb4:	0011      	movs	r1, r2
    aeb6:	2001      	movs	r0, #1
    aeb8:	4798      	blx	r3
    aeba:	0003      	movs	r3, r0
    aebc:	7023      	strb	r3, [r4, #0]
E:\2017-2018\03_Graduation Project\04_Software\05_Wangshi\03_UpdateSoftware-180702\02_UEUser\KL36_Update-180627\Debug/../06_NosPrg/isr.c:106
	if(flag)   //
    aebe:	1dbb      	adds	r3, r7, #6
    aec0:	781b      	ldrb	r3, [r3, #0]
    aec2:	2b00      	cmp	r3, #0
    aec4:	d007      	beq.n	aed6 <UART1_IRQ+0x32>
E:\2017-2018\03_Graduation Project\04_Software\05_Wangshi\03_UpdateSoftware-180702\02_UEUser\KL36_Update-180627\Debug/../06_NosPrg/isr.c:108
	{
		uecom_interrupt(ch,&gRecvLength,gRecvBuf);
    aec6:	4b07      	ldr	r3, [pc, #28]	; (aee4 <UART1_IRQ+0x40>)
    aec8:	681b      	ldr	r3, [r3, #0]
    aeca:	4c07      	ldr	r4, [pc, #28]	; (aee8 <UART1_IRQ+0x44>)
    aecc:	4907      	ldr	r1, [pc, #28]	; (aeec <UART1_IRQ+0x48>)
    aece:	1dfa      	adds	r2, r7, #7
    aed0:	7810      	ldrb	r0, [r2, #0]
    aed2:	0022      	movs	r2, r4
    aed4:	4798      	blx	r3
__enable_irq():
E:\2017-2018\03_Graduation Project\04_Software\05_Wangshi\03_UpdateSoftware-180702\02_UEUser\KL36_Update-180627\02_Core/core_cmFunc.h:333
  __ASM volatile ("cpsie i" : : : "memory");
    aed6:	b662      	cpsie	i
UART1_IRQ():
E:\2017-2018\03_Graduation Project\04_Software\05_Wangshi\03_UpdateSoftware-180702\02_UEUser\KL36_Update-180627\Debug/../06_NosPrg/isr.c:113
	}

	//-------------------------------
	ENABLE_INTERRUPTS;       //
}
    aed8:	46c0      	nop			; (mov r8, r8)
    aeda:	46bd      	mov	sp, r7
    aedc:	b003      	add	sp, #12
    aede:	bd90      	pop	{r4, r7, pc}
    aee0:	20000910 	.word	0x20000910
    aee4:	20000938 	.word	0x20000938
    aee8:	20000a28 	.word	0x20000a28
    aeec:	20000f52 	.word	0x20000f52

0000aef0 <main>:
main():
E:\2017-2018\03_Graduation Project\04_Software\05_Wangshi\03_UpdateSoftware-180702\02_UEUser\KL36_Update-180627\Debug/../06_NosPrg/main.c:38
extern void TSI0_IRQ(void);
extern void UART1_IRQ(void);

//
int main(void)
{
    aef0:	b5f0      	push	{r4, r5, r6, r7, lr}
    aef2:	46c6      	mov	lr, r8
    aef4:	b500      	push	{lr}
    aef6:	4cf1      	ldr	r4, [pc, #964]	; (b2bc <main+0x3cc>)
    aef8:	44a5      	add	sp, r4
    aefa:	af02      	add	r7, sp, #8
__disable_irq():
E:\2017-2018\03_Graduation Project\04_Software\05_Wangshi\03_UpdateSoftware-180702\02_UEUser\KL36_Update-180627\02_Core/core_cmFunc.h:344
  __ASM volatile ("cpsid i" : : : "memory");
    aefc:	b672      	cpsid	i
main():
E:\2017-2018\03_Graduation Project\04_Software\05_Wangshi\03_UpdateSoftware-180702\02_UEUser\KL36_Update-180627\Debug/../06_NosPrg/main.c:68
    uint_16 mSendLen;             //
    //2 
    DISABLE_INTERRUPTS;
    //3 
    //3.1
    mSec=0;      //
    aefe:	2200      	movs	r2, #0
    af00:	2300      	movs	r3, #0
    af02:	219b      	movs	r1, #155	; 0x9b
    af04:	00c9      	lsls	r1, r1, #3
    af06:	2010      	movs	r0, #16
    af08:	4684      	mov	ip, r0
    af0a:	44bc      	add	ip, r7
    af0c:	4461      	add	r1, ip
    af0e:	600a      	str	r2, [r1, #0]
    af10:	604b      	str	r3, [r1, #4]
E:\2017-2018\03_Graduation Project\04_Software\05_Wangshi\03_UpdateSoftware-180702\02_UEUser\KL36_Update-180627\Debug/../06_NosPrg/main.c:69
    mMin=0;     //
    af12:	2200      	movs	r2, #0
    af14:	2300      	movs	r3, #0
    af16:	2195      	movs	r1, #149	; 0x95
    af18:	00c9      	lsls	r1, r1, #3
    af1a:	2010      	movs	r0, #16
    af1c:	4684      	mov	ip, r0
    af1e:	44bc      	add	ip, r7
    af20:	4461      	add	r1, ip
    af22:	600a      	str	r2, [r1, #0]
    af24:	604b      	str	r3, [r1, #4]
E:\2017-2018\03_Graduation Project\04_Software\05_Wangshi\03_UpdateSoftware-180702\02_UEUser\KL36_Update-180627\Debug/../06_NosPrg/main.c:70
    mTsi=0;       //
    af26:	2300      	movs	r3, #0
    af28:	4ae5      	ldr	r2, [pc, #916]	; (b2c0 <main+0x3d0>)
    af2a:	2110      	movs	r1, #16
    af2c:	468c      	mov	ip, r1
    af2e:	44bc      	add	ip, r7
    af30:	4462      	add	r2, ip
    af32:	6013      	str	r3, [r2, #0]
E:\2017-2018\03_Graduation Project\04_Software\05_Wangshi\03_UpdateSoftware-180702\02_UEUser\KL36_Update-180627\Debug/../06_NosPrg/main.c:71
    mSendFlag = 1;      //,
    af34:	4be3      	ldr	r3, [pc, #908]	; (b2c4 <main+0x3d4>)
    af36:	2210      	movs	r2, #16
    af38:	4694      	mov	ip, r2
    af3a:	44bc      	add	ip, r7
    af3c:	4463      	add	r3, ip
    af3e:	2201      	movs	r2, #1
    af40:	701a      	strb	r2, [r3, #0]
E:\2017-2018\03_Graduation Project\04_Software\05_Wangshi\03_UpdateSoftware-180702\02_UEUser\KL36_Update-180627\Debug/../06_NosPrg/main.c:72
    mFlashFlag = 0;      //flash
    af42:	4be1      	ldr	r3, [pc, #900]	; (b2c8 <main+0x3d8>)
    af44:	2210      	movs	r2, #16
    af46:	4694      	mov	ip, r2
    af48:	44bc      	add	ip, r7
    af4a:	4463      	add	r3, ip
    af4c:	2200      	movs	r2, #0
    af4e:	701a      	strb	r2, [r3, #0]
E:\2017-2018\03_Graduation Project\04_Software\05_Wangshi\03_UpdateSoftware-180702\02_UEUser\KL36_Update-180627\Debug/../06_NosPrg/main.c:73
    mWaitSecond = 0;  //
    af50:	4bde      	ldr	r3, [pc, #888]	; (b2cc <main+0x3dc>)
    af52:	2210      	movs	r2, #16
    af54:	4694      	mov	ip, r2
    af56:	44bc      	add	ip, r7
    af58:	4463      	add	r3, ip
    af5a:	2200      	movs	r2, #0
    af5c:	801a      	strh	r2, [r3, #0]
E:\2017-2018\03_Graduation Project\04_Software\05_Wangshi\03_UpdateSoftware-180702\02_UEUser\KL36_Update-180627\Debug/../06_NosPrg/main.c:74
    mUserLen = sizeof(struct UserData);  //
    af5e:	4bdc      	ldr	r3, [pc, #880]	; (b2d0 <main+0x3e0>)
    af60:	2210      	movs	r2, #16
    af62:	4694      	mov	ip, r2
    af64:	44bc      	add	ip, r7
    af66:	4463      	add	r3, ip
    af68:	2218      	movs	r2, #24
    af6a:	32ff      	adds	r2, #255	; 0xff
    af6c:	801a      	strh	r2, [r3, #0]
E:\2017-2018\03_Graduation Project\04_Software\05_Wangshi\03_UpdateSoftware-180702\02_UEUser\KL36_Update-180627\Debug/../06_NosPrg/main.c:75
    mFlashLen = sizeof(struct FlashData);  //flash
    af6e:	4bd9      	ldr	r3, [pc, #868]	; (b2d4 <main+0x3e4>)
    af70:	2210      	movs	r2, #16
    af72:	4694      	mov	ip, r2
    af74:	44bc      	add	ip, r7
    af76:	4463      	add	r3, ip
    af78:	22ab      	movs	r2, #171	; 0xab
    af7a:	801a      	strh	r2, [r3, #0]
E:\2017-2018\03_Graduation Project\04_Software\05_Wangshi\03_UpdateSoftware-180702\02_UEUser\KL36_Update-180627\Debug/../06_NosPrg/main.c:76
    mLoopCount = 0;  //
    af7c:	2200      	movs	r2, #0
    af7e:	2300      	movs	r3, #0
    af80:	2197      	movs	r1, #151	; 0x97
    af82:	00c9      	lsls	r1, r1, #3
    af84:	2010      	movs	r0, #16
    af86:	4684      	mov	ip, r0
    af88:	44bc      	add	ip, r7
    af8a:	4461      	add	r1, ip
    af8c:	600a      	str	r2, [r1, #0]
    af8e:	604b      	str	r3, [r1, #4]
E:\2017-2018\03_Graduation Project\04_Software\05_Wangshi\03_UpdateSoftware-180702\02_UEUser\KL36_Update-180627\Debug/../06_NosPrg/main.c:77
    mRecvCount = 0;  //
    af90:	2200      	movs	r2, #0
    af92:	2300      	movs	r3, #0
    af94:	2199      	movs	r1, #153	; 0x99
    af96:	00c9      	lsls	r1, r1, #3
    af98:	2010      	movs	r0, #16
    af9a:	4684      	mov	ip, r0
    af9c:	44bc      	add	ip, r7
    af9e:	4461      	add	r1, ip
    afa0:	600a      	str	r2, [r1, #0]
    afa2:	604b      	str	r3, [r1, #4]
E:\2017-2018\03_Graduation Project\04_Software\05_Wangshi\03_UpdateSoftware-180702\02_UEUser\KL36_Update-180627\Debug/../06_NosPrg/main.c:78
    mLCDFlag = 0;
    afa4:	4bcc      	ldr	r3, [pc, #816]	; (b2d8 <main+0x3e8>)
    afa6:	2210      	movs	r2, #16
    afa8:	4694      	mov	ip, r2
    afaa:	44bc      	add	ip, r7
    afac:	4463      	add	r3, ip
    afae:	2200      	movs	r2, #0
    afb0:	701a      	strb	r2, [r3, #0]
E:\2017-2018\03_Graduation Project\04_Software\05_Wangshi\03_UpdateSoftware-180702\02_UEUser\KL36_Update-180627\Debug/../06_NosPrg/main.c:80
    //3.2
    gRecvLength = 0;     //
    afb2:	4bca      	ldr	r3, [pc, #808]	; (b2dc <main+0x3ec>)
    afb4:	2200      	movs	r2, #0
    afb6:	801a      	strh	r2, [r3, #0]
E:\2017-2018\03_Graduation Project\04_Software\05_Wangshi\03_UpdateSoftware-180702\02_UEUser\KL36_Update-180627\Debug/../06_NosPrg/main.c:82
    //4 
	cpy_nvic();
    afb8:	f002 fab8 	bl	d52c <cpy_nvic>
E:\2017-2018\03_Graduation Project\04_Software\05_Wangshi\03_UpdateSoftware-180702\02_UEUser\KL36_Update-180627\Debug/../06_NosPrg/main.c:83
	funPointerInit();
    afbc:	f001 ff3e 	bl	ce3c <funPointerInit>
E:\2017-2018\03_Graduation Project\04_Software\05_Wangshi\03_UpdateSoftware-180702\02_UEUser\KL36_Update-180627\Debug/../06_NosPrg/main.c:85

    uecom_switch(UECOM_ON);    //
    afc0:	4bc7      	ldr	r3, [pc, #796]	; (b2e0 <main+0x3f0>)
    afc2:	681b      	ldr	r3, [r3, #0]
    afc4:	2001      	movs	r0, #1
    afc6:	4798      	blx	r3
E:\2017-2018\03_Graduation Project\04_Software\05_Wangshi\03_UpdateSoftware-180702\02_UEUser\KL36_Update-180627\Debug/../06_NosPrg/main.c:86
    light_init(LIGHT_RED,LIGHT_ON);  //
    afc8:	2100      	movs	r1, #0
    afca:	2005      	movs	r0, #5
    afcc:	f002 faee 	bl	d5ac <light_init>
E:\2017-2018\03_Graduation Project\04_Software\05_Wangshi\03_UpdateSoftware-180702\02_UEUser\KL36_Update-180627\Debug/../06_NosPrg/main.c:87
    lptmr_init(500);    //LPTMR500
    afd0:	4bc4      	ldr	r3, [pc, #784]	; (b2e4 <main+0x3f4>)
    afd2:	681b      	ldr	r3, [r3, #0]
    afd4:	22fa      	movs	r2, #250	; 0xfa
    afd6:	0052      	lsls	r2, r2, #1
    afd8:	0010      	movs	r0, r2
    afda:	4798      	blx	r3
E:\2017-2018\03_Graduation Project\04_Software\05_Wangshi\03_UpdateSoftware-180702\02_UEUser\KL36_Update-180627\Debug/../06_NosPrg/main.c:89
    //uart_init(UART_2, 115200);  //2115200
    tsi_init(3,TSI_VALUE);           //TSI3,
    afdc:	4bc2      	ldr	r3, [pc, #776]	; (b2e8 <main+0x3f8>)
    afde:	681b      	ldr	r3, [r3, #0]
    afe0:	4ac2      	ldr	r2, [pc, #776]	; (b2ec <main+0x3fc>)
    afe2:	0011      	movs	r1, r2
    afe4:	2003      	movs	r0, #3
    afe6:	4798      	blx	r3
E:\2017-2018\03_Graduation Project\04_Software\05_Wangshi\03_UpdateSoftware-180702\02_UEUser\KL36_Update-180627\Debug/../06_NosPrg/main.c:90
    flash_init();                           //flash
    afe8:	4bc1      	ldr	r3, [pc, #772]	; (b2f0 <main+0x400>)
    afea:	681b      	ldr	r3, [r3, #0]
    afec:	4798      	blx	r3
E:\2017-2018\03_Graduation Project\04_Software\05_Wangshi\03_UpdateSoftware-180702\02_UEUser\KL36_Update-180627\Debug/../06_NosPrg/main.c:91
    LCD_Init();             //LCD
    afee:	f002 fb07 	bl	d600 <LCD_Init>
E:\2017-2018\03_Graduation Project\04_Software\05_Wangshi\03_UpdateSoftware-180702\02_UEUser\KL36_Update-180627\Debug/../06_NosPrg/main.c:92
	LCD_ShowInit();   //LCD
    aff2:	f001 fbe1 	bl	c7b8 <LCD_ShowInit>
E:\2017-2018\03_Graduation Project\04_Software\05_Wangshi\03_UpdateSoftware-180702\02_UEUser\KL36_Update-180627\Debug/../06_NosPrg/main.c:94
    //5 
	setVector(LPTMR0_IRQn,(uint_32)&LPTMR0_IRQ);
    aff6:	4bbf      	ldr	r3, [pc, #764]	; (b2f4 <main+0x404>)
    aff8:	0019      	movs	r1, r3
    affa:	201c      	movs	r0, #28
    affc:	f002 fabc 	bl	d578 <setVector>
E:\2017-2018\03_Graduation Project\04_Software\05_Wangshi\03_UpdateSoftware-180702\02_UEUser\KL36_Update-180627\Debug/../06_NosPrg/main.c:95
	setVector(TSI0_IRQn,(uint_32)&TSI0_IRQ);
    b000:	4bbd      	ldr	r3, [pc, #756]	; (b2f8 <main+0x408>)
    b002:	0019      	movs	r1, r3
    b004:	201a      	movs	r0, #26
    b006:	f002 fab7 	bl	d578 <setVector>
E:\2017-2018\03_Graduation Project\04_Software\05_Wangshi\03_UpdateSoftware-180702\02_UEUser\KL36_Update-180627\Debug/../06_NosPrg/main.c:96
	setVector(UART1_IRQn,(uint_32)&UART1_IRQ);
    b00a:	4bbc      	ldr	r3, [pc, #752]	; (b2fc <main+0x40c>)
    b00c:	0019      	movs	r1, r3
    b00e:	200d      	movs	r0, #13
    b010:	f002 fab2 	bl	d578 <setVector>
E:\2017-2018\03_Graduation Project\04_Software\05_Wangshi\03_UpdateSoftware-180702\02_UEUser\KL36_Update-180627\Debug/../06_NosPrg/main.c:97
    enable_lptmr_int();              //LPTMR
    b014:	4bba      	ldr	r3, [pc, #744]	; (b300 <main+0x410>)
    b016:	681b      	ldr	r3, [r3, #0]
    b018:	4798      	blx	r3
E:\2017-2018\03_Graduation Project\04_Software\05_Wangshi\03_UpdateSoftware-180702\02_UEUser\KL36_Update-180627\Debug/../06_NosPrg/main.c:98
    tsi_enable_re_int();               //TSI
    b01a:	4bba      	ldr	r3, [pc, #744]	; (b304 <main+0x414>)
    b01c:	681b      	ldr	r3, [r3, #0]
    b01e:	4798      	blx	r3
__enable_irq():
E:\2017-2018\03_Graduation Project\04_Software\05_Wangshi\03_UpdateSoftware-180702\02_UEUser\KL36_Update-180627\02_Core/core_cmFunc.h:333
  __ASM volatile ("cpsie i" : : : "memory");
    b020:	b662      	cpsie	i
main():
E:\2017-2018\03_Graduation Project\04_Software\05_Wangshi\03_UpdateSoftware-180702\02_UEUser\KL36_Update-180627\Debug/../06_NosPrg/main.c:106
    //6
    ENABLE_INTERRUPTS;
    //7
	if(ENABLE_WDOG)wdog_feed();    //
	//7.1flashgFlashDatagUserData
	flashData_get(&gFlashData);
    b022:	4bb9      	ldr	r3, [pc, #740]	; (b308 <main+0x418>)
    b024:	0018      	movs	r0, r3
    b026:	f001 f959 	bl	c2dc <flashData_get>
E:\2017-2018\03_Graduation Project\04_Software\05_Wangshi\03_UpdateSoftware-180702\02_UEUser\KL36_Update-180627\Debug/../06_NosPrg/main.c:107
	userData_init(&gUserData);
    b02a:	4bb8      	ldr	r3, [pc, #736]	; (b30c <main+0x41c>)
    b02c:	0018      	movs	r0, r3
    b02e:	f001 f967 	bl	c300 <userData_init>
E:\2017-2018\03_Graduation Project\04_Software\05_Wangshi\03_UpdateSoftware-180702\02_UEUser\KL36_Update-180627\Debug/../06_NosPrg/main.c:109
	//7.2flash
	mTmp = gFlashData.resetCount;      // 
    b032:	4bb5      	ldr	r3, [pc, #724]	; (b308 <main+0x418>)
    b034:	22a7      	movs	r2, #167	; 0xa7
    b036:	5c9a      	ldrb	r2, [r3, r2]
    b038:	21a8      	movs	r1, #168	; 0xa8
    b03a:	5c59      	ldrb	r1, [r3, r1]
    b03c:	0209      	lsls	r1, r1, #8
    b03e:	430a      	orrs	r2, r1
    b040:	21a9      	movs	r1, #169	; 0xa9
    b042:	5c59      	ldrb	r1, [r3, r1]
    b044:	0409      	lsls	r1, r1, #16
    b046:	430a      	orrs	r2, r1
    b048:	21aa      	movs	r1, #170	; 0xaa
    b04a:	5c5b      	ldrb	r3, [r3, r1]
    b04c:	061b      	lsls	r3, r3, #24
    b04e:	4313      	orrs	r3, r2
    b050:	2293      	movs	r2, #147	; 0x93
    b052:	00d2      	lsls	r2, r2, #3
    b054:	2110      	movs	r1, #16
    b056:	468c      	mov	ip, r1
    b058:	44bc      	add	ip, r7
    b05a:	4462      	add	r2, ip
    b05c:	6013      	str	r3, [r2, #0]
    b05e:	2300      	movs	r3, #0
    b060:	4aab      	ldr	r2, [pc, #684]	; (b310 <main+0x420>)
    b062:	2110      	movs	r1, #16
    b064:	468c      	mov	ip, r1
    b066:	44bc      	add	ip, r7
    b068:	4462      	add	r2, ip
    b06a:	6013      	str	r3, [r2, #0]
E:\2017-2018\03_Graduation Project\04_Software\05_Wangshi\03_UpdateSoftware-180702\02_UEUser\KL36_Update-180627\Debug/../06_NosPrg/main.c:110
	if (BGET(RCM_SRS0_WDOG_SHIFT, RCM_SRS0))  //1
    b06c:	4ba9      	ldr	r3, [pc, #676]	; (b314 <main+0x424>)
    b06e:	781b      	ldrb	r3, [r3, #0]
    b070:	b2db      	uxtb	r3, r3
    b072:	095b      	lsrs	r3, r3, #5
    b074:	b2db      	uxtb	r3, r3
    b076:	001a      	movs	r2, r3
    b078:	2301      	movs	r3, #1
    b07a:	4013      	ands	r3, r2
    b07c:	d045      	beq.n	b10a <main+0x21a>
E:\2017-2018\03_Graduation Project\04_Software\05_Wangshi\03_UpdateSoftware-180702\02_UEUser\KL36_Update-180627\Debug/../06_NosPrg/main.c:111
		gFlashData.resetCount++;
    b07e:	4ba2      	ldr	r3, [pc, #648]	; (b308 <main+0x418>)
    b080:	22a7      	movs	r2, #167	; 0xa7
    b082:	5c9a      	ldrb	r2, [r3, r2]
    b084:	21a8      	movs	r1, #168	; 0xa8
    b086:	5c59      	ldrb	r1, [r3, r1]
    b088:	0209      	lsls	r1, r1, #8
    b08a:	430a      	orrs	r2, r1
    b08c:	21a9      	movs	r1, #169	; 0xa9
    b08e:	5c59      	ldrb	r1, [r3, r1]
    b090:	0409      	lsls	r1, r1, #16
    b092:	430a      	orrs	r2, r1
    b094:	21aa      	movs	r1, #170	; 0xaa
    b096:	5c5b      	ldrb	r3, [r3, r1]
    b098:	061b      	lsls	r3, r3, #24
    b09a:	4313      	orrs	r3, r2
    b09c:	1c59      	adds	r1, r3, #1
    b09e:	4b9a      	ldr	r3, [pc, #616]	; (b308 <main+0x418>)
    b0a0:	22a7      	movs	r2, #167	; 0xa7
    b0a2:	20ff      	movs	r0, #255	; 0xff
    b0a4:	4008      	ands	r0, r1
    b0a6:	4684      	mov	ip, r0
    b0a8:	5c98      	ldrb	r0, [r3, r2]
    b0aa:	2600      	movs	r6, #0
    b0ac:	4030      	ands	r0, r6
    b0ae:	1c06      	adds	r6, r0, #0
    b0b0:	4660      	mov	r0, ip
    b0b2:	4330      	orrs	r0, r6
    b0b4:	5498      	strb	r0, [r3, r2]
    b0b6:	0a08      	lsrs	r0, r1, #8
    b0b8:	26ff      	movs	r6, #255	; 0xff
    b0ba:	4030      	ands	r0, r6
    b0bc:	4680      	mov	r8, r0
    b0be:	1898      	adds	r0, r3, r2
    b0c0:	7846      	ldrb	r6, [r0, #1]
    b0c2:	2400      	movs	r4, #0
    b0c4:	46a4      	mov	ip, r4
    b0c6:	4664      	mov	r4, ip
    b0c8:	4026      	ands	r6, r4
    b0ca:	46b4      	mov	ip, r6
    b0cc:	4646      	mov	r6, r8
    b0ce:	4664      	mov	r4, ip
    b0d0:	4334      	orrs	r4, r6
    b0d2:	0026      	movs	r6, r4
    b0d4:	7046      	strb	r6, [r0, #1]
    b0d6:	0c08      	lsrs	r0, r1, #16
    b0d8:	26ff      	movs	r6, #255	; 0xff
    b0da:	4030      	ands	r0, r6
    b0dc:	4680      	mov	r8, r0
    b0de:	1898      	adds	r0, r3, r2
    b0e0:	7886      	ldrb	r6, [r0, #2]
    b0e2:	2400      	movs	r4, #0
    b0e4:	46a4      	mov	ip, r4
    b0e6:	4664      	mov	r4, ip
    b0e8:	4026      	ands	r6, r4
    b0ea:	46b4      	mov	ip, r6
    b0ec:	4646      	mov	r6, r8
    b0ee:	4664      	mov	r4, ip
    b0f0:	4334      	orrs	r4, r6
    b0f2:	0026      	movs	r6, r4
    b0f4:	7086      	strb	r6, [r0, #2]
    b0f6:	0e08      	lsrs	r0, r1, #24
    b0f8:	189b      	adds	r3, r3, r2
    b0fa:	78da      	ldrb	r2, [r3, #3]
    b0fc:	2100      	movs	r1, #0
    b0fe:	400a      	ands	r2, r1
    b100:	1c11      	adds	r1, r2, #0
    b102:	1c02      	adds	r2, r0, #0
    b104:	430a      	orrs	r2, r1
    b106:	70da      	strb	r2, [r3, #3]
    b108:	e01d      	b.n	b146 <main+0x256>
E:\2017-2018\03_Graduation Project\04_Software\05_Wangshi\03_UpdateSoftware-180702\02_UEUser\KL36_Update-180627\Debug/../06_NosPrg/main.c:112
	else if(BGET(RCM_SRS0_POR_SHIFT, RCM_SRS0))   //
    b10a:	4b82      	ldr	r3, [pc, #520]	; (b314 <main+0x424>)
    b10c:	781b      	ldrb	r3, [r3, #0]
    b10e:	b2db      	uxtb	r3, r3
    b110:	09db      	lsrs	r3, r3, #7
    b112:	b2db      	uxtb	r3, r3
    b114:	001a      	movs	r2, r3
    b116:	2301      	movs	r3, #1
    b118:	4013      	ands	r3, r2
    b11a:	d014      	beq.n	b146 <main+0x256>
E:\2017-2018\03_Graduation Project\04_Software\05_Wangshi\03_UpdateSoftware-180702\02_UEUser\KL36_Update-180627\Debug/../06_NosPrg/main.c:113
		gFlashData.resetCount = 0;
    b11c:	4b7a      	ldr	r3, [pc, #488]	; (b308 <main+0x418>)
    b11e:	22a7      	movs	r2, #167	; 0xa7
    b120:	5c99      	ldrb	r1, [r3, r2]
    b122:	2000      	movs	r0, #0
    b124:	4001      	ands	r1, r0
    b126:	5499      	strb	r1, [r3, r2]
    b128:	1899      	adds	r1, r3, r2
    b12a:	7848      	ldrb	r0, [r1, #1]
    b12c:	2600      	movs	r6, #0
    b12e:	4030      	ands	r0, r6
    b130:	7048      	strb	r0, [r1, #1]
    b132:	1899      	adds	r1, r3, r2
    b134:	7888      	ldrb	r0, [r1, #2]
    b136:	2600      	movs	r6, #0
    b138:	4030      	ands	r0, r6
    b13a:	7088      	strb	r0, [r1, #2]
    b13c:	189b      	adds	r3, r3, r2
    b13e:	78da      	ldrb	r2, [r3, #3]
    b140:	2100      	movs	r1, #0
    b142:	400a      	ands	r2, r1
    b144:	70da      	strb	r2, [r3, #3]
E:\2017-2018\03_Graduation Project\04_Software\05_Wangshi\03_UpdateSoftware-180702\02_UEUser\KL36_Update-180627\Debug/../06_NosPrg/main.c:114
	if(gFlashData.resetCount!=mTmp)     //flash
    b146:	4b70      	ldr	r3, [pc, #448]	; (b308 <main+0x418>)
    b148:	22a7      	movs	r2, #167	; 0xa7
    b14a:	5c9a      	ldrb	r2, [r3, r2]
    b14c:	21a8      	movs	r1, #168	; 0xa8
    b14e:	5c59      	ldrb	r1, [r3, r1]
    b150:	0209      	lsls	r1, r1, #8
    b152:	430a      	orrs	r2, r1
    b154:	21a9      	movs	r1, #169	; 0xa9
    b156:	5c59      	ldrb	r1, [r3, r1]
    b158:	0409      	lsls	r1, r1, #16
    b15a:	430a      	orrs	r2, r1
    b15c:	21aa      	movs	r1, #170	; 0xaa
    b15e:	5c5b      	ldrb	r3, [r3, r1]
    b160:	061b      	lsls	r3, r3, #24
    b162:	4313      	orrs	r3, r2
    b164:	60bb      	str	r3, [r7, #8]
    b166:	2300      	movs	r3, #0
    b168:	60fb      	str	r3, [r7, #12]
    b16a:	2393      	movs	r3, #147	; 0x93
    b16c:	00db      	lsls	r3, r3, #3
    b16e:	2210      	movs	r2, #16
    b170:	4694      	mov	ip, r2
    b172:	44bc      	add	ip, r7
    b174:	4463      	add	r3, ip
    b176:	681b      	ldr	r3, [r3, #0]
    b178:	68ba      	ldr	r2, [r7, #8]
    b17a:	4293      	cmp	r3, r2
    b17c:	d108      	bne.n	b190 <main+0x2a0>
    b17e:	4b64      	ldr	r3, [pc, #400]	; (b310 <main+0x420>)
    b180:	2210      	movs	r2, #16
    b182:	4694      	mov	ip, r2
    b184:	44bc      	add	ip, r7
    b186:	4463      	add	r3, ip
    b188:	681b      	ldr	r3, [r3, #0]
    b18a:	68fa      	ldr	r2, [r7, #12]
    b18c:	4293      	cmp	r3, r2
    b18e:	d010      	beq.n	b1b2 <main+0x2c2>
E:\2017-2018\03_Graduation Project\04_Software\05_Wangshi\03_UpdateSoftware-180702\02_UEUser\KL36_Update-180627\Debug/../06_NosPrg/main.c:116
	{
 		flash_erase(63);
    b190:	4b61      	ldr	r3, [pc, #388]	; (b318 <main+0x428>)
    b192:	681b      	ldr	r3, [r3, #0]
    b194:	203f      	movs	r0, #63	; 0x3f
    b196:	4798      	blx	r3
E:\2017-2018\03_Graduation Project\04_Software\05_Wangshi\03_UpdateSoftware-180702\02_UEUser\KL36_Update-180627\Debug/../06_NosPrg/main.c:117
 		flash_write(63,0,mFlashLen,(uint_8*)(&gFlashData));
    b198:	4b60      	ldr	r3, [pc, #384]	; (b31c <main+0x42c>)
    b19a:	681c      	ldr	r4, [r3, #0]
    b19c:	495a      	ldr	r1, [pc, #360]	; (b308 <main+0x418>)
    b19e:	4b4d      	ldr	r3, [pc, #308]	; (b2d4 <main+0x3e4>)
    b1a0:	2210      	movs	r2, #16
    b1a2:	4694      	mov	ip, r2
    b1a4:	44bc      	add	ip, r7
    b1a6:	4463      	add	r3, ip
    b1a8:	881a      	ldrh	r2, [r3, #0]
    b1aa:	000b      	movs	r3, r1
    b1ac:	2100      	movs	r1, #0
    b1ae:	203f      	movs	r0, #63	; 0x3f
    b1b0:	47a0      	blx	r4
E:\2017-2018\03_Graduation Project\04_Software\05_Wangshi\03_UpdateSoftware-180702\02_UEUser\KL36_Update-180627\Debug/../06_NosPrg/main.c:124
    //printf("%ld\n",gFlashData.resetCount);
    //7.3LCD
    while(1)
    {
    	//7.3.112
    	uecom_switch(UECOM_ON);    //
    b1b2:	4b4b      	ldr	r3, [pc, #300]	; (b2e0 <main+0x3f0>)
    b1b4:	681b      	ldr	r3, [r3, #0]
    b1b6:	2001      	movs	r0, #1
    b1b8:	4798      	blx	r3
E:\2017-2018\03_Graduation Project\04_Software\05_Wangshi\03_UpdateSoftware-180702\02_UEUser\KL36_Update-180627\Debug/../06_NosPrg/main.c:126
        //printf("AHL Run .\n");
        LCD_ShowString(4,300,BLUE,GRAY,"AHL Run .                   ");
    b1ba:	4a59      	ldr	r2, [pc, #356]	; (b320 <main+0x430>)
    b1bc:	2396      	movs	r3, #150	; 0x96
    b1be:	0059      	lsls	r1, r3, #1
    b1c0:	4b58      	ldr	r3, [pc, #352]	; (b324 <main+0x434>)
    b1c2:	9300      	str	r3, [sp, #0]
    b1c4:	0013      	movs	r3, r2
    b1c6:	221f      	movs	r2, #31
    b1c8:	2004      	movs	r0, #4
    b1ca:	f002 fcb5 	bl	db38 <LCD_ShowString>
E:\2017-2018\03_Graduation Project\04_Software\05_Wangshi\03_UpdateSoftware-180702\02_UEUser\KL36_Update-180627\Debug/../06_NosPrg/main.c:127
        Delay_ms(6000);                          //6
    b1ce:	4b56      	ldr	r3, [pc, #344]	; (b328 <main+0x438>)
    b1d0:	0018      	movs	r0, r3
    b1d2:	f001 fe07 	bl	cde4 <Delay_ms>
E:\2017-2018\03_Graduation Project\04_Software\05_Wangshi\03_UpdateSoftware-180702\02_UEUser\KL36_Update-180627\Debug/../06_NosPrg/main.c:129
        //printf("AHL Run ..\n");
        LCD_ShowString(4,300,BLUE,GRAY,"AHL Run ..                  ");
    b1d6:	4a52      	ldr	r2, [pc, #328]	; (b320 <main+0x430>)
    b1d8:	2396      	movs	r3, #150	; 0x96
    b1da:	0059      	lsls	r1, r3, #1
    b1dc:	4b53      	ldr	r3, [pc, #332]	; (b32c <main+0x43c>)
    b1de:	9300      	str	r3, [sp, #0]
    b1e0:	0013      	movs	r3, r2
    b1e2:	221f      	movs	r2, #31
    b1e4:	2004      	movs	r0, #4
    b1e6:	f002 fca7 	bl	db38 <LCD_ShowString>
E:\2017-2018\03_Graduation Project\04_Software\05_Wangshi\03_UpdateSoftware-180702\02_UEUser\KL36_Update-180627\Debug/../06_NosPrg/main.c:130
        Delay_ms(6000);                         //6
    b1ea:	4b4f      	ldr	r3, [pc, #316]	; (b328 <main+0x438>)
    b1ec:	0018      	movs	r0, r3
    b1ee:	f001 fdf9 	bl	cde4 <Delay_ms>
E:\2017-2018\03_Graduation Project\04_Software\05_Wangshi\03_UpdateSoftware-180702\02_UEUser\KL36_Update-180627\Debug/../06_NosPrg/main.c:134
        if(ENABLE_WDOG) 	wdog_feed();    //
        //7.3.2
        //printf("AHL Initialize .\n");
        LCD_ShowString(4,300,BLUE,GRAY,"AHL Initialize .            ");
    b1f2:	4a4b      	ldr	r2, [pc, #300]	; (b320 <main+0x430>)
    b1f4:	2396      	movs	r3, #150	; 0x96
    b1f6:	0059      	lsls	r1, r3, #1
    b1f8:	4b4d      	ldr	r3, [pc, #308]	; (b330 <main+0x440>)
    b1fa:	9300      	str	r3, [sp, #0]
    b1fc:	0013      	movs	r3, r2
    b1fe:	221f      	movs	r2, #31
    b200:	2004      	movs	r0, #4
    b202:	f002 fc99 	bl	db38 <LCD_ShowString>
E:\2017-2018\03_Graduation Project\04_Software\05_Wangshi\03_UpdateSoftware-180702\02_UEUser\KL36_Update-180627\Debug/../06_NosPrg/main.c:135
		mflag =uecom_init(mRetdata,gFlashData.serverIP,gFlashData.serverPort);
    b206:	4b4b      	ldr	r3, [pc, #300]	; (b334 <main+0x444>)
    b208:	681b      	ldr	r3, [r3, #0]
    b20a:	4d4b      	ldr	r5, [pc, #300]	; (b338 <main+0x448>)
    b20c:	2210      	movs	r2, #16
    b20e:	18ba      	adds	r2, r7, r2
    b210:	1954      	adds	r4, r2, r5
    b212:	4a4a      	ldr	r2, [pc, #296]	; (b33c <main+0x44c>)
    b214:	494a      	ldr	r1, [pc, #296]	; (b340 <main+0x450>)
    b216:	484b      	ldr	r0, [pc, #300]	; (b344 <main+0x454>)
    b218:	2610      	movs	r6, #16
    b21a:	46b4      	mov	ip, r6
    b21c:	44bc      	add	ip, r7
    b21e:	4460      	add	r0, ip
    b220:	4798      	blx	r3
    b222:	0003      	movs	r3, r0
    b224:	7023      	strb	r3, [r4, #0]
E:\2017-2018\03_Graduation Project\04_Software\05_Wangshi\03_UpdateSoftware-180702\02_UEUser\KL36_Update-180627\Debug/../06_NosPrg/main.c:137
		//printf("AHL Initialize ..\n");
		LCD_ShowString(4,300,BLUE,GRAY,"AHL Initialize ..           ");
    b226:	4a3e      	ldr	r2, [pc, #248]	; (b320 <main+0x430>)
    b228:	2396      	movs	r3, #150	; 0x96
    b22a:	0059      	lsls	r1, r3, #1
    b22c:	4b46      	ldr	r3, [pc, #280]	; (b348 <main+0x458>)
    b22e:	9300      	str	r3, [sp, #0]
    b230:	0013      	movs	r3, r2
    b232:	221f      	movs	r2, #31
    b234:	2004      	movs	r0, #4
    b236:	f002 fc7f 	bl	db38 <LCD_ShowString>
E:\2017-2018\03_Graduation Project\04_Software\05_Wangshi\03_UpdateSoftware-180702\02_UEUser\KL36_Update-180627\Debug/../06_NosPrg/main.c:139
		//(7.3.3) 
		if(!mflag)break;  //
    b23a:	2310      	movs	r3, #16
    b23c:	18fb      	adds	r3, r7, r3
    b23e:	195b      	adds	r3, r3, r5
    b240:	781b      	ldrb	r3, [r3, #0]
    b242:	2b00      	cmp	r3, #0
    b244:	d100      	bne.n	b248 <main+0x358>
    b246:	e0d2      	b.n	b3ee <main+0x4fe>
E:\2017-2018\03_Graduation Project\04_Software\05_Wangshi\03_UpdateSoftware-180702\02_UEUser\KL36_Update-180627\Debug/../06_NosPrg/main.c:140
		switch(mflag)
    b248:	4b3b      	ldr	r3, [pc, #236]	; (b338 <main+0x448>)
    b24a:	2210      	movs	r2, #16
    b24c:	4694      	mov	ip, r2
    b24e:	44bc      	add	ip, r7
    b250:	4463      	add	r3, ip
    b252:	781b      	ldrb	r3, [r3, #0]
    b254:	2b0a      	cmp	r3, #10
    b256:	d900      	bls.n	b25a <main+0x36a>
    b258:	e0c4      	b.n	b3e4 <main+0x4f4>
    b25a:	009a      	lsls	r2, r3, #2
    b25c:	4b3b      	ldr	r3, [pc, #236]	; (b34c <main+0x45c>)
    b25e:	18d3      	adds	r3, r2, r3
    b260:	681b      	ldr	r3, [r3, #0]
    b262:	469f      	mov	pc, r3
E:\2017-2018\03_Graduation Project\04_Software\05_Wangshi\03_UpdateSoftware-180702\02_UEUser\KL36_Update-180627\Debug/../06_NosPrg/main.c:143
		{
			case 1:
				LCD_ShowString(4,300,BLUE,GRAY,"Inital Error:AT Error       ");
    b264:	4a2e      	ldr	r2, [pc, #184]	; (b320 <main+0x430>)
    b266:	2396      	movs	r3, #150	; 0x96
    b268:	0059      	lsls	r1, r3, #1
    b26a:	4b39      	ldr	r3, [pc, #228]	; (b350 <main+0x460>)
    b26c:	9300      	str	r3, [sp, #0]
    b26e:	0013      	movs	r3, r2
    b270:	221f      	movs	r2, #31
    b272:	2004      	movs	r0, #4
    b274:	f002 fc60 	bl	db38 <LCD_ShowString>
E:\2017-2018\03_Graduation Project\04_Software\05_Wangshi\03_UpdateSoftware-180702\02_UEUser\KL36_Update-180627\Debug/../06_NosPrg/main.c:145
				//printf("Inital Error:AT Error\n");
				break;
    b278:	e0b4      	b.n	b3e4 <main+0x4f4>
E:\2017-2018\03_Graduation Project\04_Software\05_Wangshi\03_UpdateSoftware-180702\02_UEUser\KL36_Update-180627\Debug/../06_NosPrg/main.c:147
			case 2:
				LCD_ShowString(4,300,BLUE,GRAY,"Inital Error:ATE0 Error     ");
    b27a:	4a29      	ldr	r2, [pc, #164]	; (b320 <main+0x430>)
    b27c:	2396      	movs	r3, #150	; 0x96
    b27e:	0059      	lsls	r1, r3, #1
    b280:	4b34      	ldr	r3, [pc, #208]	; (b354 <main+0x464>)
    b282:	9300      	str	r3, [sp, #0]
    b284:	0013      	movs	r3, r2
    b286:	221f      	movs	r2, #31
    b288:	2004      	movs	r0, #4
    b28a:	f002 fc55 	bl	db38 <LCD_ShowString>
E:\2017-2018\03_Graduation Project\04_Software\05_Wangshi\03_UpdateSoftware-180702\02_UEUser\KL36_Update-180627\Debug/../06_NosPrg/main.c:149
				//printf("Inital Error:ATE0 Error\n");
				break;
    b28e:	e0a9      	b.n	b3e4 <main+0x4f4>
E:\2017-2018\03_Graduation Project\04_Software\05_Wangshi\03_UpdateSoftware-180702\02_UEUser\KL36_Update-180627\Debug/../06_NosPrg/main.c:151
			case 3:
				LCD_ShowString(4,300,BLUE,GRAY,"Inital Error:IMEI Error     ");
    b290:	4a23      	ldr	r2, [pc, #140]	; (b320 <main+0x430>)
    b292:	2396      	movs	r3, #150	; 0x96
    b294:	0059      	lsls	r1, r3, #1
    b296:	4b30      	ldr	r3, [pc, #192]	; (b358 <main+0x468>)
    b298:	9300      	str	r3, [sp, #0]
    b29a:	0013      	movs	r3, r2
    b29c:	221f      	movs	r2, #31
    b29e:	2004      	movs	r0, #4
    b2a0:	f002 fc4a 	bl	db38 <LCD_ShowString>
E:\2017-2018\03_Graduation Project\04_Software\05_Wangshi\03_UpdateSoftware-180702\02_UEUser\KL36_Update-180627\Debug/../06_NosPrg/main.c:153
				//printf("Inital Error:IMEI Error\n");
				break;
    b2a4:	e09e      	b.n	b3e4 <main+0x4f4>
E:\2017-2018\03_Graduation Project\04_Software\05_Wangshi\03_UpdateSoftware-180702\02_UEUser\KL36_Update-180627\Debug/../06_NosPrg/main.c:155
			case 4:
				LCD_ShowString(4,300,BLUE,GRAY,"Inital Error:IMSI Error     ");
    b2a6:	4a1e      	ldr	r2, [pc, #120]	; (b320 <main+0x430>)
    b2a8:	2396      	movs	r3, #150	; 0x96
    b2aa:	0059      	lsls	r1, r3, #1
    b2ac:	4b2b      	ldr	r3, [pc, #172]	; (b35c <main+0x46c>)
    b2ae:	9300      	str	r3, [sp, #0]
    b2b0:	0013      	movs	r3, r2
    b2b2:	221f      	movs	r2, #31
    b2b4:	2004      	movs	r0, #4
    b2b6:	f002 fc3f 	bl	db38 <LCD_ShowString>
E:\2017-2018\03_Graduation Project\04_Software\05_Wangshi\03_UpdateSoftware-180702\02_UEUser\KL36_Update-180627\Debug/../06_NosPrg/main.c:157
				//printf("Inital Error:IMSI Error\n");
				break;
    b2ba:	e093      	b.n	b3e4 <main+0x4f4>
    b2bc:	fffffb08 	.word	0xfffffb08
    b2c0:	000004d4 	.word	0x000004d4
    b2c4:	000004d3 	.word	0x000004d3
    b2c8:	000004c5 	.word	0x000004c5
    b2cc:	000004a6 	.word	0x000004a6
    b2d0:	000004a4 	.word	0x000004a4
    b2d4:	000004a2 	.word	0x000004a2
    b2d8:	000004c4 	.word	0x000004c4
    b2dc:	20000f52 	.word	0x20000f52
    b2e0:	2000094c 	.word	0x2000094c
    b2e4:	200008fc 	.word	0x200008fc
    b2e8:	2000093c 	.word	0x2000093c
    b2ec:	00cc0011 	.word	0x00cc0011
    b2f0:	200008c0 	.word	0x200008c0
    b2f4:	0000ac81 	.word	0x0000ac81
    b2f8:	0000adbd 	.word	0x0000adbd
    b2fc:	0000aea5 	.word	0x0000aea5
    b300:	200008c4 	.word	0x200008c4
    b304:	20000924 	.word	0x20000924
    b308:	2000097c 	.word	0x2000097c
    b30c:	20000e38 	.word	0x20000e38
    b310:	0000049c 	.word	0x0000049c
    b314:	4007f000 	.word	0x4007f000
    b318:	200008b8 	.word	0x200008b8
    b31c:	20000884 	.word	0x20000884
    b320:	00008430 	.word	0x00008430
    b324:	0000e350 	.word	0x0000e350
    b328:	00001770 	.word	0x00001770
    b32c:	0000e370 	.word	0x0000e370
    b330:	0000e390 	.word	0x0000e390
    b334:	20000970 	.word	0x20000970
    b338:	000004c6 	.word	0x000004c6
    b33c:	20000a1a 	.word	0x20000a1a
    b340:	20000a0b 	.word	0x20000a0b
    b344:	0000042c 	.word	0x0000042c
    b348:	0000e3b0 	.word	0x0000e3b0
    b34c:	0000e850 	.word	0x0000e850
    b350:	0000e3d0 	.word	0x0000e3d0
    b354:	0000e3f0 	.word	0x0000e3f0
    b358:	0000e410 	.word	0x0000e410
    b35c:	0000e430 	.word	0x0000e430
E:\2017-2018\03_Graduation Project\04_Software\05_Wangshi\03_UpdateSoftware-180702\02_UEUser\KL36_Update-180627\Debug/../06_NosPrg/main.c:159
			case 5:
				LCD_ShowString(4,300,BLUE,GRAY,"Inital Error:B Type Error   ");
    b360:	4ab8      	ldr	r2, [pc, #736]	; (b644 <main+0x754>)
    b362:	2396      	movs	r3, #150	; 0x96
    b364:	0059      	lsls	r1, r3, #1
    b366:	4bb8      	ldr	r3, [pc, #736]	; (b648 <main+0x758>)
    b368:	9300      	str	r3, [sp, #0]
    b36a:	0013      	movs	r3, r2
    b36c:	221f      	movs	r2, #31
    b36e:	2004      	movs	r0, #4
    b370:	f002 fbe2 	bl	db38 <LCD_ShowString>
E:\2017-2018\03_Graduation Project\04_Software\05_Wangshi\03_UpdateSoftware-180702\02_UEUser\KL36_Update-180627\Debug/../06_NosPrg/main.c:161
				//printf("Inital Error:B Type Error\n");
				break;
    b374:	e036      	b.n	b3e4 <main+0x4f4>
E:\2017-2018\03_Graduation Project\04_Software\05_Wangshi\03_UpdateSoftware-180702\02_UEUser\KL36_Update-180627\Debug/../06_NosPrg/main.c:163
			case 6:
				LCD_ShowString(4,300,BLUE,GRAY,"Inital Error:Net Error      ");
    b376:	4ab3      	ldr	r2, [pc, #716]	; (b644 <main+0x754>)
    b378:	2396      	movs	r3, #150	; 0x96
    b37a:	0059      	lsls	r1, r3, #1
    b37c:	4bb3      	ldr	r3, [pc, #716]	; (b64c <main+0x75c>)
    b37e:	9300      	str	r3, [sp, #0]
    b380:	0013      	movs	r3, r2
    b382:	221f      	movs	r2, #31
    b384:	2004      	movs	r0, #4
    b386:	f002 fbd7 	bl	db38 <LCD_ShowString>
E:\2017-2018\03_Graduation Project\04_Software\05_Wangshi\03_UpdateSoftware-180702\02_UEUser\KL36_Update-180627\Debug/../06_NosPrg/main.c:165
				//printf("Inital Error:Net Error\n");
				break;
    b38a:	e02b      	b.n	b3e4 <main+0x4f4>
E:\2017-2018\03_Graduation Project\04_Software\05_Wangshi\03_UpdateSoftware-180702\02_UEUser\KL36_Update-180627\Debug/../06_NosPrg/main.c:167
			case 7:
				LCD_ShowString(4,300,BLUE,GRAY,"Inital Error:PDP Error      ");
    b38c:	4aad      	ldr	r2, [pc, #692]	; (b644 <main+0x754>)
    b38e:	2396      	movs	r3, #150	; 0x96
    b390:	0059      	lsls	r1, r3, #1
    b392:	4baf      	ldr	r3, [pc, #700]	; (b650 <main+0x760>)
    b394:	9300      	str	r3, [sp, #0]
    b396:	0013      	movs	r3, r2
    b398:	221f      	movs	r2, #31
    b39a:	2004      	movs	r0, #4
    b39c:	f002 fbcc 	bl	db38 <LCD_ShowString>
E:\2017-2018\03_Graduation Project\04_Software\05_Wangshi\03_UpdateSoftware-180702\02_UEUser\KL36_Update-180627\Debug/../06_NosPrg/main.c:169
				//printf("Inital Error:PDP Error\n");
				break;
    b3a0:	e020      	b.n	b3e4 <main+0x4f4>
E:\2017-2018\03_Graduation Project\04_Software\05_Wangshi\03_UpdateSoftware-180702\02_UEUser\KL36_Update-180627\Debug/../06_NosPrg/main.c:171
			case 8:
				LCD_ShowString(4,300,BLUE,GRAY,"Inital Error:Get IP Error   ");
    b3a2:	4aa8      	ldr	r2, [pc, #672]	; (b644 <main+0x754>)
    b3a4:	2396      	movs	r3, #150	; 0x96
    b3a6:	0059      	lsls	r1, r3, #1
    b3a8:	4baa      	ldr	r3, [pc, #680]	; (b654 <main+0x764>)
    b3aa:	9300      	str	r3, [sp, #0]
    b3ac:	0013      	movs	r3, r2
    b3ae:	221f      	movs	r2, #31
    b3b0:	2004      	movs	r0, #4
    b3b2:	f002 fbc1 	bl	db38 <LCD_ShowString>
E:\2017-2018\03_Graduation Project\04_Software\05_Wangshi\03_UpdateSoftware-180702\02_UEUser\KL36_Update-180627\Debug/../06_NosPrg/main.c:173
				//printf("Inital Error:Get IP Error\n");
				break;
    b3b6:	e015      	b.n	b3e4 <main+0x4f4>
E:\2017-2018\03_Graduation Project\04_Software\05_Wangshi\03_UpdateSoftware-180702\02_UEUser\KL36_Update-180627\Debug/../06_NosPrg/main.c:175
			case 9:
				LCD_ShowString(4,300,BLUE,GRAY,"Inital Error:AT OK,IP Error ");
    b3b8:	4aa2      	ldr	r2, [pc, #648]	; (b644 <main+0x754>)
    b3ba:	2396      	movs	r3, #150	; 0x96
    b3bc:	0059      	lsls	r1, r3, #1
    b3be:	4ba6      	ldr	r3, [pc, #664]	; (b658 <main+0x768>)
    b3c0:	9300      	str	r3, [sp, #0]
    b3c2:	0013      	movs	r3, r2
    b3c4:	221f      	movs	r2, #31
    b3c6:	2004      	movs	r0, #4
    b3c8:	f002 fbb6 	bl	db38 <LCD_ShowString>
E:\2017-2018\03_Graduation Project\04_Software\05_Wangshi\03_UpdateSoftware-180702\02_UEUser\KL36_Update-180627\Debug/../06_NosPrg/main.c:177
				//printf("Inital Error:AT OK,IP Error\n");
				break;
    b3cc:	e00a      	b.n	b3e4 <main+0x4f4>
E:\2017-2018\03_Graduation Project\04_Software\05_Wangshi\03_UpdateSoftware-180702\02_UEUser\KL36_Update-180627\Debug/../06_NosPrg/main.c:179
			case 10:
				 LCD_ShowString(4,300,BLUE,GRAY,"Inital Error:TCP Error     ");
    b3ce:	4a9d      	ldr	r2, [pc, #628]	; (b644 <main+0x754>)
    b3d0:	2396      	movs	r3, #150	; 0x96
    b3d2:	0059      	lsls	r1, r3, #1
    b3d4:	4ba1      	ldr	r3, [pc, #644]	; (b65c <main+0x76c>)
    b3d6:	9300      	str	r3, [sp, #0]
    b3d8:	0013      	movs	r3, r2
    b3da:	221f      	movs	r2, #31
    b3dc:	2004      	movs	r0, #4
    b3de:	f002 fbab 	bl	db38 <LCD_ShowString>
E:\2017-2018\03_Graduation Project\04_Software\05_Wangshi\03_UpdateSoftware-180702\02_UEUser\KL36_Update-180627\Debug/../06_NosPrg/main.c:181
				 //printf("Inital Error:TCP Error\n");
				 break;
    b3e2:	46c0      	nop			; (mov r8, r8)
E:\2017-2018\03_Graduation Project\04_Software\05_Wangshi\03_UpdateSoftware-180702\02_UEUser\KL36_Update-180627\Debug/../06_NosPrg/main.c:183
		}
		uecom_switch(UECOM_REBOOT);    //
    b3e4:	4b9e      	ldr	r3, [pc, #632]	; (b660 <main+0x770>)
    b3e6:	681b      	ldr	r3, [r3, #0]
    b3e8:	2002      	movs	r0, #2
    b3ea:	4798      	blx	r3
E:\2017-2018\03_Graduation Project\04_Software\05_Wangshi\03_UpdateSoftware-180702\02_UEUser\KL36_Update-180627\Debug/../06_NosPrg/main.c:124
    	uecom_switch(UECOM_ON);    //
    b3ec:	e6e1      	b.n	b1b2 <main+0x2c2>
E:\2017-2018\03_Graduation Project\04_Software\05_Wangshi\03_UpdateSoftware-180702\02_UEUser\KL36_Update-180627\Debug/../06_NosPrg/main.c:139
		if(!mflag)break;  //
    b3ee:	46c0      	nop			; (mov r8, r8)
E:\2017-2018\03_Graduation Project\04_Software\05_Wangshi\03_UpdateSoftware-180702\02_UEUser\KL36_Update-180627\Debug/../06_NosPrg/main.c:186
    }
    //printf("AHL Initialize Successfully\n");
    LCD_ShowString(4,300,BLUE,GRAY,"AHL Initialize Successfully ");
    b3f0:	4a94      	ldr	r2, [pc, #592]	; (b644 <main+0x754>)
    b3f2:	2396      	movs	r3, #150	; 0x96
    b3f4:	0059      	lsls	r1, r3, #1
    b3f6:	4b9b      	ldr	r3, [pc, #620]	; (b664 <main+0x774>)
    b3f8:	9300      	str	r3, [sp, #0]
    b3fa:	0013      	movs	r3, r2
    b3fc:	221f      	movs	r2, #31
    b3fe:	2004      	movs	r0, #4
    b400:	f002 fb9a 	bl	db38 <LCD_ShowString>
E:\2017-2018\03_Graduation Project\04_Software\05_Wangshi\03_UpdateSoftware-180702\02_UEUser\KL36_Update-180627\Debug/../06_NosPrg/main.c:189
    //7.4LCD
    //7.4.1
	strncpy(mString,gFlashData.equipType,20);
    b404:	4998      	ldr	r1, [pc, #608]	; (b668 <main+0x778>)
    b406:	24fc      	movs	r4, #252	; 0xfc
    b408:	00a4      	lsls	r4, r4, #2
    b40a:	2310      	movs	r3, #16
    b40c:	18fb      	adds	r3, r7, r3
    b40e:	191b      	adds	r3, r3, r4
    b410:	2214      	movs	r2, #20
    b412:	0018      	movs	r0, r3
    b414:	f002 ff85 	bl	e322 <strncpy>
E:\2017-2018\03_Graduation Project\04_Software\05_Wangshi\03_UpdateSoftware-180702\02_UEUser\KL36_Update-180627\Debug/../06_NosPrg/main.c:190
	mString[20]=0;
    b418:	0021      	movs	r1, r4
    b41a:	2310      	movs	r3, #16
    b41c:	18fb      	adds	r3, r7, r3
    b41e:	185b      	adds	r3, r3, r1
    b420:	2200      	movs	r2, #0
    b422:	751a      	strb	r2, [r3, #20]
E:\2017-2018\03_Graduation Project\04_Software\05_Wangshi\03_UpdateSoftware-180702\02_UEUser\KL36_Update-180627\Debug/../06_NosPrg/main.c:191
	LCD_ShowString(70,45,BLUE,GRAY,mString);
    b424:	4a87      	ldr	r2, [pc, #540]	; (b644 <main+0x754>)
    b426:	000c      	movs	r4, r1
    b428:	2310      	movs	r3, #16
    b42a:	18fb      	adds	r3, r7, r3
    b42c:	185b      	adds	r3, r3, r1
    b42e:	9300      	str	r3, [sp, #0]
    b430:	0013      	movs	r3, r2
    b432:	221f      	movs	r2, #31
    b434:	212d      	movs	r1, #45	; 0x2d
    b436:	2046      	movs	r0, #70	; 0x46
    b438:	f002 fb7e 	bl	db38 <LCD_ShowString>
E:\2017-2018\03_Graduation Project\04_Software\05_Wangshi\03_UpdateSoftware-180702\02_UEUser\KL36_Update-180627\Debug/../06_NosPrg/main.c:193
	//7.4.2
	strncpy(mString,gFlashData.softVer,4);
    b43c:	498b      	ldr	r1, [pc, #556]	; (b66c <main+0x77c>)
    b43e:	2310      	movs	r3, #16
    b440:	18fb      	adds	r3, r7, r3
    b442:	191b      	adds	r3, r3, r4
    b444:	2204      	movs	r2, #4
    b446:	0018      	movs	r0, r3
    b448:	f002 ff6b 	bl	e322 <strncpy>
E:\2017-2018\03_Graduation Project\04_Software\05_Wangshi\03_UpdateSoftware-180702\02_UEUser\KL36_Update-180627\Debug/../06_NosPrg/main.c:194
	mString[4]=0;
    b44c:	0021      	movs	r1, r4
    b44e:	2310      	movs	r3, #16
    b450:	18fb      	adds	r3, r7, r3
    b452:	185b      	adds	r3, r3, r1
    b454:	2200      	movs	r2, #0
    b456:	711a      	strb	r2, [r3, #4]
E:\2017-2018\03_Graduation Project\04_Software\05_Wangshi\03_UpdateSoftware-180702\02_UEUser\KL36_Update-180627\Debug/../06_NosPrg/main.c:195
	LCD_ShowString(118,65,BLUE,GRAY,mString);
    b458:	4a7a      	ldr	r2, [pc, #488]	; (b644 <main+0x754>)
    b45a:	2310      	movs	r3, #16
    b45c:	18fb      	adds	r3, r7, r3
    b45e:	185b      	adds	r3, r3, r1
    b460:	9300      	str	r3, [sp, #0]
    b462:	0013      	movs	r3, r2
    b464:	221f      	movs	r2, #31
    b466:	2141      	movs	r1, #65	; 0x41
    b468:	2076      	movs	r0, #118	; 0x76
    b46a:	f002 fb65 	bl	db38 <LCD_ShowString>
E:\2017-2018\03_Graduation Project\04_Software\05_Wangshi\03_UpdateSoftware-180702\02_UEUser\KL36_Update-180627\Debug/../06_NosPrg/main.c:197
    //(7.4.3)IMSI
    uecom_getIMSI(imsi+1);    //IMSI
    b46e:	4b80      	ldr	r3, [pc, #512]	; (b670 <main+0x780>)
    b470:	681a      	ldr	r2, [r3, #0]
    b472:	2183      	movs	r1, #131	; 0x83
    b474:	00c9      	lsls	r1, r1, #3
    b476:	000c      	movs	r4, r1
    b478:	2310      	movs	r3, #16
    b47a:	18fb      	adds	r3, r7, r3
    b47c:	185b      	adds	r3, r3, r1
    b47e:	3301      	adds	r3, #1
    b480:	0018      	movs	r0, r3
    b482:	4790      	blx	r2
E:\2017-2018\03_Graduation Project\04_Software\05_Wangshi\03_UpdateSoftware-180702\02_UEUser\KL36_Update-180627\Debug/../06_NosPrg/main.c:198
    imsi[0]=' ';   //
    b484:	0021      	movs	r1, r4
    b486:	2310      	movs	r3, #16
    b488:	18fb      	adds	r3, r7, r3
    b48a:	185b      	adds	r3, r3, r1
    b48c:	2220      	movs	r2, #32
    b48e:	701a      	strb	r2, [r3, #0]
E:\2017-2018\03_Graduation Project\04_Software\05_Wangshi\03_UpdateSoftware-180702\02_UEUser\KL36_Update-180627\Debug/../06_NosPrg/main.c:199
    imsi[16]=0;    //
    b490:	2310      	movs	r3, #16
    b492:	18fb      	adds	r3, r7, r3
    b494:	185b      	adds	r3, r3, r1
    b496:	2200      	movs	r2, #0
    b498:	741a      	strb	r2, [r3, #16]
E:\2017-2018\03_Graduation Project\04_Software\05_Wangshi\03_UpdateSoftware-180702\02_UEUser\KL36_Update-180627\Debug/../06_NosPrg/main.c:201
    //printf("IMSI%s\n",imsi+1);  //IMSI
    LCD_ShowString(105,85,BLUE,GRAY,imsi+1);
    b49a:	2310      	movs	r3, #16
    b49c:	18fb      	adds	r3, r7, r3
    b49e:	185b      	adds	r3, r3, r1
    b4a0:	3301      	adds	r3, #1
    b4a2:	4a68      	ldr	r2, [pc, #416]	; (b644 <main+0x754>)
    b4a4:	9300      	str	r3, [sp, #0]
    b4a6:	0013      	movs	r3, r2
    b4a8:	221f      	movs	r2, #31
    b4aa:	2155      	movs	r1, #85	; 0x55
    b4ac:	2069      	movs	r0, #105	; 0x69
    b4ae:	f002 fb43 	bl	db38 <LCD_ShowString>
E:\2017-2018\03_Graduation Project\04_Software\05_Wangshi\03_UpdateSoftware-180702\02_UEUser\KL36_Update-180627\Debug/../06_NosPrg/main.c:203
    //7.4.5
    adc_init(MUXSEL_A,0,16,SAMPLE32);
    b4b2:	4b70      	ldr	r3, [pc, #448]	; (b674 <main+0x784>)
    b4b4:	681c      	ldr	r4, [r3, #0]
    b4b6:	2303      	movs	r3, #3
    b4b8:	2210      	movs	r2, #16
    b4ba:	2100      	movs	r1, #0
    b4bc:	2000      	movs	r0, #0
    b4be:	47a0      	blx	r4
E:\2017-2018\03_Graduation Project\04_Software\05_Wangshi\03_UpdateSoftware-180702\02_UEUser\KL36_Update-180627\Debug/../06_NosPrg/main.c:204
    mi_16 = adc_read(26);
    b4c0:	4b6d      	ldr	r3, [pc, #436]	; (b678 <main+0x788>)
    b4c2:	681b      	ldr	r3, [r3, #0]
    b4c4:	4d6d      	ldr	r5, [pc, #436]	; (b67c <main+0x78c>)
    b4c6:	2210      	movs	r2, #16
    b4c8:	18ba      	adds	r2, r7, r2
    b4ca:	1954      	adds	r4, r2, r5
    b4cc:	201a      	movs	r0, #26
    b4ce:	4798      	blx	r3
    b4d0:	0003      	movs	r3, r0
    b4d2:	8023      	strh	r3, [r4, #0]
E:\2017-2018\03_Graduation Project\04_Software\05_Wangshi\03_UpdateSoftware-180702\02_UEUser\KL36_Update-180627\Debug/../06_NosPrg/main.c:205
    mFloat = 25.0-(mi_16*3.3*1000/65535-719)/1.715;
    b4d4:	2310      	movs	r3, #16
    b4d6:	18fb      	adds	r3, r7, r3
    b4d8:	195b      	adds	r3, r3, r5
    b4da:	881b      	ldrh	r3, [r3, #0]
    b4dc:	0018      	movs	r0, r3
    b4de:	f7ff fadf 	bl	aaa0 <__aeabi_i2d>
    b4e2:	4a67      	ldr	r2, [pc, #412]	; (b680 <main+0x790>)
    b4e4:	4b67      	ldr	r3, [pc, #412]	; (b684 <main+0x794>)
    b4e6:	f7fe fceb 	bl	9ec0 <__aeabi_dmul>
    b4ea:	0003      	movs	r3, r0
    b4ec:	000c      	movs	r4, r1
    b4ee:	0018      	movs	r0, r3
    b4f0:	0021      	movs	r1, r4
    b4f2:	2200      	movs	r2, #0
    b4f4:	4b64      	ldr	r3, [pc, #400]	; (b688 <main+0x798>)
    b4f6:	f7fe fce3 	bl	9ec0 <__aeabi_dmul>
    b4fa:	0003      	movs	r3, r0
    b4fc:	000c      	movs	r4, r1
    b4fe:	0018      	movs	r0, r3
    b500:	0021      	movs	r1, r4
    b502:	2200      	movs	r2, #0
    b504:	4b61      	ldr	r3, [pc, #388]	; (b68c <main+0x79c>)
    b506:	f7fe f8d1 	bl	96ac <__aeabi_ddiv>
    b50a:	0003      	movs	r3, r0
    b50c:	000c      	movs	r4, r1
    b50e:	0018      	movs	r0, r3
    b510:	0021      	movs	r1, r4
    b512:	2200      	movs	r2, #0
    b514:	4b5e      	ldr	r3, [pc, #376]	; (b690 <main+0x7a0>)
    b516:	f7fe ff45 	bl	a3a4 <__aeabi_dsub>
    b51a:	0003      	movs	r3, r0
    b51c:	000c      	movs	r4, r1
    b51e:	0018      	movs	r0, r3
    b520:	0021      	movs	r1, r4
    b522:	4a5c      	ldr	r2, [pc, #368]	; (b694 <main+0x7a4>)
    b524:	4b5c      	ldr	r3, [pc, #368]	; (b698 <main+0x7a8>)
    b526:	f7fe f8c1 	bl	96ac <__aeabi_ddiv>
    b52a:	0003      	movs	r3, r0
    b52c:	000c      	movs	r4, r1
    b52e:	001a      	movs	r2, r3
    b530:	0023      	movs	r3, r4
    b532:	2000      	movs	r0, #0
    b534:	4959      	ldr	r1, [pc, #356]	; (b69c <main+0x7ac>)
    b536:	f7fe ff35 	bl	a3a4 <__aeabi_dsub>
    b53a:	0003      	movs	r3, r0
    b53c:	000c      	movs	r4, r1
    b53e:	0018      	movs	r0, r3
    b540:	0021      	movs	r1, r4
    b542:	f7ff fae7 	bl	ab14 <__aeabi_d2f>
    b546:	1c03      	adds	r3, r0, #0
    b548:	2292      	movs	r2, #146	; 0x92
    b54a:	00d2      	lsls	r2, r2, #3
    b54c:	2110      	movs	r1, #16
    b54e:	468c      	mov	ip, r1
    b550:	44bc      	add	ip, r7
    b552:	4462      	add	r2, ip
    b554:	6013      	str	r3, [r2, #0]
E:\2017-2018\03_Graduation Project\04_Software\05_Wangshi\03_UpdateSoftware-180702\02_UEUser\KL36_Update-180627\Debug/../06_NosPrg/main.c:209
    //printf("%2.1f\n",mFloat);
    //LCD_ShowString(105,105,BLUE,GRAY,(uint_8*)myFtoa(mFloat,1,mString));
    //7.4.6
    for(mi=0;mi<5;mi++)
    b556:	4b52      	ldr	r3, [pc, #328]	; (b6a0 <main+0x7b0>)
    b558:	2210      	movs	r2, #16
    b55a:	4694      	mov	ip, r2
    b55c:	44bc      	add	ip, r7
    b55e:	4463      	add	r3, ip
    b560:	2200      	movs	r2, #0
    b562:	701a      	strb	r2, [r3, #0]
    b564:	e029      	b.n	b5ba <main+0x6ca>
E:\2017-2018\03_Graduation Project\04_Software\05_Wangshi\03_UpdateSoftware-180702\02_UEUser\KL36_Update-180627\Debug/../06_NosPrg/main.c:211
    {
	    if(uecom_getCurCommunity(mString))
    b566:	4b4f      	ldr	r3, [pc, #316]	; (b6a4 <main+0x7b4>)
    b568:	681b      	ldr	r3, [r3, #0]
    b56a:	22fc      	movs	r2, #252	; 0xfc
    b56c:	0092      	lsls	r2, r2, #2
    b56e:	2110      	movs	r1, #16
    b570:	468c      	mov	ip, r1
    b572:	44bc      	add	ip, r7
    b574:	4462      	add	r2, ip
    b576:	0010      	movs	r0, r2
    b578:	4798      	blx	r3
    b57a:	1e03      	subs	r3, r0, #0
    b57c:	d00a      	beq.n	b594 <main+0x6a4>
E:\2017-2018\03_Graduation Project\04_Software\05_Wangshi\03_UpdateSoftware-180702\02_UEUser\KL36_Update-180627\Debug/../06_NosPrg/main.c:209
    for(mi=0;mi<5;mi++)
    b57e:	4948      	ldr	r1, [pc, #288]	; (b6a0 <main+0x7b0>)
    b580:	2310      	movs	r3, #16
    b582:	18fb      	adds	r3, r7, r3
    b584:	185b      	adds	r3, r3, r1
    b586:	781a      	ldrb	r2, [r3, #0]
    b588:	2310      	movs	r3, #16
    b58a:	18fb      	adds	r3, r7, r3
    b58c:	185b      	adds	r3, r3, r1
    b58e:	3201      	adds	r2, #1
    b590:	701a      	strb	r2, [r3, #0]
    b592:	e012      	b.n	b5ba <main+0x6ca>
E:\2017-2018\03_Graduation Project\04_Software\05_Wangshi\03_UpdateSoftware-180702\02_UEUser\KL36_Update-180627\Debug/../06_NosPrg/main.c:213
		    continue;
	    mString[17] = 0;
    b594:	21fc      	movs	r1, #252	; 0xfc
    b596:	0089      	lsls	r1, r1, #2
    b598:	2310      	movs	r3, #16
    b59a:	18fb      	adds	r3, r7, r3
    b59c:	185b      	adds	r3, r3, r1
    b59e:	2200      	movs	r2, #0
    b5a0:	745a      	strb	r2, [r3, #17]
E:\2017-2018\03_Graduation Project\04_Software\05_Wangshi\03_UpdateSoftware-180702\02_UEUser\KL36_Update-180627\Debug/../06_NosPrg/main.c:214
	    LCD_ShowString(89,129,BLUE,GRAY,mString);
    b5a2:	4a28      	ldr	r2, [pc, #160]	; (b644 <main+0x754>)
    b5a4:	2310      	movs	r3, #16
    b5a6:	18fb      	adds	r3, r7, r3
    b5a8:	185b      	adds	r3, r3, r1
    b5aa:	9300      	str	r3, [sp, #0]
    b5ac:	0013      	movs	r3, r2
    b5ae:	221f      	movs	r2, #31
    b5b0:	2181      	movs	r1, #129	; 0x81
    b5b2:	2059      	movs	r0, #89	; 0x59
    b5b4:	f002 fac0 	bl	db38 <LCD_ShowString>
E:\2017-2018\03_Graduation Project\04_Software\05_Wangshi\03_UpdateSoftware-180702\02_UEUser\KL36_Update-180627\Debug/../06_NosPrg/main.c:215
	    break;
    b5b8:	e007      	b.n	b5ca <main+0x6da>
E:\2017-2018\03_Graduation Project\04_Software\05_Wangshi\03_UpdateSoftware-180702\02_UEUser\KL36_Update-180627\Debug/../06_NosPrg/main.c:209 (discriminator 1)
    for(mi=0;mi<5;mi++)
    b5ba:	4b39      	ldr	r3, [pc, #228]	; (b6a0 <main+0x7b0>)
    b5bc:	2210      	movs	r2, #16
    b5be:	4694      	mov	ip, r2
    b5c0:	44bc      	add	ip, r7
    b5c2:	4463      	add	r3, ip
    b5c4:	781b      	ldrb	r3, [r3, #0]
    b5c6:	2b04      	cmp	r3, #4
    b5c8:	d9cd      	bls.n	b566 <main+0x676>
E:\2017-2018\03_Graduation Project\04_Software\05_Wangshi\03_UpdateSoftware-180702\02_UEUser\KL36_Update-180627\Debug/../06_NosPrg/main.c:218
    }
    //7.4.7
    for(mi=0;mi<5;mi++)
    b5ca:	4b35      	ldr	r3, [pc, #212]	; (b6a0 <main+0x7b0>)
    b5cc:	2210      	movs	r2, #16
    b5ce:	4694      	mov	ip, r2
    b5d0:	44bc      	add	ip, r7
    b5d2:	4463      	add	r3, ip
    b5d4:	2200      	movs	r2, #0
    b5d6:	701a      	strb	r2, [r3, #0]
    b5d8:	e02b      	b.n	b632 <main+0x742>
E:\2017-2018\03_Graduation Project\04_Software\05_Wangshi\03_UpdateSoftware-180702\02_UEUser\KL36_Update-180627\Debug/../06_NosPrg/main.c:220
    {
	    mflag = uecom_getSignalPower(&mj);
    b5da:	4b33      	ldr	r3, [pc, #204]	; (b6a8 <main+0x7b8>)
    b5dc:	681b      	ldr	r3, [r3, #0]
    b5de:	4d33      	ldr	r5, [pc, #204]	; (b6ac <main+0x7bc>)
    b5e0:	2210      	movs	r2, #16
    b5e2:	18ba      	adds	r2, r7, r2
    b5e4:	1954      	adds	r4, r2, r5
    b5e6:	4a32      	ldr	r2, [pc, #200]	; (b6b0 <main+0x7c0>)
    b5e8:	2110      	movs	r1, #16
    b5ea:	468c      	mov	ip, r1
    b5ec:	44bc      	add	ip, r7
    b5ee:	4462      	add	r2, ip
    b5f0:	0010      	movs	r0, r2
    b5f2:	4798      	blx	r3
    b5f4:	0003      	movs	r3, r0
    b5f6:	7023      	strb	r3, [r4, #0]
E:\2017-2018\03_Graduation Project\04_Software\05_Wangshi\03_UpdateSoftware-180702\02_UEUser\KL36_Update-180627\Debug/../06_NosPrg/main.c:221
	    if(mflag == 0 && mj!=0)
    b5f8:	2310      	movs	r3, #16
    b5fa:	18fb      	adds	r3, r7, r3
    b5fc:	195b      	adds	r3, r3, r5
    b5fe:	781b      	ldrb	r3, [r3, #0]
    b600:	2b00      	cmp	r3, #0
    b602:	d107      	bne.n	b614 <main+0x724>
E:\2017-2018\03_Graduation Project\04_Software\05_Wangshi\03_UpdateSoftware-180702\02_UEUser\KL36_Update-180627\Debug/../06_NosPrg/main.c:221 (discriminator 1)
    b604:	4b2a      	ldr	r3, [pc, #168]	; (b6b0 <main+0x7c0>)
    b606:	2210      	movs	r2, #16
    b608:	4694      	mov	ip, r2
    b60a:	44bc      	add	ip, r7
    b60c:	4463      	add	r3, ip
    b60e:	781b      	ldrb	r3, [r3, #0]
    b610:	2b00      	cmp	r3, #0
    b612:	d14f      	bne.n	b6b4 <main+0x7c4>
E:\2017-2018\03_Graduation Project\04_Software\05_Wangshi\03_UpdateSoftware-180702\02_UEUser\KL36_Update-180627\Debug/../06_NosPrg/main.c:225 (discriminator 2)
	    {
		    break;
	    }
	    Delay_ms(2000);
    b614:	23fa      	movs	r3, #250	; 0xfa
    b616:	00db      	lsls	r3, r3, #3
    b618:	0018      	movs	r0, r3
    b61a:	f001 fbe3 	bl	cde4 <Delay_ms>
E:\2017-2018\03_Graduation Project\04_Software\05_Wangshi\03_UpdateSoftware-180702\02_UEUser\KL36_Update-180627\Debug/../06_NosPrg/main.c:218 (discriminator 2)
    for(mi=0;mi<5;mi++)
    b61e:	4920      	ldr	r1, [pc, #128]	; (b6a0 <main+0x7b0>)
    b620:	2310      	movs	r3, #16
    b622:	18fb      	adds	r3, r7, r3
    b624:	185b      	adds	r3, r3, r1
    b626:	781a      	ldrb	r2, [r3, #0]
    b628:	2310      	movs	r3, #16
    b62a:	18fb      	adds	r3, r7, r3
    b62c:	185b      	adds	r3, r3, r1
    b62e:	3201      	adds	r2, #1
    b630:	701a      	strb	r2, [r3, #0]
E:\2017-2018\03_Graduation Project\04_Software\05_Wangshi\03_UpdateSoftware-180702\02_UEUser\KL36_Update-180627\Debug/../06_NosPrg/main.c:218 (discriminator 1)
    b632:	4b1b      	ldr	r3, [pc, #108]	; (b6a0 <main+0x7b0>)
    b634:	2210      	movs	r2, #16
    b636:	4694      	mov	ip, r2
    b638:	44bc      	add	ip, r7
    b63a:	4463      	add	r3, ip
    b63c:	781b      	ldrb	r3, [r3, #0]
    b63e:	2b04      	cmp	r3, #4
    b640:	d9cb      	bls.n	b5da <main+0x6ea>
    b642:	e038      	b.n	b6b6 <main+0x7c6>
    b644:	00008430 	.word	0x00008430
    b648:	0000e450 	.word	0x0000e450
    b64c:	0000e470 	.word	0x0000e470
    b650:	0000e490 	.word	0x0000e490
    b654:	0000e4b0 	.word	0x0000e4b0
    b658:	0000e4d0 	.word	0x0000e4d0
    b65c:	0000e4f0 	.word	0x0000e4f0
    b660:	2000094c 	.word	0x2000094c
    b664:	0000e50c 	.word	0x0000e50c
    b668:	200009ae 	.word	0x200009ae
    b66c:	200009e0 	.word	0x200009e0
    b670:	20000978 	.word	0x20000978
    b674:	20000934 	.word	0x20000934
    b678:	200008d0 	.word	0x200008d0
    b67c:	00000496 	.word	0x00000496
    b680:	66666666 	.word	0x66666666
    b684:	400a6666 	.word	0x400a6666
    b688:	408f4000 	.word	0x408f4000
    b68c:	40efffe0 	.word	0x40efffe0
    b690:	40867800 	.word	0x40867800
    b694:	d70a3d71 	.word	0xd70a3d71
    b698:	3ffb70a3 	.word	0x3ffb70a3
    b69c:	40390000 	.word	0x40390000
    b6a0:	000004c7 	.word	0x000004c7
    b6a4:	200008c8 	.word	0x200008c8
    b6a8:	20000898 	.word	0x20000898
    b6ac:	000004c6 	.word	0x000004c6
    b6b0:	0000040f 	.word	0x0000040f
E:\2017-2018\03_Graduation Project\04_Software\05_Wangshi\03_UpdateSoftware-180702\02_UEUser\KL36_Update-180627\Debug/../06_NosPrg/main.c:223
		    break;
    b6b4:	46c0      	nop			; (mov r8, r8)
E:\2017-2018\03_Graduation Project\04_Software\05_Wangshi\03_UpdateSoftware-180702\02_UEUser\KL36_Update-180627\Debug/../06_NosPrg/main.c:228
    }
   // printf("%d\n",mj);
    LCD_ShowString(105,150,BLUE,GRAY,(uint_8 *)myItoa(mj,mString,10));
    b6b6:	4bc6      	ldr	r3, [pc, #792]	; (b9d0 <main+0xae0>)
    b6b8:	2210      	movs	r2, #16
    b6ba:	4694      	mov	ip, r2
    b6bc:	44bc      	add	ip, r7
    b6be:	4463      	add	r3, ip
    b6c0:	781b      	ldrb	r3, [r3, #0]
    b6c2:	0018      	movs	r0, r3
    b6c4:	24fc      	movs	r4, #252	; 0xfc
    b6c6:	00a4      	lsls	r4, r4, #2
    b6c8:	2310      	movs	r3, #16
    b6ca:	18fb      	adds	r3, r7, r3
    b6cc:	191b      	adds	r3, r3, r4
    b6ce:	220a      	movs	r2, #10
    b6d0:	0019      	movs	r1, r3
    b6d2:	f001 fa9b 	bl	cc0c <myItoa>
    b6d6:	0003      	movs	r3, r0
    b6d8:	4abe      	ldr	r2, [pc, #760]	; (b9d4 <main+0xae4>)
    b6da:	9300      	str	r3, [sp, #0]
    b6dc:	0013      	movs	r3, r2
    b6de:	221f      	movs	r2, #31
    b6e0:	2196      	movs	r1, #150	; 0x96
    b6e2:	2069      	movs	r0, #105	; 0x69
    b6e4:	f002 fa28 	bl	db38 <LCD_ShowString>
E:\2017-2018\03_Graduation Project\04_Software\05_Wangshi\03_UpdateSoftware-180702\02_UEUser\KL36_Update-180627\Debug/../06_NosPrg/main.c:230
	//7.4.8IP
	strncpy(mString,gFlashData.serverIP,15);
    b6e8:	49bb      	ldr	r1, [pc, #748]	; (b9d8 <main+0xae8>)
    b6ea:	2310      	movs	r3, #16
    b6ec:	18fb      	adds	r3, r7, r3
    b6ee:	191b      	adds	r3, r3, r4
    b6f0:	220f      	movs	r2, #15
    b6f2:	0018      	movs	r0, r3
    b6f4:	f002 fe15 	bl	e322 <strncpy>
E:\2017-2018\03_Graduation Project\04_Software\05_Wangshi\03_UpdateSoftware-180702\02_UEUser\KL36_Update-180627\Debug/../06_NosPrg/main.c:231
	mString[15]=0;
    b6f8:	2310      	movs	r3, #16
    b6fa:	18fb      	adds	r3, r7, r3
    b6fc:	191b      	adds	r3, r3, r4
    b6fe:	2200      	movs	r2, #0
    b700:	73da      	strb	r2, [r3, #15]
E:\2017-2018\03_Graduation Project\04_Software\05_Wangshi\03_UpdateSoftware-180702\02_UEUser\KL36_Update-180627\Debug/../06_NosPrg/main.c:232
	LCD_ShowString(65,169,BLUE,GRAY,mString);
    b702:	4ab4      	ldr	r2, [pc, #720]	; (b9d4 <main+0xae4>)
    b704:	2310      	movs	r3, #16
    b706:	18fb      	adds	r3, r7, r3
    b708:	191b      	adds	r3, r3, r4
    b70a:	9300      	str	r3, [sp, #0]
    b70c:	0013      	movs	r3, r2
    b70e:	221f      	movs	r2, #31
    b710:	21a9      	movs	r1, #169	; 0xa9
    b712:	2041      	movs	r0, #65	; 0x41
    b714:	f002 fa10 	bl	db38 <LCD_ShowString>
E:\2017-2018\03_Graduation Project\04_Software\05_Wangshi\03_UpdateSoftware-180702\02_UEUser\KL36_Update-180627\Debug/../06_NosPrg/main.c:234
    //7.4.9PORT
	strncpy(mString,gFlashData.serverPort,5);
    b718:	49b0      	ldr	r1, [pc, #704]	; (b9dc <main+0xaec>)
    b71a:	2310      	movs	r3, #16
    b71c:	18fb      	adds	r3, r7, r3
    b71e:	191b      	adds	r3, r3, r4
    b720:	2205      	movs	r2, #5
    b722:	0018      	movs	r0, r3
    b724:	f002 fdfd 	bl	e322 <strncpy>
E:\2017-2018\03_Graduation Project\04_Software\05_Wangshi\03_UpdateSoftware-180702\02_UEUser\KL36_Update-180627\Debug/../06_NosPrg/main.c:235
	mString[5]=0;
    b728:	2310      	movs	r3, #16
    b72a:	18fb      	adds	r3, r7, r3
    b72c:	191b      	adds	r3, r3, r4
    b72e:	2200      	movs	r2, #0
    b730:	715a      	strb	r2, [r3, #5]
E:\2017-2018\03_Graduation Project\04_Software\05_Wangshi\03_UpdateSoftware-180702\02_UEUser\KL36_Update-180627\Debug/../06_NosPrg/main.c:236
	LCD_ShowString(65,189,BLUE,GRAY,mString);
    b732:	4aa8      	ldr	r2, [pc, #672]	; (b9d4 <main+0xae4>)
    b734:	2310      	movs	r3, #16
    b736:	18fb      	adds	r3, r7, r3
    b738:	191b      	adds	r3, r3, r4
    b73a:	9300      	str	r3, [sp, #0]
    b73c:	0013      	movs	r3, r2
    b73e:	221f      	movs	r2, #31
    b740:	21bd      	movs	r1, #189	; 0xbd
    b742:	2041      	movs	r0, #65	; 0x41
    b744:	f002 f9f8 	bl	db38 <LCD_ShowString>
E:\2017-2018\03_Graduation Project\04_Software\05_Wangshi\03_UpdateSoftware-180702\02_UEUser\KL36_Update-180627\Debug/../06_NosPrg/main.c:238
	//7.4.10TSI
	LCD_ShowString(36,209,BLUE,GRAY,"0");
    b748:	4aa2      	ldr	r2, [pc, #648]	; (b9d4 <main+0xae4>)
    b74a:	4ba5      	ldr	r3, [pc, #660]	; (b9e0 <main+0xaf0>)
    b74c:	9300      	str	r3, [sp, #0]
    b74e:	0013      	movs	r3, r2
    b750:	221f      	movs	r2, #31
    b752:	21d1      	movs	r1, #209	; 0xd1
    b754:	2024      	movs	r0, #36	; 0x24
    b756:	f002 f9ef 	bl	db38 <LCD_ShowString>
E:\2017-2018\03_Graduation Project\04_Software\05_Wangshi\03_UpdateSoftware-180702\02_UEUser\KL36_Update-180627\Debug/../06_NosPrg/main.c:240
	//7.4.11
	LCD_ShowString(180,210,BLUE,GRAY,"          ");
    b75a:	4a9e      	ldr	r2, [pc, #632]	; (b9d4 <main+0xae4>)
    b75c:	4ba1      	ldr	r3, [pc, #644]	; (b9e4 <main+0xaf4>)
    b75e:	9300      	str	r3, [sp, #0]
    b760:	0013      	movs	r3, r2
    b762:	221f      	movs	r2, #31
    b764:	21d2      	movs	r1, #210	; 0xd2
    b766:	20b4      	movs	r0, #180	; 0xb4
    b768:	f002 f9e6 	bl	db38 <LCD_ShowString>
E:\2017-2018\03_Graduation Project\04_Software\05_Wangshi\03_UpdateSoftware-180702\02_UEUser\KL36_Update-180627\Debug/../06_NosPrg/main.c:242
	LCD_ShowString(180,210,BLUE,GRAY,
			(uint_8 *)myItoa(gFlashData.sendFrequencySec,mString,10));
    b76c:	4b9e      	ldr	r3, [pc, #632]	; (b9e8 <main+0xaf8>)
    b76e:	22a3      	movs	r2, #163	; 0xa3
    b770:	5c9a      	ldrb	r2, [r3, r2]
    b772:	21a4      	movs	r1, #164	; 0xa4
    b774:	5c59      	ldrb	r1, [r3, r1]
    b776:	0209      	lsls	r1, r1, #8
    b778:	430a      	orrs	r2, r1
    b77a:	21a5      	movs	r1, #165	; 0xa5
    b77c:	5c59      	ldrb	r1, [r3, r1]
    b77e:	0409      	lsls	r1, r1, #16
    b780:	430a      	orrs	r2, r1
    b782:	21a6      	movs	r1, #166	; 0xa6
    b784:	5c5b      	ldrb	r3, [r3, r1]
    b786:	061b      	lsls	r3, r3, #24
    b788:	4313      	orrs	r3, r2
    b78a:	0018      	movs	r0, r3
    b78c:	2310      	movs	r3, #16
    b78e:	18fb      	adds	r3, r7, r3
    b790:	191b      	adds	r3, r3, r4
    b792:	220a      	movs	r2, #10
    b794:	0019      	movs	r1, r3
    b796:	f001 fa39 	bl	cc0c <myItoa>
    b79a:	0003      	movs	r3, r0
E:\2017-2018\03_Graduation Project\04_Software\05_Wangshi\03_UpdateSoftware-180702\02_UEUser\KL36_Update-180627\Debug/../06_NosPrg/main.c:241
	LCD_ShowString(180,210,BLUE,GRAY,
    b79c:	4a8d      	ldr	r2, [pc, #564]	; (b9d4 <main+0xae4>)
    b79e:	9300      	str	r3, [sp, #0]
    b7a0:	0013      	movs	r3, r2
    b7a2:	221f      	movs	r2, #31
    b7a4:	21d2      	movs	r1, #210	; 0xd2
    b7a6:	20b4      	movs	r0, #180	; 0xb4
    b7a8:	f002 f9c6 	bl	db38 <LCD_ShowString>
E:\2017-2018\03_Graduation Project\04_Software\05_Wangshi\03_UpdateSoftware-180702\02_UEUser\KL36_Update-180627\Debug/../06_NosPrg/main.c:248
    //http1AC
//    http_get("122.112.217.197","88","http://122.112.217.197:88/AHL-location/FrameMessage.aspx?460,000,5280,e46a",datadd);
    //======================================================
    for(;;)
    {
    	mLoopCount++;
    b7ac:	2097      	movs	r0, #151	; 0x97
    b7ae:	00c0      	lsls	r0, r0, #3
    b7b0:	2310      	movs	r3, #16
    b7b2:	18fb      	adds	r3, r7, r3
    b7b4:	181b      	adds	r3, r3, r0
    b7b6:	685c      	ldr	r4, [r3, #4]
    b7b8:	681b      	ldr	r3, [r3, #0]
    b7ba:	2101      	movs	r1, #1
    b7bc:	2200      	movs	r2, #0
    b7be:	185b      	adds	r3, r3, r1
    b7c0:	4154      	adcs	r4, r2
    b7c2:	2210      	movs	r2, #16
    b7c4:	18ba      	adds	r2, r7, r2
    b7c6:	1812      	adds	r2, r2, r0
    b7c8:	6013      	str	r3, [r2, #0]
    b7ca:	6054      	str	r4, [r2, #4]
E:\2017-2018\03_Graduation Project\04_Software\05_Wangshi\03_UpdateSoftware-180702\02_UEUser\KL36_Update-180627\Debug/../06_NosPrg/main.c:250
        //1
        if (mSec!=gUserData.currentTime)    //1
    b7cc:	4b87      	ldr	r3, [pc, #540]	; (b9ec <main+0xafc>)
    b7ce:	2027      	movs	r0, #39	; 0x27
    b7d0:	5c18      	ldrb	r0, [r3, r0]
    b7d2:	2428      	movs	r4, #40	; 0x28
    b7d4:	5d1c      	ldrb	r4, [r3, r4]
    b7d6:	0224      	lsls	r4, r4, #8
    b7d8:	4320      	orrs	r0, r4
    b7da:	2429      	movs	r4, #41	; 0x29
    b7dc:	5d1c      	ldrb	r4, [r3, r4]
    b7de:	0424      	lsls	r4, r4, #16
    b7e0:	4320      	orrs	r0, r4
    b7e2:	242a      	movs	r4, #42	; 0x2a
    b7e4:	5d1c      	ldrb	r4, [r3, r4]
    b7e6:	0624      	lsls	r4, r4, #24
    b7e8:	4320      	orrs	r0, r4
    b7ea:	0001      	movs	r1, r0
    b7ec:	202b      	movs	r0, #43	; 0x2b
    b7ee:	5c18      	ldrb	r0, [r3, r0]
    b7f0:	242c      	movs	r4, #44	; 0x2c
    b7f2:	5d1c      	ldrb	r4, [r3, r4]
    b7f4:	0224      	lsls	r4, r4, #8
    b7f6:	4320      	orrs	r0, r4
    b7f8:	242d      	movs	r4, #45	; 0x2d
    b7fa:	5d1c      	ldrb	r4, [r3, r4]
    b7fc:	0424      	lsls	r4, r4, #16
    b7fe:	4320      	orrs	r0, r4
    b800:	242e      	movs	r4, #46	; 0x2e
    b802:	5d1b      	ldrb	r3, [r3, r4]
    b804:	061b      	lsls	r3, r3, #24
    b806:	4303      	orrs	r3, r0
    b808:	001a      	movs	r2, r3
    b80a:	239b      	movs	r3, #155	; 0x9b
    b80c:	00db      	lsls	r3, r3, #3
    b80e:	2010      	movs	r0, #16
    b810:	4684      	mov	ip, r0
    b812:	44bc      	add	ip, r7
    b814:	4463      	add	r3, ip
    b816:	681b      	ldr	r3, [r3, #0]
    b818:	428b      	cmp	r3, r1
    b81a:	d107      	bne.n	b82c <main+0x93c>
    b81c:	4b74      	ldr	r3, [pc, #464]	; (b9f0 <main+0xb00>)
    b81e:	2010      	movs	r0, #16
    b820:	4684      	mov	ip, r0
    b822:	44bc      	add	ip, r7
    b824:	4463      	add	r3, ip
    b826:	681b      	ldr	r3, [r3, #0]
    b828:	4293      	cmp	r3, r2
    b82a:	d070      	beq.n	b90e <main+0xa1e>
E:\2017-2018\03_Graduation Project\04_Software\05_Wangshi\03_UpdateSoftware-180702\02_UEUser\KL36_Update-180627\Debug/../06_NosPrg/main.c:253
        {
        	//1.1LCD
            mSec=gUserData.currentTime;   //mSec
    b82c:	4b6f      	ldr	r3, [pc, #444]	; (b9ec <main+0xafc>)
    b82e:	2027      	movs	r0, #39	; 0x27
    b830:	5c18      	ldrb	r0, [r3, r0]
    b832:	2428      	movs	r4, #40	; 0x28
    b834:	5d1c      	ldrb	r4, [r3, r4]
    b836:	0224      	lsls	r4, r4, #8
    b838:	4320      	orrs	r0, r4
    b83a:	2429      	movs	r4, #41	; 0x29
    b83c:	5d1c      	ldrb	r4, [r3, r4]
    b83e:	0424      	lsls	r4, r4, #16
    b840:	4320      	orrs	r0, r4
    b842:	242a      	movs	r4, #42	; 0x2a
    b844:	5d1c      	ldrb	r4, [r3, r4]
    b846:	0624      	lsls	r4, r4, #24
    b848:	4320      	orrs	r0, r4
    b84a:	0001      	movs	r1, r0
    b84c:	202b      	movs	r0, #43	; 0x2b
    b84e:	5c18      	ldrb	r0, [r3, r0]
    b850:	242c      	movs	r4, #44	; 0x2c
    b852:	5d1c      	ldrb	r4, [r3, r4]
    b854:	0224      	lsls	r4, r4, #8
    b856:	4320      	orrs	r0, r4
    b858:	242d      	movs	r4, #45	; 0x2d
    b85a:	5d1c      	ldrb	r4, [r3, r4]
    b85c:	0424      	lsls	r4, r4, #16
    b85e:	4320      	orrs	r0, r4
    b860:	242e      	movs	r4, #46	; 0x2e
    b862:	5d1b      	ldrb	r3, [r3, r4]
    b864:	061b      	lsls	r3, r3, #24
    b866:	4303      	orrs	r3, r0
    b868:	001a      	movs	r2, r3
    b86a:	239b      	movs	r3, #155	; 0x9b
    b86c:	00db      	lsls	r3, r3, #3
    b86e:	2010      	movs	r0, #16
    b870:	4684      	mov	ip, r0
    b872:	44bc      	add	ip, r7
    b874:	4463      	add	r3, ip
    b876:	6019      	str	r1, [r3, #0]
    b878:	605a      	str	r2, [r3, #4]
E:\2017-2018\03_Graduation Project\04_Software\05_Wangshi\03_UpdateSoftware-180702\02_UEUser\KL36_Update-180627\Debug/../06_NosPrg/main.c:255
    		//timeChange(gUserData.currentTime,gTime);    //
            LCDShowTime();    //LCD
    b87a:	f001 f877 	bl	c96c <LCDShowTime>
E:\2017-2018\03_Graduation Project\04_Software\05_Wangshi\03_UpdateSoftware-180702\02_UEUser\KL36_Update-180627\Debug/../06_NosPrg/main.c:257
            //1.2
            light_change(LIGHT_RED);           //
    b87e:	2005      	movs	r0, #5
    b880:	f001 feac 	bl	d5dc <light_change>
E:\2017-2018\03_Graduation Project\04_Software\05_Wangshi\03_UpdateSoftware-180702\02_UEUser\KL36_Update-180627\Debug/../06_NosPrg/main.c:259
            //1.3
            if(gUserData.currentTime%gFlashData.sendFrequencySec == 0 )   //
    b884:	4b59      	ldr	r3, [pc, #356]	; (b9ec <main+0xafc>)
    b886:	2227      	movs	r2, #39	; 0x27
    b888:	5c9a      	ldrb	r2, [r3, r2]
    b88a:	2128      	movs	r1, #40	; 0x28
    b88c:	5c59      	ldrb	r1, [r3, r1]
    b88e:	0209      	lsls	r1, r1, #8
    b890:	430a      	orrs	r2, r1
    b892:	2129      	movs	r1, #41	; 0x29
    b894:	5c59      	ldrb	r1, [r3, r1]
    b896:	0409      	lsls	r1, r1, #16
    b898:	430a      	orrs	r2, r1
    b89a:	212a      	movs	r1, #42	; 0x2a
    b89c:	5c59      	ldrb	r1, [r3, r1]
    b89e:	0609      	lsls	r1, r1, #24
    b8a0:	430a      	orrs	r2, r1
    b8a2:	0014      	movs	r4, r2
    b8a4:	222b      	movs	r2, #43	; 0x2b
    b8a6:	5c9a      	ldrb	r2, [r3, r2]
    b8a8:	212c      	movs	r1, #44	; 0x2c
    b8aa:	5c59      	ldrb	r1, [r3, r1]
    b8ac:	0209      	lsls	r1, r1, #8
    b8ae:	430a      	orrs	r2, r1
    b8b0:	212d      	movs	r1, #45	; 0x2d
    b8b2:	5c59      	ldrb	r1, [r3, r1]
    b8b4:	0409      	lsls	r1, r1, #16
    b8b6:	430a      	orrs	r2, r1
    b8b8:	212e      	movs	r1, #46	; 0x2e
    b8ba:	5c5b      	ldrb	r3, [r3, r1]
    b8bc:	061b      	lsls	r3, r3, #24
    b8be:	4313      	orrs	r3, r2
    b8c0:	001d      	movs	r5, r3
    b8c2:	4b49      	ldr	r3, [pc, #292]	; (b9e8 <main+0xaf8>)
    b8c4:	22a3      	movs	r2, #163	; 0xa3
    b8c6:	5c9a      	ldrb	r2, [r3, r2]
    b8c8:	21a4      	movs	r1, #164	; 0xa4
    b8ca:	5c59      	ldrb	r1, [r3, r1]
    b8cc:	0209      	lsls	r1, r1, #8
    b8ce:	430a      	orrs	r2, r1
    b8d0:	21a5      	movs	r1, #165	; 0xa5
    b8d2:	5c59      	ldrb	r1, [r3, r1]
    b8d4:	0409      	lsls	r1, r1, #16
    b8d6:	430a      	orrs	r2, r1
    b8d8:	21a6      	movs	r1, #166	; 0xa6
    b8da:	5c5b      	ldrb	r3, [r3, r1]
    b8dc:	061b      	lsls	r3, r3, #24
    b8de:	4313      	orrs	r3, r2
    b8e0:	603b      	str	r3, [r7, #0]
    b8e2:	2300      	movs	r3, #0
    b8e4:	607b      	str	r3, [r7, #4]
    b8e6:	683a      	ldr	r2, [r7, #0]
    b8e8:	687b      	ldr	r3, [r7, #4]
    b8ea:	0020      	movs	r0, r4
    b8ec:	0029      	movs	r1, r5
    b8ee:	f7fd fadf 	bl	8eb0 <__aeabi_uldivmod>
    b8f2:	001c      	movs	r4, r3
    b8f4:	0013      	movs	r3, r2
    b8f6:	0019      	movs	r1, r3
    b8f8:	0022      	movs	r2, r4
    b8fa:	000b      	movs	r3, r1
    b8fc:	4313      	orrs	r3, r2
    b8fe:	d106      	bne.n	b90e <main+0xa1e>
E:\2017-2018\03_Graduation Project\04_Software\05_Wangshi\03_UpdateSoftware-180702\02_UEUser\KL36_Update-180627\Debug/../06_NosPrg/main.c:261
            {
                mSendFlag = 1;
    b900:	4b3c      	ldr	r3, [pc, #240]	; (b9f4 <main+0xb04>)
    b902:	2210      	movs	r2, #16
    b904:	4694      	mov	ip, r2
    b906:	44bc      	add	ip, r7
    b908:	4463      	add	r3, ip
    b90a:	2201      	movs	r2, #1
    b90c:	701a      	strb	r2, [r3, #0]
E:\2017-2018\03_Graduation Project\04_Software\05_Wangshi\03_UpdateSoftware-180702\02_UEUser\KL36_Update-180627\Debug/../06_NosPrg/main.c:270
//            {
//                get_gnss();   //gnss
//            }
        }
        //2TSI
        if (mTsi != gUserData.touchNum)    //1
    b90e:	4b37      	ldr	r3, [pc, #220]	; (b9ec <main+0xafc>)
    b910:	22e8      	movs	r2, #232	; 0xe8
    b912:	5c9a      	ldrb	r2, [r3, r2]
    b914:	21e9      	movs	r1, #233	; 0xe9
    b916:	5c5b      	ldrb	r3, [r3, r1]
    b918:	021b      	lsls	r3, r3, #8
    b91a:	4313      	orrs	r3, r2
    b91c:	b29b      	uxth	r3, r3
    b91e:	001a      	movs	r2, r3
    b920:	4b35      	ldr	r3, [pc, #212]	; (b9f8 <main+0xb08>)
    b922:	2110      	movs	r1, #16
    b924:	468c      	mov	ip, r1
    b926:	44bc      	add	ip, r7
    b928:	4463      	add	r3, ip
    b92a:	681b      	ldr	r3, [r3, #0]
    b92c:	4293      	cmp	r3, r2
    b92e:	d024      	beq.n	b97a <main+0xa8a>
E:\2017-2018\03_Graduation Project\04_Software\05_Wangshi\03_UpdateSoftware-180702\02_UEUser\KL36_Update-180627\Debug/../06_NosPrg/main.c:273
        {
        	//2.1TSILCD
        	mTsi = gUserData.touchNum;
    b930:	4b2e      	ldr	r3, [pc, #184]	; (b9ec <main+0xafc>)
    b932:	22e8      	movs	r2, #232	; 0xe8
    b934:	5c9a      	ldrb	r2, [r3, r2]
    b936:	21e9      	movs	r1, #233	; 0xe9
    b938:	5c5b      	ldrb	r3, [r3, r1]
    b93a:	021b      	lsls	r3, r3, #8
    b93c:	4313      	orrs	r3, r2
    b93e:	b29b      	uxth	r3, r3
    b940:	4a2d      	ldr	r2, [pc, #180]	; (b9f8 <main+0xb08>)
    b942:	2110      	movs	r1, #16
    b944:	468c      	mov	ip, r1
    b946:	44bc      	add	ip, r7
    b948:	4462      	add	r2, ip
    b94a:	6013      	str	r3, [r2, #0]
E:\2017-2018\03_Graduation Project\04_Software\05_Wangshi\03_UpdateSoftware-180702\02_UEUser\KL36_Update-180627\Debug/../06_NosPrg/main.c:276
            //printf("TSI%d\n",gUserData.touchNum);
            //2.23
            if(gUserData.touchNum%3==0)
    b94c:	4b27      	ldr	r3, [pc, #156]	; (b9ec <main+0xafc>)
    b94e:	22e8      	movs	r2, #232	; 0xe8
    b950:	5c9a      	ldrb	r2, [r3, r2]
    b952:	21e9      	movs	r1, #233	; 0xe9
    b954:	5c5b      	ldrb	r3, [r3, r1]
    b956:	021b      	lsls	r3, r3, #8
    b958:	4313      	orrs	r3, r2
    b95a:	b29b      	uxth	r3, r3
    b95c:	2103      	movs	r1, #3
    b95e:	0018      	movs	r0, r3
    b960:	f7fd fa62 	bl	8e28 <__aeabi_uidivmod>
    b964:	000b      	movs	r3, r1
    b966:	b29b      	uxth	r3, r3
    b968:	2b00      	cmp	r3, #0
    b96a:	d106      	bne.n	b97a <main+0xa8a>
E:\2017-2018\03_Graduation Project\04_Software\05_Wangshi\03_UpdateSoftware-180702\02_UEUser\KL36_Update-180627\Debug/../06_NosPrg/main.c:277
                mSendFlag = 1;
    b96c:	4b21      	ldr	r3, [pc, #132]	; (b9f4 <main+0xb04>)
    b96e:	2210      	movs	r2, #16
    b970:	4694      	mov	ip, r2
    b972:	44bc      	add	ip, r7
    b974:	4463      	add	r3, ip
    b976:	2201      	movs	r2, #1
    b978:	701a      	strb	r2, [r3, #0]
E:\2017-2018\03_Graduation Project\04_Software\05_Wangshi\03_UpdateSoftware-180702\02_UEUser\KL36_Update-180627\Debug/../06_NosPrg/main.c:280
        }
        //3
        if(mSendFlag == 1)
    b97a:	4b1e      	ldr	r3, [pc, #120]	; (b9f4 <main+0xb04>)
    b97c:	2210      	movs	r2, #16
    b97e:	4694      	mov	ip, r2
    b980:	44bc      	add	ip, r7
    b982:	4463      	add	r3, ip
    b984:	781b      	ldrb	r3, [r3, #0]
    b986:	2b01      	cmp	r3, #1
    b988:	d000      	beq.n	b98c <main+0xa9c>
    b98a:	e129      	b.n	bbe0 <main+0xcf0>
E:\2017-2018\03_Graduation Project\04_Software\05_Wangshi\03_UpdateSoftware-180702\02_UEUser\KL36_Update-180627\Debug/../06_NosPrg/main.c:292
//            //(3.2) mSendData
//            if(mflag)  goto main_loop1;           //LCD
//            //UE
//            printf("H1-1002\n");
//            LCD_ShowString(4,300,BLUE,GRAY,"H1-1002");
            userData_get(&gUserData);        //gUserData
    b98c:	4b17      	ldr	r3, [pc, #92]	; (b9ec <main+0xafc>)
    b98e:	0018      	movs	r0, r3
    b990:	f000 fe1a 	bl	c5c8 <userData_get>
E:\2017-2018\03_Graduation Project\04_Software\05_Wangshi\03_UpdateSoftware-180702\02_UEUser\KL36_Update-180627\Debug/../06_NosPrg/main.c:294
            //
            if(gFrameCmd[0]=='U'&&gFrameCmd[1]=='0')
    b994:	4b19      	ldr	r3, [pc, #100]	; (b9fc <main+0xb0c>)
    b996:	781b      	ldrb	r3, [r3, #0]
    b998:	2b55      	cmp	r3, #85	; 0x55
    b99a:	d135      	bne.n	ba08 <main+0xb18>
E:\2017-2018\03_Graduation Project\04_Software\05_Wangshi\03_UpdateSoftware-180702\02_UEUser\KL36_Update-180627\Debug/../06_NosPrg/main.c:294 (discriminator 1)
    b99c:	4b17      	ldr	r3, [pc, #92]	; (b9fc <main+0xb0c>)
    b99e:	785b      	ldrb	r3, [r3, #1]
    b9a0:	2b30      	cmp	r3, #48	; 0x30
    b9a2:	d131      	bne.n	ba08 <main+0xb18>
E:\2017-2018\03_Graduation Project\04_Software\05_Wangshi\03_UpdateSoftware-180702\02_UEUser\KL36_Update-180627\Debug/../06_NosPrg/main.c:296
            {
            	mSendLen = mUserLen;
    b9a4:	4916      	ldr	r1, [pc, #88]	; (ba00 <main+0xb10>)
    b9a6:	2310      	movs	r3, #16
    b9a8:	18fb      	adds	r3, r7, r3
    b9aa:	185b      	adds	r3, r3, r1
    b9ac:	4a15      	ldr	r2, [pc, #84]	; (ba04 <main+0xb14>)
    b9ae:	2010      	movs	r0, #16
    b9b0:	4684      	mov	ip, r0
    b9b2:	44bc      	add	ip, r7
    b9b4:	4462      	add	r2, ip
    b9b6:	8812      	ldrh	r2, [r2, #0]
    b9b8:	801a      	strh	r2, [r3, #0]
E:\2017-2018\03_Graduation Project\04_Software\05_Wangshi\03_UpdateSoftware-180702\02_UEUser\KL36_Update-180627\Debug/../06_NosPrg/main.c:297
            	memcpy(mSendData,&gUserData,mSendLen);
    b9ba:	2310      	movs	r3, #16
    b9bc:	18fb      	adds	r3, r7, r3
    b9be:	185b      	adds	r3, r3, r1
    b9c0:	881a      	ldrh	r2, [r3, #0]
    b9c2:	490a      	ldr	r1, [pc, #40]	; (b9ec <main+0xafc>)
    b9c4:	2314      	movs	r3, #20
    b9c6:	18fb      	adds	r3, r7, r3
    b9c8:	0018      	movs	r0, r3
    b9ca:	f002 fc99 	bl	e300 <memcpy>
    b9ce:	e075      	b.n	babc <main+0xbcc>
    b9d0:	0000040f 	.word	0x0000040f
    b9d4:	00008430 	.word	0x00008430
    b9d8:	20000a0b 	.word	0x20000a0b
    b9dc:	20000a1a 	.word	0x20000a1a
    b9e0:	0000e52c 	.word	0x0000e52c
    b9e4:	0000e530 	.word	0x0000e530
    b9e8:	2000097c 	.word	0x2000097c
    b9ec:	20000e38 	.word	0x20000e38
    b9f0:	000004dc 	.word	0x000004dc
    b9f4:	000004d3 	.word	0x000004d3
    b9f8:	000004d4 	.word	0x000004d4
    b9fc:	20000f50 	.word	0x20000f50
    ba00:	000004b6 	.word	0x000004b6
    ba04:	000004a4 	.word	0x000004a4
E:\2017-2018\03_Graduation Project\04_Software\05_Wangshi\03_UpdateSoftware-180702\02_UEUser\KL36_Update-180627\Debug/../06_NosPrg/main.c:299
            }
            else if(gFrameCmd[0]=='U'&&gFrameCmd[1]=='1')
    ba08:	4bd9      	ldr	r3, [pc, #868]	; (bd70 <main+0xe80>)
    ba0a:	781b      	ldrb	r3, [r3, #0]
    ba0c:	2b55      	cmp	r3, #85	; 0x55
    ba0e:	d155      	bne.n	babc <main+0xbcc>
E:\2017-2018\03_Graduation Project\04_Software\05_Wangshi\03_UpdateSoftware-180702\02_UEUser\KL36_Update-180627\Debug/../06_NosPrg/main.c:299 (discriminator 1)
    ba10:	4bd7      	ldr	r3, [pc, #860]	; (bd70 <main+0xe80>)
    ba12:	785b      	ldrb	r3, [r3, #1]
    ba14:	2b31      	cmp	r3, #49	; 0x31
    ba16:	d151      	bne.n	babc <main+0xbcc>
E:\2017-2018\03_Graduation Project\04_Software\05_Wangshi\03_UpdateSoftware-180702\02_UEUser\KL36_Update-180627\Debug/../06_NosPrg/main.c:301
            {
            	memcpy(mSendData,gFrameCmd,2);
    ba18:	4bd6      	ldr	r3, [pc, #856]	; (bd74 <main+0xe84>)
    ba1a:	229c      	movs	r2, #156	; 0x9c
    ba1c:	00d2      	lsls	r2, r2, #3
    ba1e:	2110      	movs	r1, #16
    ba20:	468c      	mov	ip, r1
    ba22:	44bc      	add	ip, r7
    ba24:	4462      	add	r2, ip
    ba26:	18d2      	adds	r2, r2, r3
    ba28:	4bd1      	ldr	r3, [pc, #836]	; (bd70 <main+0xe80>)
    ba2a:	0010      	movs	r0, r2
    ba2c:	0019      	movs	r1, r3
    ba2e:	2302      	movs	r3, #2
    ba30:	001a      	movs	r2, r3
    ba32:	f002 fc65 	bl	e300 <memcpy>
E:\2017-2018\03_Graduation Project\04_Software\05_Wangshi\03_UpdateSoftware-180702\02_UEUser\KL36_Update-180627\Debug/../06_NosPrg/main.c:302
            	memcpy(mSendData+2,gUserData.IMSI,15);
    ba36:	2314      	movs	r3, #20
    ba38:	18fb      	adds	r3, r7, r3
    ba3a:	3302      	adds	r3, #2
    ba3c:	4ace      	ldr	r2, [pc, #824]	; (bd78 <main+0xe88>)
    ba3e:	0018      	movs	r0, r3
    ba40:	1d13      	adds	r3, r2, #4
    ba42:	220f      	movs	r2, #15
    ba44:	0019      	movs	r1, r3
    ba46:	f002 fc5b 	bl	e300 <memcpy>
E:\2017-2018\03_Graduation Project\04_Software\05_Wangshi\03_UpdateSoftware-180702\02_UEUser\KL36_Update-180627\Debug/../06_NosPrg/main.c:303
            	memcpy(mSendData+17,&gUserData.currentTime,8);
    ba4a:	2314      	movs	r3, #20
    ba4c:	18fb      	adds	r3, r7, r3
    ba4e:	3311      	adds	r3, #17
    ba50:	49ca      	ldr	r1, [pc, #808]	; (bd7c <main+0xe8c>)
    ba52:	2208      	movs	r2, #8
    ba54:	0018      	movs	r0, r3
    ba56:	f002 fc53 	bl	e300 <memcpy>
E:\2017-2018\03_Graduation Project\04_Software\05_Wangshi\03_UpdateSoftware-180702\02_UEUser\KL36_Update-180627\Debug/../06_NosPrg/main.c:304
            	memcpy(mSendData+25,&gUserData.mcuTemp,4);
    ba5a:	2314      	movs	r3, #20
    ba5c:	18fb      	adds	r3, r7, r3
    ba5e:	3319      	adds	r3, #25
    ba60:	49c7      	ldr	r1, [pc, #796]	; (bd80 <main+0xe90>)
    ba62:	2204      	movs	r2, #4
    ba64:	0018      	movs	r0, r3
    ba66:	f002 fc4b 	bl	e300 <memcpy>
E:\2017-2018\03_Graduation Project\04_Software\05_Wangshi\03_UpdateSoftware-180702\02_UEUser\KL36_Update-180627\Debug/../06_NosPrg/main.c:305
            	memcpy(mSendData+29,&gUserData.signalPower,1);
    ba6a:	2314      	movs	r3, #20
    ba6c:	18fb      	adds	r3, r7, r3
    ba6e:	331d      	adds	r3, #29
    ba70:	4ac1      	ldr	r2, [pc, #772]	; (bd78 <main+0xe88>)
    ba72:	21e5      	movs	r1, #229	; 0xe5
    ba74:	5c52      	ldrb	r2, [r2, r1]
    ba76:	701a      	strb	r2, [r3, #0]
E:\2017-2018\03_Graduation Project\04_Software\05_Wangshi\03_UpdateSoftware-180702\02_UEUser\KL36_Update-180627\Debug/../06_NosPrg/main.c:306
            	memcpy(mSendData+30,&gUserData.bright,2);
    ba78:	2314      	movs	r3, #20
    ba7a:	18fb      	adds	r3, r7, r3
    ba7c:	331e      	adds	r3, #30
    ba7e:	49c1      	ldr	r1, [pc, #772]	; (bd84 <main+0xe94>)
    ba80:	2202      	movs	r2, #2
    ba82:	0018      	movs	r0, r3
    ba84:	f002 fc3c 	bl	e300 <memcpy>
E:\2017-2018\03_Graduation Project\04_Software\05_Wangshi\03_UpdateSoftware-180702\02_UEUser\KL36_Update-180627\Debug/../06_NosPrg/main.c:307
            	memcpy(mSendData+32,&gUserData.touchNum,2);
    ba88:	2314      	movs	r3, #20
    ba8a:	18fb      	adds	r3, r7, r3
    ba8c:	3320      	adds	r3, #32
    ba8e:	49be      	ldr	r1, [pc, #760]	; (bd88 <main+0xe98>)
    ba90:	2202      	movs	r2, #2
    ba92:	0018      	movs	r0, r3
    ba94:	f002 fc34 	bl	e300 <memcpy>
E:\2017-2018\03_Graduation Project\04_Software\05_Wangshi\03_UpdateSoftware-180702\02_UEUser\KL36_Update-180627\Debug/../06_NosPrg/main.c:308
            	memcpy(mSendData+34,gUserData.lbs_location,25);
    ba98:	2314      	movs	r3, #20
    ba9a:	18fb      	adds	r3, r7, r3
    ba9c:	3322      	adds	r3, #34	; 0x22
    ba9e:	4ab6      	ldr	r2, [pc, #728]	; (bd78 <main+0xe88>)
    baa0:	21fe      	movs	r1, #254	; 0xfe
    baa2:	0018      	movs	r0, r3
    baa4:	1853      	adds	r3, r2, r1
    baa6:	2219      	movs	r2, #25
    baa8:	0019      	movs	r1, r3
    baaa:	f002 fc29 	bl	e300 <memcpy>
E:\2017-2018\03_Graduation Project\04_Software\05_Wangshi\03_UpdateSoftware-180702\02_UEUser\KL36_Update-180627\Debug/../06_NosPrg/main.c:309
                mSendLen = 59;
    baae:	4bb7      	ldr	r3, [pc, #732]	; (bd8c <main+0xe9c>)
    bab0:	2210      	movs	r2, #16
    bab2:	4694      	mov	ip, r2
    bab4:	44bc      	add	ip, r7
    bab6:	4463      	add	r3, ip
    bab8:	223b      	movs	r2, #59	; 0x3b
    baba:	801a      	strh	r2, [r3, #0]
E:\2017-2018\03_Graduation Project\04_Software\05_Wangshi\03_UpdateSoftware-180702\02_UEUser\KL36_Update-180627\Debug/../06_NosPrg/main.c:312
            }
            //3.3
            LCD_ShowString(105,150,BLUE,GRAY,"     ");
    babc:	4ab4      	ldr	r2, [pc, #720]	; (bd90 <main+0xea0>)
    babe:	4bb5      	ldr	r3, [pc, #724]	; (bd94 <main+0xea4>)
    bac0:	9300      	str	r3, [sp, #0]
    bac2:	0013      	movs	r3, r2
    bac4:	221f      	movs	r2, #31
    bac6:	2196      	movs	r1, #150	; 0x96
    bac8:	2069      	movs	r0, #105	; 0x69
    baca:	f002 f835 	bl	db38 <LCD_ShowString>
E:\2017-2018\03_Graduation Project\04_Software\05_Wangshi\03_UpdateSoftware-180702\02_UEUser\KL36_Update-180627\Debug/../06_NosPrg/main.c:313
            LCD_ShowString(105,150,BLUE,GRAY,(uint_8 *)myItoa(gUserData.signalPower,mString,10));
    bace:	4baa      	ldr	r3, [pc, #680]	; (bd78 <main+0xe88>)
    bad0:	22e5      	movs	r2, #229	; 0xe5
    bad2:	5c9b      	ldrb	r3, [r3, r2]
    bad4:	0018      	movs	r0, r3
    bad6:	23fc      	movs	r3, #252	; 0xfc
    bad8:	009b      	lsls	r3, r3, #2
    bada:	2210      	movs	r2, #16
    badc:	4694      	mov	ip, r2
    bade:	44bc      	add	ip, r7
    bae0:	4463      	add	r3, ip
    bae2:	220a      	movs	r2, #10
    bae4:	0019      	movs	r1, r3
    bae6:	f001 f891 	bl	cc0c <myItoa>
    baea:	0003      	movs	r3, r0
    baec:	4aa8      	ldr	r2, [pc, #672]	; (bd90 <main+0xea0>)
    baee:	9300      	str	r3, [sp, #0]
    baf0:	0013      	movs	r3, r2
    baf2:	221f      	movs	r2, #31
    baf4:	2196      	movs	r1, #150	; 0x96
    baf6:	2069      	movs	r0, #105	; 0x69
    baf8:	f002 f81e 	bl	db38 <LCD_ShowString>
E:\2017-2018\03_Graduation Project\04_Software\05_Wangshi\03_UpdateSoftware-180702\02_UEUser\KL36_Update-180627\Debug/../06_NosPrg/main.c:316
            //printf("%d\n",gUserData.signalPower);
            //3.4UE
            LCD_ShowString(4,300,BLUE,GRAY,"AHL Send .                  ");
    bafc:	4aa4      	ldr	r2, [pc, #656]	; (bd90 <main+0xea0>)
    bafe:	2396      	movs	r3, #150	; 0x96
    bb00:	0059      	lsls	r1, r3, #1
    bb02:	4ba5      	ldr	r3, [pc, #660]	; (bd98 <main+0xea8>)
    bb04:	9300      	str	r3, [sp, #0]
    bb06:	0013      	movs	r3, r2
    bb08:	221f      	movs	r2, #31
    bb0a:	2004      	movs	r0, #4
    bb0c:	f002 f814 	bl	db38 <LCD_ShowString>
E:\2017-2018\03_Graduation Project\04_Software\05_Wangshi\03_UpdateSoftware-180702\02_UEUser\KL36_Update-180627\Debug/../06_NosPrg/main.c:318
            //printf("AHL Send .\n");
            mflag = uecom_send(mSendLen,mSendData); //
    bb10:	4ba2      	ldr	r3, [pc, #648]	; (bd9c <main+0xeac>)
    bb12:	681b      	ldr	r3, [r3, #0]
    bb14:	4da2      	ldr	r5, [pc, #648]	; (bda0 <main+0xeb0>)
    bb16:	2210      	movs	r2, #16
    bb18:	18ba      	adds	r2, r7, r2
    bb1a:	1954      	adds	r4, r2, r5
    bb1c:	2214      	movs	r2, #20
    bb1e:	18b9      	adds	r1, r7, r2
    bb20:	4a9a      	ldr	r2, [pc, #616]	; (bd8c <main+0xe9c>)
    bb22:	2010      	movs	r0, #16
    bb24:	4684      	mov	ip, r0
    bb26:	44bc      	add	ip, r7
    bb28:	4462      	add	r2, ip
    bb2a:	8812      	ldrh	r2, [r2, #0]
    bb2c:	0010      	movs	r0, r2
    bb2e:	4798      	blx	r3
    bb30:	0003      	movs	r3, r0
    bb32:	7023      	strb	r3, [r4, #0]
E:\2017-2018\03_Graduation Project\04_Software\05_Wangshi\03_UpdateSoftware-180702\02_UEUser\KL36_Update-180627\Debug/../06_NosPrg/main.c:320
            //printf("AHL Send ..\n");
            LCD_ShowString(4,300,BLUE,GRAY,"AHL Send ..                 ");
    bb34:	4a96      	ldr	r2, [pc, #600]	; (bd90 <main+0xea0>)
    bb36:	2396      	movs	r3, #150	; 0x96
    bb38:	0059      	lsls	r1, r3, #1
    bb3a:	4b9a      	ldr	r3, [pc, #616]	; (bda4 <main+0xeb4>)
    bb3c:	9300      	str	r3, [sp, #0]
    bb3e:	0013      	movs	r3, r2
    bb40:	221f      	movs	r2, #31
    bb42:	2004      	movs	r0, #4
    bb44:	f001 fff8 	bl	db38 <LCD_ShowString>
E:\2017-2018\03_Graduation Project\04_Software\05_Wangshi\03_UpdateSoftware-180702\02_UEUser\KL36_Update-180627\Debug/../06_NosPrg/main.c:321
            if(mflag)  goto main_loop1;                   //LCD
    bb48:	2310      	movs	r3, #16
    bb4a:	18fb      	adds	r3, r7, r3
    bb4c:	195b      	adds	r3, r3, r5
    bb4e:	781b      	ldrb	r3, [r3, #0]
    bb50:	2b00      	cmp	r3, #0
    bb52:	d111      	bne.n	bb78 <main+0xc88>
E:\2017-2018\03_Graduation Project\04_Software\05_Wangshi\03_UpdateSoftware-180702\02_UEUser\KL36_Update-180627\Debug/../06_NosPrg/main.c:323
            //printf("AHL Send Successfully\n");
            LCD_ShowString(4,300,BLUE,GRAY,"AHL Send Successfully       ");
    bb54:	4a8e      	ldr	r2, [pc, #568]	; (bd90 <main+0xea0>)
    bb56:	2396      	movs	r3, #150	; 0x96
    bb58:	0059      	lsls	r1, r3, #1
    bb5a:	4b93      	ldr	r3, [pc, #588]	; (bda8 <main+0xeb8>)
    bb5c:	9300      	str	r3, [sp, #0]
    bb5e:	0013      	movs	r3, r2
    bb60:	221f      	movs	r2, #31
    bb62:	2004      	movs	r0, #4
    bb64:	f001 ffe8 	bl	db38 <LCD_ShowString>
E:\2017-2018\03_Graduation Project\04_Software\05_Wangshi\03_UpdateSoftware-180702\02_UEUser\KL36_Update-180627\Debug/../06_NosPrg/main.c:324
            mWaitSecond = 0;                     //
    bb68:	4b90      	ldr	r3, [pc, #576]	; (bdac <main+0xebc>)
    bb6a:	2210      	movs	r2, #16
    bb6c:	4694      	mov	ip, r2
    bb6e:	44bc      	add	ip, r7
    bb70:	4463      	add	r3, ip
    bb72:	2200      	movs	r2, #0
    bb74:	801a      	strh	r2, [r3, #0]
E:\2017-2018\03_Graduation Project\04_Software\05_Wangshi\03_UpdateSoftware-180702\02_UEUser\KL36_Update-180627\Debug/../06_NosPrg/main.c:325
            goto main_loop;
    bb76:	e02c      	b.n	bbd2 <main+0xce2>
E:\2017-2018\03_Graduation Project\04_Software\05_Wangshi\03_UpdateSoftware-180702\02_UEUser\KL36_Update-180627\Debug/../06_NosPrg/main.c:321
            if(mflag)  goto main_loop1;                   //LCD
    bb78:	46c0      	nop			; (mov r8, r8)
E:\2017-2018\03_Graduation Project\04_Software\05_Wangshi\03_UpdateSoftware-180702\02_UEUser\KL36_Update-180627\Debug/../06_NosPrg/main.c:328
        main_loop1:
        //
	    switch(mflag)
    bb7a:	4b89      	ldr	r3, [pc, #548]	; (bda0 <main+0xeb0>)
    bb7c:	2210      	movs	r2, #16
    bb7e:	4694      	mov	ip, r2
    bb80:	44bc      	add	ip, r7
    bb82:	4463      	add	r3, ip
    bb84:	781b      	ldrb	r3, [r3, #0]
    bb86:	2b01      	cmp	r3, #1
    bb88:	d002      	beq.n	bb90 <main+0xca0>
    bb8a:	2b02      	cmp	r3, #2
    bb8c:	d00b      	beq.n	bba6 <main+0xcb6>
    bb8e:	e015      	b.n	bbbc <main+0xccc>
E:\2017-2018\03_Graduation Project\04_Software\05_Wangshi\03_UpdateSoftware-180702\02_UEUser\KL36_Update-180627\Debug/../06_NosPrg/main.c:331
	    {
	        case 1:
	        	LCD_ShowString(4,300,BLUE,GRAY,"Send Error:Send Not Start   ");
    bb90:	4a7f      	ldr	r2, [pc, #508]	; (bd90 <main+0xea0>)
    bb92:	2396      	movs	r3, #150	; 0x96
    bb94:	0059      	lsls	r1, r3, #1
    bb96:	4b86      	ldr	r3, [pc, #536]	; (bdb0 <main+0xec0>)
    bb98:	9300      	str	r3, [sp, #0]
    bb9a:	0013      	movs	r3, r2
    bb9c:	221f      	movs	r2, #31
    bb9e:	2004      	movs	r0, #4
    bba0:	f001 ffca 	bl	db38 <LCD_ShowString>
E:\2017-2018\03_Graduation Project\04_Software\05_Wangshi\03_UpdateSoftware-180702\02_UEUser\KL36_Update-180627\Debug/../06_NosPrg/main.c:333
	        	//printf("Send Error:Send Not Start\n");
	        	break;
    bba4:	e00a      	b.n	bbbc <main+0xccc>
E:\2017-2018\03_Graduation Project\04_Software\05_Wangshi\03_UpdateSoftware-180702\02_UEUser\KL36_Update-180627\Debug/../06_NosPrg/main.c:335
	        case 2:
	        	LCD_ShowString(4,300,BLUE,GRAY,"Send Error:Send Data Not OK ");
    bba6:	4a7a      	ldr	r2, [pc, #488]	; (bd90 <main+0xea0>)
    bba8:	2396      	movs	r3, #150	; 0x96
    bbaa:	0059      	lsls	r1, r3, #1
    bbac:	4b81      	ldr	r3, [pc, #516]	; (bdb4 <main+0xec4>)
    bbae:	9300      	str	r3, [sp, #0]
    bbb0:	0013      	movs	r3, r2
    bbb2:	221f      	movs	r2, #31
    bbb4:	2004      	movs	r0, #4
    bbb6:	f001 ffbf 	bl	db38 <LCD_ShowString>
E:\2017-2018\03_Graduation Project\04_Software\05_Wangshi\03_UpdateSoftware-180702\02_UEUser\KL36_Update-180627\Debug/../06_NosPrg/main.c:337
	        	//printf("Send Error:Send Data Not OK\n");
	        	break;
    bbba:	46c0      	nop			; (mov r8, r8)
E:\2017-2018\03_Graduation Project\04_Software\05_Wangshi\03_UpdateSoftware-180702\02_UEUser\KL36_Update-180627\Debug/../06_NosPrg/main.c:339
	    }
            uecom_init(mRetdata,gFlashData.serverIP,gFlashData.serverPort);//
    bbbc:	4b7e      	ldr	r3, [pc, #504]	; (bdb8 <main+0xec8>)
    bbbe:	681b      	ldr	r3, [r3, #0]
    bbc0:	4a7e      	ldr	r2, [pc, #504]	; (bdbc <main+0xecc>)
    bbc2:	497f      	ldr	r1, [pc, #508]	; (bdc0 <main+0xed0>)
    bbc4:	487f      	ldr	r0, [pc, #508]	; (bdc4 <main+0xed4>)
    bbc6:	2410      	movs	r4, #16
    bbc8:	46a4      	mov	ip, r4
    bbca:	44bc      	add	ip, r7
    bbcc:	4460      	add	r0, ip
    bbce:	4798      	blx	r3
E:\2017-2018\03_Graduation Project\04_Software\05_Wangshi\03_UpdateSoftware-180702\02_UEUser\KL36_Update-180627\Debug/../06_NosPrg/main.c:340
            goto main_loop;
    bbd0:	46c0      	nop			; (mov r8, r8)
E:\2017-2018\03_Graduation Project\04_Software\05_Wangshi\03_UpdateSoftware-180702\02_UEUser\KL36_Update-180627\Debug/../06_NosPrg/main.c:342
        main_loop:
            mSendFlag = 0;         //
    bbd2:	4b7d      	ldr	r3, [pc, #500]	; (bdc8 <main+0xed8>)
    bbd4:	2210      	movs	r2, #16
    bbd6:	4694      	mov	ip, r2
    bbd8:	44bc      	add	ip, r7
    bbda:	4463      	add	r3, ip
    bbdc:	2200      	movs	r2, #0
    bbde:	701a      	strb	r2, [r3, #0]
E:\2017-2018\03_Graduation Project\04_Software\05_Wangshi\03_UpdateSoftware-180702\02_UEUser\KL36_Update-180627\Debug/../06_NosPrg/main.c:345
        }
        //4
        if(gRecvLength != 0)
    bbe0:	4b7a      	ldr	r3, [pc, #488]	; (bdcc <main+0xedc>)
    bbe2:	881b      	ldrh	r3, [r3, #0]
    bbe4:	2b00      	cmp	r3, #0
    bbe6:	d100      	bne.n	bbea <main+0xcfa>
    bbe8:	e354      	b.n	c294 <main+0x13a4>
E:\2017-2018\03_Graduation Project\04_Software\05_Wangshi\03_UpdateSoftware-180702\02_UEUser\KL36_Update-180627\Debug/../06_NosPrg/main.c:347
        {
        	mRecvCount++;
    bbea:	2099      	movs	r0, #153	; 0x99
    bbec:	00c0      	lsls	r0, r0, #3
    bbee:	2310      	movs	r3, #16
    bbf0:	18fb      	adds	r3, r7, r3
    bbf2:	181b      	adds	r3, r3, r0
    bbf4:	685c      	ldr	r4, [r3, #4]
    bbf6:	681b      	ldr	r3, [r3, #0]
    bbf8:	2101      	movs	r1, #1
    bbfa:	2200      	movs	r2, #0
    bbfc:	185b      	adds	r3, r3, r1
    bbfe:	4154      	adcs	r4, r2
    bc00:	2210      	movs	r2, #16
    bc02:	18ba      	adds	r2, r7, r2
    bc04:	1812      	adds	r2, r2, r0
    bc06:	6013      	str	r3, [r2, #0]
    bc08:	6054      	str	r4, [r2, #4]
E:\2017-2018\03_Graduation Project\04_Software\05_Wangshi\03_UpdateSoftware-180702\02_UEUser\KL36_Update-180627\Debug/../06_NosPrg/main.c:348
        	LCD_ShowString(90,249,BLUE,GRAY,myItoa(mRecvCount,mString,10));
    bc0a:	2310      	movs	r3, #16
    bc0c:	18fb      	adds	r3, r7, r3
    bc0e:	181b      	adds	r3, r3, r0
    bc10:	681b      	ldr	r3, [r3, #0]
    bc12:	22fc      	movs	r2, #252	; 0xfc
    bc14:	0092      	lsls	r2, r2, #2
    bc16:	2110      	movs	r1, #16
    bc18:	1879      	adds	r1, r7, r1
    bc1a:	1889      	adds	r1, r1, r2
    bc1c:	220a      	movs	r2, #10
    bc1e:	0018      	movs	r0, r3
    bc20:	f000 fff4 	bl	cc0c <myItoa>
    bc24:	0003      	movs	r3, r0
    bc26:	4a5a      	ldr	r2, [pc, #360]	; (bd90 <main+0xea0>)
    bc28:	9300      	str	r3, [sp, #0]
    bc2a:	0013      	movs	r3, r2
    bc2c:	221f      	movs	r2, #31
    bc2e:	21f9      	movs	r1, #249	; 0xf9
    bc30:	205a      	movs	r0, #90	; 0x5a
    bc32:	f001 ff81 	bl	db38 <LCD_ShowString>
E:\2017-2018\03_Graduation Project\04_Software\05_Wangshi\03_UpdateSoftware-180702\02_UEUser\KL36_Update-180627\Debug/../06_NosPrg/main.c:349
        	LCD_ShowString(4,300,BLUE,GRAY,"AHL Recv one frame                 ");
    bc36:	4a56      	ldr	r2, [pc, #344]	; (bd90 <main+0xea0>)
    bc38:	2396      	movs	r3, #150	; 0x96
    bc3a:	0059      	lsls	r1, r3, #1
    bc3c:	4b64      	ldr	r3, [pc, #400]	; (bdd0 <main+0xee0>)
    bc3e:	9300      	str	r3, [sp, #0]
    bc40:	0013      	movs	r3, r2
    bc42:	221f      	movs	r2, #31
    bc44:	2004      	movs	r0, #4
    bc46:	f001 ff77 	bl	db38 <LCD_ShowString>
E:\2017-2018\03_Graduation Project\04_Software\05_Wangshi\03_UpdateSoftware-180702\02_UEUser\KL36_Update-180627\Debug/../06_NosPrg/main.c:350
        	mflag = 0xff;
    bc4a:	4b55      	ldr	r3, [pc, #340]	; (bda0 <main+0xeb0>)
    bc4c:	2210      	movs	r2, #16
    bc4e:	4694      	mov	ip, r2
    bc50:	44bc      	add	ip, r7
    bc52:	4463      	add	r3, ip
    bc54:	22ff      	movs	r2, #255	; 0xff
    bc56:	701a      	strb	r2, [r3, #0]
E:\2017-2018\03_Graduation Project\04_Software\05_Wangshi\03_UpdateSoftware-180702\02_UEUser\KL36_Update-180627\Debug/../06_NosPrg/main.c:351
        	mSendLen = 0;
    bc58:	4b4c      	ldr	r3, [pc, #304]	; (bd8c <main+0xe9c>)
    bc5a:	2210      	movs	r2, #16
    bc5c:	4694      	mov	ip, r2
    bc5e:	44bc      	add	ip, r7
    bc60:	4463      	add	r3, ip
    bc62:	2200      	movs	r2, #0
    bc64:	801a      	strh	r2, [r3, #0]
E:\2017-2018\03_Graduation Project\04_Software\05_Wangshi\03_UpdateSoftware-180702\02_UEUser\KL36_Update-180627\Debug/../06_NosPrg/main.c:352
        	memcpy(mCmd,gRecvBuf,2);
    bc66:	24fb      	movs	r4, #251	; 0xfb
    bc68:	00a4      	lsls	r4, r4, #2
    bc6a:	2310      	movs	r3, #16
    bc6c:	18fb      	adds	r3, r7, r3
    bc6e:	191a      	adds	r2, r3, r4
    bc70:	4b58      	ldr	r3, [pc, #352]	; (bdd4 <main+0xee4>)
    bc72:	0010      	movs	r0, r2
    bc74:	0019      	movs	r1, r3
    bc76:	2302      	movs	r3, #2
    bc78:	001a      	movs	r2, r3
    bc7a:	f002 fb41 	bl	e300 <memcpy>
E:\2017-2018\03_Graduation Project\04_Software\05_Wangshi\03_UpdateSoftware-180702\02_UEUser\KL36_Update-180627\Debug/../06_NosPrg/main.c:353
        	memcpy(mSendData,gRecvBuf,2);
    bc7e:	4955      	ldr	r1, [pc, #340]	; (bdd4 <main+0xee4>)
    bc80:	2314      	movs	r3, #20
    bc82:	18fb      	adds	r3, r7, r3
    bc84:	2202      	movs	r2, #2
    bc86:	0018      	movs	r0, r3
    bc88:	f002 fb3a 	bl	e300 <memcpy>
E:\2017-2018\03_Graduation Project\04_Software\05_Wangshi\03_UpdateSoftware-180702\02_UEUser\KL36_Update-180627\Debug/../06_NosPrg/main.c:354
			if(mCmd[0]=='A'&&mCmd[1]=='0')          //flash
    bc8c:	2310      	movs	r3, #16
    bc8e:	18fb      	adds	r3, r7, r3
    bc90:	191b      	adds	r3, r3, r4
    bc92:	781b      	ldrb	r3, [r3, #0]
    bc94:	2b41      	cmp	r3, #65	; 0x41
    bc96:	d120      	bne.n	bcda <main+0xdea>
E:\2017-2018\03_Graduation Project\04_Software\05_Wangshi\03_UpdateSoftware-180702\02_UEUser\KL36_Update-180627\Debug/../06_NosPrg/main.c:354 (discriminator 1)
    bc98:	23fb      	movs	r3, #251	; 0xfb
    bc9a:	009b      	lsls	r3, r3, #2
    bc9c:	2210      	movs	r2, #16
    bc9e:	4694      	mov	ip, r2
    bca0:	44bc      	add	ip, r7
    bca2:	4463      	add	r3, ip
    bca4:	785b      	ldrb	r3, [r3, #1]
    bca6:	2b30      	cmp	r3, #48	; 0x30
    bca8:	d117      	bne.n	bcda <main+0xdea>
E:\2017-2018\03_Graduation Project\04_Software\05_Wangshi\03_UpdateSoftware-180702\02_UEUser\KL36_Update-180627\Debug/../06_NosPrg/main.c:356
			{
				mSendLen = mFlashLen+2;
    bcaa:	4b38      	ldr	r3, [pc, #224]	; (bd8c <main+0xe9c>)
    bcac:	2210      	movs	r2, #16
    bcae:	4694      	mov	ip, r2
    bcb0:	44bc      	add	ip, r7
    bcb2:	4463      	add	r3, ip
    bcb4:	4948      	ldr	r1, [pc, #288]	; (bdd8 <main+0xee8>)
    bcb6:	2210      	movs	r2, #16
    bcb8:	18ba      	adds	r2, r7, r2
    bcba:	1852      	adds	r2, r2, r1
    bcbc:	8812      	ldrh	r2, [r2, #0]
    bcbe:	3202      	adds	r2, #2
    bcc0:	801a      	strh	r2, [r3, #0]
E:\2017-2018\03_Graduation Project\04_Software\05_Wangshi\03_UpdateSoftware-180702\02_UEUser\KL36_Update-180627\Debug/../06_NosPrg/main.c:357
	        	memcpy(mSendData+2,(uint_8*)(&gFlashData),mFlashLen);
    bcc2:	2314      	movs	r3, #20
    bcc4:	18fb      	adds	r3, r7, r3
    bcc6:	3302      	adds	r3, #2
    bcc8:	2210      	movs	r2, #16
    bcca:	18ba      	adds	r2, r7, r2
    bccc:	1852      	adds	r2, r2, r1
    bcce:	8812      	ldrh	r2, [r2, #0]
    bcd0:	4942      	ldr	r1, [pc, #264]	; (bddc <main+0xeec>)
    bcd2:	0018      	movs	r0, r3
    bcd4:	f002 fb14 	bl	e300 <memcpy>
    bcd8:	e225      	b.n	c126 <main+0x1236>
E:\2017-2018\03_Graduation Project\04_Software\05_Wangshi\03_UpdateSoftware-180702\02_UEUser\KL36_Update-180627\Debug/../06_NosPrg/main.c:359
			}
			else if(mCmd[0]=='A'&&mCmd[1]=='1')  //flash
    bcda:	23fb      	movs	r3, #251	; 0xfb
    bcdc:	009b      	lsls	r3, r3, #2
    bcde:	2210      	movs	r2, #16
    bce0:	4694      	mov	ip, r2
    bce2:	44bc      	add	ip, r7
    bce4:	4463      	add	r3, ip
    bce6:	781b      	ldrb	r3, [r3, #0]
    bce8:	2b41      	cmp	r3, #65	; 0x41
    bcea:	d11b      	bne.n	bd24 <main+0xe34>
E:\2017-2018\03_Graduation Project\04_Software\05_Wangshi\03_UpdateSoftware-180702\02_UEUser\KL36_Update-180627\Debug/../06_NosPrg/main.c:359 (discriminator 1)
    bcec:	23fb      	movs	r3, #251	; 0xfb
    bcee:	009b      	lsls	r3, r3, #2
    bcf0:	2210      	movs	r2, #16
    bcf2:	4694      	mov	ip, r2
    bcf4:	44bc      	add	ip, r7
    bcf6:	4463      	add	r3, ip
    bcf8:	785b      	ldrb	r3, [r3, #1]
    bcfa:	2b31      	cmp	r3, #49	; 0x31
    bcfc:	d112      	bne.n	bd24 <main+0xe34>
E:\2017-2018\03_Graduation Project\04_Software\05_Wangshi\03_UpdateSoftware-180702\02_UEUser\KL36_Update-180627\Debug/../06_NosPrg/main.c:361
			{
				mSendLen = 145;
    bcfe:	4923      	ldr	r1, [pc, #140]	; (bd8c <main+0xe9c>)
    bd00:	2310      	movs	r3, #16
    bd02:	18fb      	adds	r3, r7, r3
    bd04:	185b      	adds	r3, r3, r1
    bd06:	2291      	movs	r2, #145	; 0x91
    bd08:	801a      	strh	r2, [r3, #0]
E:\2017-2018\03_Graduation Project\04_Software\05_Wangshi\03_UpdateSoftware-180702\02_UEUser\KL36_Update-180627\Debug/../06_NosPrg/main.c:362
	        	memcpy(mSendData+2,gFlashData.equipName,mSendLen-2);
    bd0a:	2314      	movs	r3, #20
    bd0c:	18fb      	adds	r3, r7, r3
    bd0e:	3302      	adds	r3, #2
    bd10:	2210      	movs	r2, #16
    bd12:	18ba      	adds	r2, r7, r2
    bd14:	1852      	adds	r2, r2, r1
    bd16:	8812      	ldrh	r2, [r2, #0]
    bd18:	3a02      	subs	r2, #2
    bd1a:	4930      	ldr	r1, [pc, #192]	; (bddc <main+0xeec>)
    bd1c:	0018      	movs	r0, r3
    bd1e:	f002 faef 	bl	e300 <memcpy>
    bd22:	e200      	b.n	c126 <main+0x1236>
E:\2017-2018\03_Graduation Project\04_Software\05_Wangshi\03_UpdateSoftware-180702\02_UEUser\KL36_Update-180627\Debug/../06_NosPrg/main.c:364
			}
			else if(mCmd[0]=='A'&&mCmd[1]=='2')  //flash
    bd24:	23fb      	movs	r3, #251	; 0xfb
    bd26:	009b      	lsls	r3, r3, #2
    bd28:	2210      	movs	r2, #16
    bd2a:	4694      	mov	ip, r2
    bd2c:	44bc      	add	ip, r7
    bd2e:	4463      	add	r3, ip
    bd30:	781b      	ldrb	r3, [r3, #0]
    bd32:	2b41      	cmp	r3, #65	; 0x41
    bd34:	d154      	bne.n	bde0 <main+0xef0>
E:\2017-2018\03_Graduation Project\04_Software\05_Wangshi\03_UpdateSoftware-180702\02_UEUser\KL36_Update-180627\Debug/../06_NosPrg/main.c:364 (discriminator 1)
    bd36:	23fb      	movs	r3, #251	; 0xfb
    bd38:	009b      	lsls	r3, r3, #2
    bd3a:	2210      	movs	r2, #16
    bd3c:	4694      	mov	ip, r2
    bd3e:	44bc      	add	ip, r7
    bd40:	4463      	add	r3, ip
    bd42:	785b      	ldrb	r3, [r3, #1]
    bd44:	2b32      	cmp	r3, #50	; 0x32
    bd46:	d14b      	bne.n	bde0 <main+0xef0>
E:\2017-2018\03_Graduation Project\04_Software\05_Wangshi\03_UpdateSoftware-180702\02_UEUser\KL36_Update-180627\Debug/../06_NosPrg/main.c:366
			{
				mSendLen = 22;
    bd48:	4910      	ldr	r1, [pc, #64]	; (bd8c <main+0xe9c>)
    bd4a:	2310      	movs	r3, #16
    bd4c:	18fb      	adds	r3, r7, r3
    bd4e:	185b      	adds	r3, r3, r1
    bd50:	2216      	movs	r2, #22
    bd52:	801a      	strh	r2, [r3, #0]
E:\2017-2018\03_Graduation Project\04_Software\05_Wangshi\03_UpdateSoftware-180702\02_UEUser\KL36_Update-180627\Debug/../06_NosPrg/main.c:367
	        	memcpy(mSendData+2,gFlashData.serverIP,mSendLen-2);
    bd54:	2314      	movs	r3, #20
    bd56:	18fb      	adds	r3, r7, r3
    bd58:	3302      	adds	r3, #2
    bd5a:	2210      	movs	r2, #16
    bd5c:	18ba      	adds	r2, r7, r2
    bd5e:	1852      	adds	r2, r2, r1
    bd60:	8812      	ldrh	r2, [r2, #0]
    bd62:	3a02      	subs	r2, #2
    bd64:	4916      	ldr	r1, [pc, #88]	; (bdc0 <main+0xed0>)
    bd66:	0018      	movs	r0, r3
    bd68:	f002 faca 	bl	e300 <memcpy>
    bd6c:	e1db      	b.n	c126 <main+0x1236>
    bd6e:	46c0      	nop			; (mov r8, r8)
    bd70:	20000f50 	.word	0x20000f50
    bd74:	fffffb24 	.word	0xfffffb24
    bd78:	20000e38 	.word	0x20000e38
    bd7c:	20000e5f 	.word	0x20000e5f
    bd80:	20000eeb 	.word	0x20000eeb
    bd84:	20000f1e 	.word	0x20000f1e
    bd88:	20000f20 	.word	0x20000f20
    bd8c:	000004b6 	.word	0x000004b6
    bd90:	00008430 	.word	0x00008430
    bd94:	0000e53c 	.word	0x0000e53c
    bd98:	0000e544 	.word	0x0000e544
    bd9c:	20000900 	.word	0x20000900
    bda0:	000004c6 	.word	0x000004c6
    bda4:	0000e564 	.word	0x0000e564
    bda8:	0000e584 	.word	0x0000e584
    bdac:	000004a6 	.word	0x000004a6
    bdb0:	0000e5a4 	.word	0x0000e5a4
    bdb4:	0000e5c4 	.word	0x0000e5c4
    bdb8:	20000970 	.word	0x20000970
    bdbc:	20000a1a 	.word	0x20000a1a
    bdc0:	20000a0b 	.word	0x20000a0b
    bdc4:	0000042c 	.word	0x0000042c
    bdc8:	000004d3 	.word	0x000004d3
    bdcc:	20000f52 	.word	0x20000f52
    bdd0:	0000e5e4 	.word	0x0000e5e4
    bdd4:	20000a28 	.word	0x20000a28
    bdd8:	000004a2 	.word	0x000004a2
    bddc:	2000097c 	.word	0x2000097c
E:\2017-2018\03_Graduation Project\04_Software\05_Wangshi\03_UpdateSoftware-180702\02_UEUser\KL36_Update-180627\Debug/../06_NosPrg/main.c:369
			}
			else if(mCmd[0]=='A'&&mCmd[1]=='3')  //flash
    bde0:	23fb      	movs	r3, #251	; 0xfb
    bde2:	009b      	lsls	r3, r3, #2
    bde4:	2210      	movs	r2, #16
    bde6:	4694      	mov	ip, r2
    bde8:	44bc      	add	ip, r7
    bdea:	4463      	add	r3, ip
    bdec:	781b      	ldrb	r3, [r3, #0]
    bdee:	2b41      	cmp	r3, #65	; 0x41
    bdf0:	d11b      	bne.n	be2a <main+0xf3a>
E:\2017-2018\03_Graduation Project\04_Software\05_Wangshi\03_UpdateSoftware-180702\02_UEUser\KL36_Update-180627\Debug/../06_NosPrg/main.c:369 (discriminator 1)
    bdf2:	23fb      	movs	r3, #251	; 0xfb
    bdf4:	009b      	lsls	r3, r3, #2
    bdf6:	2210      	movs	r2, #16
    bdf8:	4694      	mov	ip, r2
    bdfa:	44bc      	add	ip, r7
    bdfc:	4463      	add	r3, ip
    bdfe:	785b      	ldrb	r3, [r3, #1]
    be00:	2b33      	cmp	r3, #51	; 0x33
    be02:	d112      	bne.n	be2a <main+0xf3a>
E:\2017-2018\03_Graduation Project\04_Software\05_Wangshi\03_UpdateSoftware-180702\02_UEUser\KL36_Update-180627\Debug/../06_NosPrg/main.c:371
			{
				mSendLen = 10;
    be04:	49e0      	ldr	r1, [pc, #896]	; (c188 <main+0x1298>)
    be06:	2310      	movs	r3, #16
    be08:	18fb      	adds	r3, r7, r3
    be0a:	185b      	adds	r3, r3, r1
    be0c:	220a      	movs	r2, #10
    be0e:	801a      	strh	r2, [r3, #0]
E:\2017-2018\03_Graduation Project\04_Software\05_Wangshi\03_UpdateSoftware-180702\02_UEUser\KL36_Update-180627\Debug/../06_NosPrg/main.c:372
	        	memcpy(mSendData+2,(uint_8*)(&gFlashData.sendFrequencySec),mSendLen-2);
    be10:	2314      	movs	r3, #20
    be12:	18fb      	adds	r3, r7, r3
    be14:	3302      	adds	r3, #2
    be16:	2210      	movs	r2, #16
    be18:	18ba      	adds	r2, r7, r2
    be1a:	1852      	adds	r2, r2, r1
    be1c:	8812      	ldrh	r2, [r2, #0]
    be1e:	3a02      	subs	r2, #2
    be20:	49da      	ldr	r1, [pc, #872]	; (c18c <main+0x129c>)
    be22:	0018      	movs	r0, r3
    be24:	f002 fa6c 	bl	e300 <memcpy>
    be28:	e17d      	b.n	c126 <main+0x1236>
E:\2017-2018\03_Graduation Project\04_Software\05_Wangshi\03_UpdateSoftware-180702\02_UEUser\KL36_Update-180627\Debug/../06_NosPrg/main.c:374
			}
			else if(mCmd[0]=='B'&&mCmd[1]=='0')   //flash
    be2a:	23fb      	movs	r3, #251	; 0xfb
    be2c:	009b      	lsls	r3, r3, #2
    be2e:	2210      	movs	r2, #16
    be30:	4694      	mov	ip, r2
    be32:	44bc      	add	ip, r7
    be34:	4463      	add	r3, ip
    be36:	781b      	ldrb	r3, [r3, #0]
    be38:	2b42      	cmp	r3, #66	; 0x42
    be3a:	d12d      	bne.n	be98 <main+0xfa8>
E:\2017-2018\03_Graduation Project\04_Software\05_Wangshi\03_UpdateSoftware-180702\02_UEUser\KL36_Update-180627\Debug/../06_NosPrg/main.c:374 (discriminator 1)
    be3c:	23fb      	movs	r3, #251	; 0xfb
    be3e:	009b      	lsls	r3, r3, #2
    be40:	2210      	movs	r2, #16
    be42:	4694      	mov	ip, r2
    be44:	44bc      	add	ip, r7
    be46:	4463      	add	r3, ip
    be48:	785b      	ldrb	r3, [r3, #1]
    be4a:	2b30      	cmp	r3, #48	; 0x30
    be4c:	d124      	bne.n	be98 <main+0xfa8>
E:\2017-2018\03_Graduation Project\04_Software\05_Wangshi\03_UpdateSoftware-180702\02_UEUser\KL36_Update-180627\Debug/../06_NosPrg/main.c:376
			{
				memcpy((uint_8 *)(gFlashData.equipName),(uint_8*)&(gRecvBuf[2]),mFlashLen);
    be4e:	4bd0      	ldr	r3, [pc, #832]	; (c190 <main+0x12a0>)
    be50:	2210      	movs	r2, #16
    be52:	4694      	mov	ip, r2
    be54:	44bc      	add	ip, r7
    be56:	4463      	add	r3, ip
    be58:	881a      	ldrh	r2, [r3, #0]
    be5a:	49ce      	ldr	r1, [pc, #824]	; (c194 <main+0x12a4>)
    be5c:	4bce      	ldr	r3, [pc, #824]	; (c198 <main+0x12a8>)
    be5e:	0018      	movs	r0, r3
    be60:	f002 fa4e 	bl	e300 <memcpy>
E:\2017-2018\03_Graduation Project\04_Software\05_Wangshi\03_UpdateSoftware-180702\02_UEUser\KL36_Update-180627\Debug/../06_NosPrg/main.c:377
				mFlashFlag = 1;
    be64:	4bcd      	ldr	r3, [pc, #820]	; (c19c <main+0x12ac>)
    be66:	2210      	movs	r2, #16
    be68:	4694      	mov	ip, r2
    be6a:	44bc      	add	ip, r7
    be6c:	4463      	add	r3, ip
    be6e:	2201      	movs	r2, #1
    be70:	701a      	strb	r2, [r3, #0]
E:\2017-2018\03_Graduation Project\04_Software\05_Wangshi\03_UpdateSoftware-180702\02_UEUser\KL36_Update-180627\Debug/../06_NosPrg/main.c:378
				mSendLen = 9;
    be72:	49c5      	ldr	r1, [pc, #788]	; (c188 <main+0x1298>)
    be74:	2310      	movs	r3, #16
    be76:	18fb      	adds	r3, r7, r3
    be78:	185b      	adds	r3, r3, r1
    be7a:	2209      	movs	r2, #9
    be7c:	801a      	strh	r2, [r3, #0]
E:\2017-2018\03_Graduation Project\04_Software\05_Wangshi\03_UpdateSoftware-180702\02_UEUser\KL36_Update-180627\Debug/../06_NosPrg/main.c:379
	        	memcpy(mSendData+2,"success",mSendLen-2);
    be7e:	2314      	movs	r3, #20
    be80:	18fb      	adds	r3, r7, r3
    be82:	3302      	adds	r3, #2
    be84:	2210      	movs	r2, #16
    be86:	18ba      	adds	r2, r7, r2
    be88:	1852      	adds	r2, r2, r1
    be8a:	8812      	ldrh	r2, [r2, #0]
    be8c:	3a02      	subs	r2, #2
    be8e:	49c4      	ldr	r1, [pc, #784]	; (c1a0 <main+0x12b0>)
    be90:	0018      	movs	r0, r3
    be92:	f002 fa35 	bl	e300 <memcpy>
    be96:	e146      	b.n	c126 <main+0x1236>
E:\2017-2018\03_Graduation Project\04_Software\05_Wangshi\03_UpdateSoftware-180702\02_UEUser\KL36_Update-180627\Debug/../06_NosPrg/main.c:381
			}
			else if(mCmd[0]=='B'&&mCmd[1]=='1')  //flash
    be98:	23fb      	movs	r3, #251	; 0xfb
    be9a:	009b      	lsls	r3, r3, #2
    be9c:	2210      	movs	r2, #16
    be9e:	4694      	mov	ip, r2
    bea0:	44bc      	add	ip, r7
    bea2:	4463      	add	r3, ip
    bea4:	781b      	ldrb	r3, [r3, #0]
    bea6:	2b42      	cmp	r3, #66	; 0x42
    bea8:	d128      	bne.n	befc <main+0x100c>
E:\2017-2018\03_Graduation Project\04_Software\05_Wangshi\03_UpdateSoftware-180702\02_UEUser\KL36_Update-180627\Debug/../06_NosPrg/main.c:381 (discriminator 1)
    beaa:	23fb      	movs	r3, #251	; 0xfb
    beac:	009b      	lsls	r3, r3, #2
    beae:	2210      	movs	r2, #16
    beb0:	4694      	mov	ip, r2
    beb2:	44bc      	add	ip, r7
    beb4:	4463      	add	r3, ip
    beb6:	785b      	ldrb	r3, [r3, #1]
    beb8:	2b31      	cmp	r3, #49	; 0x31
    beba:	d11f      	bne.n	befc <main+0x100c>
E:\2017-2018\03_Graduation Project\04_Software\05_Wangshi\03_UpdateSoftware-180702\02_UEUser\KL36_Update-180627\Debug/../06_NosPrg/main.c:383
			{
				memcpy((uint_8 *)(gFlashData.equipName),(uint_8*)&(gRecvBuf[2]),124);
    bebc:	49b5      	ldr	r1, [pc, #724]	; (c194 <main+0x12a4>)
    bebe:	4bb6      	ldr	r3, [pc, #728]	; (c198 <main+0x12a8>)
    bec0:	227c      	movs	r2, #124	; 0x7c
    bec2:	0018      	movs	r0, r3
    bec4:	f002 fa1c 	bl	e300 <memcpy>
E:\2017-2018\03_Graduation Project\04_Software\05_Wangshi\03_UpdateSoftware-180702\02_UEUser\KL36_Update-180627\Debug/../06_NosPrg/main.c:384
				mFlashFlag = 1;
    bec8:	4bb4      	ldr	r3, [pc, #720]	; (c19c <main+0x12ac>)
    beca:	2210      	movs	r2, #16
    becc:	4694      	mov	ip, r2
    bece:	44bc      	add	ip, r7
    bed0:	4463      	add	r3, ip
    bed2:	2201      	movs	r2, #1
    bed4:	701a      	strb	r2, [r3, #0]
E:\2017-2018\03_Graduation Project\04_Software\05_Wangshi\03_UpdateSoftware-180702\02_UEUser\KL36_Update-180627\Debug/../06_NosPrg/main.c:385
				mSendLen = 9;
    bed6:	49ac      	ldr	r1, [pc, #688]	; (c188 <main+0x1298>)
    bed8:	2310      	movs	r3, #16
    beda:	18fb      	adds	r3, r7, r3
    bedc:	185b      	adds	r3, r3, r1
    bede:	2209      	movs	r2, #9
    bee0:	801a      	strh	r2, [r3, #0]
E:\2017-2018\03_Graduation Project\04_Software\05_Wangshi\03_UpdateSoftware-180702\02_UEUser\KL36_Update-180627\Debug/../06_NosPrg/main.c:386
	        	memcpy(mSendData+2,"success",mSendLen-2);
    bee2:	2314      	movs	r3, #20
    bee4:	18fb      	adds	r3, r7, r3
    bee6:	3302      	adds	r3, #2
    bee8:	2210      	movs	r2, #16
    beea:	18ba      	adds	r2, r7, r2
    beec:	1852      	adds	r2, r2, r1
    beee:	8812      	ldrh	r2, [r2, #0]
    bef0:	3a02      	subs	r2, #2
    bef2:	49ab      	ldr	r1, [pc, #684]	; (c1a0 <main+0x12b0>)
    bef4:	0018      	movs	r0, r3
    bef6:	f002 fa03 	bl	e300 <memcpy>
    befa:	e114      	b.n	c126 <main+0x1236>
E:\2017-2018\03_Graduation Project\04_Software\05_Wangshi\03_UpdateSoftware-180702\02_UEUser\KL36_Update-180627\Debug/../06_NosPrg/main.c:388
			}
			else if(mCmd[0]=='B'&&mCmd[1]=='2')  //flash
    befc:	23fb      	movs	r3, #251	; 0xfb
    befe:	009b      	lsls	r3, r3, #2
    bf00:	2210      	movs	r2, #16
    bf02:	4694      	mov	ip, r2
    bf04:	44bc      	add	ip, r7
    bf06:	4463      	add	r3, ip
    bf08:	781b      	ldrb	r3, [r3, #0]
    bf0a:	2b42      	cmp	r3, #66	; 0x42
    bf0c:	d128      	bne.n	bf60 <main+0x1070>
E:\2017-2018\03_Graduation Project\04_Software\05_Wangshi\03_UpdateSoftware-180702\02_UEUser\KL36_Update-180627\Debug/../06_NosPrg/main.c:388 (discriminator 1)
    bf0e:	23fb      	movs	r3, #251	; 0xfb
    bf10:	009b      	lsls	r3, r3, #2
    bf12:	2210      	movs	r2, #16
    bf14:	4694      	mov	ip, r2
    bf16:	44bc      	add	ip, r7
    bf18:	4463      	add	r3, ip
    bf1a:	785b      	ldrb	r3, [r3, #1]
    bf1c:	2b32      	cmp	r3, #50	; 0x32
    bf1e:	d11f      	bne.n	bf60 <main+0x1070>
E:\2017-2018\03_Graduation Project\04_Software\05_Wangshi\03_UpdateSoftware-180702\02_UEUser\KL36_Update-180627\Debug/../06_NosPrg/main.c:390
			{
				memcpy((uint_8 *)(gFlashData.serverIP),(uint_8*)&(gRecvBuf[2]),30);
    bf20:	499c      	ldr	r1, [pc, #624]	; (c194 <main+0x12a4>)
    bf22:	4ba0      	ldr	r3, [pc, #640]	; (c1a4 <main+0x12b4>)
    bf24:	221e      	movs	r2, #30
    bf26:	0018      	movs	r0, r3
    bf28:	f002 f9ea 	bl	e300 <memcpy>
E:\2017-2018\03_Graduation Project\04_Software\05_Wangshi\03_UpdateSoftware-180702\02_UEUser\KL36_Update-180627\Debug/../06_NosPrg/main.c:391
				mFlashFlag = 1;
    bf2c:	4b9b      	ldr	r3, [pc, #620]	; (c19c <main+0x12ac>)
    bf2e:	2210      	movs	r2, #16
    bf30:	4694      	mov	ip, r2
    bf32:	44bc      	add	ip, r7
    bf34:	4463      	add	r3, ip
    bf36:	2201      	movs	r2, #1
    bf38:	701a      	strb	r2, [r3, #0]
E:\2017-2018\03_Graduation Project\04_Software\05_Wangshi\03_UpdateSoftware-180702\02_UEUser\KL36_Update-180627\Debug/../06_NosPrg/main.c:392
				mSendLen = 9;
    bf3a:	4993      	ldr	r1, [pc, #588]	; (c188 <main+0x1298>)
    bf3c:	2310      	movs	r3, #16
    bf3e:	18fb      	adds	r3, r7, r3
    bf40:	185b      	adds	r3, r3, r1
    bf42:	2209      	movs	r2, #9
    bf44:	801a      	strh	r2, [r3, #0]
E:\2017-2018\03_Graduation Project\04_Software\05_Wangshi\03_UpdateSoftware-180702\02_UEUser\KL36_Update-180627\Debug/../06_NosPrg/main.c:393
	        	memcpy(mSendData+2,"success",mSendLen-2);
    bf46:	2314      	movs	r3, #20
    bf48:	18fb      	adds	r3, r7, r3
    bf4a:	3302      	adds	r3, #2
    bf4c:	2210      	movs	r2, #16
    bf4e:	18ba      	adds	r2, r7, r2
    bf50:	1852      	adds	r2, r2, r1
    bf52:	8812      	ldrh	r2, [r2, #0]
    bf54:	3a02      	subs	r2, #2
    bf56:	4992      	ldr	r1, [pc, #584]	; (c1a0 <main+0x12b0>)
    bf58:	0018      	movs	r0, r3
    bf5a:	f002 f9d1 	bl	e300 <memcpy>
    bf5e:	e0e2      	b.n	c126 <main+0x1236>
E:\2017-2018\03_Graduation Project\04_Software\05_Wangshi\03_UpdateSoftware-180702\02_UEUser\KL36_Update-180627\Debug/../06_NosPrg/main.c:395
			}
			else if(mCmd[0]=='B'&&mCmd[1]=='3')  //flash
    bf60:	23fb      	movs	r3, #251	; 0xfb
    bf62:	009b      	lsls	r3, r3, #2
    bf64:	2210      	movs	r2, #16
    bf66:	4694      	mov	ip, r2
    bf68:	44bc      	add	ip, r7
    bf6a:	4463      	add	r3, ip
    bf6c:	781b      	ldrb	r3, [r3, #0]
    bf6e:	2b42      	cmp	r3, #66	; 0x42
    bf70:	d128      	bne.n	bfc4 <main+0x10d4>
E:\2017-2018\03_Graduation Project\04_Software\05_Wangshi\03_UpdateSoftware-180702\02_UEUser\KL36_Update-180627\Debug/../06_NosPrg/main.c:395 (discriminator 1)
    bf72:	23fb      	movs	r3, #251	; 0xfb
    bf74:	009b      	lsls	r3, r3, #2
    bf76:	2210      	movs	r2, #16
    bf78:	4694      	mov	ip, r2
    bf7a:	44bc      	add	ip, r7
    bf7c:	4463      	add	r3, ip
    bf7e:	785b      	ldrb	r3, [r3, #1]
    bf80:	2b33      	cmp	r3, #51	; 0x33
    bf82:	d11f      	bne.n	bfc4 <main+0x10d4>
E:\2017-2018\03_Graduation Project\04_Software\05_Wangshi\03_UpdateSoftware-180702\02_UEUser\KL36_Update-180627\Debug/../06_NosPrg/main.c:397
			{
				memcpy((uint_8 *)(&gFlashData.sendFrequencySec),(uint_8*)&(gRecvBuf[2]),8);
    bf84:	4983      	ldr	r1, [pc, #524]	; (c194 <main+0x12a4>)
    bf86:	4b81      	ldr	r3, [pc, #516]	; (c18c <main+0x129c>)
    bf88:	2208      	movs	r2, #8
    bf8a:	0018      	movs	r0, r3
    bf8c:	f002 f9b8 	bl	e300 <memcpy>
E:\2017-2018\03_Graduation Project\04_Software\05_Wangshi\03_UpdateSoftware-180702\02_UEUser\KL36_Update-180627\Debug/../06_NosPrg/main.c:398
				mFlashFlag = 1;
    bf90:	4b82      	ldr	r3, [pc, #520]	; (c19c <main+0x12ac>)
    bf92:	2210      	movs	r2, #16
    bf94:	4694      	mov	ip, r2
    bf96:	44bc      	add	ip, r7
    bf98:	4463      	add	r3, ip
    bf9a:	2201      	movs	r2, #1
    bf9c:	701a      	strb	r2, [r3, #0]
E:\2017-2018\03_Graduation Project\04_Software\05_Wangshi\03_UpdateSoftware-180702\02_UEUser\KL36_Update-180627\Debug/../06_NosPrg/main.c:399
				mSendLen = 9;
    bf9e:	497a      	ldr	r1, [pc, #488]	; (c188 <main+0x1298>)
    bfa0:	2310      	movs	r3, #16
    bfa2:	18fb      	adds	r3, r7, r3
    bfa4:	185b      	adds	r3, r3, r1
    bfa6:	2209      	movs	r2, #9
    bfa8:	801a      	strh	r2, [r3, #0]
E:\2017-2018\03_Graduation Project\04_Software\05_Wangshi\03_UpdateSoftware-180702\02_UEUser\KL36_Update-180627\Debug/../06_NosPrg/main.c:400
	        	memcpy(mSendData+2,"success",mSendLen-2);
    bfaa:	2314      	movs	r3, #20
    bfac:	18fb      	adds	r3, r7, r3
    bfae:	3302      	adds	r3, #2
    bfb0:	2210      	movs	r2, #16
    bfb2:	18ba      	adds	r2, r7, r2
    bfb4:	1852      	adds	r2, r2, r1
    bfb6:	8812      	ldrh	r2, [r2, #0]
    bfb8:	3a02      	subs	r2, #2
    bfba:	4979      	ldr	r1, [pc, #484]	; (c1a0 <main+0x12b0>)
    bfbc:	0018      	movs	r0, r3
    bfbe:	f002 f99f 	bl	e300 <memcpy>
    bfc2:	e0b0      	b.n	c126 <main+0x1236>
E:\2017-2018\03_Graduation Project\04_Software\05_Wangshi\03_UpdateSoftware-180702\02_UEUser\KL36_Update-180627\Debug/../06_NosPrg/main.c:402
			}
			else if(mCmd[0]=='U'&&mCmd[1]=='0')
    bfc4:	23fb      	movs	r3, #251	; 0xfb
    bfc6:	009b      	lsls	r3, r3, #2
    bfc8:	2210      	movs	r2, #16
    bfca:	4694      	mov	ip, r2
    bfcc:	44bc      	add	ip, r7
    bfce:	4463      	add	r3, ip
    bfd0:	781b      	ldrb	r3, [r3, #0]
    bfd2:	2b55      	cmp	r3, #85	; 0x55
    bfd4:	d132      	bne.n	c03c <main+0x114c>
E:\2017-2018\03_Graduation Project\04_Software\05_Wangshi\03_UpdateSoftware-180702\02_UEUser\KL36_Update-180627\Debug/../06_NosPrg/main.c:402 (discriminator 1)
    bfd6:	23fb      	movs	r3, #251	; 0xfb
    bfd8:	009b      	lsls	r3, r3, #2
    bfda:	2210      	movs	r2, #16
    bfdc:	4694      	mov	ip, r2
    bfde:	44bc      	add	ip, r7
    bfe0:	4463      	add	r3, ip
    bfe2:	785b      	ldrb	r3, [r3, #1]
    bfe4:	2b30      	cmp	r3, #48	; 0x30
    bfe6:	d129      	bne.n	c03c <main+0x114c>
E:\2017-2018\03_Graduation Project\04_Software\05_Wangshi\03_UpdateSoftware-180702\02_UEUser\KL36_Update-180627\Debug/../06_NosPrg/main.c:404
			{
				memcpy(gFrameCmd,mCmd,2);
    bfe8:	4a6f      	ldr	r2, [pc, #444]	; (c1a8 <main+0x12b8>)
    bfea:	23fb      	movs	r3, #251	; 0xfb
    bfec:	009b      	lsls	r3, r3, #2
    bfee:	2110      	movs	r1, #16
    bff0:	468c      	mov	ip, r1
    bff2:	44bc      	add	ip, r7
    bff4:	4463      	add	r3, ip
    bff6:	0010      	movs	r0, r2
    bff8:	0019      	movs	r1, r3
    bffa:	2302      	movs	r3, #2
    bffc:	001a      	movs	r2, r3
    bffe:	f002 f97f 	bl	e300 <memcpy>
E:\2017-2018\03_Graduation Project\04_Software\05_Wangshi\03_UpdateSoftware-180702\02_UEUser\KL36_Update-180627\Debug/../06_NosPrg/main.c:405
				if(gRecvLength == mUserLen)   //
    c002:	4b6a      	ldr	r3, [pc, #424]	; (c1ac <main+0x12bc>)
    c004:	881b      	ldrh	r3, [r3, #0]
    c006:	4a6a      	ldr	r2, [pc, #424]	; (c1b0 <main+0x12c0>)
    c008:	2110      	movs	r1, #16
    c00a:	468c      	mov	ip, r1
    c00c:	44bc      	add	ip, r7
    c00e:	4462      	add	r2, ip
    c010:	8812      	ldrh	r2, [r2, #0]
    c012:	429a      	cmp	r2, r3
    c014:	d10a      	bne.n	c02c <main+0x113c>
E:\2017-2018\03_Graduation Project\04_Software\05_Wangshi\03_UpdateSoftware-180702\02_UEUser\KL36_Update-180627\Debug/../06_NosPrg/main.c:406
				    memcpy((uint_8*)(&gUserData),gRecvBuf,mUserLen);
    c016:	4b66      	ldr	r3, [pc, #408]	; (c1b0 <main+0x12c0>)
    c018:	2210      	movs	r2, #16
    c01a:	4694      	mov	ip, r2
    c01c:	44bc      	add	ip, r7
    c01e:	4463      	add	r3, ip
    c020:	881a      	ldrh	r2, [r3, #0]
    c022:	4964      	ldr	r1, [pc, #400]	; (c1b4 <main+0x12c4>)
    c024:	4b64      	ldr	r3, [pc, #400]	; (c1b8 <main+0x12c8>)
    c026:	0018      	movs	r0, r3
    c028:	f002 f96a 	bl	e300 <memcpy>
E:\2017-2018\03_Graduation Project\04_Software\05_Wangshi\03_UpdateSoftware-180702\02_UEUser\KL36_Update-180627\Debug/../06_NosPrg/main.c:407
				mLCDFlag=1;
    c02c:	4b63      	ldr	r3, [pc, #396]	; (c1bc <main+0x12cc>)
    c02e:	2210      	movs	r2, #16
    c030:	4694      	mov	ip, r2
    c032:	44bc      	add	ip, r7
    c034:	4463      	add	r3, ip
    c036:	2201      	movs	r2, #1
    c038:	701a      	strb	r2, [r3, #0]
    c03a:	e074      	b.n	c126 <main+0x1236>
E:\2017-2018\03_Graduation Project\04_Software\05_Wangshi\03_UpdateSoftware-180702\02_UEUser\KL36_Update-180627\Debug/../06_NosPrg/main.c:409
			}
			else if(mCmd[0]=='U'&&mCmd[1]=='1')
    c03c:	23fb      	movs	r3, #251	; 0xfb
    c03e:	009b      	lsls	r3, r3, #2
    c040:	2210      	movs	r2, #16
    c042:	4694      	mov	ip, r2
    c044:	44bc      	add	ip, r7
    c046:	4463      	add	r3, ip
    c048:	781b      	ldrb	r3, [r3, #0]
    c04a:	2b55      	cmp	r3, #85	; 0x55
    c04c:	d156      	bne.n	c0fc <main+0x120c>
E:\2017-2018\03_Graduation Project\04_Software\05_Wangshi\03_UpdateSoftware-180702\02_UEUser\KL36_Update-180627\Debug/../06_NosPrg/main.c:409 (discriminator 1)
    c04e:	23fb      	movs	r3, #251	; 0xfb
    c050:	009b      	lsls	r3, r3, #2
    c052:	2210      	movs	r2, #16
    c054:	4694      	mov	ip, r2
    c056:	44bc      	add	ip, r7
    c058:	4463      	add	r3, ip
    c05a:	785b      	ldrb	r3, [r3, #1]
    c05c:	2b31      	cmp	r3, #49	; 0x31
    c05e:	d14d      	bne.n	c0fc <main+0x120c>
E:\2017-2018\03_Graduation Project\04_Software\05_Wangshi\03_UpdateSoftware-180702\02_UEUser\KL36_Update-180627\Debug/../06_NosPrg/main.c:411
			{
				memcpy(gFrameCmd,mCmd,2);
    c060:	4a51      	ldr	r2, [pc, #324]	; (c1a8 <main+0x12b8>)
    c062:	23fb      	movs	r3, #251	; 0xfb
    c064:	009b      	lsls	r3, r3, #2
    c066:	2110      	movs	r1, #16
    c068:	468c      	mov	ip, r1
    c06a:	44bc      	add	ip, r7
    c06c:	4463      	add	r3, ip
    c06e:	0010      	movs	r0, r2
    c070:	0019      	movs	r1, r3
    c072:	2302      	movs	r3, #2
    c074:	001a      	movs	r2, r3
    c076:	f002 f943 	bl	e300 <memcpy>
E:\2017-2018\03_Graduation Project\04_Software\05_Wangshi\03_UpdateSoftware-180702\02_UEUser\KL36_Update-180627\Debug/../06_NosPrg/main.c:412
				if(gRecvLength == 59)
    c07a:	4b4c      	ldr	r3, [pc, #304]	; (c1ac <main+0x12bc>)
    c07c:	881b      	ldrh	r3, [r3, #0]
    c07e:	2b3b      	cmp	r3, #59	; 0x3b
    c080:	d134      	bne.n	c0ec <main+0x11fc>
E:\2017-2018\03_Graduation Project\04_Software\05_Wangshi\03_UpdateSoftware-180702\02_UEUser\KL36_Update-180627\Debug/../06_NosPrg/main.c:414
				{
	            	memcpy(gUserData.cmd,gRecvBuf,2);
    c082:	4a4d      	ldr	r2, [pc, #308]	; (c1b8 <main+0x12c8>)
    c084:	4b4b      	ldr	r3, [pc, #300]	; (c1b4 <main+0x12c4>)
    c086:	0010      	movs	r0, r2
    c088:	0019      	movs	r1, r3
    c08a:	2302      	movs	r3, #2
    c08c:	001a      	movs	r2, r3
    c08e:	f002 f937 	bl	e300 <memcpy>
E:\2017-2018\03_Graduation Project\04_Software\05_Wangshi\03_UpdateSoftware-180702\02_UEUser\KL36_Update-180627\Debug/../06_NosPrg/main.c:415
	            	memcpy(gUserData.IMSI,gRecvBuf+2,15);
    c092:	4a40      	ldr	r2, [pc, #256]	; (c194 <main+0x12a4>)
    c094:	4b48      	ldr	r3, [pc, #288]	; (c1b8 <main+0x12c8>)
    c096:	3304      	adds	r3, #4
    c098:	0011      	movs	r1, r2
    c09a:	220f      	movs	r2, #15
    c09c:	0018      	movs	r0, r3
    c09e:	f002 f92f 	bl	e300 <memcpy>
E:\2017-2018\03_Graduation Project\04_Software\05_Wangshi\03_UpdateSoftware-180702\02_UEUser\KL36_Update-180627\Debug/../06_NosPrg/main.c:416
	            	memcpy(&gUserData.currentTime,gRecvBuf+17,8);
    c0a2:	4947      	ldr	r1, [pc, #284]	; (c1c0 <main+0x12d0>)
    c0a4:	4b47      	ldr	r3, [pc, #284]	; (c1c4 <main+0x12d4>)
    c0a6:	2208      	movs	r2, #8
    c0a8:	0018      	movs	r0, r3
    c0aa:	f002 f929 	bl	e300 <memcpy>
E:\2017-2018\03_Graduation Project\04_Software\05_Wangshi\03_UpdateSoftware-180702\02_UEUser\KL36_Update-180627\Debug/../06_NosPrg/main.c:417
	            	memcpy(&gUserData.mcuTemp,gRecvBuf+25,4);
    c0ae:	4946      	ldr	r1, [pc, #280]	; (c1c8 <main+0x12d8>)
    c0b0:	4b46      	ldr	r3, [pc, #280]	; (c1cc <main+0x12dc>)
    c0b2:	2204      	movs	r2, #4
    c0b4:	0018      	movs	r0, r3
    c0b6:	f002 f923 	bl	e300 <memcpy>
E:\2017-2018\03_Graduation Project\04_Software\05_Wangshi\03_UpdateSoftware-180702\02_UEUser\KL36_Update-180627\Debug/../06_NosPrg/main.c:418
	            	memcpy(&gUserData.signalPower,gRecvBuf+29,1);
    c0ba:	4b45      	ldr	r3, [pc, #276]	; (c1d0 <main+0x12e0>)
    c0bc:	7819      	ldrb	r1, [r3, #0]
    c0be:	4b3e      	ldr	r3, [pc, #248]	; (c1b8 <main+0x12c8>)
    c0c0:	22e5      	movs	r2, #229	; 0xe5
    c0c2:	5499      	strb	r1, [r3, r2]
E:\2017-2018\03_Graduation Project\04_Software\05_Wangshi\03_UpdateSoftware-180702\02_UEUser\KL36_Update-180627\Debug/../06_NosPrg/main.c:419
	            	memcpy(&gUserData.bright,gRecvBuf+30,2);
    c0c4:	4943      	ldr	r1, [pc, #268]	; (c1d4 <main+0x12e4>)
    c0c6:	4b44      	ldr	r3, [pc, #272]	; (c1d8 <main+0x12e8>)
    c0c8:	2202      	movs	r2, #2
    c0ca:	0018      	movs	r0, r3
    c0cc:	f002 f918 	bl	e300 <memcpy>
E:\2017-2018\03_Graduation Project\04_Software\05_Wangshi\03_UpdateSoftware-180702\02_UEUser\KL36_Update-180627\Debug/../06_NosPrg/main.c:420
	            	memcpy(&gUserData.touchNum,gRecvBuf+32,2);
    c0d0:	4942      	ldr	r1, [pc, #264]	; (c1dc <main+0x12ec>)
    c0d2:	4b43      	ldr	r3, [pc, #268]	; (c1e0 <main+0x12f0>)
    c0d4:	2202      	movs	r2, #2
    c0d6:	0018      	movs	r0, r3
    c0d8:	f002 f912 	bl	e300 <memcpy>
E:\2017-2018\03_Graduation Project\04_Software\05_Wangshi\03_UpdateSoftware-180702\02_UEUser\KL36_Update-180627\Debug/../06_NosPrg/main.c:421
	            	memcpy(gUserData.lbs_location,gRecvBuf+34,25);
    c0dc:	4941      	ldr	r1, [pc, #260]	; (c1e4 <main+0x12f4>)
    c0de:	4b36      	ldr	r3, [pc, #216]	; (c1b8 <main+0x12c8>)
    c0e0:	22fe      	movs	r2, #254	; 0xfe
    c0e2:	189b      	adds	r3, r3, r2
    c0e4:	2219      	movs	r2, #25
    c0e6:	0018      	movs	r0, r3
    c0e8:	f002 f90a 	bl	e300 <memcpy>
E:\2017-2018\03_Graduation Project\04_Software\05_Wangshi\03_UpdateSoftware-180702\02_UEUser\KL36_Update-180627\Debug/../06_NosPrg/main.c:423
				}
				mLCDFlag=1;
    c0ec:	4b33      	ldr	r3, [pc, #204]	; (c1bc <main+0x12cc>)
    c0ee:	2210      	movs	r2, #16
    c0f0:	4694      	mov	ip, r2
    c0f2:	44bc      	add	ip, r7
    c0f4:	4463      	add	r3, ip
    c0f6:	2201      	movs	r2, #1
    c0f8:	701a      	strb	r2, [r3, #0]
    c0fa:	e014      	b.n	c126 <main+0x1236>
E:\2017-2018\03_Graduation Project\04_Software\05_Wangshi\03_UpdateSoftware-180702\02_UEUser\KL36_Update-180627\Debug/../06_NosPrg/main.c:427
			}
			else                             //
			{
				if(gRecvLength == mUserLen)   //
    c0fc:	4b2b      	ldr	r3, [pc, #172]	; (c1ac <main+0x12bc>)
    c0fe:	881b      	ldrh	r3, [r3, #0]
    c100:	4a2b      	ldr	r2, [pc, #172]	; (c1b0 <main+0x12c0>)
    c102:	2110      	movs	r1, #16
    c104:	468c      	mov	ip, r1
    c106:	44bc      	add	ip, r7
    c108:	4462      	add	r2, ip
    c10a:	8812      	ldrh	r2, [r2, #0]
    c10c:	429a      	cmp	r2, r3
    c10e:	d10a      	bne.n	c126 <main+0x1236>
E:\2017-2018\03_Graduation Project\04_Software\05_Wangshi\03_UpdateSoftware-180702\02_UEUser\KL36_Update-180627\Debug/../06_NosPrg/main.c:429
				{
					memcpy((uint_8*)(&gUserData),gRecvBuf,mUserLen);
    c110:	4b27      	ldr	r3, [pc, #156]	; (c1b0 <main+0x12c0>)
    c112:	2210      	movs	r2, #16
    c114:	4694      	mov	ip, r2
    c116:	44bc      	add	ip, r7
    c118:	4463      	add	r3, ip
    c11a:	881a      	ldrh	r2, [r3, #0]
    c11c:	4925      	ldr	r1, [pc, #148]	; (c1b4 <main+0x12c4>)
    c11e:	4b26      	ldr	r3, [pc, #152]	; (c1b8 <main+0x12c8>)
    c120:	0018      	movs	r0, r3
    c122:	f002 f8ed 	bl	e300 <memcpy>
E:\2017-2018\03_Graduation Project\04_Software\05_Wangshi\03_UpdateSoftware-180702\02_UEUser\KL36_Update-180627\Debug/../06_NosPrg/main.c:432
				}
			}
			if(mSendLen>0)     //
    c126:	4b18      	ldr	r3, [pc, #96]	; (c188 <main+0x1298>)
    c128:	2210      	movs	r2, #16
    c12a:	4694      	mov	ip, r2
    c12c:	44bc      	add	ip, r7
    c12e:	4463      	add	r3, ip
    c130:	881b      	ldrh	r3, [r3, #0]
    c132:	2b00      	cmp	r3, #0
    c134:	d011      	beq.n	c15a <main+0x126a>
E:\2017-2018\03_Graduation Project\04_Software\05_Wangshi\03_UpdateSoftware-180702\02_UEUser\KL36_Update-180627\Debug/../06_NosPrg/main.c:434
			{
				 mflag = uecom_send(mSendLen,mSendData); //
    c136:	4b2c      	ldr	r3, [pc, #176]	; (c1e8 <main+0x12f8>)
    c138:	681b      	ldr	r3, [r3, #0]
    c13a:	4a2c      	ldr	r2, [pc, #176]	; (c1ec <main+0x12fc>)
    c13c:	2110      	movs	r1, #16
    c13e:	1879      	adds	r1, r7, r1
    c140:	188c      	adds	r4, r1, r2
    c142:	2214      	movs	r2, #20
    c144:	18b9      	adds	r1, r7, r2
    c146:	4a10      	ldr	r2, [pc, #64]	; (c188 <main+0x1298>)
    c148:	2010      	movs	r0, #16
    c14a:	4684      	mov	ip, r0
    c14c:	44bc      	add	ip, r7
    c14e:	4462      	add	r2, ip
    c150:	8812      	ldrh	r2, [r2, #0]
    c152:	0010      	movs	r0, r2
    c154:	4798      	blx	r3
    c156:	0003      	movs	r3, r0
    c158:	7023      	strb	r3, [r4, #0]
E:\2017-2018\03_Graduation Project\04_Software\05_Wangshi\03_UpdateSoftware-180702\02_UEUser\KL36_Update-180627\Debug/../06_NosPrg/main.c:436
			}
            gRecvLength = 0;     //
    c15a:	4b14      	ldr	r3, [pc, #80]	; (c1ac <main+0x12bc>)
    c15c:	2200      	movs	r2, #0
    c15e:	801a      	strh	r2, [r3, #0]
E:\2017-2018\03_Graduation Project\04_Software\05_Wangshi\03_UpdateSoftware-180702\02_UEUser\KL36_Update-180627\Debug/../06_NosPrg/main.c:437
			if(mflag==0)
    c160:	4b22      	ldr	r3, [pc, #136]	; (c1ec <main+0x12fc>)
    c162:	2210      	movs	r2, #16
    c164:	4694      	mov	ip, r2
    c166:	44bc      	add	ip, r7
    c168:	4463      	add	r3, ip
    c16a:	781b      	ldrb	r3, [r3, #0]
    c16c:	2b00      	cmp	r3, #0
    c16e:	d143      	bne.n	c1f8 <main+0x1308>
E:\2017-2018\03_Graduation Project\04_Software\05_Wangshi\03_UpdateSoftware-180702\02_UEUser\KL36_Update-180627\Debug/../06_NosPrg/main.c:438
				LCD_ShowString(4,300,BLUE,GRAY,"AHL Send Successfully              ");
    c170:	4a1f      	ldr	r2, [pc, #124]	; (c1f0 <main+0x1300>)
    c172:	2396      	movs	r3, #150	; 0x96
    c174:	0059      	lsls	r1, r3, #1
    c176:	4b1f      	ldr	r3, [pc, #124]	; (c1f4 <main+0x1304>)
    c178:	9300      	str	r3, [sp, #0]
    c17a:	0013      	movs	r3, r2
    c17c:	221f      	movs	r2, #31
    c17e:	2004      	movs	r0, #4
    c180:	f001 fcda 	bl	db38 <LCD_ShowString>
    c184:	e055      	b.n	c232 <main+0x1342>
    c186:	46c0      	nop			; (mov r8, r8)
    c188:	000004b6 	.word	0x000004b6
    c18c:	20000a1f 	.word	0x20000a1f
    c190:	000004a2 	.word	0x000004a2
    c194:	20000a2a 	.word	0x20000a2a
    c198:	2000097c 	.word	0x2000097c
    c19c:	000004c5 	.word	0x000004c5
    c1a0:	0000e608 	.word	0x0000e608
    c1a4:	20000a0b 	.word	0x20000a0b
    c1a8:	20000f50 	.word	0x20000f50
    c1ac:	20000f52 	.word	0x20000f52
    c1b0:	000004a4 	.word	0x000004a4
    c1b4:	20000a28 	.word	0x20000a28
    c1b8:	20000e38 	.word	0x20000e38
    c1bc:	000004c4 	.word	0x000004c4
    c1c0:	20000a39 	.word	0x20000a39
    c1c4:	20000e5f 	.word	0x20000e5f
    c1c8:	20000a41 	.word	0x20000a41
    c1cc:	20000eeb 	.word	0x20000eeb
    c1d0:	20000a45 	.word	0x20000a45
    c1d4:	20000a46 	.word	0x20000a46
    c1d8:	20000f1e 	.word	0x20000f1e
    c1dc:	20000a48 	.word	0x20000a48
    c1e0:	20000f20 	.word	0x20000f20
    c1e4:	20000a4a 	.word	0x20000a4a
    c1e8:	20000900 	.word	0x20000900
    c1ec:	000004c6 	.word	0x000004c6
    c1f0:	00008430 	.word	0x00008430
    c1f4:	0000e610 	.word	0x0000e610
E:\2017-2018\03_Graduation Project\04_Software\05_Wangshi\03_UpdateSoftware-180702\02_UEUser\KL36_Update-180627\Debug/../06_NosPrg/main.c:439
			else if(mflag == 0xff)
    c1f8:	4b2d      	ldr	r3, [pc, #180]	; (c2b0 <main+0x13c0>)
    c1fa:	2210      	movs	r2, #16
    c1fc:	4694      	mov	ip, r2
    c1fe:	44bc      	add	ip, r7
    c200:	4463      	add	r3, ip
    c202:	781b      	ldrb	r3, [r3, #0]
    c204:	2bff      	cmp	r3, #255	; 0xff
    c206:	d10a      	bne.n	c21e <main+0x132e>
E:\2017-2018\03_Graduation Project\04_Software\05_Wangshi\03_UpdateSoftware-180702\02_UEUser\KL36_Update-180627\Debug/../06_NosPrg/main.c:440
				LCD_ShowString(4,300,BLUE,GRAY,"AHL Recv No Command         ");
    c208:	4a2a      	ldr	r2, [pc, #168]	; (c2b4 <main+0x13c4>)
    c20a:	2396      	movs	r3, #150	; 0x96
    c20c:	0059      	lsls	r1, r3, #1
    c20e:	4b2a      	ldr	r3, [pc, #168]	; (c2b8 <main+0x13c8>)
    c210:	9300      	str	r3, [sp, #0]
    c212:	0013      	movs	r3, r2
    c214:	221f      	movs	r2, #31
    c216:	2004      	movs	r0, #4
    c218:	f001 fc8e 	bl	db38 <LCD_ShowString>
    c21c:	e009      	b.n	c232 <main+0x1342>
E:\2017-2018\03_Graduation Project\04_Software\05_Wangshi\03_UpdateSoftware-180702\02_UEUser\KL36_Update-180627\Debug/../06_NosPrg/main.c:442
			else
				LCD_ShowString(4,300,BLUE,GRAY,"Send Error:Send Data Not OK ");
    c21e:	4a25      	ldr	r2, [pc, #148]	; (c2b4 <main+0x13c4>)
    c220:	2396      	movs	r3, #150	; 0x96
    c222:	0059      	lsls	r1, r3, #1
    c224:	4b25      	ldr	r3, [pc, #148]	; (c2bc <main+0x13cc>)
    c226:	9300      	str	r3, [sp, #0]
    c228:	0013      	movs	r3, r2
    c22a:	221f      	movs	r2, #31
    c22c:	2004      	movs	r0, #4
    c22e:	f001 fc83 	bl	db38 <LCD_ShowString>
E:\2017-2018\03_Graduation Project\04_Software\05_Wangshi\03_UpdateSoftware-180702\02_UEUser\KL36_Update-180627\Debug/../06_NosPrg/main.c:444
             //flash
             if(mFlashFlag == 1)
    c232:	4b23      	ldr	r3, [pc, #140]	; (c2c0 <main+0x13d0>)
    c234:	2210      	movs	r2, #16
    c236:	4694      	mov	ip, r2
    c238:	44bc      	add	ip, r7
    c23a:	4463      	add	r3, ip
    c23c:	781b      	ldrb	r3, [r3, #0]
    c23e:	2b01      	cmp	r3, #1
    c240:	d11e      	bne.n	c280 <main+0x1390>
E:\2017-2018\03_Graduation Project\04_Software\05_Wangshi\03_UpdateSoftware-180702\02_UEUser\KL36_Update-180627\Debug/../06_NosPrg/main.c:446
             {
         		flash_erase(63);
    c242:	4b20      	ldr	r3, [pc, #128]	; (c2c4 <main+0x13d4>)
    c244:	681b      	ldr	r3, [r3, #0]
    c246:	203f      	movs	r0, #63	; 0x3f
    c248:	4798      	blx	r3
E:\2017-2018\03_Graduation Project\04_Software\05_Wangshi\03_UpdateSoftware-180702\02_UEUser\KL36_Update-180627\Debug/../06_NosPrg/main.c:447
         		flash_write(63,0,mFlashLen,(uint_8*)(&gFlashData));
    c24a:	4b1f      	ldr	r3, [pc, #124]	; (c2c8 <main+0x13d8>)
    c24c:	681c      	ldr	r4, [r3, #0]
    c24e:	491f      	ldr	r1, [pc, #124]	; (c2cc <main+0x13dc>)
    c250:	4b1f      	ldr	r3, [pc, #124]	; (c2d0 <main+0x13e0>)
    c252:	2210      	movs	r2, #16
    c254:	4694      	mov	ip, r2
    c256:	44bc      	add	ip, r7
    c258:	4463      	add	r3, ip
    c25a:	881a      	ldrh	r2, [r3, #0]
    c25c:	000b      	movs	r3, r1
    c25e:	2100      	movs	r1, #0
    c260:	203f      	movs	r0, #63	; 0x3f
    c262:	47a0      	blx	r4
E:\2017-2018\03_Graduation Project\04_Software\05_Wangshi\03_UpdateSoftware-180702\02_UEUser\KL36_Update-180627\Debug/../06_NosPrg/main.c:448
         		mFlashFlag = 0;
    c264:	4b16      	ldr	r3, [pc, #88]	; (c2c0 <main+0x13d0>)
    c266:	2210      	movs	r2, #16
    c268:	4694      	mov	ip, r2
    c26a:	44bc      	add	ip, r7
    c26c:	4463      	add	r3, ip
    c26e:	2200      	movs	r2, #0
    c270:	701a      	strb	r2, [r3, #0]
E:\2017-2018\03_Graduation Project\04_Software\05_Wangshi\03_UpdateSoftware-180702\02_UEUser\KL36_Update-180627\Debug/../06_NosPrg/main.c:449
         		mLCDFlag=1;
    c272:	4b18      	ldr	r3, [pc, #96]	; (c2d4 <main+0x13e4>)
    c274:	2210      	movs	r2, #16
    c276:	4694      	mov	ip, r2
    c278:	44bc      	add	ip, r7
    c27a:	4463      	add	r3, ip
    c27c:	2201      	movs	r2, #1
    c27e:	701a      	strb	r2, [r3, #0]
E:\2017-2018\03_Graduation Project\04_Software\05_Wangshi\03_UpdateSoftware-180702\02_UEUser\KL36_Update-180627\Debug/../06_NosPrg/main.c:451
             }
             if(mLCDFlag==1)
    c280:	4b14      	ldr	r3, [pc, #80]	; (c2d4 <main+0x13e4>)
    c282:	2210      	movs	r2, #16
    c284:	4694      	mov	ip, r2
    c286:	44bc      	add	ip, r7
    c288:	4463      	add	r3, ip
    c28a:	781b      	ldrb	r3, [r3, #0]
    c28c:	2b01      	cmp	r3, #1
    c28e:	d101      	bne.n	c294 <main+0x13a4>
E:\2017-2018\03_Graduation Project\04_Software\05_Wangshi\03_UpdateSoftware-180702\02_UEUser\KL36_Update-180627\Debug/../06_NosPrg/main.c:453
             {
          		LCD_ShowFlash();//LCD
    c290:	f000 fc30 	bl	caf4 <LCD_ShowFlash>
E:\2017-2018\03_Graduation Project\04_Software\05_Wangshi\03_UpdateSoftware-180702\02_UEUser\KL36_Update-180627\Debug/../06_NosPrg/main.c:458
             }

        }
        //5
        if(mLoopCount%48000)
    c294:	2397      	movs	r3, #151	; 0x97
    c296:	00db      	lsls	r3, r3, #3
    c298:	2210      	movs	r2, #16
    c29a:	4694      	mov	ip, r2
    c29c:	44bc      	add	ip, r7
    c29e:	4463      	add	r3, ip
    c2a0:	6818      	ldr	r0, [r3, #0]
    c2a2:	6859      	ldr	r1, [r3, #4]
    c2a4:	4a0c      	ldr	r2, [pc, #48]	; (c2d8 <main+0x13e8>)
    c2a6:	2300      	movs	r3, #0
    c2a8:	f7fc fe02 	bl	8eb0 <__aeabi_uldivmod>
E:\2017-2018\03_Graduation Project\04_Software\05_Wangshi\03_UpdateSoftware-180702\02_UEUser\KL36_Update-180627\Debug/../06_NosPrg/main.c:248
    	mLoopCount++;
    c2ac:	f7ff fa7e 	bl	b7ac <main+0x8bc>
    c2b0:	000004c6 	.word	0x000004c6
    c2b4:	00008430 	.word	0x00008430
    c2b8:	0000e634 	.word	0x0000e634
    c2bc:	0000e5c4 	.word	0x0000e5c4
    c2c0:	000004c5 	.word	0x000004c5
    c2c4:	200008b8 	.word	0x200008b8
    c2c8:	20000884 	.word	0x20000884
    c2cc:	2000097c 	.word	0x2000097c
    c2d0:	000004a2 	.word	0x000004a2
    c2d4:	000004c4 	.word	0x000004c4
    c2d8:	0000bb80 	.word	0x0000bb80

0000c2dc <flashData_get>:
flashData_get():
E:\2017-2018\03_Graduation Project\04_Software\05_Wangshi\03_UpdateSoftware-180702\02_UEUser\KL36_Update-180627\Debug/../06_NosPrg/main.c:472
//
//data
//comData
//=====================================================================
void flashData_get(struct FlashData *data)
{
    c2dc:	b590      	push	{r4, r7, lr}
    c2de:	b083      	sub	sp, #12
    c2e0:	af00      	add	r7, sp, #0
    c2e2:	6078      	str	r0, [r7, #4]
E:\2017-2018\03_Graduation Project\04_Software\05_Wangshi\03_UpdateSoftware-180702\02_UEUser\KL36_Update-180627\Debug/../06_NosPrg/main.c:474
	//flash
	flash_read_logic((uint_8*)data,63,0,sizeof(struct FlashData));
    c2e4:	4b05      	ldr	r3, [pc, #20]	; (c2fc <flashData_get+0x20>)
    c2e6:	681c      	ldr	r4, [r3, #0]
    c2e8:	6878      	ldr	r0, [r7, #4]
    c2ea:	23ab      	movs	r3, #171	; 0xab
    c2ec:	2200      	movs	r2, #0
    c2ee:	213f      	movs	r1, #63	; 0x3f
    c2f0:	47a0      	blx	r4
E:\2017-2018\03_Graduation Project\04_Software\05_Wangshi\03_UpdateSoftware-180702\02_UEUser\KL36_Update-180627\Debug/../06_NosPrg/main.c:475
}
    c2f2:	46c0      	nop			; (mov r8, r8)
    c2f4:	46bd      	mov	sp, r7
    c2f6:	b003      	add	sp, #12
    c2f8:	bd90      	pop	{r4, r7, pc}
    c2fa:	46c0      	nop			; (mov r8, r8)
    c2fc:	2000090c 	.word	0x2000090c

0000c300 <userData_init>:
userData_init():
E:\2017-2018\03_Graduation Project\04_Software\05_Wangshi\03_UpdateSoftware-180702\02_UEUser\KL36_Update-180627\Debug/../06_NosPrg/main.c:484
//
//data
//data
//=====================================================================
void userData_init(struct UserData *data)
{
    c300:	b5b0      	push	{r4, r5, r7, lr}
    c302:	b082      	sub	sp, #8
    c304:	af00      	add	r7, sp, #0
    c306:	6078      	str	r0, [r7, #4]
E:\2017-2018\03_Graduation Project\04_Software\05_Wangshi\03_UpdateSoftware-180702\02_UEUser\KL36_Update-180627\Debug/../06_NosPrg/main.c:485
	strncpy(data->cmd,"U0",2);
    c308:	687a      	ldr	r2, [r7, #4]
    c30a:	4ba4      	ldr	r3, [pc, #656]	; (c59c <userData_init+0x29c>)
    c30c:	0010      	movs	r0, r2
    c30e:	0019      	movs	r1, r3
    c310:	2302      	movs	r3, #2
    c312:	001a      	movs	r2, r3
    c314:	f001 fff4 	bl	e300 <memcpy>
E:\2017-2018\03_Graduation Project\04_Software\05_Wangshi\03_UpdateSoftware-180702\02_UEUser\KL36_Update-180627\Debug/../06_NosPrg/main.c:486
	strncpy(gFrameCmd,data->cmd,2);
    c318:	6879      	ldr	r1, [r7, #4]
    c31a:	4ba1      	ldr	r3, [pc, #644]	; (c5a0 <userData_init+0x2a0>)
    c31c:	2202      	movs	r2, #2
    c31e:	0018      	movs	r0, r3
    c320:	f001 ffff 	bl	e322 <strncpy>
E:\2017-2018\03_Graduation Project\04_Software\05_Wangshi\03_UpdateSoftware-180702\02_UEUser\KL36_Update-180627\Debug/../06_NosPrg/main.c:487
    data->sn = 0;
    c324:	687b      	ldr	r3, [r7, #4]
    c326:	789a      	ldrb	r2, [r3, #2]
    c328:	2100      	movs	r1, #0
    c32a:	400a      	ands	r2, r1
    c32c:	709a      	strb	r2, [r3, #2]
    c32e:	78da      	ldrb	r2, [r3, #3]
    c330:	2100      	movs	r1, #0
    c332:	400a      	ands	r2, r1
    c334:	70da      	strb	r2, [r3, #3]
E:\2017-2018\03_Graduation Project\04_Software\05_Wangshi\03_UpdateSoftware-180702\02_UEUser\KL36_Update-180627\Debug/../06_NosPrg/main.c:488
    strncpy(data->serverIP,gFlashData.serverIP,15);
    c336:	687b      	ldr	r3, [r7, #4]
    c338:	3313      	adds	r3, #19
    c33a:	499a      	ldr	r1, [pc, #616]	; (c5a4 <userData_init+0x2a4>)
    c33c:	220f      	movs	r2, #15
    c33e:	0018      	movs	r0, r3
    c340:	f001 ffef 	bl	e322 <strncpy>
E:\2017-2018\03_Graduation Project\04_Software\05_Wangshi\03_UpdateSoftware-180702\02_UEUser\KL36_Update-180627\Debug/../06_NosPrg/main.c:489
    strncpy(data->serverPort,gFlashData.serverPort,5);
    c344:	687b      	ldr	r3, [r7, #4]
    c346:	3322      	adds	r3, #34	; 0x22
    c348:	4997      	ldr	r1, [pc, #604]	; (c5a8 <userData_init+0x2a8>)
    c34a:	2205      	movs	r2, #5
    c34c:	0018      	movs	r0, r3
    c34e:	f001 ffe8 	bl	e322 <strncpy>
E:\2017-2018\03_Graduation Project\04_Software\05_Wangshi\03_UpdateSoftware-180702\02_UEUser\KL36_Update-180627\Debug/../06_NosPrg/main.c:490
    data->currentTime = gFlashData.productTime;
    c352:	4b96      	ldr	r3, [pc, #600]	; (c5ac <userData_init+0x2ac>)
    c354:	2068      	movs	r0, #104	; 0x68
    c356:	5c18      	ldrb	r0, [r3, r0]
    c358:	2469      	movs	r4, #105	; 0x69
    c35a:	5d1c      	ldrb	r4, [r3, r4]
    c35c:	0224      	lsls	r4, r4, #8
    c35e:	4320      	orrs	r0, r4
    c360:	246a      	movs	r4, #106	; 0x6a
    c362:	5d1c      	ldrb	r4, [r3, r4]
    c364:	0424      	lsls	r4, r4, #16
    c366:	4320      	orrs	r0, r4
    c368:	246b      	movs	r4, #107	; 0x6b
    c36a:	5d1c      	ldrb	r4, [r3, r4]
    c36c:	0624      	lsls	r4, r4, #24
    c36e:	4320      	orrs	r0, r4
    c370:	0001      	movs	r1, r0
    c372:	206c      	movs	r0, #108	; 0x6c
    c374:	5c18      	ldrb	r0, [r3, r0]
    c376:	246d      	movs	r4, #109	; 0x6d
    c378:	5d1c      	ldrb	r4, [r3, r4]
    c37a:	0224      	lsls	r4, r4, #8
    c37c:	4320      	orrs	r0, r4
    c37e:	246e      	movs	r4, #110	; 0x6e
    c380:	5d1c      	ldrb	r4, [r3, r4]
    c382:	0424      	lsls	r4, r4, #16
    c384:	4320      	orrs	r0, r4
    c386:	246f      	movs	r4, #111	; 0x6f
    c388:	5d1b      	ldrb	r3, [r3, r4]
    c38a:	061b      	lsls	r3, r3, #24
    c38c:	4303      	orrs	r3, r0
    c38e:	001a      	movs	r2, r3
    c390:	687b      	ldr	r3, [r7, #4]
    c392:	3327      	adds	r3, #39	; 0x27
    c394:	20ff      	movs	r0, #255	; 0xff
    c396:	4008      	ands	r0, r1
    c398:	0005      	movs	r5, r0
    c39a:	7818      	ldrb	r0, [r3, #0]
    c39c:	2400      	movs	r4, #0
    c39e:	4020      	ands	r0, r4
    c3a0:	1c04      	adds	r4, r0, #0
    c3a2:	1c28      	adds	r0, r5, #0
    c3a4:	4320      	orrs	r0, r4
    c3a6:	7018      	strb	r0, [r3, #0]
    c3a8:	0a08      	lsrs	r0, r1, #8
    c3aa:	24ff      	movs	r4, #255	; 0xff
    c3ac:	4020      	ands	r0, r4
    c3ae:	0005      	movs	r5, r0
    c3b0:	7858      	ldrb	r0, [r3, #1]
    c3b2:	2400      	movs	r4, #0
    c3b4:	4020      	ands	r0, r4
    c3b6:	1c04      	adds	r4, r0, #0
    c3b8:	1c28      	adds	r0, r5, #0
    c3ba:	4320      	orrs	r0, r4
    c3bc:	7058      	strb	r0, [r3, #1]
    c3be:	0c08      	lsrs	r0, r1, #16
    c3c0:	24ff      	movs	r4, #255	; 0xff
    c3c2:	4020      	ands	r0, r4
    c3c4:	0005      	movs	r5, r0
    c3c6:	7898      	ldrb	r0, [r3, #2]
    c3c8:	2400      	movs	r4, #0
    c3ca:	4020      	ands	r0, r4
    c3cc:	1c04      	adds	r4, r0, #0
    c3ce:	1c28      	adds	r0, r5, #0
    c3d0:	4320      	orrs	r0, r4
    c3d2:	7098      	strb	r0, [r3, #2]
    c3d4:	0e0d      	lsrs	r5, r1, #24
    c3d6:	78d8      	ldrb	r0, [r3, #3]
    c3d8:	2400      	movs	r4, #0
    c3da:	4020      	ands	r0, r4
    c3dc:	1c04      	adds	r4, r0, #0
    c3de:	1c28      	adds	r0, r5, #0
    c3e0:	4320      	orrs	r0, r4
    c3e2:	70d8      	strb	r0, [r3, #3]
    c3e4:	20ff      	movs	r0, #255	; 0xff
    c3e6:	4010      	ands	r0, r2
    c3e8:	0005      	movs	r5, r0
    c3ea:	7918      	ldrb	r0, [r3, #4]
    c3ec:	2400      	movs	r4, #0
    c3ee:	4020      	ands	r0, r4
    c3f0:	1c04      	adds	r4, r0, #0
    c3f2:	1c28      	adds	r0, r5, #0
    c3f4:	4320      	orrs	r0, r4
    c3f6:	7118      	strb	r0, [r3, #4]
    c3f8:	0a10      	lsrs	r0, r2, #8
    c3fa:	24ff      	movs	r4, #255	; 0xff
    c3fc:	4020      	ands	r0, r4
    c3fe:	0005      	movs	r5, r0
    c400:	7958      	ldrb	r0, [r3, #5]
    c402:	2400      	movs	r4, #0
    c404:	4020      	ands	r0, r4
    c406:	1c04      	adds	r4, r0, #0
    c408:	1c28      	adds	r0, r5, #0
    c40a:	4320      	orrs	r0, r4
    c40c:	7158      	strb	r0, [r3, #5]
    c40e:	0c10      	lsrs	r0, r2, #16
    c410:	24ff      	movs	r4, #255	; 0xff
    c412:	4020      	ands	r0, r4
    c414:	0005      	movs	r5, r0
    c416:	7998      	ldrb	r0, [r3, #6]
    c418:	2400      	movs	r4, #0
    c41a:	4020      	ands	r0, r4
    c41c:	1c04      	adds	r4, r0, #0
    c41e:	1c28      	adds	r0, r5, #0
    c420:	4320      	orrs	r0, r4
    c422:	7198      	strb	r0, [r3, #6]
    c424:	0e10      	lsrs	r0, r2, #24
    c426:	79da      	ldrb	r2, [r3, #7]
    c428:	2100      	movs	r1, #0
    c42a:	400a      	ands	r2, r1
    c42c:	1c11      	adds	r1, r2, #0
    c42e:	1c02      	adds	r2, r0, #0
    c430:	430a      	orrs	r2, r1
    c432:	71da      	strb	r2, [r3, #7]
E:\2017-2018\03_Graduation Project\04_Software\05_Wangshi\03_UpdateSoftware-180702\02_UEUser\KL36_Update-180627\Debug/../06_NosPrg/main.c:491
    data->resetCount = gFlashData.resetCount;
    c434:	4b5d      	ldr	r3, [pc, #372]	; (c5ac <userData_init+0x2ac>)
    c436:	22a7      	movs	r2, #167	; 0xa7
    c438:	5c9a      	ldrb	r2, [r3, r2]
    c43a:	21a8      	movs	r1, #168	; 0xa8
    c43c:	5c59      	ldrb	r1, [r3, r1]
    c43e:	0209      	lsls	r1, r1, #8
    c440:	430a      	orrs	r2, r1
    c442:	21a9      	movs	r1, #169	; 0xa9
    c444:	5c59      	ldrb	r1, [r3, r1]
    c446:	0409      	lsls	r1, r1, #16
    c448:	430a      	orrs	r2, r1
    c44a:	21aa      	movs	r1, #170	; 0xaa
    c44c:	5c5b      	ldrb	r3, [r3, r1]
    c44e:	061b      	lsls	r3, r3, #24
    c450:	4313      	orrs	r3, r2
    c452:	001a      	movs	r2, r3
    c454:	687b      	ldr	r3, [r7, #4]
    c456:	332f      	adds	r3, #47	; 0x2f
    c458:	21ff      	movs	r1, #255	; 0xff
    c45a:	4011      	ands	r1, r2
    c45c:	000c      	movs	r4, r1
    c45e:	7819      	ldrb	r1, [r3, #0]
    c460:	2000      	movs	r0, #0
    c462:	4001      	ands	r1, r0
    c464:	1c08      	adds	r0, r1, #0
    c466:	1c21      	adds	r1, r4, #0
    c468:	4301      	orrs	r1, r0
    c46a:	7019      	strb	r1, [r3, #0]
    c46c:	0a11      	lsrs	r1, r2, #8
    c46e:	20ff      	movs	r0, #255	; 0xff
    c470:	4001      	ands	r1, r0
    c472:	000c      	movs	r4, r1
    c474:	7859      	ldrb	r1, [r3, #1]
    c476:	2000      	movs	r0, #0
    c478:	4001      	ands	r1, r0
    c47a:	1c08      	adds	r0, r1, #0
    c47c:	1c21      	adds	r1, r4, #0
    c47e:	4301      	orrs	r1, r0
    c480:	7059      	strb	r1, [r3, #1]
    c482:	0c11      	lsrs	r1, r2, #16
    c484:	20ff      	movs	r0, #255	; 0xff
    c486:	4001      	ands	r1, r0
    c488:	000c      	movs	r4, r1
    c48a:	7899      	ldrb	r1, [r3, #2]
    c48c:	2000      	movs	r0, #0
    c48e:	4001      	ands	r1, r0
    c490:	1c08      	adds	r0, r1, #0
    c492:	1c21      	adds	r1, r4, #0
    c494:	4301      	orrs	r1, r0
    c496:	7099      	strb	r1, [r3, #2]
    c498:	0e10      	lsrs	r0, r2, #24
    c49a:	78da      	ldrb	r2, [r3, #3]
    c49c:	2100      	movs	r1, #0
    c49e:	400a      	ands	r2, r1
    c4a0:	1c11      	adds	r1, r2, #0
    c4a2:	1c02      	adds	r2, r0, #0
    c4a4:	430a      	orrs	r2, r1
    c4a6:	70da      	strb	r2, [r3, #3]
E:\2017-2018\03_Graduation Project\04_Software\05_Wangshi\03_UpdateSoftware-180702\02_UEUser\KL36_Update-180627\Debug/../06_NosPrg/main.c:492
    data->sendFrequencySec = gFlashData.sendFrequencySec;
    c4a8:	4b40      	ldr	r3, [pc, #256]	; (c5ac <userData_init+0x2ac>)
    c4aa:	22a3      	movs	r2, #163	; 0xa3
    c4ac:	5c9a      	ldrb	r2, [r3, r2]
    c4ae:	21a4      	movs	r1, #164	; 0xa4
    c4b0:	5c59      	ldrb	r1, [r3, r1]
    c4b2:	0209      	lsls	r1, r1, #8
    c4b4:	430a      	orrs	r2, r1
    c4b6:	21a5      	movs	r1, #165	; 0xa5
    c4b8:	5c59      	ldrb	r1, [r3, r1]
    c4ba:	0409      	lsls	r1, r1, #16
    c4bc:	430a      	orrs	r2, r1
    c4be:	21a6      	movs	r1, #166	; 0xa6
    c4c0:	5c5b      	ldrb	r3, [r3, r1]
    c4c2:	061b      	lsls	r3, r3, #24
    c4c4:	4313      	orrs	r3, r2
    c4c6:	001a      	movs	r2, r3
    c4c8:	687b      	ldr	r3, [r7, #4]
    c4ca:	3333      	adds	r3, #51	; 0x33
    c4cc:	21ff      	movs	r1, #255	; 0xff
    c4ce:	4011      	ands	r1, r2
    c4d0:	000c      	movs	r4, r1
    c4d2:	7819      	ldrb	r1, [r3, #0]
    c4d4:	2000      	movs	r0, #0
    c4d6:	4001      	ands	r1, r0
    c4d8:	1c08      	adds	r0, r1, #0
    c4da:	1c21      	adds	r1, r4, #0
    c4dc:	4301      	orrs	r1, r0
    c4de:	7019      	strb	r1, [r3, #0]
    c4e0:	0a11      	lsrs	r1, r2, #8
    c4e2:	20ff      	movs	r0, #255	; 0xff
    c4e4:	4001      	ands	r1, r0
    c4e6:	000c      	movs	r4, r1
    c4e8:	7859      	ldrb	r1, [r3, #1]
    c4ea:	2000      	movs	r0, #0
    c4ec:	4001      	ands	r1, r0
    c4ee:	1c08      	adds	r0, r1, #0
    c4f0:	1c21      	adds	r1, r4, #0
    c4f2:	4301      	orrs	r1, r0
    c4f4:	7059      	strb	r1, [r3, #1]
    c4f6:	0c11      	lsrs	r1, r2, #16
    c4f8:	20ff      	movs	r0, #255	; 0xff
    c4fa:	4001      	ands	r1, r0
    c4fc:	000c      	movs	r4, r1
    c4fe:	7899      	ldrb	r1, [r3, #2]
    c500:	2000      	movs	r0, #0
    c502:	4001      	ands	r1, r0
    c504:	1c08      	adds	r0, r1, #0
    c506:	1c21      	adds	r1, r4, #0
    c508:	4301      	orrs	r1, r0
    c50a:	7099      	strb	r1, [r3, #2]
    c50c:	0e10      	lsrs	r0, r2, #24
    c50e:	78da      	ldrb	r2, [r3, #3]
    c510:	2100      	movs	r1, #0
    c512:	400a      	ands	r2, r1
    c514:	1c11      	adds	r1, r2, #0
    c516:	1c02      	adds	r2, r0, #0
    c518:	430a      	orrs	r2, r1
    c51a:	70da      	strb	r2, [r3, #3]
E:\2017-2018\03_Graduation Project\04_Software\05_Wangshi\03_UpdateSoftware-180702\02_UEUser\KL36_Update-180627\Debug/../06_NosPrg/main.c:493
    strncpy(data->userName,gFlashData.userName,20);
    c51c:	687b      	ldr	r3, [r7, #4]
    c51e:	3337      	adds	r3, #55	; 0x37
    c520:	4923      	ldr	r1, [pc, #140]	; (c5b0 <userData_init+0x2b0>)
    c522:	2214      	movs	r2, #20
    c524:	0018      	movs	r0, r3
    c526:	f001 fefc 	bl	e322 <strncpy>
E:\2017-2018\03_Graduation Project\04_Software\05_Wangshi\03_UpdateSoftware-180702\02_UEUser\KL36_Update-180627\Debug/../06_NosPrg/main.c:494
    strncpy(data->softVer,gFlashData.softVer,4);
    c52a:	687b      	ldr	r3, [r7, #4]
    c52c:	334b      	adds	r3, #75	; 0x4b
    c52e:	4921      	ldr	r1, [pc, #132]	; (c5b4 <userData_init+0x2b4>)
    c530:	2204      	movs	r2, #4
    c532:	0018      	movs	r0, r3
    c534:	f001 fef5 	bl	e322 <strncpy>
E:\2017-2018\03_Graduation Project\04_Software\05_Wangshi\03_UpdateSoftware-180702\02_UEUser\KL36_Update-180627\Debug/../06_NosPrg/main.c:495
    strncpy(data->equipName,gFlashData.equipName,30);
    c538:	687b      	ldr	r3, [r7, #4]
    c53a:	334f      	adds	r3, #79	; 0x4f
    c53c:	491b      	ldr	r1, [pc, #108]	; (c5ac <userData_init+0x2ac>)
    c53e:	221e      	movs	r2, #30
    c540:	0018      	movs	r0, r3
    c542:	f001 feee 	bl	e322 <strncpy>
E:\2017-2018\03_Graduation Project\04_Software\05_Wangshi\03_UpdateSoftware-180702\02_UEUser\KL36_Update-180627\Debug/../06_NosPrg/main.c:496
    strncpy(data->equipID,gFlashData.equipID,20);
    c546:	687b      	ldr	r3, [r7, #4]
    c548:	336d      	adds	r3, #109	; 0x6d
    c54a:	491b      	ldr	r1, [pc, #108]	; (c5b8 <userData_init+0x2b8>)
    c54c:	2214      	movs	r2, #20
    c54e:	0018      	movs	r0, r3
    c550:	f001 fee7 	bl	e322 <strncpy>
E:\2017-2018\03_Graduation Project\04_Software\05_Wangshi\03_UpdateSoftware-180702\02_UEUser\KL36_Update-180627\Debug/../06_NosPrg/main.c:497
    strncpy(data->equipType,gFlashData.equipType,20);
    c554:	687b      	ldr	r3, [r7, #4]
    c556:	3381      	adds	r3, #129	; 0x81
    c558:	4918      	ldr	r1, [pc, #96]	; (c5bc <userData_init+0x2bc>)
    c55a:	2214      	movs	r2, #20
    c55c:	0018      	movs	r0, r3
    c55e:	f001 fee0 	bl	e322 <strncpy>
E:\2017-2018\03_Graduation Project\04_Software\05_Wangshi\03_UpdateSoftware-180702\02_UEUser\KL36_Update-180627\Debug/../06_NosPrg/main.c:498
    strncpy(data->vendor,gFlashData.vendor,30);
    c562:	687b      	ldr	r3, [r7, #4]
    c564:	3395      	adds	r3, #149	; 0x95
    c566:	4916      	ldr	r1, [pc, #88]	; (c5c0 <userData_init+0x2c0>)
    c568:	221e      	movs	r2, #30
    c56a:	0018      	movs	r0, r3
    c56c:	f001 fed9 	bl	e322 <strncpy>
E:\2017-2018\03_Graduation Project\04_Software\05_Wangshi\03_UpdateSoftware-180702\02_UEUser\KL36_Update-180627\Debug/../06_NosPrg/main.c:499
    strncpy(data->phone,gFlashData.phone,11);
    c570:	687b      	ldr	r3, [r7, #4]
    c572:	33cb      	adds	r3, #203	; 0xcb
    c574:	4913      	ldr	r1, [pc, #76]	; (c5c4 <userData_init+0x2c4>)
    c576:	220b      	movs	r2, #11
    c578:	0018      	movs	r0, r3
    c57a:	f001 fed2 	bl	e322 <strncpy>
E:\2017-2018\03_Graduation Project\04_Software\05_Wangshi\03_UpdateSoftware-180702\02_UEUser\KL36_Update-180627\Debug/../06_NosPrg/main.c:500
    data->touchNum = 0;
    c57e:	687b      	ldr	r3, [r7, #4]
    c580:	22e8      	movs	r2, #232	; 0xe8
    c582:	5c99      	ldrb	r1, [r3, r2]
    c584:	2000      	movs	r0, #0
    c586:	4001      	ands	r1, r0
    c588:	5499      	strb	r1, [r3, r2]
    c58a:	189b      	adds	r3, r3, r2
    c58c:	785a      	ldrb	r2, [r3, #1]
    c58e:	2100      	movs	r1, #0
    c590:	400a      	ands	r2, r1
    c592:	705a      	strb	r2, [r3, #1]
E:\2017-2018\03_Graduation Project\04_Software\05_Wangshi\03_UpdateSoftware-180702\02_UEUser\KL36_Update-180627\Debug/../06_NosPrg/main.c:501
}
    c594:	46c0      	nop			; (mov r8, r8)
    c596:	46bd      	mov	sp, r7
    c598:	b002      	add	sp, #8
    c59a:	bdb0      	pop	{r4, r5, r7, pc}
    c59c:	0000e654 	.word	0x0000e654
    c5a0:	20000f50 	.word	0x20000f50
    c5a4:	20000a0b 	.word	0x20000a0b
    c5a8:	20000a1a 	.word	0x20000a1a
    c5ac:	2000097c 	.word	0x2000097c
    c5b0:	200009ec 	.word	0x200009ec
    c5b4:	200009e0 	.word	0x200009e0
    c5b8:	2000099a 	.word	0x2000099a
    c5bc:	200009ae 	.word	0x200009ae
    c5c0:	200009c2 	.word	0x200009c2
    c5c4:	20000a00 	.word	0x20000a00

0000c5c8 <userData_get>:
userData_get():
E:\2017-2018\03_Graduation Project\04_Software\05_Wangshi\03_UpdateSoftware-180702\02_UEUser\KL36_Update-180627\Debug/../06_NosPrg/main.c:510
//
//data
//data
//=====================================================================
void userData_get(struct UserData *data)
{
    c5c8:	b5f0      	push	{r4, r5, r6, r7, lr}
    c5ca:	b087      	sub	sp, #28
    c5cc:	af00      	add	r7, sp, #0
    c5ce:	6078      	str	r0, [r7, #4]
E:\2017-2018\03_Graduation Project\04_Software\05_Wangshi\03_UpdateSoftware-180702\02_UEUser\KL36_Update-180627\Debug/../06_NosPrg/main.c:516
    uint_16 tmpAD,brightAD;
    uint_8 sPower;
    uint_8 tempertature[6];
    static uint_32 sn = 4;

    data->sn = sn++;
    c5d0:	4b69      	ldr	r3, [pc, #420]	; (c778 <userData_get+0x1b0>)
    c5d2:	681a      	ldr	r2, [r3, #0]
    c5d4:	1c51      	adds	r1, r2, #1
    c5d6:	4b68      	ldr	r3, [pc, #416]	; (c778 <userData_get+0x1b0>)
    c5d8:	6019      	str	r1, [r3, #0]
    c5da:	b292      	uxth	r2, r2
    c5dc:	687b      	ldr	r3, [r7, #4]
    c5de:	21ff      	movs	r1, #255	; 0xff
    c5e0:	4011      	ands	r1, r2
    c5e2:	000c      	movs	r4, r1
    c5e4:	7899      	ldrb	r1, [r3, #2]
    c5e6:	2000      	movs	r0, #0
    c5e8:	4001      	ands	r1, r0
    c5ea:	1c08      	adds	r0, r1, #0
    c5ec:	1c21      	adds	r1, r4, #0
    c5ee:	4301      	orrs	r1, r0
    c5f0:	7099      	strb	r1, [r3, #2]
    c5f2:	0a12      	lsrs	r2, r2, #8
    c5f4:	b290      	uxth	r0, r2
    c5f6:	78da      	ldrb	r2, [r3, #3]
    c5f8:	2100      	movs	r1, #0
    c5fa:	400a      	ands	r2, r1
    c5fc:	1c11      	adds	r1, r2, #0
    c5fe:	1c02      	adds	r2, r0, #0
    c600:	430a      	orrs	r2, r1
    c602:	70da      	strb	r2, [r3, #3]
E:\2017-2018\03_Graduation Project\04_Software\05_Wangshi\03_UpdateSoftware-180702\02_UEUser\KL36_Update-180627\Debug/../06_NosPrg/main.c:517
    adc_init(MUXSEL_A,0,16,SAMPLE32);
    c604:	4b5d      	ldr	r3, [pc, #372]	; (c77c <userData_get+0x1b4>)
    c606:	681c      	ldr	r4, [r3, #0]
    c608:	2303      	movs	r3, #3
    c60a:	2210      	movs	r2, #16
    c60c:	2100      	movs	r1, #0
    c60e:	2000      	movs	r0, #0
    c610:	47a0      	blx	r4
E:\2017-2018\03_Graduation Project\04_Software\05_Wangshi\03_UpdateSoftware-180702\02_UEUser\KL36_Update-180627\Debug/../06_NosPrg/main.c:518
    tmpAD = adc_read(26);
    c612:	4b5b      	ldr	r3, [pc, #364]	; (c780 <userData_get+0x1b8>)
    c614:	681b      	ldr	r3, [r3, #0]
    c616:	2516      	movs	r5, #22
    c618:	197c      	adds	r4, r7, r5
    c61a:	201a      	movs	r0, #26
    c61c:	4798      	blx	r3
    c61e:	0003      	movs	r3, r0
    c620:	8023      	strh	r3, [r4, #0]
E:\2017-2018\03_Graduation Project\04_Software\05_Wangshi\03_UpdateSoftware-180702\02_UEUser\KL36_Update-180627\Debug/../06_NosPrg/main.c:519
    data->mcuTemp = (int_32)((25.0-(tmpAD*3.3*1000/65535-719)/1.715)*10);
    c622:	197b      	adds	r3, r7, r5
    c624:	881b      	ldrh	r3, [r3, #0]
    c626:	0018      	movs	r0, r3
    c628:	f7fe fa3a 	bl	aaa0 <__aeabi_i2d>
    c62c:	4a55      	ldr	r2, [pc, #340]	; (c784 <userData_get+0x1bc>)
    c62e:	4b56      	ldr	r3, [pc, #344]	; (c788 <userData_get+0x1c0>)
    c630:	f7fd fc46 	bl	9ec0 <__aeabi_dmul>
    c634:	0003      	movs	r3, r0
    c636:	000c      	movs	r4, r1
    c638:	0018      	movs	r0, r3
    c63a:	0021      	movs	r1, r4
    c63c:	2200      	movs	r2, #0
    c63e:	4b53      	ldr	r3, [pc, #332]	; (c78c <userData_get+0x1c4>)
    c640:	f7fd fc3e 	bl	9ec0 <__aeabi_dmul>
    c644:	0003      	movs	r3, r0
    c646:	000c      	movs	r4, r1
    c648:	0018      	movs	r0, r3
    c64a:	0021      	movs	r1, r4
    c64c:	2200      	movs	r2, #0
    c64e:	4b50      	ldr	r3, [pc, #320]	; (c790 <userData_get+0x1c8>)
    c650:	f7fd f82c 	bl	96ac <__aeabi_ddiv>
    c654:	0003      	movs	r3, r0
    c656:	000c      	movs	r4, r1
    c658:	0018      	movs	r0, r3
    c65a:	0021      	movs	r1, r4
    c65c:	2200      	movs	r2, #0
    c65e:	4b4d      	ldr	r3, [pc, #308]	; (c794 <userData_get+0x1cc>)
    c660:	f7fd fea0 	bl	a3a4 <__aeabi_dsub>
    c664:	0003      	movs	r3, r0
    c666:	000c      	movs	r4, r1
    c668:	0018      	movs	r0, r3
    c66a:	0021      	movs	r1, r4
    c66c:	4a4a      	ldr	r2, [pc, #296]	; (c798 <userData_get+0x1d0>)
    c66e:	4b4b      	ldr	r3, [pc, #300]	; (c79c <userData_get+0x1d4>)
    c670:	f7fd f81c 	bl	96ac <__aeabi_ddiv>
    c674:	0003      	movs	r3, r0
    c676:	000c      	movs	r4, r1
    c678:	001a      	movs	r2, r3
    c67a:	0023      	movs	r3, r4
    c67c:	2000      	movs	r0, #0
    c67e:	4948      	ldr	r1, [pc, #288]	; (c7a0 <userData_get+0x1d8>)
    c680:	f7fd fe90 	bl	a3a4 <__aeabi_dsub>
    c684:	0003      	movs	r3, r0
    c686:	000c      	movs	r4, r1
    c688:	0018      	movs	r0, r3
    c68a:	0021      	movs	r1, r4
    c68c:	2200      	movs	r2, #0
    c68e:	4b45      	ldr	r3, [pc, #276]	; (c7a4 <userData_get+0x1dc>)
    c690:	f7fd fc16 	bl	9ec0 <__aeabi_dmul>
    c694:	0003      	movs	r3, r0
    c696:	000c      	movs	r4, r1
    c698:	0018      	movs	r0, r3
    c69a:	0021      	movs	r1, r4
    c69c:	f7fe f9ca 	bl	aa34 <__aeabi_d2iz>
    c6a0:	0001      	movs	r1, r0
    c6a2:	687b      	ldr	r3, [r7, #4]
    c6a4:	22b3      	movs	r2, #179	; 0xb3
    c6a6:	20ff      	movs	r0, #255	; 0xff
    c6a8:	4008      	ands	r0, r1
    c6aa:	0005      	movs	r5, r0
    c6ac:	5c98      	ldrb	r0, [r3, r2]
    c6ae:	2400      	movs	r4, #0
    c6b0:	4020      	ands	r0, r4
    c6b2:	1c04      	adds	r4, r0, #0
    c6b4:	1c28      	adds	r0, r5, #0
    c6b6:	4320      	orrs	r0, r4
    c6b8:	5498      	strb	r0, [r3, r2]
    c6ba:	0a08      	lsrs	r0, r1, #8
    c6bc:	24ff      	movs	r4, #255	; 0xff
    c6be:	4020      	ands	r0, r4
    c6c0:	0006      	movs	r6, r0
    c6c2:	1898      	adds	r0, r3, r2
    c6c4:	7844      	ldrb	r4, [r0, #1]
    c6c6:	2500      	movs	r5, #0
    c6c8:	402c      	ands	r4, r5
    c6ca:	1c25      	adds	r5, r4, #0
    c6cc:	1c34      	adds	r4, r6, #0
    c6ce:	432c      	orrs	r4, r5
    c6d0:	7044      	strb	r4, [r0, #1]
    c6d2:	0c08      	lsrs	r0, r1, #16
    c6d4:	24ff      	movs	r4, #255	; 0xff
    c6d6:	4020      	ands	r0, r4
    c6d8:	0006      	movs	r6, r0
    c6da:	1898      	adds	r0, r3, r2
    c6dc:	7884      	ldrb	r4, [r0, #2]
    c6de:	2500      	movs	r5, #0
    c6e0:	402c      	ands	r4, r5
    c6e2:	1c25      	adds	r5, r4, #0
    c6e4:	1c34      	adds	r4, r6, #0
    c6e6:	432c      	orrs	r4, r5
    c6e8:	7084      	strb	r4, [r0, #2]
    c6ea:	0e08      	lsrs	r0, r1, #24
    c6ec:	189b      	adds	r3, r3, r2
    c6ee:	78da      	ldrb	r2, [r3, #3]
    c6f0:	2100      	movs	r1, #0
    c6f2:	400a      	ands	r2, r1
    c6f4:	1c11      	adds	r1, r2, #0
    c6f6:	1c02      	adds	r2, r0, #0
    c6f8:	430a      	orrs	r2, r1
    c6fa:	70da      	strb	r2, [r3, #3]
E:\2017-2018\03_Graduation Project\04_Software\05_Wangshi\03_UpdateSoftware-180702\02_UEUser\KL36_Update-180627\Debug/../06_NosPrg/main.c:522
    //LCD_ShowString(105,105,BLUE,GRAY,(uint_8*)myFtoa(data->mcuTemp/10.0,1,tempertature));
    //
    brightAD = adc_read(7);
    c6fc:	4b20      	ldr	r3, [pc, #128]	; (c780 <userData_get+0x1b8>)
    c6fe:	681b      	ldr	r3, [r3, #0]
    c700:	2514      	movs	r5, #20
    c702:	197c      	adds	r4, r7, r5
    c704:	2007      	movs	r0, #7
    c706:	4798      	blx	r3
    c708:	0003      	movs	r3, r0
    c70a:	8023      	strh	r3, [r4, #0]
E:\2017-2018\03_Graduation Project\04_Software\05_Wangshi\03_UpdateSoftware-180702\02_UEUser\KL36_Update-180627\Debug/../06_NosPrg/main.c:523
    data->bright = brightAD;
    c70c:	687b      	ldr	r3, [r7, #4]
    c70e:	1979      	adds	r1, r7, r5
    c710:	22e6      	movs	r2, #230	; 0xe6
    c712:	780d      	ldrb	r5, [r1, #0]
    c714:	5c98      	ldrb	r0, [r3, r2]
    c716:	2400      	movs	r4, #0
    c718:	4020      	ands	r0, r4
    c71a:	1c04      	adds	r4, r0, #0
    c71c:	1c28      	adds	r0, r5, #0
    c71e:	4320      	orrs	r0, r4
    c720:	5498      	strb	r0, [r3, r2]
    c722:	7848      	ldrb	r0, [r1, #1]
    c724:	189b      	adds	r3, r3, r2
    c726:	785a      	ldrb	r2, [r3, #1]
    c728:	2100      	movs	r1, #0
    c72a:	400a      	ands	r2, r1
    c72c:	1c11      	adds	r1, r2, #0
    c72e:	1c02      	adds	r2, r0, #0
    c730:	430a      	orrs	r2, r1
    c732:	705a      	strb	r2, [r3, #1]
E:\2017-2018\03_Graduation Project\04_Software\05_Wangshi\03_UpdateSoftware-180702\02_UEUser\KL36_Update-180627\Debug/../06_NosPrg/main.c:524
    uecom_getIMSI(data->IMSI);
    c734:	4b1c      	ldr	r3, [pc, #112]	; (c7a8 <userData_get+0x1e0>)
    c736:	681b      	ldr	r3, [r3, #0]
    c738:	687a      	ldr	r2, [r7, #4]
    c73a:	3204      	adds	r2, #4
    c73c:	0010      	movs	r0, r2
    c73e:	4798      	blx	r3
E:\2017-2018\03_Graduation Project\04_Software\05_Wangshi\03_UpdateSoftware-180702\02_UEUser\KL36_Update-180627\Debug/../06_NosPrg/main.c:525
    uecom_getIMEI(data->IMEI);
    c740:	4b1a      	ldr	r3, [pc, #104]	; (c7ac <userData_get+0x1e4>)
    c742:	681b      	ldr	r3, [r3, #0]
    c744:	687a      	ldr	r2, [r7, #4]
    c746:	32d6      	adds	r2, #214	; 0xd6
    c748:	0010      	movs	r0, r2
    c74a:	4798      	blx	r3
E:\2017-2018\03_Graduation Project\04_Software\05_Wangshi\03_UpdateSoftware-180702\02_UEUser\KL36_Update-180627\Debug/../06_NosPrg/main.c:526
    uecom_getSignalPower(&sPower);
    c74c:	4b18      	ldr	r3, [pc, #96]	; (c7b0 <userData_get+0x1e8>)
    c74e:	681b      	ldr	r3, [r3, #0]
    c750:	2413      	movs	r4, #19
    c752:	193a      	adds	r2, r7, r4
    c754:	0010      	movs	r0, r2
    c756:	4798      	blx	r3
E:\2017-2018\03_Graduation Project\04_Software\05_Wangshi\03_UpdateSoftware-180702\02_UEUser\KL36_Update-180627\Debug/../06_NosPrg/main.c:527
    data->signalPower = sPower;
    c758:	193b      	adds	r3, r7, r4
    c75a:	7819      	ldrb	r1, [r3, #0]
    c75c:	687b      	ldr	r3, [r7, #4]
    c75e:	22e5      	movs	r2, #229	; 0xe5
    c760:	5499      	strb	r1, [r3, r2]
E:\2017-2018\03_Graduation Project\04_Software\05_Wangshi\03_UpdateSoftware-180702\02_UEUser\KL36_Update-180627\Debug/../06_NosPrg/main.c:528
    uecom_getCurCommunity(data->lbs_location);
    c762:	4b14      	ldr	r3, [pc, #80]	; (c7b4 <userData_get+0x1ec>)
    c764:	681b      	ldr	r3, [r3, #0]
    c766:	687a      	ldr	r2, [r7, #4]
    c768:	32fe      	adds	r2, #254	; 0xfe
    c76a:	0010      	movs	r0, r2
    c76c:	4798      	blx	r3
E:\2017-2018\03_Graduation Project\04_Software\05_Wangshi\03_UpdateSoftware-180702\02_UEUser\KL36_Update-180627\Debug/../06_NosPrg/main.c:529
}
    c76e:	46c0      	nop			; (mov r8, r8)
    c770:	46bd      	mov	sp, r7
    c772:	b007      	add	sp, #28
    c774:	bdf0      	pop	{r4, r5, r6, r7, pc}
    c776:	46c0      	nop			; (mov r8, r8)
    c778:	20000800 	.word	0x20000800
    c77c:	20000934 	.word	0x20000934
    c780:	200008d0 	.word	0x200008d0
    c784:	66666666 	.word	0x66666666
    c788:	400a6666 	.word	0x400a6666
    c78c:	408f4000 	.word	0x408f4000
    c790:	40efffe0 	.word	0x40efffe0
    c794:	40867800 	.word	0x40867800
    c798:	d70a3d71 	.word	0xd70a3d71
    c79c:	3ffb70a3 	.word	0x3ffb70a3
    c7a0:	40390000 	.word	0x40390000
    c7a4:	40240000 	.word	0x40240000
    c7a8:	20000978 	.word	0x20000978
    c7ac:	20000914 	.word	0x20000914
    c7b0:	20000898 	.word	0x20000898
    c7b4:	200008c8 	.word	0x200008c8

0000c7b8 <LCD_ShowInit>:
LCD_ShowInit():
E:\2017-2018\03_Graduation Project\04_Software\05_Wangshi\03_UpdateSoftware-180702\02_UEUser\KL36_Update-180627\Debug/../06_NosPrg/main.c:538
//
//
//LCD
//=====================================================================
void LCD_ShowInit()
{
    c7b8:	b580      	push	{r7, lr}
    c7ba:	b09e      	sub	sp, #120	; 0x78
    c7bc:	af02      	add	r7, sp, #8
E:\2017-2018\03_Graduation Project\04_Software\05_Wangshi\03_UpdateSoftware-180702\02_UEUser\KL36_Update-180627\Debug/../06_NosPrg/main.c:546
    uint_8 flag,i;
    uint_8 imsi[20];
    uint_8 Community[30];
    uint_8 sSignalPower[10];
    uint_8 IntegerToChar[10];
    uint_8 temp[30] = {0};
    c7be:	1d3b      	adds	r3, r7, #4
    c7c0:	0018      	movs	r0, r3
    c7c2:	231e      	movs	r3, #30
    c7c4:	001a      	movs	r2, r3
    c7c6:	2100      	movs	r1, #0
    c7c8:	f001 fda3 	bl	e312 <memset>
E:\2017-2018\03_Graduation Project\04_Software\05_Wangshi\03_UpdateSoftware-180702\02_UEUser\KL36_Update-180627\Debug/../06_NosPrg/main.c:548
	//1
	LCD_DrawSurface(0,0,240,320,GRAY);
    c7cc:	23a0      	movs	r3, #160	; 0xa0
    c7ce:	005a      	lsls	r2, r3, #1
    c7d0:	4b57      	ldr	r3, [pc, #348]	; (c930 <LCD_ShowInit+0x178>)
    c7d2:	9300      	str	r3, [sp, #0]
    c7d4:	0013      	movs	r3, r2
    c7d6:	22f0      	movs	r2, #240	; 0xf0
    c7d8:	2100      	movs	r1, #0
    c7da:	2000      	movs	r0, #0
    c7dc:	f001 f8fd 	bl	d9da <LCD_DrawSurface>
E:\2017-2018\03_Graduation Project\04_Software\05_Wangshi\03_UpdateSoftware-180702\02_UEUser\KL36_Update-180627\Debug/../06_NosPrg/main.c:550
    //2
	aotu_panel(2,2,238,38,1);    //
    c7e0:	2301      	movs	r3, #1
    c7e2:	9300      	str	r3, [sp, #0]
    c7e4:	2326      	movs	r3, #38	; 0x26
    c7e6:	22ee      	movs	r2, #238	; 0xee
    c7e8:	2102      	movs	r1, #2
    c7ea:	2002      	movs	r0, #2
    c7ec:	f001 faaa 	bl	dd44 <aotu_panel>
E:\2017-2018\03_Graduation Project\04_Software\05_Wangshi\03_UpdateSoftware-180702\02_UEUser\KL36_Update-180627\Debug/../06_NosPrg/main.c:551
	LCD_ShowString(66,15,RED,GRAY,"IoT-GEC");
    c7f0:	494f      	ldr	r1, [pc, #316]	; (c930 <LCD_ShowInit+0x178>)
    c7f2:	23f8      	movs	r3, #248	; 0xf8
    c7f4:	021a      	lsls	r2, r3, #8
    c7f6:	4b4f      	ldr	r3, [pc, #316]	; (c934 <LCD_ShowInit+0x17c>)
    c7f8:	9300      	str	r3, [sp, #0]
    c7fa:	000b      	movs	r3, r1
    c7fc:	210f      	movs	r1, #15
    c7fe:	2042      	movs	r0, #66	; 0x42
    c800:	f001 f99a 	bl	db38 <LCD_ShowString>
E:\2017-2018\03_Graduation Project\04_Software\05_Wangshi\03_UpdateSoftware-180702\02_UEUser\KL36_Update-180627\Debug/../06_NosPrg/main.c:555
	if(ENABLE_WDOG)    //
		wdog_feed();
	//3
	aotu_panel(2,43,238,123,0);    //
    c804:	2300      	movs	r3, #0
    c806:	9300      	str	r3, [sp, #0]
    c808:	237b      	movs	r3, #123	; 0x7b
    c80a:	22ee      	movs	r2, #238	; 0xee
    c80c:	212b      	movs	r1, #43	; 0x2b
    c80e:	2002      	movs	r0, #2
    c810:	f001 fa98 	bl	dd44 <aotu_panel>
E:\2017-2018\03_Graduation Project\04_Software\05_Wangshi\03_UpdateSoftware-180702\02_UEUser\KL36_Update-180627\Debug/../06_NosPrg/main.c:556
	LCD_ShowString(4,45,BLACK,GRAY,"Type ");
    c814:	4a46      	ldr	r2, [pc, #280]	; (c930 <LCD_ShowInit+0x178>)
    c816:	4b48      	ldr	r3, [pc, #288]	; (c938 <LCD_ShowInit+0x180>)
    c818:	9300      	str	r3, [sp, #0]
    c81a:	0013      	movs	r3, r2
    c81c:	2200      	movs	r2, #0
    c81e:	212d      	movs	r1, #45	; 0x2d
    c820:	2004      	movs	r0, #4
    c822:	f001 f989 	bl	db38 <LCD_ShowString>
E:\2017-2018\03_Graduation Project\04_Software\05_Wangshi\03_UpdateSoftware-180702\02_UEUser\KL36_Update-180627\Debug/../06_NosPrg/main.c:557
	LCD_ShowString(4,65,BLACK,GRAY,"Soft ");
    c826:	4a42      	ldr	r2, [pc, #264]	; (c930 <LCD_ShowInit+0x178>)
    c828:	4b44      	ldr	r3, [pc, #272]	; (c93c <LCD_ShowInit+0x184>)
    c82a:	9300      	str	r3, [sp, #0]
    c82c:	0013      	movs	r3, r2
    c82e:	2200      	movs	r2, #0
    c830:	2141      	movs	r1, #65	; 0x41
    c832:	2004      	movs	r0, #4
    c834:	f001 f980 	bl	db38 <LCD_ShowString>
E:\2017-2018\03_Graduation Project\04_Software\05_Wangshi\03_UpdateSoftware-180702\02_UEUser\KL36_Update-180627\Debug/../06_NosPrg/main.c:558
	LCD_ShowString(4,85,BLACK,GRAY,"eSIM ");
    c838:	4a3d      	ldr	r2, [pc, #244]	; (c930 <LCD_ShowInit+0x178>)
    c83a:	4b41      	ldr	r3, [pc, #260]	; (c940 <LCD_ShowInit+0x188>)
    c83c:	9300      	str	r3, [sp, #0]
    c83e:	0013      	movs	r3, r2
    c840:	2200      	movs	r2, #0
    c842:	2155      	movs	r1, #85	; 0x55
    c844:	2004      	movs	r0, #4
    c846:	f001 f977 	bl	db38 <LCD_ShowString>
E:\2017-2018\03_Graduation Project\04_Software\05_Wangshi\03_UpdateSoftware-180702\02_UEUser\KL36_Update-180627\Debug/../06_NosPrg/main.c:559
	LCD_ShowString(4,105,BLACK,GRAY,"Temp-");
    c84a:	4a39      	ldr	r2, [pc, #228]	; (c930 <LCD_ShowInit+0x178>)
    c84c:	4b3d      	ldr	r3, [pc, #244]	; (c944 <LCD_ShowInit+0x18c>)
    c84e:	9300      	str	r3, [sp, #0]
    c850:	0013      	movs	r3, r2
    c852:	2200      	movs	r2, #0
    c854:	2169      	movs	r1, #105	; 0x69
    c856:	2004      	movs	r0, #4
    c858:	f001 f96e 	bl	db38 <LCD_ShowString>
E:\2017-2018\03_Graduation Project\04_Software\05_Wangshi\03_UpdateSoftware-180702\02_UEUser\KL36_Update-180627\Debug/../06_NosPrg/main.c:561
	//4
	aotu_panel(2,127,238,247,0);    //
    c85c:	2300      	movs	r3, #0
    c85e:	9300      	str	r3, [sp, #0]
    c860:	23f7      	movs	r3, #247	; 0xf7
    c862:	22ee      	movs	r2, #238	; 0xee
    c864:	217f      	movs	r1, #127	; 0x7f
    c866:	2002      	movs	r0, #2
    c868:	f001 fa6c 	bl	dd44 <aotu_panel>
E:\2017-2018\03_Graduation Project\04_Software\05_Wangshi\03_UpdateSoftware-180702\02_UEUser\KL36_Update-180627\Debug/../06_NosPrg/main.c:562
	LCD_ShowString(4,129,BLACK,GRAY,"BSNum");
    c86c:	4a30      	ldr	r2, [pc, #192]	; (c930 <LCD_ShowInit+0x178>)
    c86e:	4b36      	ldr	r3, [pc, #216]	; (c948 <LCD_ShowInit+0x190>)
    c870:	9300      	str	r3, [sp, #0]
    c872:	0013      	movs	r3, r2
    c874:	2200      	movs	r2, #0
    c876:	2181      	movs	r1, #129	; 0x81
    c878:	2004      	movs	r0, #4
    c87a:	f001 f95d 	bl	db38 <LCD_ShowString>
E:\2017-2018\03_Graduation Project\04_Software\05_Wangshi\03_UpdateSoftware-180702\02_UEUser\KL36_Update-180627\Debug/../06_NosPrg/main.c:563
	LCD_ShowString(4,149,BLACK,GRAY,"Signal ");
    c87e:	4a2c      	ldr	r2, [pc, #176]	; (c930 <LCD_ShowInit+0x178>)
    c880:	4b32      	ldr	r3, [pc, #200]	; (c94c <LCD_ShowInit+0x194>)
    c882:	9300      	str	r3, [sp, #0]
    c884:	0013      	movs	r3, r2
    c886:	2200      	movs	r2, #0
    c888:	2195      	movs	r1, #149	; 0x95
    c88a:	2004      	movs	r0, #4
    c88c:	f001 f954 	bl	db38 <LCD_ShowString>
E:\2017-2018\03_Graduation Project\04_Software\05_Wangshi\03_UpdateSoftware-180702\02_UEUser\KL36_Update-180627\Debug/../06_NosPrg/main.c:565

	LCD_ShowString(4,169,BLACK,GRAY,"I  P");
    c890:	4a27      	ldr	r2, [pc, #156]	; (c930 <LCD_ShowInit+0x178>)
    c892:	4b2f      	ldr	r3, [pc, #188]	; (c950 <LCD_ShowInit+0x198>)
    c894:	9300      	str	r3, [sp, #0]
    c896:	0013      	movs	r3, r2
    c898:	2200      	movs	r2, #0
    c89a:	21a9      	movs	r1, #169	; 0xa9
    c89c:	2004      	movs	r0, #4
    c89e:	f001 f94b 	bl	db38 <LCD_ShowString>
E:\2017-2018\03_Graduation Project\04_Software\05_Wangshi\03_UpdateSoftware-180702\02_UEUser\KL36_Update-180627\Debug/../06_NosPrg/main.c:566
	LCD_ShowString(4,189,BLACK,GRAY,"PORT");
    c8a2:	4a23      	ldr	r2, [pc, #140]	; (c930 <LCD_ShowInit+0x178>)
    c8a4:	4b2b      	ldr	r3, [pc, #172]	; (c954 <LCD_ShowInit+0x19c>)
    c8a6:	9300      	str	r3, [sp, #0]
    c8a8:	0013      	movs	r3, r2
    c8aa:	2200      	movs	r2, #0
    c8ac:	21bd      	movs	r1, #189	; 0xbd
    c8ae:	2004      	movs	r0, #4
    c8b0:	f001 f942 	bl	db38 <LCD_ShowString>
E:\2017-2018\03_Graduation Project\04_Software\05_Wangshi\03_UpdateSoftware-180702\02_UEUser\KL36_Update-180627\Debug/../06_NosPrg/main.c:567
	LCD_ShowString(4,209,BLACK,GRAY,"TSI:     Fre(s):   ");
    c8b4:	4a1e      	ldr	r2, [pc, #120]	; (c930 <LCD_ShowInit+0x178>)
    c8b6:	4b28      	ldr	r3, [pc, #160]	; (c958 <LCD_ShowInit+0x1a0>)
    c8b8:	9300      	str	r3, [sp, #0]
    c8ba:	0013      	movs	r3, r2
    c8bc:	2200      	movs	r2, #0
    c8be:	21d1      	movs	r1, #209	; 0xd1
    c8c0:	2004      	movs	r0, #4
    c8c2:	f001 f939 	bl	db38 <LCD_ShowString>
E:\2017-2018\03_Graduation Project\04_Software\05_Wangshi\03_UpdateSoftware-180702\02_UEUser\KL36_Update-180627\Debug/../06_NosPrg/main.c:568
	LCD_ShowString(4,229,BLACK,GRAY,"Time:");
    c8c6:	4a1a      	ldr	r2, [pc, #104]	; (c930 <LCD_ShowInit+0x178>)
    c8c8:	4b24      	ldr	r3, [pc, #144]	; (c95c <LCD_ShowInit+0x1a4>)
    c8ca:	9300      	str	r3, [sp, #0]
    c8cc:	0013      	movs	r3, r2
    c8ce:	2200      	movs	r2, #0
    c8d0:	21e5      	movs	r1, #229	; 0xe5
    c8d2:	2004      	movs	r0, #4
    c8d4:	f001 f930 	bl	db38 <LCD_ShowString>
E:\2017-2018\03_Graduation Project\04_Software\05_Wangshi\03_UpdateSoftware-180702\02_UEUser\KL36_Update-180627\Debug/../06_NosPrg/main.c:569
	LCD_ShowString(49,230,BLUE,GRAY,"2018-07-01 21:55:00");
    c8d8:	4a15      	ldr	r2, [pc, #84]	; (c930 <LCD_ShowInit+0x178>)
    c8da:	4b21      	ldr	r3, [pc, #132]	; (c960 <LCD_ShowInit+0x1a8>)
    c8dc:	9300      	str	r3, [sp, #0]
    c8de:	0013      	movs	r3, r2
    c8e0:	221f      	movs	r2, #31
    c8e2:	21e6      	movs	r1, #230	; 0xe6
    c8e4:	2031      	movs	r0, #49	; 0x31
    c8e6:	f001 f927 	bl	db38 <LCD_ShowString>
E:\2017-2018\03_Graduation Project\04_Software\05_Wangshi\03_UpdateSoftware-180702\02_UEUser\KL36_Update-180627\Debug/../06_NosPrg/main.c:570
	LCD_ShowString(4,249,BLACK,GRAY,"RecvCount:");
    c8ea:	4a11      	ldr	r2, [pc, #68]	; (c930 <LCD_ShowInit+0x178>)
    c8ec:	4b1d      	ldr	r3, [pc, #116]	; (c964 <LCD_ShowInit+0x1ac>)
    c8ee:	9300      	str	r3, [sp, #0]
    c8f0:	0013      	movs	r3, r2
    c8f2:	2200      	movs	r2, #0
    c8f4:	21f9      	movs	r1, #249	; 0xf9
    c8f6:	2004      	movs	r0, #4
    c8f8:	f001 f91e 	bl	db38 <LCD_ShowString>
E:\2017-2018\03_Graduation Project\04_Software\05_Wangshi\03_UpdateSoftware-180702\02_UEUser\KL36_Update-180627\Debug/../06_NosPrg/main.c:572
	//5
	aotu_panel(2,274,238,318,1);    //
    c8fc:	239f      	movs	r3, #159	; 0x9f
    c8fe:	005a      	lsls	r2, r3, #1
    c900:	2389      	movs	r3, #137	; 0x89
    c902:	0059      	lsls	r1, r3, #1
    c904:	2301      	movs	r3, #1
    c906:	9300      	str	r3, [sp, #0]
    c908:	0013      	movs	r3, r2
    c90a:	22ee      	movs	r2, #238	; 0xee
    c90c:	2002      	movs	r0, #2
    c90e:	f001 fa19 	bl	dd44 <aotu_panel>
E:\2017-2018\03_Graduation Project\04_Software\05_Wangshi\03_UpdateSoftware-180702\02_UEUser\KL36_Update-180627\Debug/../06_NosPrg/main.c:573
	LCD_ShowString(4,276,BLACK,GRAY,"State:");
    c912:	4a07      	ldr	r2, [pc, #28]	; (c930 <LCD_ShowInit+0x178>)
    c914:	238a      	movs	r3, #138	; 0x8a
    c916:	0059      	lsls	r1, r3, #1
    c918:	4b13      	ldr	r3, [pc, #76]	; (c968 <LCD_ShowInit+0x1b0>)
    c91a:	9300      	str	r3, [sp, #0]
    c91c:	0013      	movs	r3, r2
    c91e:	2200      	movs	r2, #0
    c920:	2004      	movs	r0, #4
    c922:	f001 f909 	bl	db38 <LCD_ShowString>
E:\2017-2018\03_Graduation Project\04_Software\05_Wangshi\03_UpdateSoftware-180702\02_UEUser\KL36_Update-180627\Debug/../06_NosPrg/main.c:576
//    //6flashTSIIPPORT
//	LCD_ShowFlash();
}
    c926:	46c0      	nop			; (mov r8, r8)
    c928:	46bd      	mov	sp, r7
    c92a:	b01c      	add	sp, #112	; 0x70
    c92c:	bd80      	pop	{r7, pc}
    c92e:	46c0      	nop			; (mov r8, r8)
    c930:	00008430 	.word	0x00008430
    c934:	0000e658 	.word	0x0000e658
    c938:	0000e668 	.word	0x0000e668
    c93c:	0000e674 	.word	0x0000e674
    c940:	0000e680 	.word	0x0000e680
    c944:	0000e68c 	.word	0x0000e68c
    c948:	0000e698 	.word	0x0000e698
    c94c:	0000e6a4 	.word	0x0000e6a4
    c950:	0000e6b0 	.word	0x0000e6b0
    c954:	0000e6bc 	.word	0x0000e6bc
    c958:	0000e6c8 	.word	0x0000e6c8
    c95c:	0000e6dc 	.word	0x0000e6dc
    c960:	0000e6e4 	.word	0x0000e6e4
    c964:	0000e6f8 	.word	0x0000e6f8
    c968:	0000e704 	.word	0x0000e704

0000c96c <LCDShowTime>:
LCDShowTime():
E:\2017-2018\03_Graduation Project\04_Software\05_Wangshi\03_UpdateSoftware-180702\02_UEUser\KL36_Update-180627\Debug/../06_NosPrg/main.c:696
//
//void
//
//=====================================================================
void LCDShowTime(void)
{
    c96c:	b580      	push	{r7, lr}
    c96e:	b08a      	sub	sp, #40	; 0x28
    c970:	af02      	add	r7, sp, #8
E:\2017-2018\03_Graduation Project\04_Software\05_Wangshi\03_UpdateSoftware-180702\02_UEUser\KL36_Update-180627\Debug/../06_NosPrg/main.c:698
	uint_8 i,j;
	uint_8 sTime[30] = {0};
    c972:	003b      	movs	r3, r7
    c974:	0018      	movs	r0, r3
    c976:	231e      	movs	r3, #30
    c978:	001a      	movs	r2, r3
    c97a:	2100      	movs	r1, #0
    c97c:	f001 fcc9 	bl	e312 <memset>
E:\2017-2018\03_Graduation Project\04_Software\05_Wangshi\03_UpdateSoftware-180702\02_UEUser\KL36_Update-180627\Debug/../06_NosPrg/main.c:699
	for(j=0,i=0;i<14;j++)
    c980:	231e      	movs	r3, #30
    c982:	18fb      	adds	r3, r7, r3
    c984:	2200      	movs	r2, #0
    c986:	701a      	strb	r2, [r3, #0]
    c988:	231f      	movs	r3, #31
    c98a:	18fb      	adds	r3, r7, r3
    c98c:	2200      	movs	r2, #0
    c98e:	701a      	strb	r2, [r3, #0]
    c990:	e090      	b.n	cab4 <LCDShowTime+0x148>
E:\2017-2018\03_Graduation Project\04_Software\05_Wangshi\03_UpdateSoftware-180702\02_UEUser\KL36_Update-180627\Debug/../06_NosPrg/main.c:701
	{
		if(j == 4)
    c992:	231e      	movs	r3, #30
    c994:	18fb      	adds	r3, r7, r3
    c996:	781b      	ldrb	r3, [r3, #0]
    c998:	2b04      	cmp	r3, #4
    c99a:	d115      	bne.n	c9c8 <LCDShowTime+0x5c>
E:\2017-2018\03_Graduation Project\04_Software\05_Wangshi\03_UpdateSoftware-180702\02_UEUser\KL36_Update-180627\Debug/../06_NosPrg/main.c:703
		{
			strcat(sTime,"");
    c99c:	003b      	movs	r3, r7
    c99e:	0018      	movs	r0, r3
    c9a0:	f7fe f966 	bl	ac70 <strlen>
    c9a4:	0003      	movs	r3, r0
    c9a6:	001a      	movs	r2, r3
    c9a8:	003b      	movs	r3, r7
    c9aa:	189a      	adds	r2, r3, r2
    c9ac:	4b4b      	ldr	r3, [pc, #300]	; (cadc <LCDShowTime+0x170>)
    c9ae:	0010      	movs	r0, r2
    c9b0:	0019      	movs	r1, r3
    c9b2:	2303      	movs	r3, #3
    c9b4:	001a      	movs	r2, r3
    c9b6:	f001 fca3 	bl	e300 <memcpy>
E:\2017-2018\03_Graduation Project\04_Software\05_Wangshi\03_UpdateSoftware-180702\02_UEUser\KL36_Update-180627\Debug/../06_NosPrg/main.c:704
			j++;
    c9ba:	211e      	movs	r1, #30
    c9bc:	187b      	adds	r3, r7, r1
    c9be:	781a      	ldrb	r2, [r3, #0]
    c9c0:	187b      	adds	r3, r7, r1
    c9c2:	3201      	adds	r2, #1
    c9c4:	701a      	strb	r2, [r3, #0]
    c9c6:	e06f      	b.n	caa8 <LCDShowTime+0x13c>
E:\2017-2018\03_Graduation Project\04_Software\05_Wangshi\03_UpdateSoftware-180702\02_UEUser\KL36_Update-180627\Debug/../06_NosPrg/main.c:706
		}
		else if(j == 8)
    c9c8:	231e      	movs	r3, #30
    c9ca:	18fb      	adds	r3, r7, r3
    c9cc:	781b      	ldrb	r3, [r3, #0]
    c9ce:	2b08      	cmp	r3, #8
    c9d0:	d115      	bne.n	c9fe <LCDShowTime+0x92>
E:\2017-2018\03_Graduation Project\04_Software\05_Wangshi\03_UpdateSoftware-180702\02_UEUser\KL36_Update-180627\Debug/../06_NosPrg/main.c:708
		{
			strcat(sTime,"");
    c9d2:	003b      	movs	r3, r7
    c9d4:	0018      	movs	r0, r3
    c9d6:	f7fe f94b 	bl	ac70 <strlen>
    c9da:	0003      	movs	r3, r0
    c9dc:	001a      	movs	r2, r3
    c9de:	003b      	movs	r3, r7
    c9e0:	189a      	adds	r2, r3, r2
    c9e2:	4b3f      	ldr	r3, [pc, #252]	; (cae0 <LCDShowTime+0x174>)
    c9e4:	0010      	movs	r0, r2
    c9e6:	0019      	movs	r1, r3
    c9e8:	2303      	movs	r3, #3
    c9ea:	001a      	movs	r2, r3
    c9ec:	f001 fc88 	bl	e300 <memcpy>
E:\2017-2018\03_Graduation Project\04_Software\05_Wangshi\03_UpdateSoftware-180702\02_UEUser\KL36_Update-180627\Debug/../06_NosPrg/main.c:709
			j++;
    c9f0:	211e      	movs	r1, #30
    c9f2:	187b      	adds	r3, r7, r1
    c9f4:	781a      	ldrb	r2, [r3, #0]
    c9f6:	187b      	adds	r3, r7, r1
    c9f8:	3201      	adds	r2, #1
    c9fa:	701a      	strb	r2, [r3, #0]
    c9fc:	e054      	b.n	caa8 <LCDShowTime+0x13c>
E:\2017-2018\03_Graduation Project\04_Software\05_Wangshi\03_UpdateSoftware-180702\02_UEUser\KL36_Update-180627\Debug/../06_NosPrg/main.c:711
		}
		else if(j == 12)
    c9fe:	231e      	movs	r3, #30
    ca00:	18fb      	adds	r3, r7, r3
    ca02:	781b      	ldrb	r3, [r3, #0]
    ca04:	2b0c      	cmp	r3, #12
    ca06:	d115      	bne.n	ca34 <LCDShowTime+0xc8>
E:\2017-2018\03_Graduation Project\04_Software\05_Wangshi\03_UpdateSoftware-180702\02_UEUser\KL36_Update-180627\Debug/../06_NosPrg/main.c:713
		{
			strcat(sTime,"");
    ca08:	003b      	movs	r3, r7
    ca0a:	0018      	movs	r0, r3
    ca0c:	f7fe f930 	bl	ac70 <strlen>
    ca10:	0003      	movs	r3, r0
    ca12:	001a      	movs	r2, r3
    ca14:	003b      	movs	r3, r7
    ca16:	189a      	adds	r2, r3, r2
    ca18:	4b32      	ldr	r3, [pc, #200]	; (cae4 <LCDShowTime+0x178>)
    ca1a:	0010      	movs	r0, r2
    ca1c:	0019      	movs	r1, r3
    ca1e:	2303      	movs	r3, #3
    ca20:	001a      	movs	r2, r3
    ca22:	f001 fc6d 	bl	e300 <memcpy>
E:\2017-2018\03_Graduation Project\04_Software\05_Wangshi\03_UpdateSoftware-180702\02_UEUser\KL36_Update-180627\Debug/../06_NosPrg/main.c:714
			j++;
    ca26:	211e      	movs	r1, #30
    ca28:	187b      	adds	r3, r7, r1
    ca2a:	781a      	ldrb	r2, [r3, #0]
    ca2c:	187b      	adds	r3, r7, r1
    ca2e:	3201      	adds	r2, #1
    ca30:	701a      	strb	r2, [r3, #0]
    ca32:	e039      	b.n	caa8 <LCDShowTime+0x13c>
E:\2017-2018\03_Graduation Project\04_Software\05_Wangshi\03_UpdateSoftware-180702\02_UEUser\KL36_Update-180627\Debug/../06_NosPrg/main.c:716
		}
		else if(j == 16)
    ca34:	231e      	movs	r3, #30
    ca36:	18fb      	adds	r3, r7, r3
    ca38:	781b      	ldrb	r3, [r3, #0]
    ca3a:	2b10      	cmp	r3, #16
    ca3c:	d10f      	bne.n	ca5e <LCDShowTime+0xf2>
E:\2017-2018\03_Graduation Project\04_Software\05_Wangshi\03_UpdateSoftware-180702\02_UEUser\KL36_Update-180627\Debug/../06_NosPrg/main.c:718
		{
			strcat(sTime,":");
    ca3e:	003b      	movs	r3, r7
    ca40:	0018      	movs	r0, r3
    ca42:	f7fe f915 	bl	ac70 <strlen>
    ca46:	0003      	movs	r3, r0
    ca48:	001a      	movs	r2, r3
    ca4a:	003b      	movs	r3, r7
    ca4c:	189a      	adds	r2, r3, r2
    ca4e:	4b26      	ldr	r3, [pc, #152]	; (cae8 <LCDShowTime+0x17c>)
    ca50:	0010      	movs	r0, r2
    ca52:	0019      	movs	r1, r3
    ca54:	2302      	movs	r3, #2
    ca56:	001a      	movs	r2, r3
    ca58:	f001 fc52 	bl	e300 <memcpy>
    ca5c:	e024      	b.n	caa8 <LCDShowTime+0x13c>
E:\2017-2018\03_Graduation Project\04_Software\05_Wangshi\03_UpdateSoftware-180702\02_UEUser\KL36_Update-180627\Debug/../06_NosPrg/main.c:720
		}
		else if(j == 19)
    ca5e:	231e      	movs	r3, #30
    ca60:	18fb      	adds	r3, r7, r3
    ca62:	781b      	ldrb	r3, [r3, #0]
    ca64:	2b13      	cmp	r3, #19
    ca66:	d10f      	bne.n	ca88 <LCDShowTime+0x11c>
E:\2017-2018\03_Graduation Project\04_Software\05_Wangshi\03_UpdateSoftware-180702\02_UEUser\KL36_Update-180627\Debug/../06_NosPrg/main.c:722
		{
			strcat(sTime,":");
    ca68:	003b      	movs	r3, r7
    ca6a:	0018      	movs	r0, r3
    ca6c:	f7fe f900 	bl	ac70 <strlen>
    ca70:	0003      	movs	r3, r0
    ca72:	001a      	movs	r2, r3
    ca74:	003b      	movs	r3, r7
    ca76:	189a      	adds	r2, r3, r2
    ca78:	4b1b      	ldr	r3, [pc, #108]	; (cae8 <LCDShowTime+0x17c>)
    ca7a:	0010      	movs	r0, r2
    ca7c:	0019      	movs	r1, r3
    ca7e:	2302      	movs	r3, #2
    ca80:	001a      	movs	r2, r3
    ca82:	f001 fc3d 	bl	e300 <memcpy>
    ca86:	e00f      	b.n	caa8 <LCDShowTime+0x13c>
E:\2017-2018\03_Graduation Project\04_Software\05_Wangshi\03_UpdateSoftware-180702\02_UEUser\KL36_Update-180627\Debug/../06_NosPrg/main.c:725
		}
		else
		    sTime[j] = gTime[i++]+'0';
    ca88:	221f      	movs	r2, #31
    ca8a:	18bb      	adds	r3, r7, r2
    ca8c:	781b      	ldrb	r3, [r3, #0]
    ca8e:	18ba      	adds	r2, r7, r2
    ca90:	1c59      	adds	r1, r3, #1
    ca92:	7011      	strb	r1, [r2, #0]
    ca94:	001a      	movs	r2, r3
    ca96:	4b15      	ldr	r3, [pc, #84]	; (caec <LCDShowTime+0x180>)
    ca98:	5c9a      	ldrb	r2, [r3, r2]
    ca9a:	231e      	movs	r3, #30
    ca9c:	18fb      	adds	r3, r7, r3
    ca9e:	781b      	ldrb	r3, [r3, #0]
    caa0:	3230      	adds	r2, #48	; 0x30
    caa2:	b2d1      	uxtb	r1, r2
    caa4:	003a      	movs	r2, r7
    caa6:	54d1      	strb	r1, [r2, r3]
E:\2017-2018\03_Graduation Project\04_Software\05_Wangshi\03_UpdateSoftware-180702\02_UEUser\KL36_Update-180627\Debug/../06_NosPrg/main.c:699 (discriminator 2)
	for(j=0,i=0;i<14;j++)
    caa8:	211e      	movs	r1, #30
    caaa:	187b      	adds	r3, r7, r1
    caac:	781a      	ldrb	r2, [r3, #0]
    caae:	187b      	adds	r3, r7, r1
    cab0:	3201      	adds	r2, #1
    cab2:	701a      	strb	r2, [r3, #0]
E:\2017-2018\03_Graduation Project\04_Software\05_Wangshi\03_UpdateSoftware-180702\02_UEUser\KL36_Update-180627\Debug/../06_NosPrg/main.c:699 (discriminator 1)
    cab4:	231f      	movs	r3, #31
    cab6:	18fb      	adds	r3, r7, r3
    cab8:	781b      	ldrb	r3, [r3, #0]
    caba:	2b0d      	cmp	r3, #13
    cabc:	d800      	bhi.n	cac0 <LCDShowTime+0x154>
    cabe:	e768      	b.n	c992 <LCDShowTime+0x26>
E:\2017-2018\03_Graduation Project\04_Software\05_Wangshi\03_UpdateSoftware-180702\02_UEUser\KL36_Update-180627\Debug/../06_NosPrg/main.c:727
	}
	LCD_ShowString(49,230,BLUE,GRAY,sTime);
    cac0:	4a0b      	ldr	r2, [pc, #44]	; (caf0 <LCDShowTime+0x184>)
    cac2:	003b      	movs	r3, r7
    cac4:	9300      	str	r3, [sp, #0]
    cac6:	0013      	movs	r3, r2
    cac8:	221f      	movs	r2, #31
    caca:	21e6      	movs	r1, #230	; 0xe6
    cacc:	2031      	movs	r0, #49	; 0x31
    cace:	f001 f833 	bl	db38 <LCD_ShowString>
E:\2017-2018\03_Graduation Project\04_Software\05_Wangshi\03_UpdateSoftware-180702\02_UEUser\KL36_Update-180627\Debug/../06_NosPrg/main.c:728
}
    cad2:	46c0      	nop			; (mov r8, r8)
    cad4:	46bd      	mov	sp, r7
    cad6:	b008      	add	sp, #32
    cad8:	bd80      	pop	{r7, pc}
    cada:	46c0      	nop			; (mov r8, r8)
    cadc:	0000e798 	.word	0x0000e798
    cae0:	0000e79c 	.word	0x0000e79c
    cae4:	0000e7a0 	.word	0x0000e7a0
    cae8:	0000e7a4 	.word	0x0000e7a4
    caec:	20000e28 	.word	0x20000e28
    caf0:	00008430 	.word	0x00008430

0000caf4 <LCD_ShowFlash>:
LCD_ShowFlash():
E:\2017-2018\03_Graduation Project\04_Software\05_Wangshi\03_UpdateSoftware-180702\02_UEUser\KL36_Update-180627\Debug/../06_NosPrg/main.c:737
//
//
//LCDflash
//=====================================================================
void LCD_ShowFlash()
{
    caf4:	b580      	push	{r7, lr}
    caf6:	b08a      	sub	sp, #40	; 0x28
    caf8:	af02      	add	r7, sp, #8
E:\2017-2018\03_Graduation Project\04_Software\05_Wangshi\03_UpdateSoftware-180702\02_UEUser\KL36_Update-180627\Debug/../06_NosPrg/main.c:738
    uint_8 temp[30] = {0};
    cafa:	003b      	movs	r3, r7
    cafc:	0018      	movs	r0, r3
    cafe:	231e      	movs	r3, #30
    cb00:	001a      	movs	r2, r3
    cb02:	2100      	movs	r1, #0
    cb04:	f001 fc05 	bl	e312 <memset>
E:\2017-2018\03_Graduation Project\04_Software\05_Wangshi\03_UpdateSoftware-180702\02_UEUser\KL36_Update-180627\Debug/../06_NosPrg/main.c:740
	//6.1
	strncpy(temp,gFlashData.equipType,20);
    cb08:	4939      	ldr	r1, [pc, #228]	; (cbf0 <LCD_ShowFlash+0xfc>)
    cb0a:	003b      	movs	r3, r7
    cb0c:	2214      	movs	r2, #20
    cb0e:	0018      	movs	r0, r3
    cb10:	f001 fc07 	bl	e322 <strncpy>
E:\2017-2018\03_Graduation Project\04_Software\05_Wangshi\03_UpdateSoftware-180702\02_UEUser\KL36_Update-180627\Debug/../06_NosPrg/main.c:741
	temp[20]=0;
    cb14:	003b      	movs	r3, r7
    cb16:	2200      	movs	r2, #0
    cb18:	751a      	strb	r2, [r3, #20]
E:\2017-2018\03_Graduation Project\04_Software\05_Wangshi\03_UpdateSoftware-180702\02_UEUser\KL36_Update-180627\Debug/../06_NosPrg/main.c:742
	LCD_ShowString(70,45,BLUE,GRAY,temp);
    cb1a:	4a36      	ldr	r2, [pc, #216]	; (cbf4 <LCD_ShowFlash+0x100>)
    cb1c:	003b      	movs	r3, r7
    cb1e:	9300      	str	r3, [sp, #0]
    cb20:	0013      	movs	r3, r2
    cb22:	221f      	movs	r2, #31
    cb24:	212d      	movs	r1, #45	; 0x2d
    cb26:	2046      	movs	r0, #70	; 0x46
    cb28:	f001 f806 	bl	db38 <LCD_ShowString>
E:\2017-2018\03_Graduation Project\04_Software\05_Wangshi\03_UpdateSoftware-180702\02_UEUser\KL36_Update-180627\Debug/../06_NosPrg/main.c:744
	//6.2
	strncpy(temp,gFlashData.softVer,4);
    cb2c:	4932      	ldr	r1, [pc, #200]	; (cbf8 <LCD_ShowFlash+0x104>)
    cb2e:	003b      	movs	r3, r7
    cb30:	2204      	movs	r2, #4
    cb32:	0018      	movs	r0, r3
    cb34:	f001 fbf5 	bl	e322 <strncpy>
E:\2017-2018\03_Graduation Project\04_Software\05_Wangshi\03_UpdateSoftware-180702\02_UEUser\KL36_Update-180627\Debug/../06_NosPrg/main.c:745
	temp[4]=0;
    cb38:	003b      	movs	r3, r7
    cb3a:	2200      	movs	r2, #0
    cb3c:	711a      	strb	r2, [r3, #4]
E:\2017-2018\03_Graduation Project\04_Software\05_Wangshi\03_UpdateSoftware-180702\02_UEUser\KL36_Update-180627\Debug/../06_NosPrg/main.c:746
	LCD_ShowString(118,65,BLUE,GRAY,temp);
    cb3e:	4a2d      	ldr	r2, [pc, #180]	; (cbf4 <LCD_ShowFlash+0x100>)
    cb40:	003b      	movs	r3, r7
    cb42:	9300      	str	r3, [sp, #0]
    cb44:	0013      	movs	r3, r2
    cb46:	221f      	movs	r2, #31
    cb48:	2141      	movs	r1, #65	; 0x41
    cb4a:	2076      	movs	r0, #118	; 0x76
    cb4c:	f000 fff4 	bl	db38 <LCD_ShowString>
E:\2017-2018\03_Graduation Project\04_Software\05_Wangshi\03_UpdateSoftware-180702\02_UEUser\KL36_Update-180627\Debug/../06_NosPrg/main.c:748
	//6.3
	LCD_ShowString(180,210,BLUE,GRAY,"          ");
    cb50:	4a28      	ldr	r2, [pc, #160]	; (cbf4 <LCD_ShowFlash+0x100>)
    cb52:	4b2a      	ldr	r3, [pc, #168]	; (cbfc <LCD_ShowFlash+0x108>)
    cb54:	9300      	str	r3, [sp, #0]
    cb56:	0013      	movs	r3, r2
    cb58:	221f      	movs	r2, #31
    cb5a:	21d2      	movs	r1, #210	; 0xd2
    cb5c:	20b4      	movs	r0, #180	; 0xb4
    cb5e:	f000 ffeb 	bl	db38 <LCD_ShowString>
E:\2017-2018\03_Graduation Project\04_Software\05_Wangshi\03_UpdateSoftware-180702\02_UEUser\KL36_Update-180627\Debug/../06_NosPrg/main.c:750
	LCD_ShowString(180,210,BLUE,GRAY,
			(uint_8 *)myItoa(gFlashData.sendFrequencySec,temp,10));
    cb62:	4b27      	ldr	r3, [pc, #156]	; (cc00 <LCD_ShowFlash+0x10c>)
    cb64:	22a3      	movs	r2, #163	; 0xa3
    cb66:	5c9a      	ldrb	r2, [r3, r2]
    cb68:	21a4      	movs	r1, #164	; 0xa4
    cb6a:	5c59      	ldrb	r1, [r3, r1]
    cb6c:	0209      	lsls	r1, r1, #8
    cb6e:	430a      	orrs	r2, r1
    cb70:	21a5      	movs	r1, #165	; 0xa5
    cb72:	5c59      	ldrb	r1, [r3, r1]
    cb74:	0409      	lsls	r1, r1, #16
    cb76:	430a      	orrs	r2, r1
    cb78:	21a6      	movs	r1, #166	; 0xa6
    cb7a:	5c5b      	ldrb	r3, [r3, r1]
    cb7c:	061b      	lsls	r3, r3, #24
    cb7e:	4313      	orrs	r3, r2
    cb80:	0018      	movs	r0, r3
    cb82:	003b      	movs	r3, r7
    cb84:	220a      	movs	r2, #10
    cb86:	0019      	movs	r1, r3
    cb88:	f000 f840 	bl	cc0c <myItoa>
    cb8c:	0003      	movs	r3, r0
E:\2017-2018\03_Graduation Project\04_Software\05_Wangshi\03_UpdateSoftware-180702\02_UEUser\KL36_Update-180627\Debug/../06_NosPrg/main.c:749
	LCD_ShowString(180,210,BLUE,GRAY,
    cb8e:	4a19      	ldr	r2, [pc, #100]	; (cbf4 <LCD_ShowFlash+0x100>)
    cb90:	9300      	str	r3, [sp, #0]
    cb92:	0013      	movs	r3, r2
    cb94:	221f      	movs	r2, #31
    cb96:	21d2      	movs	r1, #210	; 0xd2
    cb98:	20b4      	movs	r0, #180	; 0xb4
    cb9a:	f000 ffcd 	bl	db38 <LCD_ShowString>
E:\2017-2018\03_Graduation Project\04_Software\05_Wangshi\03_UpdateSoftware-180702\02_UEUser\KL36_Update-180627\Debug/../06_NosPrg/main.c:752
	//6.4IP
	strncpy(temp,gFlashData.serverIP,15);
    cb9e:	4919      	ldr	r1, [pc, #100]	; (cc04 <LCD_ShowFlash+0x110>)
    cba0:	003b      	movs	r3, r7
    cba2:	220f      	movs	r2, #15
    cba4:	0018      	movs	r0, r3
    cba6:	f001 fbbc 	bl	e322 <strncpy>
E:\2017-2018\03_Graduation Project\04_Software\05_Wangshi\03_UpdateSoftware-180702\02_UEUser\KL36_Update-180627\Debug/../06_NosPrg/main.c:753
	temp[15]=0;
    cbaa:	003b      	movs	r3, r7
    cbac:	2200      	movs	r2, #0
    cbae:	73da      	strb	r2, [r3, #15]
E:\2017-2018\03_Graduation Project\04_Software\05_Wangshi\03_UpdateSoftware-180702\02_UEUser\KL36_Update-180627\Debug/../06_NosPrg/main.c:754
	LCD_ShowString(65,169,BLUE,GRAY,temp);
    cbb0:	4a10      	ldr	r2, [pc, #64]	; (cbf4 <LCD_ShowFlash+0x100>)
    cbb2:	003b      	movs	r3, r7
    cbb4:	9300      	str	r3, [sp, #0]
    cbb6:	0013      	movs	r3, r2
    cbb8:	221f      	movs	r2, #31
    cbba:	21a9      	movs	r1, #169	; 0xa9
    cbbc:	2041      	movs	r0, #65	; 0x41
    cbbe:	f000 ffbb 	bl	db38 <LCD_ShowString>
E:\2017-2018\03_Graduation Project\04_Software\05_Wangshi\03_UpdateSoftware-180702\02_UEUser\KL36_Update-180627\Debug/../06_NosPrg/main.c:756
    //6.5PORT
	strncpy(temp,gFlashData.serverPort,5);
    cbc2:	4911      	ldr	r1, [pc, #68]	; (cc08 <LCD_ShowFlash+0x114>)
    cbc4:	003b      	movs	r3, r7
    cbc6:	2205      	movs	r2, #5
    cbc8:	0018      	movs	r0, r3
    cbca:	f001 fbaa 	bl	e322 <strncpy>
E:\2017-2018\03_Graduation Project\04_Software\05_Wangshi\03_UpdateSoftware-180702\02_UEUser\KL36_Update-180627\Debug/../06_NosPrg/main.c:757
	temp[5]=0;
    cbce:	003b      	movs	r3, r7
    cbd0:	2200      	movs	r2, #0
    cbd2:	715a      	strb	r2, [r3, #5]
E:\2017-2018\03_Graduation Project\04_Software\05_Wangshi\03_UpdateSoftware-180702\02_UEUser\KL36_Update-180627\Debug/../06_NosPrg/main.c:758
	LCD_ShowString(65,189,BLUE,GRAY,temp);
    cbd4:	4a07      	ldr	r2, [pc, #28]	; (cbf4 <LCD_ShowFlash+0x100>)
    cbd6:	003b      	movs	r3, r7
    cbd8:	9300      	str	r3, [sp, #0]
    cbda:	0013      	movs	r3, r2
    cbdc:	221f      	movs	r2, #31
    cbde:	21bd      	movs	r1, #189	; 0xbd
    cbe0:	2041      	movs	r0, #65	; 0x41
    cbe2:	f000 ffa9 	bl	db38 <LCD_ShowString>
E:\2017-2018\03_Graduation Project\04_Software\05_Wangshi\03_UpdateSoftware-180702\02_UEUser\KL36_Update-180627\Debug/../06_NosPrg/main.c:761
//	//6.6TSI
//	LCD_ShowString(36,209,BLUE,GRAY,"0");
}
    cbe6:	46c0      	nop			; (mov r8, r8)
    cbe8:	46bd      	mov	sp, r7
    cbea:	b008      	add	sp, #32
    cbec:	bd80      	pop	{r7, pc}
    cbee:	46c0      	nop			; (mov r8, r8)
    cbf0:	200009ae 	.word	0x200009ae
    cbf4:	00008430 	.word	0x00008430
    cbf8:	200009e0 	.word	0x200009e0
    cbfc:	0000e530 	.word	0x0000e530
    cc00:	2000097c 	.word	0x2000097c
    cc04:	20000a0b 	.word	0x20000a0b
    cc08:	20000a1a 	.word	0x20000a1a

0000cc0c <myItoa>:
myItoa():
E:\2017-2018\03_Graduation Project\04_Software\05_Wangshi\03_UpdateSoftware-180702\02_UEUser\KL36_Update-180627\Debug/../05_SoftComponent/valueType/valueType.c:16
//numstr
//                   radix
//
//=====================================================================
uint_8 *myItoa(uint_32 num,uint_8 *str,uint_8 radix)
{
    cc0c:	b5f0      	push	{r4, r5, r6, r7, lr}
    cc0e:	b093      	sub	sp, #76	; 0x4c
    cc10:	af00      	add	r7, sp, #0
    cc12:	6178      	str	r0, [r7, #20]
    cc14:	6139      	str	r1, [r7, #16]
    cc16:	230f      	movs	r3, #15
    cc18:	18fb      	adds	r3, r7, r3
    cc1a:	701a      	strb	r2, [r3, #0]
E:\2017-2018\03_Graduation Project\04_Software\05_Wangshi\03_UpdateSoftware-180702\02_UEUser\KL36_Update-180627\Debug/../05_SoftComponent/valueType/valueType.c:18
	//1
	uint_8 index[]="0123456789ABCDEFGHIJKLMNOPQRSTUVWXYZ";
    cc1c:	2314      	movs	r3, #20
    cc1e:	2208      	movs	r2, #8
    cc20:	4694      	mov	ip, r2
    cc22:	44bc      	add	ip, r7
    cc24:	4463      	add	r3, ip
    cc26:	4a6e      	ldr	r2, [pc, #440]	; (cde0 <myItoa+0x1d4>)
    cc28:	ca13      	ldmia	r2!, {r0, r1, r4}
    cc2a:	c313      	stmia	r3!, {r0, r1, r4}
    cc2c:	ca13      	ldmia	r2!, {r0, r1, r4}
    cc2e:	c313      	stmia	r3!, {r0, r1, r4}
    cc30:	ca13      	ldmia	r2!, {r0, r1, r4}
    cc32:	c313      	stmia	r3!, {r0, r1, r4}
    cc34:	7812      	ldrb	r2, [r2, #0]
    cc36:	701a      	strb	r2, [r3, #0]
E:\2017-2018\03_Graduation Project\04_Software\05_Wangshi\03_UpdateSoftware-180702\02_UEUser\KL36_Update-180627\Debug/../05_SoftComponent/valueType/valueType.c:20
	uint_32 unum; /*  */
	uint_8 i=0,j,k;
    cc38:	233b      	movs	r3, #59	; 0x3b
    cc3a:	2208      	movs	r2, #8
    cc3c:	4694      	mov	ip, r2
    cc3e:	44bc      	add	ip, r7
    cc40:	4463      	add	r3, ip
    cc42:	2200      	movs	r2, #0
    cc44:	701a      	strb	r2, [r3, #0]
E:\2017-2018\03_Graduation Project\04_Software\05_Wangshi\03_UpdateSoftware-180702\02_UEUser\KL36_Update-180627\Debug/../05_SoftComponent/valueType/valueType.c:28
	{
	    unum=(unsigned)-num;
	    str[i++]='-';
	}
	else                                  //
		unum=(unsigned)num;
    cc46:	697b      	ldr	r3, [r7, #20]
    cc48:	647b      	str	r3, [r7, #68]	; 0x44
E:\2017-2018\03_Graduation Project\04_Software\05_Wangshi\03_UpdateSoftware-180702\02_UEUser\KL36_Update-180627\Debug/../05_SoftComponent/valueType/valueType.c:31 (discriminator 1)
	//3
	do {
	    str[i++]=index[unum%(unsigned)radix];
    cc4a:	240f      	movs	r4, #15
    cc4c:	193b      	adds	r3, r7, r4
    cc4e:	781a      	ldrb	r2, [r3, #0]
    cc50:	6c7b      	ldr	r3, [r7, #68]	; 0x44
    cc52:	0011      	movs	r1, r2
    cc54:	0018      	movs	r0, r3
    cc56:	f7fc f8e7 	bl	8e28 <__aeabi_uidivmod>
    cc5a:	000b      	movs	r3, r1
    cc5c:	0019      	movs	r1, r3
    cc5e:	223b      	movs	r2, #59	; 0x3b
    cc60:	2308      	movs	r3, #8
    cc62:	18fb      	adds	r3, r7, r3
    cc64:	189b      	adds	r3, r3, r2
    cc66:	781b      	ldrb	r3, [r3, #0]
    cc68:	2008      	movs	r0, #8
    cc6a:	4684      	mov	ip, r0
    cc6c:	44bc      	add	ip, r7
    cc6e:	4462      	add	r2, ip
    cc70:	1c58      	adds	r0, r3, #1
    cc72:	7010      	strb	r0, [r2, #0]
    cc74:	001a      	movs	r2, r3
    cc76:	693b      	ldr	r3, [r7, #16]
    cc78:	189b      	adds	r3, r3, r2
    cc7a:	2214      	movs	r2, #20
    cc7c:	2008      	movs	r0, #8
    cc7e:	4684      	mov	ip, r0
    cc80:	44bc      	add	ip, r7
    cc82:	4462      	add	r2, ip
    cc84:	5c52      	ldrb	r2, [r2, r1]
    cc86:	701a      	strb	r2, [r3, #0]
E:\2017-2018\03_Graduation Project\04_Software\05_Wangshi\03_UpdateSoftware-180702\02_UEUser\KL36_Update-180627\Debug/../05_SoftComponent/valueType/valueType.c:32 (discriminator 1)
	    unum/=radix;
    cc88:	193b      	adds	r3, r7, r4
    cc8a:	781b      	ldrb	r3, [r3, #0]
    cc8c:	0019      	movs	r1, r3
    cc8e:	6c78      	ldr	r0, [r7, #68]	; 0x44
    cc90:	f7fc f844 	bl	8d1c <__udivsi3>
    cc94:	0003      	movs	r3, r0
    cc96:	647b      	str	r3, [r7, #68]	; 0x44
E:\2017-2018\03_Graduation Project\04_Software\05_Wangshi\03_UpdateSoftware-180702\02_UEUser\KL36_Update-180627\Debug/../05_SoftComponent/valueType/valueType.c:33 (discriminator 1)
	}while(unum);
    cc98:	6c7b      	ldr	r3, [r7, #68]	; 0x44
    cc9a:	2b00      	cmp	r3, #0
    cc9c:	d1d5      	bne.n	cc4a <myItoa+0x3e>
E:\2017-2018\03_Graduation Project\04_Software\05_Wangshi\03_UpdateSoftware-180702\02_UEUser\KL36_Update-180627\Debug/../05_SoftComponent/valueType/valueType.c:34
	str[i]='\0';
    cc9e:	233b      	movs	r3, #59	; 0x3b
    cca0:	2208      	movs	r2, #8
    cca2:	4694      	mov	ip, r2
    cca4:	44bc      	add	ip, r7
    cca6:	4463      	add	r3, ip
    cca8:	781b      	ldrb	r3, [r3, #0]
    ccaa:	693a      	ldr	r2, [r7, #16]
    ccac:	18d3      	adds	r3, r2, r3
    ccae:	2200      	movs	r2, #0
    ccb0:	701a      	strb	r2, [r3, #0]
E:\2017-2018\03_Graduation Project\04_Software\05_Wangshi\03_UpdateSoftware-180702\02_UEUser\KL36_Update-180627\Debug/../05_SoftComponent/valueType/valueType.c:36
	//4
	if(str[0]=='-') k=1; /*  */
    ccb2:	693b      	ldr	r3, [r7, #16]
    ccb4:	781b      	ldrb	r3, [r3, #0]
    ccb6:	2b2d      	cmp	r3, #45	; 0x2d
    ccb8:	d107      	bne.n	ccca <myItoa+0xbe>
E:\2017-2018\03_Graduation Project\04_Software\05_Wangshi\03_UpdateSoftware-180702\02_UEUser\KL36_Update-180627\Debug/../05_SoftComponent/valueType/valueType.c:36 (discriminator 1)
    ccba:	2339      	movs	r3, #57	; 0x39
    ccbc:	2208      	movs	r2, #8
    ccbe:	4694      	mov	ip, r2
    ccc0:	44bc      	add	ip, r7
    ccc2:	4463      	add	r3, ip
    ccc4:	2201      	movs	r2, #1
    ccc6:	701a      	strb	r2, [r3, #0]
    ccc8:	e006      	b.n	ccd8 <myItoa+0xcc>
E:\2017-2018\03_Graduation Project\04_Software\05_Wangshi\03_UpdateSoftware-180702\02_UEUser\KL36_Update-180627\Debug/../05_SoftComponent/valueType/valueType.c:37
	else k=0;
    ccca:	2339      	movs	r3, #57	; 0x39
    cccc:	2208      	movs	r2, #8
    ccce:	4694      	mov	ip, r2
    ccd0:	44bc      	add	ip, r7
    ccd2:	4463      	add	r3, ip
    ccd4:	2200      	movs	r2, #0
    ccd6:	701a      	strb	r2, [r3, #0]
E:\2017-2018\03_Graduation Project\04_Software\05_Wangshi\03_UpdateSoftware-180702\02_UEUser\KL36_Update-180627\Debug/../05_SoftComponent/valueType/valueType.c:39
	//5 "/2""/2.0",num16~255radix16
	for(j=k;j<=(i-1)/2.0+k;j++)
    ccd8:	233a      	movs	r3, #58	; 0x3a
    ccda:	2208      	movs	r2, #8
    ccdc:	4694      	mov	ip, r2
    ccde:	44bc      	add	ip, r7
    cce0:	4463      	add	r3, ip
    cce2:	2239      	movs	r2, #57	; 0x39
    cce4:	2108      	movs	r1, #8
    cce6:	468c      	mov	ip, r1
    cce8:	44bc      	add	ip, r7
    ccea:	4462      	add	r2, ip
    ccec:	7812      	ldrb	r2, [r2, #0]
    ccee:	701a      	strb	r2, [r3, #0]
    ccf0:	e03c      	b.n	cd6c <myItoa+0x160>
E:\2017-2018\03_Graduation Project\04_Software\05_Wangshi\03_UpdateSoftware-180702\02_UEUser\KL36_Update-180627\Debug/../05_SoftComponent/valueType/valueType.c:41 (discriminator 3)
	{
	    num=str[j];
    ccf2:	213a      	movs	r1, #58	; 0x3a
    ccf4:	2608      	movs	r6, #8
    ccf6:	19bb      	adds	r3, r7, r6
    ccf8:	185b      	adds	r3, r3, r1
    ccfa:	781b      	ldrb	r3, [r3, #0]
    ccfc:	693a      	ldr	r2, [r7, #16]
    ccfe:	18d3      	adds	r3, r2, r3
    cd00:	781b      	ldrb	r3, [r3, #0]
    cd02:	617b      	str	r3, [r7, #20]
E:\2017-2018\03_Graduation Project\04_Software\05_Wangshi\03_UpdateSoftware-180702\02_UEUser\KL36_Update-180627\Debug/../05_SoftComponent/valueType/valueType.c:42 (discriminator 3)
	    str[j]=str[i-j-1+k];
    cd04:	243b      	movs	r4, #59	; 0x3b
    cd06:	19bb      	adds	r3, r7, r6
    cd08:	191b      	adds	r3, r3, r4
    cd0a:	781a      	ldrb	r2, [r3, #0]
    cd0c:	19bb      	adds	r3, r7, r6
    cd0e:	185b      	adds	r3, r3, r1
    cd10:	781b      	ldrb	r3, [r3, #0]
    cd12:	1ad3      	subs	r3, r2, r3
    cd14:	1e5a      	subs	r2, r3, #1
    cd16:	2539      	movs	r5, #57	; 0x39
    cd18:	19bb      	adds	r3, r7, r6
    cd1a:	195b      	adds	r3, r3, r5
    cd1c:	781b      	ldrb	r3, [r3, #0]
    cd1e:	18d3      	adds	r3, r2, r3
    cd20:	001a      	movs	r2, r3
    cd22:	693b      	ldr	r3, [r7, #16]
    cd24:	189a      	adds	r2, r3, r2
    cd26:	0008      	movs	r0, r1
    cd28:	19bb      	adds	r3, r7, r6
    cd2a:	185b      	adds	r3, r3, r1
    cd2c:	781b      	ldrb	r3, [r3, #0]
    cd2e:	6939      	ldr	r1, [r7, #16]
    cd30:	18cb      	adds	r3, r1, r3
    cd32:	7812      	ldrb	r2, [r2, #0]
    cd34:	701a      	strb	r2, [r3, #0]
E:\2017-2018\03_Graduation Project\04_Software\05_Wangshi\03_UpdateSoftware-180702\02_UEUser\KL36_Update-180627\Debug/../05_SoftComponent/valueType/valueType.c:43 (discriminator 3)
	    str[i-j-1+k]=num;
    cd36:	19bb      	adds	r3, r7, r6
    cd38:	191b      	adds	r3, r3, r4
    cd3a:	781a      	ldrb	r2, [r3, #0]
    cd3c:	0001      	movs	r1, r0
    cd3e:	0030      	movs	r0, r6
    cd40:	183b      	adds	r3, r7, r0
    cd42:	185b      	adds	r3, r3, r1
    cd44:	781b      	ldrb	r3, [r3, #0]
    cd46:	1ad3      	subs	r3, r2, r3
    cd48:	1e5a      	subs	r2, r3, #1
    cd4a:	183b      	adds	r3, r7, r0
    cd4c:	195b      	adds	r3, r3, r5
    cd4e:	781b      	ldrb	r3, [r3, #0]
    cd50:	18d3      	adds	r3, r2, r3
    cd52:	001a      	movs	r2, r3
    cd54:	693b      	ldr	r3, [r7, #16]
    cd56:	189b      	adds	r3, r3, r2
    cd58:	697a      	ldr	r2, [r7, #20]
    cd5a:	b2d2      	uxtb	r2, r2
    cd5c:	701a      	strb	r2, [r3, #0]
E:\2017-2018\03_Graduation Project\04_Software\05_Wangshi\03_UpdateSoftware-180702\02_UEUser\KL36_Update-180627\Debug/../05_SoftComponent/valueType/valueType.c:39 (discriminator 3)
	for(j=k;j<=(i-1)/2.0+k;j++)
    cd5e:	183b      	adds	r3, r7, r0
    cd60:	185b      	adds	r3, r3, r1
    cd62:	781a      	ldrb	r2, [r3, #0]
    cd64:	183b      	adds	r3, r7, r0
    cd66:	185b      	adds	r3, r3, r1
    cd68:	3201      	adds	r2, #1
    cd6a:	701a      	strb	r2, [r3, #0]
E:\2017-2018\03_Graduation Project\04_Software\05_Wangshi\03_UpdateSoftware-180702\02_UEUser\KL36_Update-180627\Debug/../05_SoftComponent/valueType/valueType.c:39 (discriminator 1)
    cd6c:	233a      	movs	r3, #58	; 0x3a
    cd6e:	2208      	movs	r2, #8
    cd70:	4694      	mov	ip, r2
    cd72:	44bc      	add	ip, r7
    cd74:	4463      	add	r3, ip
    cd76:	781b      	ldrb	r3, [r3, #0]
    cd78:	0018      	movs	r0, r3
    cd7a:	f7fd fe91 	bl	aaa0 <__aeabi_i2d>
    cd7e:	0004      	movs	r4, r0
    cd80:	000d      	movs	r5, r1
    cd82:	233b      	movs	r3, #59	; 0x3b
    cd84:	2208      	movs	r2, #8
    cd86:	4694      	mov	ip, r2
    cd88:	44bc      	add	ip, r7
    cd8a:	4463      	add	r3, ip
    cd8c:	781b      	ldrb	r3, [r3, #0]
    cd8e:	3b01      	subs	r3, #1
    cd90:	0018      	movs	r0, r3
    cd92:	f7fd fe85 	bl	aaa0 <__aeabi_i2d>
    cd96:	2200      	movs	r2, #0
    cd98:	2380      	movs	r3, #128	; 0x80
    cd9a:	05db      	lsls	r3, r3, #23
    cd9c:	f7fc fc86 	bl	96ac <__aeabi_ddiv>
    cda0:	0002      	movs	r2, r0
    cda2:	000b      	movs	r3, r1
    cda4:	603a      	str	r2, [r7, #0]
    cda6:	607b      	str	r3, [r7, #4]
    cda8:	2339      	movs	r3, #57	; 0x39
    cdaa:	2208      	movs	r2, #8
    cdac:	4694      	mov	ip, r2
    cdae:	44bc      	add	ip, r7
    cdb0:	4463      	add	r3, ip
    cdb2:	781b      	ldrb	r3, [r3, #0]
    cdb4:	0018      	movs	r0, r3
    cdb6:	f7fd fe73 	bl	aaa0 <__aeabi_i2d>
    cdba:	0002      	movs	r2, r0
    cdbc:	000b      	movs	r3, r1
    cdbe:	6838      	ldr	r0, [r7, #0]
    cdc0:	6879      	ldr	r1, [r7, #4]
    cdc2:	f7fc f957 	bl	9074 <__aeabi_dadd>
    cdc6:	0002      	movs	r2, r0
    cdc8:	000b      	movs	r3, r1
    cdca:	0020      	movs	r0, r4
    cdcc:	0029      	movs	r1, r5
    cdce:	f7fc f851 	bl	8e74 <__aeabi_dcmple>
    cdd2:	1e03      	subs	r3, r0, #0
    cdd4:	d18d      	bne.n	ccf2 <myItoa+0xe6>
E:\2017-2018\03_Graduation Project\04_Software\05_Wangshi\03_UpdateSoftware-180702\02_UEUser\KL36_Update-180627\Debug/../05_SoftComponent/valueType/valueType.c:45
	}
	return str;
    cdd6:	693b      	ldr	r3, [r7, #16]
E:\2017-2018\03_Graduation Project\04_Software\05_Wangshi\03_UpdateSoftware-180702\02_UEUser\KL36_Update-180627\Debug/../05_SoftComponent/valueType/valueType.c:46
}
    cdd8:	0018      	movs	r0, r3
    cdda:	46bd      	mov	sp, r7
    cddc:	b013      	add	sp, #76	; 0x4c
    cdde:	bdf0      	pop	{r4, r5, r6, r7, pc}
    cde0:	0000e7a8 	.word	0x0000e7a8

0000cde4 <Delay_ms>:
Delay_ms():
E:\2017-2018\03_Graduation Project\04_Software\05_Wangshi\03_UpdateSoftware-180702\02_UEUser\KL36_Update-180627\Debug/../05_SoftComponent/common/common.c:144
//
//
// - 
//======================================================================
void Delay_ms(uint16_t u16ms)
{
    cde4:	b580      	push	{r7, lr}
    cde6:	b084      	sub	sp, #16
    cde8:	af00      	add	r7, sp, #0
    cdea:	0002      	movs	r2, r0
    cdec:	1dbb      	adds	r3, r7, #6
    cdee:	801a      	strh	r2, [r3, #0]
E:\2017-2018\03_Graduation Project\04_Software\05_Wangshi\03_UpdateSoftware-180702\02_UEUser\KL36_Update-180627\Debug/../05_SoftComponent/common/common.c:147
	vuint_16 i;
	vuint_32 j;
	for(i = 0; i<u16ms; i++)
    cdf0:	230e      	movs	r3, #14
    cdf2:	18fb      	adds	r3, r7, r3
    cdf4:	2200      	movs	r2, #0
    cdf6:	801a      	strh	r2, [r3, #0]
    cdf8:	e012      	b.n	ce20 <Delay_ms+0x3c>
E:\2017-2018\03_Graduation Project\04_Software\05_Wangshi\03_UpdateSoftware-180702\02_UEUser\KL36_Update-180627\Debug/../05_SoftComponent/common/common.c:149
	{
		for(j = 0; j<4200; j++)
    cdfa:	2300      	movs	r3, #0
    cdfc:	60bb      	str	r3, [r7, #8]
    cdfe:	e003      	b.n	ce08 <Delay_ms+0x24>
E:\2017-2018\03_Graduation Project\04_Software\05_Wangshi\03_UpdateSoftware-180702\02_UEUser\KL36_Update-180627\Debug/../05_SoftComponent/common/common.c:150 (discriminator 3)
			__asm ("NOP");
    ce00:	46c0      	nop			; (mov r8, r8)
E:\2017-2018\03_Graduation Project\04_Software\05_Wangshi\03_UpdateSoftware-180702\02_UEUser\KL36_Update-180627\Debug/../05_SoftComponent/common/common.c:149 (discriminator 3)
		for(j = 0; j<4200; j++)
    ce02:	68bb      	ldr	r3, [r7, #8]
    ce04:	3301      	adds	r3, #1
    ce06:	60bb      	str	r3, [r7, #8]
E:\2017-2018\03_Graduation Project\04_Software\05_Wangshi\03_UpdateSoftware-180702\02_UEUser\KL36_Update-180627\Debug/../05_SoftComponent/common/common.c:149 (discriminator 1)
    ce08:	68bb      	ldr	r3, [r7, #8]
    ce0a:	4a0b      	ldr	r2, [pc, #44]	; (ce38 <Delay_ms+0x54>)
    ce0c:	4293      	cmp	r3, r2
    ce0e:	d9f7      	bls.n	ce00 <Delay_ms+0x1c>
E:\2017-2018\03_Graduation Project\04_Software\05_Wangshi\03_UpdateSoftware-180702\02_UEUser\KL36_Update-180627\Debug/../05_SoftComponent/common/common.c:147 (discriminator 2)
	for(i = 0; i<u16ms; i++)
    ce10:	210e      	movs	r1, #14
    ce12:	187b      	adds	r3, r7, r1
    ce14:	881b      	ldrh	r3, [r3, #0]
    ce16:	b29b      	uxth	r3, r3
    ce18:	3301      	adds	r3, #1
    ce1a:	b29a      	uxth	r2, r3
    ce1c:	187b      	adds	r3, r7, r1
    ce1e:	801a      	strh	r2, [r3, #0]
E:\2017-2018\03_Graduation Project\04_Software\05_Wangshi\03_UpdateSoftware-180702\02_UEUser\KL36_Update-180627\Debug/../05_SoftComponent/common/common.c:147 (discriminator 1)
    ce20:	230e      	movs	r3, #14
    ce22:	18fb      	adds	r3, r7, r3
    ce24:	881b      	ldrh	r3, [r3, #0]
    ce26:	b29b      	uxth	r3, r3
    ce28:	1dba      	adds	r2, r7, #6
    ce2a:	8812      	ldrh	r2, [r2, #0]
    ce2c:	429a      	cmp	r2, r3
    ce2e:	d8e4      	bhi.n	cdfa <Delay_ms+0x16>
E:\2017-2018\03_Graduation Project\04_Software\05_Wangshi\03_UpdateSoftware-180702\02_UEUser\KL36_Update-180627\Debug/../05_SoftComponent/common/common.c:156
#if ENABLE_WDOG == 1
		if(i%30==0)
			wdog_feed();           //
#endif
	}
}
    ce30:	46c0      	nop			; (mov r8, r8)
    ce32:	46bd      	mov	sp, r7
    ce34:	b004      	add	sp, #16
    ce36:	bd80      	pop	{r7, pc}
    ce38:	00001067 	.word	0x00001067

0000ce3c <funPointerInit>:
funPointerInit():
E:\2017-2018\03_Graduation Project\04_Software\05_Wangshi\03_UpdateSoftware-180702\02_UEUser\KL36_Update-180627\Debug/../05_SoftComponent/common/common.c:165
//
//
//bootloader
//======================================================================
void funPointerInit()
{
    ce3c:	b590      	push	{r4, r7, lr}
    ce3e:	b0c7      	sub	sp, #284	; 0x11c
    ce40:	af00      	add	r7, sp, #0
E:\2017-2018\03_Graduation Project\04_Software\05_Wangshi\03_UpdateSoftware-180702\02_UEUser\KL36_Update-180627\Debug/../05_SoftComponent/common/common.c:171
	//1
	uint_8 *src;
	struct funInfo info;

	//2flash43
	src=(uint_8 *)(33*1024);
    ce42:	2384      	movs	r3, #132	; 0x84
    ce44:	021b      	lsls	r3, r3, #8
    ce46:	218a      	movs	r1, #138	; 0x8a
    ce48:	0049      	lsls	r1, r1, #1
    ce4a:	187a      	adds	r2, r7, r1
    ce4c:	6013      	str	r3, [r2, #0]
E:\2017-2018\03_Graduation Project\04_Software\05_Wangshi\03_UpdateSoftware-180702\02_UEUser\KL36_Update-180627\Debug/../05_SoftComponent/common/common.c:172
	memcpy((uint_8*)&info,src,sizeof(struct funInfo));
    ce4e:	4bfe      	ldr	r3, [pc, #1016]	; (d248 <funPointerInit+0x40c>)
    ce50:	248c      	movs	r4, #140	; 0x8c
    ce52:	0064      	lsls	r4, r4, #1
    ce54:	193a      	adds	r2, r7, r4
    ce56:	18d2      	adds	r2, r2, r3
    ce58:	187b      	adds	r3, r7, r1
    ce5a:	681b      	ldr	r3, [r3, #0]
    ce5c:	0010      	movs	r0, r2
    ce5e:	0019      	movs	r1, r3
    ce60:	238a      	movs	r3, #138	; 0x8a
    ce62:	005b      	lsls	r3, r3, #1
    ce64:	001a      	movs	r2, r3
    ce66:	f001 fa4b 	bl	e300 <memcpy>
E:\2017-2018\03_Graduation Project\04_Software\05_Wangshi\03_UpdateSoftware-180702\02_UEUser\KL36_Update-180627\Debug/../05_SoftComponent/common/common.c:175
	//3
	//3.1bootloader
	systemTimeGet = (fun_systemTimeGet)info.fun_systemTimeGet;
    ce6a:	4bf7      	ldr	r3, [pc, #988]	; (d248 <funPointerInit+0x40c>)
    ce6c:	228c      	movs	r2, #140	; 0x8c
    ce6e:	0052      	lsls	r2, r2, #1
    ce70:	4694      	mov	ip, r2
    ce72:	44bc      	add	ip, r7
    ce74:	4463      	add	r3, ip
    ce76:	681b      	ldr	r3, [r3, #0]
    ce78:	001a      	movs	r2, r3
    ce7a:	4bf4      	ldr	r3, [pc, #976]	; (d24c <funPointerInit+0x410>)
    ce7c:	601a      	str	r2, [r3, #0]
E:\2017-2018\03_Graduation Project\04_Software\05_Wangshi\03_UpdateSoftware-180702\02_UEUser\KL36_Update-180627\Debug/../05_SoftComponent/common/common.c:177
	//3.2adc2
	adc_init = (fun_adc_init)info.fun_adc_init;
    ce7e:	4bf2      	ldr	r3, [pc, #968]	; (d248 <funPointerInit+0x40c>)
    ce80:	228c      	movs	r2, #140	; 0x8c
    ce82:	0052      	lsls	r2, r2, #1
    ce84:	4694      	mov	ip, r2
    ce86:	44bc      	add	ip, r7
    ce88:	4463      	add	r3, ip
    ce8a:	685b      	ldr	r3, [r3, #4]
    ce8c:	001a      	movs	r2, r3
    ce8e:	4bf0      	ldr	r3, [pc, #960]	; (d250 <funPointerInit+0x414>)
    ce90:	601a      	str	r2, [r3, #0]
E:\2017-2018\03_Graduation Project\04_Software\05_Wangshi\03_UpdateSoftware-180702\02_UEUser\KL36_Update-180627\Debug/../05_SoftComponent/common/common.c:178
	adc_read = (fun_adc_read)info.fun_adc_read;
    ce92:	4bed      	ldr	r3, [pc, #948]	; (d248 <funPointerInit+0x40c>)
    ce94:	228c      	movs	r2, #140	; 0x8c
    ce96:	0052      	lsls	r2, r2, #1
    ce98:	4694      	mov	ip, r2
    ce9a:	44bc      	add	ip, r7
    ce9c:	4463      	add	r3, ip
    ce9e:	689b      	ldr	r3, [r3, #8]
    cea0:	001a      	movs	r2, r3
    cea2:	4bec      	ldr	r3, [pc, #944]	; (d254 <funPointerInit+0x418>)
    cea4:	601a      	str	r2, [r3, #0]
E:\2017-2018\03_Graduation Project\04_Software\05_Wangshi\03_UpdateSoftware-180702\02_UEUser\KL36_Update-180627\Debug/../05_SoftComponent/common/common.c:180
	//3.3flash7
	flash_init = (fun_flash_init)info.fun_flash_init;
    cea6:	4be8      	ldr	r3, [pc, #928]	; (d248 <funPointerInit+0x40c>)
    cea8:	228c      	movs	r2, #140	; 0x8c
    ceaa:	0052      	lsls	r2, r2, #1
    ceac:	4694      	mov	ip, r2
    ceae:	44bc      	add	ip, r7
    ceb0:	4463      	add	r3, ip
    ceb2:	68db      	ldr	r3, [r3, #12]
    ceb4:	001a      	movs	r2, r3
    ceb6:	4be8      	ldr	r3, [pc, #928]	; (d258 <funPointerInit+0x41c>)
    ceb8:	601a      	str	r2, [r3, #0]
E:\2017-2018\03_Graduation Project\04_Software\05_Wangshi\03_UpdateSoftware-180702\02_UEUser\KL36_Update-180627\Debug/../05_SoftComponent/common/common.c:181
	flash_erase = (fun_flash_erase)info.fun_flash_erase;
    ceba:	4be3      	ldr	r3, [pc, #908]	; (d248 <funPointerInit+0x40c>)
    cebc:	228c      	movs	r2, #140	; 0x8c
    cebe:	0052      	lsls	r2, r2, #1
    cec0:	4694      	mov	ip, r2
    cec2:	44bc      	add	ip, r7
    cec4:	4463      	add	r3, ip
    cec6:	691b      	ldr	r3, [r3, #16]
    cec8:	001a      	movs	r2, r3
    ceca:	4be4      	ldr	r3, [pc, #912]	; (d25c <funPointerInit+0x420>)
    cecc:	601a      	str	r2, [r3, #0]
E:\2017-2018\03_Graduation Project\04_Software\05_Wangshi\03_UpdateSoftware-180702\02_UEUser\KL36_Update-180627\Debug/../05_SoftComponent/common/common.c:182
	flash_write = (fun_flash_write)info.fun_flash_write;
    cece:	4bde      	ldr	r3, [pc, #888]	; (d248 <funPointerInit+0x40c>)
    ced0:	228c      	movs	r2, #140	; 0x8c
    ced2:	0052      	lsls	r2, r2, #1
    ced4:	4694      	mov	ip, r2
    ced6:	44bc      	add	ip, r7
    ced8:	4463      	add	r3, ip
    ceda:	695b      	ldr	r3, [r3, #20]
    cedc:	001a      	movs	r2, r3
    cede:	4be0      	ldr	r3, [pc, #896]	; (d260 <funPointerInit+0x424>)
    cee0:	601a      	str	r2, [r3, #0]
E:\2017-2018\03_Graduation Project\04_Software\05_Wangshi\03_UpdateSoftware-180702\02_UEUser\KL36_Update-180627\Debug/../05_SoftComponent/common/common.c:183
	flash_read_logic = (fun_flash_read_logic)info.fun_flash_read_logic;
    cee2:	4bd9      	ldr	r3, [pc, #868]	; (d248 <funPointerInit+0x40c>)
    cee4:	228c      	movs	r2, #140	; 0x8c
    cee6:	0052      	lsls	r2, r2, #1
    cee8:	4694      	mov	ip, r2
    ceea:	44bc      	add	ip, r7
    ceec:	4463      	add	r3, ip
    ceee:	699b      	ldr	r3, [r3, #24]
    cef0:	001a      	movs	r2, r3
    cef2:	4bdc      	ldr	r3, [pc, #880]	; (d264 <funPointerInit+0x428>)
    cef4:	601a      	str	r2, [r3, #0]
E:\2017-2018\03_Graduation Project\04_Software\05_Wangshi\03_UpdateSoftware-180702\02_UEUser\KL36_Update-180627\Debug/../05_SoftComponent/common/common.c:184
	flash_read_physical = (fun_flash_read_physical)info.fun_flash_read_physical;
    cef6:	4bd4      	ldr	r3, [pc, #848]	; (d248 <funPointerInit+0x40c>)
    cef8:	228c      	movs	r2, #140	; 0x8c
    cefa:	0052      	lsls	r2, r2, #1
    cefc:	4694      	mov	ip, r2
    cefe:	44bc      	add	ip, r7
    cf00:	4463      	add	r3, ip
    cf02:	69db      	ldr	r3, [r3, #28]
    cf04:	001a      	movs	r2, r3
    cf06:	4bd8      	ldr	r3, [pc, #864]	; (d268 <funPointerInit+0x42c>)
    cf08:	601a      	str	r2, [r3, #0]
E:\2017-2018\03_Graduation Project\04_Software\05_Wangshi\03_UpdateSoftware-180702\02_UEUser\KL36_Update-180627\Debug/../05_SoftComponent/common/common.c:185
	flash_protect = (fun_flash_protect)info.fun_flash_protect;
    cf0a:	4bcf      	ldr	r3, [pc, #828]	; (d248 <funPointerInit+0x40c>)
    cf0c:	228c      	movs	r2, #140	; 0x8c
    cf0e:	0052      	lsls	r2, r2, #1
    cf10:	4694      	mov	ip, r2
    cf12:	44bc      	add	ip, r7
    cf14:	4463      	add	r3, ip
    cf16:	6a1b      	ldr	r3, [r3, #32]
    cf18:	001a      	movs	r2, r3
    cf1a:	4bd4      	ldr	r3, [pc, #848]	; (d26c <funPointerInit+0x430>)
    cf1c:	601a      	str	r2, [r3, #0]
E:\2017-2018\03_Graduation Project\04_Software\05_Wangshi\03_UpdateSoftware-180702\02_UEUser\KL36_Update-180627\Debug/../05_SoftComponent/common/common.c:186
	flash_isempty = (fun_flash_isempty)info.fun_flash_isempty;
    cf1e:	4bca      	ldr	r3, [pc, #808]	; (d248 <funPointerInit+0x40c>)
    cf20:	228c      	movs	r2, #140	; 0x8c
    cf22:	0052      	lsls	r2, r2, #1
    cf24:	4694      	mov	ip, r2
    cf26:	44bc      	add	ip, r7
    cf28:	4463      	add	r3, ip
    cf2a:	6a5b      	ldr	r3, [r3, #36]	; 0x24
    cf2c:	001a      	movs	r2, r3
    cf2e:	4bd0      	ldr	r3, [pc, #832]	; (d270 <funPointerInit+0x434>)
    cf30:	601a      	str	r2, [r3, #0]
E:\2017-2018\03_Graduation Project\04_Software\05_Wangshi\03_UpdateSoftware-180702\02_UEUser\KL36_Update-180627\Debug/../05_SoftComponent/common/common.c:188
	//3.4gpio11
	gpio_init = (fun_gpio_init)info.fun_gpio_init;
    cf32:	4bc5      	ldr	r3, [pc, #788]	; (d248 <funPointerInit+0x40c>)
    cf34:	228c      	movs	r2, #140	; 0x8c
    cf36:	0052      	lsls	r2, r2, #1
    cf38:	4694      	mov	ip, r2
    cf3a:	44bc      	add	ip, r7
    cf3c:	4463      	add	r3, ip
    cf3e:	6a9b      	ldr	r3, [r3, #40]	; 0x28
    cf40:	001a      	movs	r2, r3
    cf42:	4bcc      	ldr	r3, [pc, #816]	; (d274 <funPointerInit+0x438>)
    cf44:	601a      	str	r2, [r3, #0]
E:\2017-2018\03_Graduation Project\04_Software\05_Wangshi\03_UpdateSoftware-180702\02_UEUser\KL36_Update-180627\Debug/../05_SoftComponent/common/common.c:189
	gpio_set = (fun_gpio_set)info.fun_gpio_set;
    cf46:	4bc0      	ldr	r3, [pc, #768]	; (d248 <funPointerInit+0x40c>)
    cf48:	228c      	movs	r2, #140	; 0x8c
    cf4a:	0052      	lsls	r2, r2, #1
    cf4c:	4694      	mov	ip, r2
    cf4e:	44bc      	add	ip, r7
    cf50:	4463      	add	r3, ip
    cf52:	6adb      	ldr	r3, [r3, #44]	; 0x2c
    cf54:	001a      	movs	r2, r3
    cf56:	4bc8      	ldr	r3, [pc, #800]	; (d278 <funPointerInit+0x43c>)
    cf58:	601a      	str	r2, [r3, #0]
E:\2017-2018\03_Graduation Project\04_Software\05_Wangshi\03_UpdateSoftware-180702\02_UEUser\KL36_Update-180627\Debug/../05_SoftComponent/common/common.c:190
	gpio_get = (fun_gpio_get)info.fun_gpio_get;
    cf5a:	4bbb      	ldr	r3, [pc, #748]	; (d248 <funPointerInit+0x40c>)
    cf5c:	228c      	movs	r2, #140	; 0x8c
    cf5e:	0052      	lsls	r2, r2, #1
    cf60:	4694      	mov	ip, r2
    cf62:	44bc      	add	ip, r7
    cf64:	4463      	add	r3, ip
    cf66:	6b1b      	ldr	r3, [r3, #48]	; 0x30
    cf68:	001a      	movs	r2, r3
    cf6a:	4bc4      	ldr	r3, [pc, #784]	; (d27c <funPointerInit+0x440>)
    cf6c:	601a      	str	r2, [r3, #0]
E:\2017-2018\03_Graduation Project\04_Software\05_Wangshi\03_UpdateSoftware-180702\02_UEUser\KL36_Update-180627\Debug/../05_SoftComponent/common/common.c:191
	gpio_reverse = (fun_gpio_reverse)info.fun_gpio_reverse;
    cf6e:	4bb6      	ldr	r3, [pc, #728]	; (d248 <funPointerInit+0x40c>)
    cf70:	228c      	movs	r2, #140	; 0x8c
    cf72:	0052      	lsls	r2, r2, #1
    cf74:	4694      	mov	ip, r2
    cf76:	44bc      	add	ip, r7
    cf78:	4463      	add	r3, ip
    cf7a:	6b5b      	ldr	r3, [r3, #52]	; 0x34
    cf7c:	001a      	movs	r2, r3
    cf7e:	4bc0      	ldr	r3, [pc, #768]	; (d280 <funPointerInit+0x444>)
    cf80:	601a      	str	r2, [r3, #0]
E:\2017-2018\03_Graduation Project\04_Software\05_Wangshi\03_UpdateSoftware-180702\02_UEUser\KL36_Update-180627\Debug/../05_SoftComponent/common/common.c:192
	gpio_pull = (fun_gpio_pull)info.fun_gpio_pull;
    cf82:	4bb1      	ldr	r3, [pc, #708]	; (d248 <funPointerInit+0x40c>)
    cf84:	228c      	movs	r2, #140	; 0x8c
    cf86:	0052      	lsls	r2, r2, #1
    cf88:	4694      	mov	ip, r2
    cf8a:	44bc      	add	ip, r7
    cf8c:	4463      	add	r3, ip
    cf8e:	6b9b      	ldr	r3, [r3, #56]	; 0x38
    cf90:	001a      	movs	r2, r3
    cf92:	4bbc      	ldr	r3, [pc, #752]	; (d284 <funPointerInit+0x448>)
    cf94:	601a      	str	r2, [r3, #0]
E:\2017-2018\03_Graduation Project\04_Software\05_Wangshi\03_UpdateSoftware-180702\02_UEUser\KL36_Update-180627\Debug/../05_SoftComponent/common/common.c:193
	gpio_enable_int = (fun_gpio_enable_int)info.fun_gpio_enable_int;
    cf96:	4bac      	ldr	r3, [pc, #688]	; (d248 <funPointerInit+0x40c>)
    cf98:	228c      	movs	r2, #140	; 0x8c
    cf9a:	0052      	lsls	r2, r2, #1
    cf9c:	4694      	mov	ip, r2
    cf9e:	44bc      	add	ip, r7
    cfa0:	4463      	add	r3, ip
    cfa2:	6bdb      	ldr	r3, [r3, #60]	; 0x3c
    cfa4:	001a      	movs	r2, r3
    cfa6:	4bb8      	ldr	r3, [pc, #736]	; (d288 <funPointerInit+0x44c>)
    cfa8:	601a      	str	r2, [r3, #0]
E:\2017-2018\03_Graduation Project\04_Software\05_Wangshi\03_UpdateSoftware-180702\02_UEUser\KL36_Update-180627\Debug/../05_SoftComponent/common/common.c:194
	gpio_disable_int = (fun_gpio_disable_int)info.fun_gpio_disable_int;
    cfaa:	4ba7      	ldr	r3, [pc, #668]	; (d248 <funPointerInit+0x40c>)
    cfac:	228c      	movs	r2, #140	; 0x8c
    cfae:	0052      	lsls	r2, r2, #1
    cfb0:	4694      	mov	ip, r2
    cfb2:	44bc      	add	ip, r7
    cfb4:	4463      	add	r3, ip
    cfb6:	6c1b      	ldr	r3, [r3, #64]	; 0x40
    cfb8:	001a      	movs	r2, r3
    cfba:	4bb4      	ldr	r3, [pc, #720]	; (d28c <funPointerInit+0x450>)
    cfbc:	601a      	str	r2, [r3, #0]
E:\2017-2018\03_Graduation Project\04_Software\05_Wangshi\03_UpdateSoftware-180702\02_UEUser\KL36_Update-180627\Debug/../05_SoftComponent/common/common.c:195
	gpio_get_int = (fun_gpio_get_int)info.fun_gpio_get_int;
    cfbe:	4ba2      	ldr	r3, [pc, #648]	; (d248 <funPointerInit+0x40c>)
    cfc0:	228c      	movs	r2, #140	; 0x8c
    cfc2:	0052      	lsls	r2, r2, #1
    cfc4:	4694      	mov	ip, r2
    cfc6:	44bc      	add	ip, r7
    cfc8:	4463      	add	r3, ip
    cfca:	6c5b      	ldr	r3, [r3, #68]	; 0x44
    cfcc:	001a      	movs	r2, r3
    cfce:	4bb0      	ldr	r3, [pc, #704]	; (d290 <funPointerInit+0x454>)
    cfd0:	601a      	str	r2, [r3, #0]
E:\2017-2018\03_Graduation Project\04_Software\05_Wangshi\03_UpdateSoftware-180702\02_UEUser\KL36_Update-180627\Debug/../05_SoftComponent/common/common.c:196
	gpio_clear_int = (fun_gpio_clear_int)info.fun_gpio_clear_int;
    cfd2:	4b9d      	ldr	r3, [pc, #628]	; (d248 <funPointerInit+0x40c>)
    cfd4:	228c      	movs	r2, #140	; 0x8c
    cfd6:	0052      	lsls	r2, r2, #1
    cfd8:	4694      	mov	ip, r2
    cfda:	44bc      	add	ip, r7
    cfdc:	4463      	add	r3, ip
    cfde:	6c9b      	ldr	r3, [r3, #72]	; 0x48
    cfe0:	001a      	movs	r2, r3
    cfe2:	4bac      	ldr	r3, [pc, #688]	; (d294 <funPointerInit+0x458>)
    cfe4:	601a      	str	r2, [r3, #0]
E:\2017-2018\03_Graduation Project\04_Software\05_Wangshi\03_UpdateSoftware-180702\02_UEUser\KL36_Update-180627\Debug/../05_SoftComponent/common/common.c:197
	gpio_clear_allint = (fun_gpio_clear_allint)info.fun_flash_erase;
    cfe6:	4b98      	ldr	r3, [pc, #608]	; (d248 <funPointerInit+0x40c>)
    cfe8:	228c      	movs	r2, #140	; 0x8c
    cfea:	0052      	lsls	r2, r2, #1
    cfec:	4694      	mov	ip, r2
    cfee:	44bc      	add	ip, r7
    cff0:	4463      	add	r3, ip
    cff2:	691b      	ldr	r3, [r3, #16]
    cff4:	001a      	movs	r2, r3
    cff6:	4ba8      	ldr	r3, [pc, #672]	; (d298 <funPointerInit+0x45c>)
    cff8:	601a      	str	r2, [r3, #0]
E:\2017-2018\03_Graduation Project\04_Software\05_Wangshi\03_UpdateSoftware-180702\02_UEUser\KL36_Update-180627\Debug/../05_SoftComponent/common/common.c:198
	gpio_drive_strength = (fun_gpio_drive_strength)info.fun_gpio_drive_strength;
    cffa:	4b93      	ldr	r3, [pc, #588]	; (d248 <funPointerInit+0x40c>)
    cffc:	228c      	movs	r2, #140	; 0x8c
    cffe:	0052      	lsls	r2, r2, #1
    d000:	4694      	mov	ip, r2
    d002:	44bc      	add	ip, r7
    d004:	4463      	add	r3, ip
    d006:	6d1b      	ldr	r3, [r3, #80]	; 0x50
    d008:	001a      	movs	r2, r3
    d00a:	4ba4      	ldr	r3, [pc, #656]	; (d29c <funPointerInit+0x460>)
    d00c:	601a      	str	r2, [r3, #0]
E:\2017-2018\03_Graduation Project\04_Software\05_Wangshi\03_UpdateSoftware-180702\02_UEUser\KL36_Update-180627\Debug/../05_SoftComponent/common/common.c:200
	//3.5lptmr4
	lptmr_init = (fun_lptmr_init)info.fun_lptmr_init;
    d00e:	4b8e      	ldr	r3, [pc, #568]	; (d248 <funPointerInit+0x40c>)
    d010:	228c      	movs	r2, #140	; 0x8c
    d012:	0052      	lsls	r2, r2, #1
    d014:	4694      	mov	ip, r2
    d016:	44bc      	add	ip, r7
    d018:	4463      	add	r3, ip
    d01a:	6d5b      	ldr	r3, [r3, #84]	; 0x54
    d01c:	001a      	movs	r2, r3
    d01e:	4ba0      	ldr	r3, [pc, #640]	; (d2a0 <funPointerInit+0x464>)
    d020:	601a      	str	r2, [r3, #0]
E:\2017-2018\03_Graduation Project\04_Software\05_Wangshi\03_UpdateSoftware-180702\02_UEUser\KL36_Update-180627\Debug/../05_SoftComponent/common/common.c:201
	lptmr_reset = (fun_lptmr_reset)info.fun_lptmr_reset;
    d022:	4b89      	ldr	r3, [pc, #548]	; (d248 <funPointerInit+0x40c>)
    d024:	228c      	movs	r2, #140	; 0x8c
    d026:	0052      	lsls	r2, r2, #1
    d028:	4694      	mov	ip, r2
    d02a:	44bc      	add	ip, r7
    d02c:	4463      	add	r3, ip
    d02e:	6d9b      	ldr	r3, [r3, #88]	; 0x58
    d030:	001a      	movs	r2, r3
    d032:	4b9c      	ldr	r3, [pc, #624]	; (d2a4 <funPointerInit+0x468>)
    d034:	601a      	str	r2, [r3, #0]
E:\2017-2018\03_Graduation Project\04_Software\05_Wangshi\03_UpdateSoftware-180702\02_UEUser\KL36_Update-180627\Debug/../05_SoftComponent/common/common.c:202
	enable_lptmr_int = (fun_enable_lptmr_int)info.fun_enable_lptmr_int;
    d036:	4b84      	ldr	r3, [pc, #528]	; (d248 <funPointerInit+0x40c>)
    d038:	228c      	movs	r2, #140	; 0x8c
    d03a:	0052      	lsls	r2, r2, #1
    d03c:	4694      	mov	ip, r2
    d03e:	44bc      	add	ip, r7
    d040:	4463      	add	r3, ip
    d042:	6ddb      	ldr	r3, [r3, #92]	; 0x5c
    d044:	001a      	movs	r2, r3
    d046:	4b98      	ldr	r3, [pc, #608]	; (d2a8 <funPointerInit+0x46c>)
    d048:	601a      	str	r2, [r3, #0]
E:\2017-2018\03_Graduation Project\04_Software\05_Wangshi\03_UpdateSoftware-180702\02_UEUser\KL36_Update-180627\Debug/../05_SoftComponent/common/common.c:203
	disable_lptmr_int = (fun_disable_lptmr_int)info.fun_disable_lptmr_int;
    d04a:	4b7f      	ldr	r3, [pc, #508]	; (d248 <funPointerInit+0x40c>)
    d04c:	228c      	movs	r2, #140	; 0x8c
    d04e:	0052      	lsls	r2, r2, #1
    d050:	4694      	mov	ip, r2
    d052:	44bc      	add	ip, r7
    d054:	4463      	add	r3, ip
    d056:	6e1b      	ldr	r3, [r3, #96]	; 0x60
    d058:	001a      	movs	r2, r3
    d05a:	4b94      	ldr	r3, [pc, #592]	; (d2ac <funPointerInit+0x470>)
    d05c:	601a      	str	r2, [r3, #0]
E:\2017-2018\03_Graduation Project\04_Software\05_Wangshi\03_UpdateSoftware-180702\02_UEUser\KL36_Update-180627\Debug/../05_SoftComponent/common/common.c:205
	//3.6spi7
	SPI_init = (fun_SPI_init)info.fun_SPI_init;
    d05e:	4b7a      	ldr	r3, [pc, #488]	; (d248 <funPointerInit+0x40c>)
    d060:	228c      	movs	r2, #140	; 0x8c
    d062:	0052      	lsls	r2, r2, #1
    d064:	4694      	mov	ip, r2
    d066:	44bc      	add	ip, r7
    d068:	4463      	add	r3, ip
    d06a:	6e5b      	ldr	r3, [r3, #100]	; 0x64
    d06c:	001a      	movs	r2, r3
    d06e:	4b90      	ldr	r3, [pc, #576]	; (d2b0 <funPointerInit+0x474>)
    d070:	601a      	str	r2, [r3, #0]
E:\2017-2018\03_Graduation Project\04_Software\05_Wangshi\03_UpdateSoftware-180702\02_UEUser\KL36_Update-180627\Debug/../05_SoftComponent/common/common.c:206
	SPI_send1 = (fun_SPI_send1)info.fun_SPI_send1;
    d072:	4b75      	ldr	r3, [pc, #468]	; (d248 <funPointerInit+0x40c>)
    d074:	228c      	movs	r2, #140	; 0x8c
    d076:	0052      	lsls	r2, r2, #1
    d078:	4694      	mov	ip, r2
    d07a:	44bc      	add	ip, r7
    d07c:	4463      	add	r3, ip
    d07e:	6e9b      	ldr	r3, [r3, #104]	; 0x68
    d080:	001a      	movs	r2, r3
    d082:	4b8c      	ldr	r3, [pc, #560]	; (d2b4 <funPointerInit+0x478>)
    d084:	601a      	str	r2, [r3, #0]
E:\2017-2018\03_Graduation Project\04_Software\05_Wangshi\03_UpdateSoftware-180702\02_UEUser\KL36_Update-180627\Debug/../05_SoftComponent/common/common.c:207
	SPI_sendN = (fun_SPI_sendN)info.fun_SPI_sendN;
    d086:	4b70      	ldr	r3, [pc, #448]	; (d248 <funPointerInit+0x40c>)
    d088:	228c      	movs	r2, #140	; 0x8c
    d08a:	0052      	lsls	r2, r2, #1
    d08c:	4694      	mov	ip, r2
    d08e:	44bc      	add	ip, r7
    d090:	4463      	add	r3, ip
    d092:	6edb      	ldr	r3, [r3, #108]	; 0x6c
    d094:	001a      	movs	r2, r3
    d096:	4b88      	ldr	r3, [pc, #544]	; (d2b8 <funPointerInit+0x47c>)
    d098:	601a      	str	r2, [r3, #0]
E:\2017-2018\03_Graduation Project\04_Software\05_Wangshi\03_UpdateSoftware-180702\02_UEUser\KL36_Update-180627\Debug/../05_SoftComponent/common/common.c:208
	SPI_receive1 = (fun_SPI_receive1)info.fun_SPI_receive1;
    d09a:	4b6b      	ldr	r3, [pc, #428]	; (d248 <funPointerInit+0x40c>)
    d09c:	228c      	movs	r2, #140	; 0x8c
    d09e:	0052      	lsls	r2, r2, #1
    d0a0:	4694      	mov	ip, r2
    d0a2:	44bc      	add	ip, r7
    d0a4:	4463      	add	r3, ip
    d0a6:	6f1b      	ldr	r3, [r3, #112]	; 0x70
    d0a8:	001a      	movs	r2, r3
    d0aa:	4b84      	ldr	r3, [pc, #528]	; (d2bc <funPointerInit+0x480>)
    d0ac:	601a      	str	r2, [r3, #0]
E:\2017-2018\03_Graduation Project\04_Software\05_Wangshi\03_UpdateSoftware-180702\02_UEUser\KL36_Update-180627\Debug/../05_SoftComponent/common/common.c:209
	SPI_receiveN = (fun_SPI_receiveN)info.fun_SPI_receiveN;
    d0ae:	4b66      	ldr	r3, [pc, #408]	; (d248 <funPointerInit+0x40c>)
    d0b0:	228c      	movs	r2, #140	; 0x8c
    d0b2:	0052      	lsls	r2, r2, #1
    d0b4:	4694      	mov	ip, r2
    d0b6:	44bc      	add	ip, r7
    d0b8:	4463      	add	r3, ip
    d0ba:	6f5b      	ldr	r3, [r3, #116]	; 0x74
    d0bc:	001a      	movs	r2, r3
    d0be:	4b80      	ldr	r3, [pc, #512]	; (d2c0 <funPointerInit+0x484>)
    d0c0:	601a      	str	r2, [r3, #0]
E:\2017-2018\03_Graduation Project\04_Software\05_Wangshi\03_UpdateSoftware-180702\02_UEUser\KL36_Update-180627\Debug/../05_SoftComponent/common/common.c:210
	SPI_enable_re_int = (fun_SPI_enable_re_int)info.fun_SPI_enable_re_int;
    d0c2:	4b61      	ldr	r3, [pc, #388]	; (d248 <funPointerInit+0x40c>)
    d0c4:	228c      	movs	r2, #140	; 0x8c
    d0c6:	0052      	lsls	r2, r2, #1
    d0c8:	4694      	mov	ip, r2
    d0ca:	44bc      	add	ip, r7
    d0cc:	4463      	add	r3, ip
    d0ce:	6f9b      	ldr	r3, [r3, #120]	; 0x78
    d0d0:	001a      	movs	r2, r3
    d0d2:	4b7c      	ldr	r3, [pc, #496]	; (d2c4 <funPointerInit+0x488>)
    d0d4:	601a      	str	r2, [r3, #0]
E:\2017-2018\03_Graduation Project\04_Software\05_Wangshi\03_UpdateSoftware-180702\02_UEUser\KL36_Update-180627\Debug/../05_SoftComponent/common/common.c:211
	SPI_disable_re_int = (fun_SPI_disable_re_int)info.fun_SPI_disable_re_int;
    d0d6:	4b5c      	ldr	r3, [pc, #368]	; (d248 <funPointerInit+0x40c>)
    d0d8:	228c      	movs	r2, #140	; 0x8c
    d0da:	0052      	lsls	r2, r2, #1
    d0dc:	4694      	mov	ip, r2
    d0de:	44bc      	add	ip, r7
    d0e0:	4463      	add	r3, ip
    d0e2:	6fdb      	ldr	r3, [r3, #124]	; 0x7c
    d0e4:	001a      	movs	r2, r3
    d0e6:	4b78      	ldr	r3, [pc, #480]	; (d2c8 <funPointerInit+0x48c>)
    d0e8:	601a      	str	r2, [r3, #0]
E:\2017-2018\03_Graduation Project\04_Software\05_Wangshi\03_UpdateSoftware-180702\02_UEUser\KL36_Update-180627\Debug/../05_SoftComponent/common/common.c:213
	//3.7tsi6
	tsi_init = (fun_tsi_init)info.fun_tsi_init;
    d0ea:	4b57      	ldr	r3, [pc, #348]	; (d248 <funPointerInit+0x40c>)
    d0ec:	228c      	movs	r2, #140	; 0x8c
    d0ee:	0052      	lsls	r2, r2, #1
    d0f0:	4694      	mov	ip, r2
    d0f2:	44bc      	add	ip, r7
    d0f4:	4463      	add	r3, ip
    d0f6:	2280      	movs	r2, #128	; 0x80
    d0f8:	589b      	ldr	r3, [r3, r2]
    d0fa:	001a      	movs	r2, r3
    d0fc:	4b73      	ldr	r3, [pc, #460]	; (d2cc <funPointerInit+0x490>)
    d0fe:	601a      	str	r2, [r3, #0]
E:\2017-2018\03_Graduation Project\04_Software\05_Wangshi\03_UpdateSoftware-180702\02_UEUser\KL36_Update-180627\Debug/../05_SoftComponent/common/common.c:214
	tsi_get_value16 = (fun_tsi_get_value16)info.fun_tsi_get_value16;
    d100:	4b51      	ldr	r3, [pc, #324]	; (d248 <funPointerInit+0x40c>)
    d102:	228c      	movs	r2, #140	; 0x8c
    d104:	0052      	lsls	r2, r2, #1
    d106:	4694      	mov	ip, r2
    d108:	44bc      	add	ip, r7
    d10a:	4463      	add	r3, ip
    d10c:	2284      	movs	r2, #132	; 0x84
    d10e:	589b      	ldr	r3, [r3, r2]
    d110:	001a      	movs	r2, r3
    d112:	4b6f      	ldr	r3, [pc, #444]	; (d2d0 <funPointerInit+0x494>)
    d114:	601a      	str	r2, [r3, #0]
E:\2017-2018\03_Graduation Project\04_Software\05_Wangshi\03_UpdateSoftware-180702\02_UEUser\KL36_Update-180627\Debug/../05_SoftComponent/common/common.c:215
	tsi_set_threshold = (fun_tsi_set_threshold)info.fun_tsi_set_threshold;
    d116:	4b4c      	ldr	r3, [pc, #304]	; (d248 <funPointerInit+0x40c>)
    d118:	228c      	movs	r2, #140	; 0x8c
    d11a:	0052      	lsls	r2, r2, #1
    d11c:	4694      	mov	ip, r2
    d11e:	44bc      	add	ip, r7
    d120:	4463      	add	r3, ip
    d122:	2288      	movs	r2, #136	; 0x88
    d124:	589b      	ldr	r3, [r3, r2]
    d126:	001a      	movs	r2, r3
    d128:	4b6a      	ldr	r3, [pc, #424]	; (d2d4 <funPointerInit+0x498>)
    d12a:	601a      	str	r2, [r3, #0]
E:\2017-2018\03_Graduation Project\04_Software\05_Wangshi\03_UpdateSoftware-180702\02_UEUser\KL36_Update-180627\Debug/../05_SoftComponent/common/common.c:216
	tsi_enable_re_int = (fun_tsi_enable_re_int)info.fun_tsi_enable_re_int;
    d12c:	4b46      	ldr	r3, [pc, #280]	; (d248 <funPointerInit+0x40c>)
    d12e:	228c      	movs	r2, #140	; 0x8c
    d130:	0052      	lsls	r2, r2, #1
    d132:	4694      	mov	ip, r2
    d134:	44bc      	add	ip, r7
    d136:	4463      	add	r3, ip
    d138:	228c      	movs	r2, #140	; 0x8c
    d13a:	589b      	ldr	r3, [r3, r2]
    d13c:	001a      	movs	r2, r3
    d13e:	4b66      	ldr	r3, [pc, #408]	; (d2d8 <funPointerInit+0x49c>)
    d140:	601a      	str	r2, [r3, #0]
E:\2017-2018\03_Graduation Project\04_Software\05_Wangshi\03_UpdateSoftware-180702\02_UEUser\KL36_Update-180627\Debug/../05_SoftComponent/common/common.c:217
	tsi_disable_re_int = (fun_tsi_disable_re_int)info.fun_tsi_disable_re_int;
    d142:	4b41      	ldr	r3, [pc, #260]	; (d248 <funPointerInit+0x40c>)
    d144:	228c      	movs	r2, #140	; 0x8c
    d146:	0052      	lsls	r2, r2, #1
    d148:	4694      	mov	ip, r2
    d14a:	44bc      	add	ip, r7
    d14c:	4463      	add	r3, ip
    d14e:	2290      	movs	r2, #144	; 0x90
    d150:	589b      	ldr	r3, [r3, r2]
    d152:	001a      	movs	r2, r3
    d154:	4b61      	ldr	r3, [pc, #388]	; (d2dc <funPointerInit+0x4a0>)
    d156:	601a      	str	r2, [r3, #0]
E:\2017-2018\03_Graduation Project\04_Software\05_Wangshi\03_UpdateSoftware-180702\02_UEUser\KL36_Update-180627\Debug/../05_SoftComponent/common/common.c:218
	tsi_softsearch = (fun_tsi_softsearch)info.fun_tsi_softsearch;
    d158:	4b3b      	ldr	r3, [pc, #236]	; (d248 <funPointerInit+0x40c>)
    d15a:	228c      	movs	r2, #140	; 0x8c
    d15c:	0052      	lsls	r2, r2, #1
    d15e:	4694      	mov	ip, r2
    d160:	44bc      	add	ip, r7
    d162:	4463      	add	r3, ip
    d164:	2294      	movs	r2, #148	; 0x94
    d166:	589b      	ldr	r3, [r3, r2]
    d168:	001a      	movs	r2, r3
    d16a:	4b5d      	ldr	r3, [pc, #372]	; (d2e0 <funPointerInit+0x4a4>)
    d16c:	601a      	str	r2, [r3, #0]
E:\2017-2018\03_Graduation Project\04_Software\05_Wangshi\03_UpdateSoftware-180702\02_UEUser\KL36_Update-180627\Debug/../05_SoftComponent/common/common.c:220
	//3.8uart10
	uart_init = (fun_uart_init)info.fun_uart_init;
    d16e:	4b36      	ldr	r3, [pc, #216]	; (d248 <funPointerInit+0x40c>)
    d170:	228c      	movs	r2, #140	; 0x8c
    d172:	0052      	lsls	r2, r2, #1
    d174:	4694      	mov	ip, r2
    d176:	44bc      	add	ip, r7
    d178:	4463      	add	r3, ip
    d17a:	2298      	movs	r2, #152	; 0x98
    d17c:	589b      	ldr	r3, [r3, r2]
    d17e:	001a      	movs	r2, r3
    d180:	4b58      	ldr	r3, [pc, #352]	; (d2e4 <funPointerInit+0x4a8>)
    d182:	601a      	str	r2, [r3, #0]
E:\2017-2018\03_Graduation Project\04_Software\05_Wangshi\03_UpdateSoftware-180702\02_UEUser\KL36_Update-180627\Debug/../05_SoftComponent/common/common.c:221
	uart_send1 = (fun_uart_send1)info.fun_uart_send1;
    d184:	4b30      	ldr	r3, [pc, #192]	; (d248 <funPointerInit+0x40c>)
    d186:	228c      	movs	r2, #140	; 0x8c
    d188:	0052      	lsls	r2, r2, #1
    d18a:	4694      	mov	ip, r2
    d18c:	44bc      	add	ip, r7
    d18e:	4463      	add	r3, ip
    d190:	229c      	movs	r2, #156	; 0x9c
    d192:	589b      	ldr	r3, [r3, r2]
    d194:	001a      	movs	r2, r3
    d196:	4b54      	ldr	r3, [pc, #336]	; (d2e8 <funPointerInit+0x4ac>)
    d198:	601a      	str	r2, [r3, #0]
E:\2017-2018\03_Graduation Project\04_Software\05_Wangshi\03_UpdateSoftware-180702\02_UEUser\KL36_Update-180627\Debug/../05_SoftComponent/common/common.c:222
	uart_sendN = (fun_uart_sendN)info.fun_uart_sendN;
    d19a:	4b2b      	ldr	r3, [pc, #172]	; (d248 <funPointerInit+0x40c>)
    d19c:	228c      	movs	r2, #140	; 0x8c
    d19e:	0052      	lsls	r2, r2, #1
    d1a0:	4694      	mov	ip, r2
    d1a2:	44bc      	add	ip, r7
    d1a4:	4463      	add	r3, ip
    d1a6:	22a0      	movs	r2, #160	; 0xa0
    d1a8:	589b      	ldr	r3, [r3, r2]
    d1aa:	001a      	movs	r2, r3
    d1ac:	4b4f      	ldr	r3, [pc, #316]	; (d2ec <funPointerInit+0x4b0>)
    d1ae:	601a      	str	r2, [r3, #0]
E:\2017-2018\03_Graduation Project\04_Software\05_Wangshi\03_UpdateSoftware-180702\02_UEUser\KL36_Update-180627\Debug/../05_SoftComponent/common/common.c:223
	uart_send_string = (fun_uart_send_string)info.fun_uart_send_string;
    d1b0:	4b25      	ldr	r3, [pc, #148]	; (d248 <funPointerInit+0x40c>)
    d1b2:	228c      	movs	r2, #140	; 0x8c
    d1b4:	0052      	lsls	r2, r2, #1
    d1b6:	4694      	mov	ip, r2
    d1b8:	44bc      	add	ip, r7
    d1ba:	4463      	add	r3, ip
    d1bc:	22a4      	movs	r2, #164	; 0xa4
    d1be:	589b      	ldr	r3, [r3, r2]
    d1c0:	001a      	movs	r2, r3
    d1c2:	4b4b      	ldr	r3, [pc, #300]	; (d2f0 <funPointerInit+0x4b4>)
    d1c4:	601a      	str	r2, [r3, #0]
E:\2017-2018\03_Graduation Project\04_Software\05_Wangshi\03_UpdateSoftware-180702\02_UEUser\KL36_Update-180627\Debug/../05_SoftComponent/common/common.c:224
	uart_re1 = (fun_uart_re1)info.fun_uart_re1;
    d1c6:	4b20      	ldr	r3, [pc, #128]	; (d248 <funPointerInit+0x40c>)
    d1c8:	228c      	movs	r2, #140	; 0x8c
    d1ca:	0052      	lsls	r2, r2, #1
    d1cc:	4694      	mov	ip, r2
    d1ce:	44bc      	add	ip, r7
    d1d0:	4463      	add	r3, ip
    d1d2:	22a8      	movs	r2, #168	; 0xa8
    d1d4:	589b      	ldr	r3, [r3, r2]
    d1d6:	001a      	movs	r2, r3
    d1d8:	4b46      	ldr	r3, [pc, #280]	; (d2f4 <funPointerInit+0x4b8>)
    d1da:	601a      	str	r2, [r3, #0]
E:\2017-2018\03_Graduation Project\04_Software\05_Wangshi\03_UpdateSoftware-180702\02_UEUser\KL36_Update-180627\Debug/../05_SoftComponent/common/common.c:225
	uart_reN = (fun_uart_reN)info.fun_uart_reN;
    d1dc:	4b1a      	ldr	r3, [pc, #104]	; (d248 <funPointerInit+0x40c>)
    d1de:	228c      	movs	r2, #140	; 0x8c
    d1e0:	0052      	lsls	r2, r2, #1
    d1e2:	4694      	mov	ip, r2
    d1e4:	44bc      	add	ip, r7
    d1e6:	4463      	add	r3, ip
    d1e8:	22ac      	movs	r2, #172	; 0xac
    d1ea:	589b      	ldr	r3, [r3, r2]
    d1ec:	001a      	movs	r2, r3
    d1ee:	4b42      	ldr	r3, [pc, #264]	; (d2f8 <funPointerInit+0x4bc>)
    d1f0:	601a      	str	r2, [r3, #0]
E:\2017-2018\03_Graduation Project\04_Software\05_Wangshi\03_UpdateSoftware-180702\02_UEUser\KL36_Update-180627\Debug/../05_SoftComponent/common/common.c:226
	uart_enable_re_int = (fun_uart_enable_re_int)info.fun_uart_enable_re_int;
    d1f2:	4b15      	ldr	r3, [pc, #84]	; (d248 <funPointerInit+0x40c>)
    d1f4:	228c      	movs	r2, #140	; 0x8c
    d1f6:	0052      	lsls	r2, r2, #1
    d1f8:	4694      	mov	ip, r2
    d1fa:	44bc      	add	ip, r7
    d1fc:	4463      	add	r3, ip
    d1fe:	22b0      	movs	r2, #176	; 0xb0
    d200:	589b      	ldr	r3, [r3, r2]
    d202:	001a      	movs	r2, r3
    d204:	4b3d      	ldr	r3, [pc, #244]	; (d2fc <funPointerInit+0x4c0>)
    d206:	601a      	str	r2, [r3, #0]
E:\2017-2018\03_Graduation Project\04_Software\05_Wangshi\03_UpdateSoftware-180702\02_UEUser\KL36_Update-180627\Debug/../05_SoftComponent/common/common.c:227
	uart_disable_re_int = (fun_uart_disable_re_int)info.fun_uart_disable_re_int;
    d208:	4b0f      	ldr	r3, [pc, #60]	; (d248 <funPointerInit+0x40c>)
    d20a:	228c      	movs	r2, #140	; 0x8c
    d20c:	0052      	lsls	r2, r2, #1
    d20e:	4694      	mov	ip, r2
    d210:	44bc      	add	ip, r7
    d212:	4463      	add	r3, ip
    d214:	22b4      	movs	r2, #180	; 0xb4
    d216:	589b      	ldr	r3, [r3, r2]
    d218:	001a      	movs	r2, r3
    d21a:	4b39      	ldr	r3, [pc, #228]	; (d300 <funPointerInit+0x4c4>)
    d21c:	601a      	str	r2, [r3, #0]
E:\2017-2018\03_Graduation Project\04_Software\05_Wangshi\03_UpdateSoftware-180702\02_UEUser\KL36_Update-180627\Debug/../05_SoftComponent/common/common.c:228
	uart_get_re_int = (fun_uart_get_re_int)info.fun_uart_get_re_int;
    d21e:	4b0a      	ldr	r3, [pc, #40]	; (d248 <funPointerInit+0x40c>)
    d220:	228c      	movs	r2, #140	; 0x8c
    d222:	0052      	lsls	r2, r2, #1
    d224:	4694      	mov	ip, r2
    d226:	44bc      	add	ip, r7
    d228:	4463      	add	r3, ip
    d22a:	22b8      	movs	r2, #184	; 0xb8
    d22c:	589b      	ldr	r3, [r3, r2]
    d22e:	001a      	movs	r2, r3
    d230:	4b34      	ldr	r3, [pc, #208]	; (d304 <funPointerInit+0x4c8>)
    d232:	601a      	str	r2, [r3, #0]
E:\2017-2018\03_Graduation Project\04_Software\05_Wangshi\03_UpdateSoftware-180702\02_UEUser\KL36_Update-180627\Debug/../05_SoftComponent/common/common.c:229
	uart_deint = (fun_uart_deint)info.fun_uart_deint;
    d234:	4b04      	ldr	r3, [pc, #16]	; (d248 <funPointerInit+0x40c>)
    d236:	228c      	movs	r2, #140	; 0x8c
    d238:	0052      	lsls	r2, r2, #1
    d23a:	4694      	mov	ip, r2
    d23c:	44bc      	add	ip, r7
    d23e:	4463      	add	r3, ip
    d240:	22bc      	movs	r2, #188	; 0xbc
    d242:	589b      	ldr	r3, [r3, r2]
    d244:	001a      	movs	r2, r3
    d246:	e05f      	b.n	d308 <funPointerInit+0x4cc>
    d248:	fffffee8 	.word	0xfffffee8
    d24c:	20000958 	.word	0x20000958
    d250:	20000934 	.word	0x20000934
    d254:	200008d0 	.word	0x200008d0
    d258:	200008c0 	.word	0x200008c0
    d25c:	200008b8 	.word	0x200008b8
    d260:	20000884 	.word	0x20000884
    d264:	2000090c 	.word	0x2000090c
    d268:	2000088c 	.word	0x2000088c
    d26c:	200008ac 	.word	0x200008ac
    d270:	20000940 	.word	0x20000940
    d274:	20000974 	.word	0x20000974
    d278:	20000960 	.word	0x20000960
    d27c:	200008ec 	.word	0x200008ec
    d280:	20000968 	.word	0x20000968
    d284:	20000948 	.word	0x20000948
    d288:	20000944 	.word	0x20000944
    d28c:	20000904 	.word	0x20000904
    d290:	20000888 	.word	0x20000888
    d294:	2000091c 	.word	0x2000091c
    d298:	200008b0 	.word	0x200008b0
    d29c:	20000890 	.word	0x20000890
    d2a0:	200008fc 	.word	0x200008fc
    d2a4:	20000928 	.word	0x20000928
    d2a8:	200008c4 	.word	0x200008c4
    d2ac:	200008a0 	.word	0x200008a0
    d2b0:	20000f68 	.word	0x20000f68
    d2b4:	20000f64 	.word	0x20000f64
    d2b8:	20000f54 	.word	0x20000f54
    d2bc:	20000f5c 	.word	0x20000f5c
    d2c0:	20000f60 	.word	0x20000f60
    d2c4:	20000f6c 	.word	0x20000f6c
    d2c8:	20000f58 	.word	0x20000f58
    d2cc:	2000093c 	.word	0x2000093c
    d2d0:	200008e8 	.word	0x200008e8
    d2d4:	200008b4 	.word	0x200008b4
    d2d8:	20000924 	.word	0x20000924
    d2dc:	200008f8 	.word	0x200008f8
    d2e0:	200008cc 	.word	0x200008cc
    d2e4:	200008e4 	.word	0x200008e4
    d2e8:	20000954 	.word	0x20000954
    d2ec:	2000089c 	.word	0x2000089c
    d2f0:	200008e0 	.word	0x200008e0
    d2f4:	20000910 	.word	0x20000910
    d2f8:	200008d8 	.word	0x200008d8
    d2fc:	200008a4 	.word	0x200008a4
    d300:	200008bc 	.word	0x200008bc
    d304:	200008d4 	.word	0x200008d4
    d308:	4b71      	ldr	r3, [pc, #452]	; (d4d0 <funPointerInit+0x694>)
    d30a:	601a      	str	r2, [r3, #0]
E:\2017-2018\03_Graduation Project\04_Software\05_Wangshi\03_UpdateSoftware-180702\02_UEUser\KL36_Update-180627\Debug/../05_SoftComponent/common/common.c:231
   	//3.9uecom21
    uecom_init = (fun_uecom_init)info.fun_uecom_init;
    d30c:	4b71      	ldr	r3, [pc, #452]	; (d4d4 <funPointerInit+0x698>)
    d30e:	228c      	movs	r2, #140	; 0x8c
    d310:	0052      	lsls	r2, r2, #1
    d312:	4694      	mov	ip, r2
    d314:	44bc      	add	ip, r7
    d316:	4463      	add	r3, ip
    d318:	22c0      	movs	r2, #192	; 0xc0
    d31a:	589b      	ldr	r3, [r3, r2]
    d31c:	001a      	movs	r2, r3
    d31e:	4b6e      	ldr	r3, [pc, #440]	; (d4d8 <funPointerInit+0x69c>)
    d320:	601a      	str	r2, [r3, #0]
E:\2017-2018\03_Graduation Project\04_Software\05_Wangshi\03_UpdateSoftware-180702\02_UEUser\KL36_Update-180627\Debug/../05_SoftComponent/common/common.c:232
    uecom_fast_init = (fun_uecom_fast_init)info.fun_uecom_fast_init;
    d322:	4b6c      	ldr	r3, [pc, #432]	; (d4d4 <funPointerInit+0x698>)
    d324:	228c      	movs	r2, #140	; 0x8c
    d326:	0052      	lsls	r2, r2, #1
    d328:	4694      	mov	ip, r2
    d32a:	44bc      	add	ip, r7
    d32c:	4463      	add	r3, ip
    d32e:	22c4      	movs	r2, #196	; 0xc4
    d330:	589b      	ldr	r3, [r3, r2]
    d332:	001a      	movs	r2, r3
    d334:	4b69      	ldr	r3, [pc, #420]	; (d4dc <funPointerInit+0x6a0>)
    d336:	601a      	str	r2, [r3, #0]
E:\2017-2018\03_Graduation Project\04_Software\05_Wangshi\03_UpdateSoftware-180702\02_UEUser\KL36_Update-180627\Debug/../05_SoftComponent/common/common.c:233
    uecom_deInit = (fun_uecom_deInit)info.fun_uecom_deInit;
    d338:	4b66      	ldr	r3, [pc, #408]	; (d4d4 <funPointerInit+0x698>)
    d33a:	228c      	movs	r2, #140	; 0x8c
    d33c:	0052      	lsls	r2, r2, #1
    d33e:	4694      	mov	ip, r2
    d340:	44bc      	add	ip, r7
    d342:	4463      	add	r3, ip
    d344:	22c8      	movs	r2, #200	; 0xc8
    d346:	589b      	ldr	r3, [r3, r2]
    d348:	001a      	movs	r2, r3
    d34a:	4b65      	ldr	r3, [pc, #404]	; (d4e0 <funPointerInit+0x6a4>)
    d34c:	601a      	str	r2, [r3, #0]
E:\2017-2018\03_Graduation Project\04_Software\05_Wangshi\03_UpdateSoftware-180702\02_UEUser\KL36_Update-180627\Debug/../05_SoftComponent/common/common.c:234
    uecom_switch = (fun_uecom_switch)info.fun_uecom_switch;
    d34e:	4b61      	ldr	r3, [pc, #388]	; (d4d4 <funPointerInit+0x698>)
    d350:	228c      	movs	r2, #140	; 0x8c
    d352:	0052      	lsls	r2, r2, #1
    d354:	4694      	mov	ip, r2
    d356:	44bc      	add	ip, r7
    d358:	4463      	add	r3, ip
    d35a:	22cc      	movs	r2, #204	; 0xcc
    d35c:	589b      	ldr	r3, [r3, r2]
    d35e:	001a      	movs	r2, r3
    d360:	4b60      	ldr	r3, [pc, #384]	; (d4e4 <funPointerInit+0x6a8>)
    d362:	601a      	str	r2, [r3, #0]
E:\2017-2018\03_Graduation Project\04_Software\05_Wangshi\03_UpdateSoftware-180702\02_UEUser\KL36_Update-180627\Debug/../05_SoftComponent/common/common.c:235
    uecom_send = (fun_uecom_send)info.fun_uecom_send;
    d364:	4b5b      	ldr	r3, [pc, #364]	; (d4d4 <funPointerInit+0x698>)
    d366:	228c      	movs	r2, #140	; 0x8c
    d368:	0052      	lsls	r2, r2, #1
    d36a:	4694      	mov	ip, r2
    d36c:	44bc      	add	ip, r7
    d36e:	4463      	add	r3, ip
    d370:	22d0      	movs	r2, #208	; 0xd0
    d372:	589b      	ldr	r3, [r3, r2]
    d374:	001a      	movs	r2, r3
    d376:	4b5c      	ldr	r3, [pc, #368]	; (d4e8 <funPointerInit+0x6ac>)
    d378:	601a      	str	r2, [r3, #0]
E:\2017-2018\03_Graduation Project\04_Software\05_Wangshi\03_UpdateSoftware-180702\02_UEUser\KL36_Update-180627\Debug/../05_SoftComponent/common/common.c:236
    uecom_getIMEI = (fun_uecom_getIMEI)info.fun_uecom_getIMEI;
    d37a:	4b56      	ldr	r3, [pc, #344]	; (d4d4 <funPointerInit+0x698>)
    d37c:	228c      	movs	r2, #140	; 0x8c
    d37e:	0052      	lsls	r2, r2, #1
    d380:	4694      	mov	ip, r2
    d382:	44bc      	add	ip, r7
    d384:	4463      	add	r3, ip
    d386:	22d4      	movs	r2, #212	; 0xd4
    d388:	589b      	ldr	r3, [r3, r2]
    d38a:	001a      	movs	r2, r3
    d38c:	4b57      	ldr	r3, [pc, #348]	; (d4ec <funPointerInit+0x6b0>)
    d38e:	601a      	str	r2, [r3, #0]
E:\2017-2018\03_Graduation Project\04_Software\05_Wangshi\03_UpdateSoftware-180702\02_UEUser\KL36_Update-180627\Debug/../05_SoftComponent/common/common.c:237
    uecom_getIMSI = (fun_uecom_getIMSI)info.fun_uecom_getIMSI;
    d390:	4b50      	ldr	r3, [pc, #320]	; (d4d4 <funPointerInit+0x698>)
    d392:	228c      	movs	r2, #140	; 0x8c
    d394:	0052      	lsls	r2, r2, #1
    d396:	4694      	mov	ip, r2
    d398:	44bc      	add	ip, r7
    d39a:	4463      	add	r3, ip
    d39c:	22d8      	movs	r2, #216	; 0xd8
    d39e:	589b      	ldr	r3, [r3, r2]
    d3a0:	001a      	movs	r2, r3
    d3a2:	4b53      	ldr	r3, [pc, #332]	; (d4f0 <funPointerInit+0x6b4>)
    d3a4:	601a      	str	r2, [r3, #0]
E:\2017-2018\03_Graduation Project\04_Software\05_Wangshi\03_UpdateSoftware-180702\02_UEUser\KL36_Update-180627\Debug/../05_SoftComponent/common/common.c:238
    uecom_getFirmVer = (fun_uecom_getFirmVer)info.fun_uecom_getFirmVer;
    d3a6:	4b4b      	ldr	r3, [pc, #300]	; (d4d4 <funPointerInit+0x698>)
    d3a8:	228c      	movs	r2, #140	; 0x8c
    d3aa:	0052      	lsls	r2, r2, #1
    d3ac:	4694      	mov	ip, r2
    d3ae:	44bc      	add	ip, r7
    d3b0:	4463      	add	r3, ip
    d3b2:	22dc      	movs	r2, #220	; 0xdc
    d3b4:	589b      	ldr	r3, [r3, r2]
    d3b6:	001a      	movs	r2, r3
    d3b8:	4b4e      	ldr	r3, [pc, #312]	; (d4f4 <funPointerInit+0x6b8>)
    d3ba:	601a      	str	r2, [r3, #0]
E:\2017-2018\03_Graduation Project\04_Software\05_Wangshi\03_UpdateSoftware-180702\02_UEUser\KL36_Update-180627\Debug/../05_SoftComponent/common/common.c:239
    uecom_getSignalPower = (fun_uecom_getSignalPower)info.fun_uecom_getSignalPower;
    d3bc:	4b45      	ldr	r3, [pc, #276]	; (d4d4 <funPointerInit+0x698>)
    d3be:	228c      	movs	r2, #140	; 0x8c
    d3c0:	0052      	lsls	r2, r2, #1
    d3c2:	4694      	mov	ip, r2
    d3c4:	44bc      	add	ip, r7
    d3c6:	4463      	add	r3, ip
    d3c8:	22e0      	movs	r2, #224	; 0xe0
    d3ca:	589b      	ldr	r3, [r3, r2]
    d3cc:	001a      	movs	r2, r3
    d3ce:	4b4a      	ldr	r3, [pc, #296]	; (d4f8 <funPointerInit+0x6bc>)
    d3d0:	601a      	str	r2, [r3, #0]
E:\2017-2018\03_Graduation Project\04_Software\05_Wangshi\03_UpdateSoftware-180702\02_UEUser\KL36_Update-180627\Debug/../05_SoftComponent/common/common.c:240
    uecom_getBSNum = (fun_uecom_getBSNum)info.fun_uecom_getBSNum;
    d3d2:	4b40      	ldr	r3, [pc, #256]	; (d4d4 <funPointerInit+0x698>)
    d3d4:	228c      	movs	r2, #140	; 0x8c
    d3d6:	0052      	lsls	r2, r2, #1
    d3d8:	4694      	mov	ip, r2
    d3da:	44bc      	add	ip, r7
    d3dc:	4463      	add	r3, ip
    d3de:	22e4      	movs	r2, #228	; 0xe4
    d3e0:	589b      	ldr	r3, [r3, r2]
    d3e2:	001a      	movs	r2, r3
    d3e4:	4b45      	ldr	r3, [pc, #276]	; (d4fc <funPointerInit+0x6c0>)
    d3e6:	601a      	str	r2, [r3, #0]
E:\2017-2018\03_Graduation Project\04_Software\05_Wangshi\03_UpdateSoftware-180702\02_UEUser\KL36_Update-180627\Debug/../05_SoftComponent/common/common.c:241
    uecom_getUEIP = (fun_uecom_getUEIP)info.fun_uecom_getUEIP;
    d3e8:	4b3a      	ldr	r3, [pc, #232]	; (d4d4 <funPointerInit+0x698>)
    d3ea:	228c      	movs	r2, #140	; 0x8c
    d3ec:	0052      	lsls	r2, r2, #1
    d3ee:	4694      	mov	ip, r2
    d3f0:	44bc      	add	ip, r7
    d3f2:	4463      	add	r3, ip
    d3f4:	22e8      	movs	r2, #232	; 0xe8
    d3f6:	589b      	ldr	r3, [r3, r2]
    d3f8:	001a      	movs	r2, r3
    d3fa:	4b41      	ldr	r3, [pc, #260]	; (d500 <funPointerInit+0x6c4>)
    d3fc:	601a      	str	r2, [r3, #0]
E:\2017-2018\03_Graduation Project\04_Software\05_Wangshi\03_UpdateSoftware-180702\02_UEUser\KL36_Update-180627\Debug/../05_SoftComponent/common/common.c:242
    uecom_config = (fun_uecom_config)info.fun_uecom_config;
    d3fe:	4b35      	ldr	r3, [pc, #212]	; (d4d4 <funPointerInit+0x698>)
    d400:	228c      	movs	r2, #140	; 0x8c
    d402:	0052      	lsls	r2, r2, #1
    d404:	4694      	mov	ip, r2
    d406:	44bc      	add	ip, r7
    d408:	4463      	add	r3, ip
    d40a:	22ec      	movs	r2, #236	; 0xec
    d40c:	589b      	ldr	r3, [r3, r2]
    d40e:	001a      	movs	r2, r3
    d410:	4b3c      	ldr	r3, [pc, #240]	; (d504 <funPointerInit+0x6c8>)
    d412:	601a      	str	r2, [r3, #0]
E:\2017-2018\03_Graduation Project\04_Software\05_Wangshi\03_UpdateSoftware-180702\02_UEUser\KL36_Update-180627\Debug/../05_SoftComponent/common/common.c:243
    uecom_getCurCommunity = (fun_uecom_getCurCommunity)info.fun_uecom_getCurCommunity;
    d414:	4b2f      	ldr	r3, [pc, #188]	; (d4d4 <funPointerInit+0x698>)
    d416:	228c      	movs	r2, #140	; 0x8c
    d418:	0052      	lsls	r2, r2, #1
    d41a:	4694      	mov	ip, r2
    d41c:	44bc      	add	ip, r7
    d41e:	4463      	add	r3, ip
    d420:	22f0      	movs	r2, #240	; 0xf0
    d422:	589b      	ldr	r3, [r3, r2]
    d424:	001a      	movs	r2, r3
    d426:	4b38      	ldr	r3, [pc, #224]	; (d508 <funPointerInit+0x6cc>)
    d428:	601a      	str	r2, [r3, #0]
E:\2017-2018\03_Graduation Project\04_Software\05_Wangshi\03_UpdateSoftware-180702\02_UEUser\KL36_Update-180627\Debug/../05_SoftComponent/common/common.c:244
    http_get = (fun_http_get)info.fun_http_get;
    d42a:	4b2a      	ldr	r3, [pc, #168]	; (d4d4 <funPointerInit+0x698>)
    d42c:	228c      	movs	r2, #140	; 0x8c
    d42e:	0052      	lsls	r2, r2, #1
    d430:	4694      	mov	ip, r2
    d432:	44bc      	add	ip, r7
    d434:	4463      	add	r3, ip
    d436:	22f4      	movs	r2, #244	; 0xf4
    d438:	589b      	ldr	r3, [r3, r2]
    d43a:	001a      	movs	r2, r3
    d43c:	4b33      	ldr	r3, [pc, #204]	; (d50c <funPointerInit+0x6d0>)
    d43e:	601a      	str	r2, [r3, #0]
E:\2017-2018\03_Graduation Project\04_Software\05_Wangshi\03_UpdateSoftware-180702\02_UEUser\KL36_Update-180627\Debug/../05_SoftComponent/common/common.c:245
    uecom_interrupt = (fun_uecom_interrupt)info.fun_uecom_interrupt;
    d440:	4b24      	ldr	r3, [pc, #144]	; (d4d4 <funPointerInit+0x698>)
    d442:	228c      	movs	r2, #140	; 0x8c
    d444:	0052      	lsls	r2, r2, #1
    d446:	4694      	mov	ip, r2
    d448:	44bc      	add	ip, r7
    d44a:	4463      	add	r3, ip
    d44c:	22f8      	movs	r2, #248	; 0xf8
    d44e:	589b      	ldr	r3, [r3, r2]
    d450:	001a      	movs	r2, r3
    d452:	4b2f      	ldr	r3, [pc, #188]	; (d510 <funPointerInit+0x6d4>)
    d454:	601a      	str	r2, [r3, #0]
E:\2017-2018\03_Graduation Project\04_Software\05_Wangshi\03_UpdateSoftware-180702\02_UEUser\KL36_Update-180627\Debug/../05_SoftComponent/common/common.c:246
    uecom_default_delay_ms = (fun_uecom_default_delay_ms)info.fun_uecom_default_delay_ms;
    d456:	4b1f      	ldr	r3, [pc, #124]	; (d4d4 <funPointerInit+0x698>)
    d458:	228c      	movs	r2, #140	; 0x8c
    d45a:	0052      	lsls	r2, r2, #1
    d45c:	4694      	mov	ip, r2
    d45e:	44bc      	add	ip, r7
    d460:	4463      	add	r3, ip
    d462:	22fc      	movs	r2, #252	; 0xfc
    d464:	589b      	ldr	r3, [r3, r2]
    d466:	001a      	movs	r2, r3
    d468:	4b2a      	ldr	r3, [pc, #168]	; (d514 <funPointerInit+0x6d8>)
    d46a:	601a      	str	r2, [r3, #0]
E:\2017-2018\03_Graduation Project\04_Software\05_Wangshi\03_UpdateSoftware-180702\02_UEUser\KL36_Update-180627\Debug/../05_SoftComponent/common/common.c:247
    gnss_init = (fun_gnss_init)info.fun_gnss_init;
    d46c:	4b19      	ldr	r3, [pc, #100]	; (d4d4 <funPointerInit+0x698>)
    d46e:	0021      	movs	r1, r4
    d470:	187a      	adds	r2, r7, r1
    d472:	18d2      	adds	r2, r2, r3
    d474:	2380      	movs	r3, #128	; 0x80
    d476:	005b      	lsls	r3, r3, #1
    d478:	58d3      	ldr	r3, [r2, r3]
    d47a:	001a      	movs	r2, r3
    d47c:	4b26      	ldr	r3, [pc, #152]	; (d518 <funPointerInit+0x6dc>)
    d47e:	601a      	str	r2, [r3, #0]
E:\2017-2018\03_Graduation Project\04_Software\05_Wangshi\03_UpdateSoftware-180702\02_UEUser\KL36_Update-180627\Debug/../05_SoftComponent/common/common.c:248
    gnss_get_time = (fun_gnss_get_time)info.fun_gnss_get_time;
    d480:	4b14      	ldr	r3, [pc, #80]	; (d4d4 <funPointerInit+0x698>)
    d482:	187a      	adds	r2, r7, r1
    d484:	18d2      	adds	r2, r2, r3
    d486:	2382      	movs	r3, #130	; 0x82
    d488:	005b      	lsls	r3, r3, #1
    d48a:	58d3      	ldr	r3, [r2, r3]
    d48c:	001a      	movs	r2, r3
    d48e:	4b23      	ldr	r3, [pc, #140]	; (d51c <funPointerInit+0x6e0>)
    d490:	601a      	str	r2, [r3, #0]
E:\2017-2018\03_Graduation Project\04_Software\05_Wangshi\03_UpdateSoftware-180702\02_UEUser\KL36_Update-180627\Debug/../05_SoftComponent/common/common.c:249
    gnss_get_speed = (fun_gnss_get_speed)info.fun_gnss_get_speed;
    d492:	4b10      	ldr	r3, [pc, #64]	; (d4d4 <funPointerInit+0x698>)
    d494:	187a      	adds	r2, r7, r1
    d496:	18d2      	adds	r2, r2, r3
    d498:	2384      	movs	r3, #132	; 0x84
    d49a:	005b      	lsls	r3, r3, #1
    d49c:	58d3      	ldr	r3, [r2, r3]
    d49e:	001a      	movs	r2, r3
    d4a0:	4b1f      	ldr	r3, [pc, #124]	; (d520 <funPointerInit+0x6e4>)
    d4a2:	601a      	str	r2, [r3, #0]
E:\2017-2018\03_Graduation Project\04_Software\05_Wangshi\03_UpdateSoftware-180702\02_UEUser\KL36_Update-180627\Debug/../05_SoftComponent/common/common.c:250
    gnss_get_location = (fun_gnss_get_location)info.fun_gnss_get_location;
    d4a4:	4b0b      	ldr	r3, [pc, #44]	; (d4d4 <funPointerInit+0x698>)
    d4a6:	187a      	adds	r2, r7, r1
    d4a8:	18d2      	adds	r2, r2, r3
    d4aa:	2386      	movs	r3, #134	; 0x86
    d4ac:	005b      	lsls	r3, r3, #1
    d4ae:	58d3      	ldr	r3, [r2, r3]
    d4b0:	001a      	movs	r2, r3
    d4b2:	4b1c      	ldr	r3, [pc, #112]	; (d524 <funPointerInit+0x6e8>)
    d4b4:	601a      	str	r2, [r3, #0]
E:\2017-2018\03_Graduation Project\04_Software\05_Wangshi\03_UpdateSoftware-180702\02_UEUser\KL36_Update-180627\Debug/../05_SoftComponent/common/common.c:251
    gnss_get_attitude = (fun_gnss_get_attitude)info.fun_gnss_get_attitude;
    d4b6:	4b07      	ldr	r3, [pc, #28]	; (d4d4 <funPointerInit+0x698>)
    d4b8:	187a      	adds	r2, r7, r1
    d4ba:	18d2      	adds	r2, r2, r3
    d4bc:	2388      	movs	r3, #136	; 0x88
    d4be:	005b      	lsls	r3, r3, #1
    d4c0:	58d3      	ldr	r3, [r2, r3]
    d4c2:	001a      	movs	r2, r3
    d4c4:	4b18      	ldr	r3, [pc, #96]	; (d528 <funPointerInit+0x6ec>)
    d4c6:	601a      	str	r2, [r3, #0]
E:\2017-2018\03_Graduation Project\04_Software\05_Wangshi\03_UpdateSoftware-180702\02_UEUser\KL36_Update-180627\Debug/../05_SoftComponent/common/common.c:253

}
    d4c8:	46c0      	nop			; (mov r8, r8)
    d4ca:	46bd      	mov	sp, r7
    d4cc:	b047      	add	sp, #284	; 0x11c
    d4ce:	bd90      	pop	{r4, r7, pc}
    d4d0:	200008f0 	.word	0x200008f0
    d4d4:	fffffee8 	.word	0xfffffee8
    d4d8:	20000970 	.word	0x20000970
    d4dc:	2000095c 	.word	0x2000095c
    d4e0:	20000930 	.word	0x20000930
    d4e4:	2000094c 	.word	0x2000094c
    d4e8:	20000900 	.word	0x20000900
    d4ec:	20000914 	.word	0x20000914
    d4f0:	20000978 	.word	0x20000978
    d4f4:	2000096c 	.word	0x2000096c
    d4f8:	20000898 	.word	0x20000898
    d4fc:	20000964 	.word	0x20000964
    d500:	2000092c 	.word	0x2000092c
    d504:	20000894 	.word	0x20000894
    d508:	200008c8 	.word	0x200008c8
    d50c:	200008f4 	.word	0x200008f4
    d510:	20000938 	.word	0x20000938
    d514:	20000950 	.word	0x20000950
    d518:	200008dc 	.word	0x200008dc
    d51c:	200008a8 	.word	0x200008a8
    d520:	20000920 	.word	0x20000920
    d524:	20000908 	.word	0x20000908
    d528:	20000918 	.word	0x20000918

0000d52c <cpy_nvic>:
cpy_nvic():
E:\2017-2018\03_Graduation Project\04_Software\05_Wangshi\03_UpdateSoftware-180702\02_UEUser\KL36_Update-180627\Debug/../05_SoftComponent/common/common.c:262
//
//
//RAM
//======================================================================
void cpy_nvic(void)
{
    d52c:	b580      	push	{r7, lr}
    d52e:	b084      	sub	sp, #16
    d530:	af00      	add	r7, sp, #0
E:\2017-2018\03_Graduation Project\04_Software\05_Wangshi\03_UpdateSoftware-180702\02_UEUser\KL36_Update-180627\Debug/../05_SoftComponent/common/common.c:266
#define NVIC_NUM_VECTORS        (16 + 32)     // CORE + MCU Peripherals
#define NVIC_RAM_VECTOR_ADDRESS 0x20000800    //RAM

	uint32_t *old_vectors = (uint32_t *)SCB->VTOR;    //VTOR
    d532:	4b0f      	ldr	r3, [pc, #60]	; (d570 <cpy_nvic+0x44>)
    d534:	689b      	ldr	r3, [r3, #8]
    d536:	60bb      	str	r3, [r7, #8]
E:\2017-2018\03_Graduation Project\04_Software\05_Wangshi\03_UpdateSoftware-180702\02_UEUser\KL36_Update-180627\Debug/../05_SoftComponent/common/common.c:267
	uint32_t *vectors = (uint32_t*)NVIC_RAM_VECTOR_ADDRESS;
    d538:	4b0e      	ldr	r3, [pc, #56]	; (d574 <cpy_nvic+0x48>)
    d53a:	607b      	str	r3, [r7, #4]
E:\2017-2018\03_Graduation Project\04_Software\05_Wangshi\03_UpdateSoftware-180702\02_UEUser\KL36_Update-180627\Debug/../05_SoftComponent/common/common.c:268
	for (int i = 0; i < NVIC_NUM_VECTORS; i++) {    //48
    d53c:	2300      	movs	r3, #0
    d53e:	60fb      	str	r3, [r7, #12]
    d540:	e00c      	b.n	d55c <cpy_nvic+0x30>
E:\2017-2018\03_Graduation Project\04_Software\05_Wangshi\03_UpdateSoftware-180702\02_UEUser\KL36_Update-180627\Debug/../05_SoftComponent/common/common.c:269 (discriminator 3)
		vectors[i] = old_vectors[i];
    d542:	68fb      	ldr	r3, [r7, #12]
    d544:	009b      	lsls	r3, r3, #2
    d546:	68ba      	ldr	r2, [r7, #8]
    d548:	18d2      	adds	r2, r2, r3
    d54a:	68fb      	ldr	r3, [r7, #12]
    d54c:	009b      	lsls	r3, r3, #2
    d54e:	6879      	ldr	r1, [r7, #4]
    d550:	18cb      	adds	r3, r1, r3
    d552:	6812      	ldr	r2, [r2, #0]
    d554:	601a      	str	r2, [r3, #0]
E:\2017-2018\03_Graduation Project\04_Software\05_Wangshi\03_UpdateSoftware-180702\02_UEUser\KL36_Update-180627\Debug/../05_SoftComponent/common/common.c:268 (discriminator 3)
	for (int i = 0; i < NVIC_NUM_VECTORS; i++) {    //48
    d556:	68fb      	ldr	r3, [r7, #12]
    d558:	3301      	adds	r3, #1
    d55a:	60fb      	str	r3, [r7, #12]
E:\2017-2018\03_Graduation Project\04_Software\05_Wangshi\03_UpdateSoftware-180702\02_UEUser\KL36_Update-180627\Debug/../05_SoftComponent/common/common.c:268 (discriminator 1)
    d55c:	68fb      	ldr	r3, [r7, #12]
    d55e:	2b2f      	cmp	r3, #47	; 0x2f
    d560:	ddef      	ble.n	d542 <cpy_nvic+0x16>
E:\2017-2018\03_Graduation Project\04_Software\05_Wangshi\03_UpdateSoftware-180702\02_UEUser\KL36_Update-180627\Debug/../05_SoftComponent/common/common.c:271
	}
	SCB->VTOR = (uint32_t)NVIC_RAM_VECTOR_ADDRESS;    //VTOR
    d562:	4b03      	ldr	r3, [pc, #12]	; (d570 <cpy_nvic+0x44>)
    d564:	4a03      	ldr	r2, [pc, #12]	; (d574 <cpy_nvic+0x48>)
    d566:	609a      	str	r2, [r3, #8]
E:\2017-2018\03_Graduation Project\04_Software\05_Wangshi\03_UpdateSoftware-180702\02_UEUser\KL36_Update-180627\Debug/../05_SoftComponent/common/common.c:272
}
    d568:	46c0      	nop			; (mov r8, r8)
    d56a:	46bd      	mov	sp, r7
    d56c:	b004      	add	sp, #16
    d56e:	bd80      	pop	{r7, pc}
    d570:	e000ed00 	.word	0xe000ed00
    d574:	20000800 	.word	0x20000800

0000d578 <setVector>:
setVector():
E:\2017-2018\03_Graduation Project\04_Software\05_Wangshi\03_UpdateSoftware-180702\02_UEUser\KL36_Update-180627\Debug/../05_SoftComponent/common/common.c:281
//
//IRQnvector
//
//======================================================================
void setVector(IRQn_Type IRQn, uint32_t vector)
{
    d578:	b580      	push	{r7, lr}
    d57a:	b084      	sub	sp, #16
    d57c:	af00      	add	r7, sp, #0
    d57e:	0002      	movs	r2, r0
    d580:	6039      	str	r1, [r7, #0]
    d582:	1dfb      	adds	r3, r7, #7
    d584:	701a      	strb	r2, [r3, #0]
E:\2017-2018\03_Graduation Project\04_Software\05_Wangshi\03_UpdateSoftware-180702\02_UEUser\KL36_Update-180627\Debug/../05_SoftComponent/common/common.c:283
#define NVIC_USER_IRQ_OFFSET          16
	uint32_t *vectors = (uint32_t *)SCB->VTOR;
    d586:	4b08      	ldr	r3, [pc, #32]	; (d5a8 <setVector+0x30>)
    d588:	689b      	ldr	r3, [r3, #8]
    d58a:	60fb      	str	r3, [r7, #12]
E:\2017-2018\03_Graduation Project\04_Software\05_Wangshi\03_UpdateSoftware-180702\02_UEUser\KL36_Update-180627\Debug/../05_SoftComponent/common/common.c:285

	vectors[(int32_t)IRQn + NVIC_USER_IRQ_OFFSET] = vector;
    d58c:	1dfb      	adds	r3, r7, #7
    d58e:	781b      	ldrb	r3, [r3, #0]
    d590:	b25b      	sxtb	r3, r3
    d592:	3310      	adds	r3, #16
    d594:	009b      	lsls	r3, r3, #2
    d596:	68fa      	ldr	r2, [r7, #12]
    d598:	18d3      	adds	r3, r2, r3
    d59a:	683a      	ldr	r2, [r7, #0]
    d59c:	601a      	str	r2, [r3, #0]
E:\2017-2018\03_Graduation Project\04_Software\05_Wangshi\03_UpdateSoftware-180702\02_UEUser\KL36_Update-180627\Debug/../05_SoftComponent/common/common.c:286
}
    d59e:	46c0      	nop			; (mov r8, r8)
    d5a0:	46bd      	mov	sp, r7
    d5a2:	b004      	add	sp, #16
    d5a4:	bd80      	pop	{r7, pc}
    d5a6:	46c0      	nop			; (mov r8, r8)
    d5a8:	e000ed00 	.word	0xe000ed00

0000d5ac <light_init>:
light_init():
E:\2017-2018\03_Graduation Project\04_Software\05_Wangshi\03_UpdateSoftware-180702\02_UEUser\KL36_Update-180627\Debug/../04_UserBoard/light/light.c:16
//       statelight.h
//
//
//=====================================================================
void light_init(uint_16 port_pin, uint_8 state)
{
    d5ac:	b580      	push	{r7, lr}
    d5ae:	b082      	sub	sp, #8
    d5b0:	af00      	add	r7, sp, #0
    d5b2:	0002      	movs	r2, r0
    d5b4:	1dbb      	adds	r3, r7, #6
    d5b6:	801a      	strh	r2, [r3, #0]
    d5b8:	1d7b      	adds	r3, r7, #5
    d5ba:	1c0a      	adds	r2, r1, #0
    d5bc:	701a      	strb	r2, [r3, #0]
E:\2017-2018\03_Graduation Project\04_Software\05_Wangshi\03_UpdateSoftware-180702\02_UEUser\KL36_Update-180627\Debug/../04_UserBoard/light/light.c:17
    gpio_init(port_pin, GPIO_OUTPUT, state);
    d5be:	4b06      	ldr	r3, [pc, #24]	; (d5d8 <light_init+0x2c>)
    d5c0:	681b      	ldr	r3, [r3, #0]
    d5c2:	1d7a      	adds	r2, r7, #5
    d5c4:	7811      	ldrb	r1, [r2, #0]
    d5c6:	1dba      	adds	r2, r7, #6
    d5c8:	8810      	ldrh	r0, [r2, #0]
    d5ca:	000a      	movs	r2, r1
    d5cc:	2101      	movs	r1, #1
    d5ce:	4798      	blx	r3
E:\2017-2018\03_Graduation Project\04_Software\05_Wangshi\03_UpdateSoftware-180702\02_UEUser\KL36_Update-180627\Debug/../04_UserBoard/light/light.c:18
}
    d5d0:	46c0      	nop			; (mov r8, r8)
    d5d2:	46bd      	mov	sp, r7
    d5d4:	b002      	add	sp, #8
    d5d6:	bd80      	pop	{r7, pc}
    d5d8:	20000974 	.word	0x20000974

0000d5dc <light_change>:
light_change():
E:\2017-2018\03_Graduation Project\04_Software\05_Wangshi\03_UpdateSoftware-180702\02_UEUser\KL36_Update-180627\Debug/../04_UserBoard/light/light.c:39
//port_pin()|()(PTB_NUM)|(9) B9
//
//
//=====================================================================
void light_change(uint_16 port_pin)
{
    d5dc:	b580      	push	{r7, lr}
    d5de:	b082      	sub	sp, #8
    d5e0:	af00      	add	r7, sp, #0
    d5e2:	0002      	movs	r2, r0
    d5e4:	1dbb      	adds	r3, r7, #6
    d5e6:	801a      	strh	r2, [r3, #0]
E:\2017-2018\03_Graduation Project\04_Software\05_Wangshi\03_UpdateSoftware-180702\02_UEUser\KL36_Update-180627\Debug/../04_UserBoard/light/light.c:40
    gpio_reverse(port_pin);
    d5e8:	4b04      	ldr	r3, [pc, #16]	; (d5fc <light_change+0x20>)
    d5ea:	681b      	ldr	r3, [r3, #0]
    d5ec:	1dba      	adds	r2, r7, #6
    d5ee:	8812      	ldrh	r2, [r2, #0]
    d5f0:	0010      	movs	r0, r2
    d5f2:	4798      	blx	r3
E:\2017-2018\03_Graduation Project\04_Software\05_Wangshi\03_UpdateSoftware-180702\02_UEUser\KL36_Update-180627\Debug/../04_UserBoard/light/light.c:41
}
    d5f4:	46c0      	nop			; (mov r8, r8)
    d5f6:	46bd      	mov	sp, r7
    d5f8:	b002      	add	sp, #8
    d5fa:	bd80      	pop	{r7, pc}
    d5fc:	20000968 	.word	0x20000968

0000d600 <LCD_Init>:
LCD_Init():
E:\2017-2018\03_Graduation Project\04_Software\05_Wangshi\03_UpdateSoftware-180702\02_UEUser\KL36_Update-180627\Debug/../04_UserBoard/lcd/lcd.c:20
//
//
//LCD
//=====================================================================
void LCD_Init(void)     //LCD
{
    d600:	b590      	push	{r4, r7, lr}
    d602:	b083      	sub	sp, #12
    d604:	af02      	add	r7, sp, #8
E:\2017-2018\03_Graduation Project\04_Software\05_Wangshi\03_UpdateSoftware-180702\02_UEUser\KL36_Update-180627\Debug/../04_UserBoard/lcd/lcd.c:21
	SPI_init(SPI_0,1,6000,0,0);
    d606:	4b92      	ldr	r3, [pc, #584]	; (d850 <LCD_Init+0x250>)
    d608:	681c      	ldr	r4, [r3, #0]
    d60a:	4a92      	ldr	r2, [pc, #584]	; (d854 <LCD_Init+0x254>)
    d60c:	2300      	movs	r3, #0
    d60e:	9300      	str	r3, [sp, #0]
    d610:	2300      	movs	r3, #0
    d612:	2101      	movs	r1, #1
    d614:	2000      	movs	r0, #0
    d616:	47a0      	blx	r4
E:\2017-2018\03_Graduation Project\04_Software\05_Wangshi\03_UpdateSoftware-180702\02_UEUser\KL36_Update-180627\Debug/../04_UserBoard/lcd/lcd.c:22
	gpio_init(LCD_RS,1,0);
    d618:	4b8f      	ldr	r3, [pc, #572]	; (d858 <LCD_Init+0x258>)
    d61a:	681b      	ldr	r3, [r3, #0]
    d61c:	488f      	ldr	r0, [pc, #572]	; (d85c <LCD_Init+0x25c>)
    d61e:	2200      	movs	r2, #0
    d620:	2101      	movs	r1, #1
    d622:	4798      	blx	r3
E:\2017-2018\03_Graduation Project\04_Software\05_Wangshi\03_UpdateSoftware-180702\02_UEUser\KL36_Update-180627\Debug/../04_UserBoard/lcd/lcd.c:23
	gpio_init(LCD_DC,1,0);
    d624:	4b8c      	ldr	r3, [pc, #560]	; (d858 <LCD_Init+0x258>)
    d626:	681b      	ldr	r3, [r3, #0]
    d628:	488d      	ldr	r0, [pc, #564]	; (d860 <LCD_Init+0x260>)
    d62a:	2200      	movs	r2, #0
    d62c:	2101      	movs	r1, #1
    d62e:	4798      	blx	r3
E:\2017-2018\03_Graduation Project\04_Software\05_Wangshi\03_UpdateSoftware-180702\02_UEUser\KL36_Update-180627\Debug/../04_UserBoard/lcd/lcd.c:24
	LCD_WR_REG_DATA(0,0);
    d630:	2100      	movs	r1, #0
    d632:	2000      	movs	r0, #0
    d634:	f000 fd16 	bl	e064 <LCD_WR_REG_DATA>
E:\2017-2018\03_Graduation Project\04_Software\05_Wangshi\03_UpdateSoftware-180702\02_UEUser\KL36_Update-180627\Debug/../04_UserBoard/lcd/lcd.c:26

	gpio_set(LCD_RS,0);
    d638:	4b8a      	ldr	r3, [pc, #552]	; (d864 <LCD_Init+0x264>)
    d63a:	681b      	ldr	r3, [r3, #0]
    d63c:	4a87      	ldr	r2, [pc, #540]	; (d85c <LCD_Init+0x25c>)
    d63e:	2100      	movs	r1, #0
    d640:	0010      	movs	r0, r2
    d642:	4798      	blx	r3
E:\2017-2018\03_Graduation Project\04_Software\05_Wangshi\03_UpdateSoftware-180702\02_UEUser\KL36_Update-180627\Debug/../04_UserBoard/lcd/lcd.c:27
	Delay_ms(20);
    d644:	2014      	movs	r0, #20
    d646:	f7ff fbcd 	bl	cde4 <Delay_ms>
E:\2017-2018\03_Graduation Project\04_Software\05_Wangshi\03_UpdateSoftware-180702\02_UEUser\KL36_Update-180627\Debug/../04_UserBoard/lcd/lcd.c:28
	gpio_set(LCD_RS,1);
    d64a:	4b86      	ldr	r3, [pc, #536]	; (d864 <LCD_Init+0x264>)
    d64c:	681b      	ldr	r3, [r3, #0]
    d64e:	4a83      	ldr	r2, [pc, #524]	; (d85c <LCD_Init+0x25c>)
    d650:	2101      	movs	r1, #1
    d652:	0010      	movs	r0, r2
    d654:	4798      	blx	r3
E:\2017-2018\03_Graduation Project\04_Software\05_Wangshi\03_UpdateSoftware-180702\02_UEUser\KL36_Update-180627\Debug/../04_UserBoard/lcd/lcd.c:29
	Delay_ms(20);
    d656:	2014      	movs	r0, #20
    d658:	f7ff fbc4 	bl	cde4 <Delay_ms>
E:\2017-2018\03_Graduation Project\04_Software\05_Wangshi\03_UpdateSoftware-180702\02_UEUser\KL36_Update-180627\Debug/../04_UserBoard/lcd/lcd.c:32

	//************* Start Initial Sequence **********//
	LCD_WR_REG(0xCF);
    d65c:	20cf      	movs	r0, #207	; 0xcf
    d65e:	f000 fce3 	bl	e028 <LCD_WR_REG>
E:\2017-2018\03_Graduation Project\04_Software\05_Wangshi\03_UpdateSoftware-180702\02_UEUser\KL36_Update-180627\Debug/../04_UserBoard/lcd/lcd.c:33
	LCD_WR_DATA8(0x00);
    d662:	2000      	movs	r0, #0
    d664:	f000 fc9a 	bl	df9c <LCD_WR_DATA8>
E:\2017-2018\03_Graduation Project\04_Software\05_Wangshi\03_UpdateSoftware-180702\02_UEUser\KL36_Update-180627\Debug/../04_UserBoard/lcd/lcd.c:34
	LCD_WR_DATA8(0xD9);
    d668:	20d9      	movs	r0, #217	; 0xd9
    d66a:	f000 fc97 	bl	df9c <LCD_WR_DATA8>
E:\2017-2018\03_Graduation Project\04_Software\05_Wangshi\03_UpdateSoftware-180702\02_UEUser\KL36_Update-180627\Debug/../04_UserBoard/lcd/lcd.c:35
	LCD_WR_DATA8(0X30);
    d66e:	2030      	movs	r0, #48	; 0x30
    d670:	f000 fc94 	bl	df9c <LCD_WR_DATA8>
E:\2017-2018\03_Graduation Project\04_Software\05_Wangshi\03_UpdateSoftware-180702\02_UEUser\KL36_Update-180627\Debug/../04_UserBoard/lcd/lcd.c:37

	LCD_WR_REG(0xED);
    d674:	20ed      	movs	r0, #237	; 0xed
    d676:	f000 fcd7 	bl	e028 <LCD_WR_REG>
E:\2017-2018\03_Graduation Project\04_Software\05_Wangshi\03_UpdateSoftware-180702\02_UEUser\KL36_Update-180627\Debug/../04_UserBoard/lcd/lcd.c:38
	LCD_WR_DATA8(0x64);
    d67a:	2064      	movs	r0, #100	; 0x64
    d67c:	f000 fc8e 	bl	df9c <LCD_WR_DATA8>
E:\2017-2018\03_Graduation Project\04_Software\05_Wangshi\03_UpdateSoftware-180702\02_UEUser\KL36_Update-180627\Debug/../04_UserBoard/lcd/lcd.c:39
	LCD_WR_DATA8(0x03);
    d680:	2003      	movs	r0, #3
    d682:	f000 fc8b 	bl	df9c <LCD_WR_DATA8>
E:\2017-2018\03_Graduation Project\04_Software\05_Wangshi\03_UpdateSoftware-180702\02_UEUser\KL36_Update-180627\Debug/../04_UserBoard/lcd/lcd.c:40
	LCD_WR_DATA8(0X12);
    d686:	2012      	movs	r0, #18
    d688:	f000 fc88 	bl	df9c <LCD_WR_DATA8>
E:\2017-2018\03_Graduation Project\04_Software\05_Wangshi\03_UpdateSoftware-180702\02_UEUser\KL36_Update-180627\Debug/../04_UserBoard/lcd/lcd.c:41
	LCD_WR_DATA8(0X81);
    d68c:	2081      	movs	r0, #129	; 0x81
    d68e:	f000 fc85 	bl	df9c <LCD_WR_DATA8>
E:\2017-2018\03_Graduation Project\04_Software\05_Wangshi\03_UpdateSoftware-180702\02_UEUser\KL36_Update-180627\Debug/../04_UserBoard/lcd/lcd.c:43

	LCD_WR_REG(0xE8);
    d692:	20e8      	movs	r0, #232	; 0xe8
    d694:	f000 fcc8 	bl	e028 <LCD_WR_REG>
E:\2017-2018\03_Graduation Project\04_Software\05_Wangshi\03_UpdateSoftware-180702\02_UEUser\KL36_Update-180627\Debug/../04_UserBoard/lcd/lcd.c:44
	LCD_WR_DATA8(0x85);
    d698:	2085      	movs	r0, #133	; 0x85
    d69a:	f000 fc7f 	bl	df9c <LCD_WR_DATA8>
E:\2017-2018\03_Graduation Project\04_Software\05_Wangshi\03_UpdateSoftware-180702\02_UEUser\KL36_Update-180627\Debug/../04_UserBoard/lcd/lcd.c:45
	LCD_WR_DATA8(0x10);
    d69e:	2010      	movs	r0, #16
    d6a0:	f000 fc7c 	bl	df9c <LCD_WR_DATA8>
E:\2017-2018\03_Graduation Project\04_Software\05_Wangshi\03_UpdateSoftware-180702\02_UEUser\KL36_Update-180627\Debug/../04_UserBoard/lcd/lcd.c:46
	LCD_WR_DATA8(0x78);
    d6a4:	2078      	movs	r0, #120	; 0x78
    d6a6:	f000 fc79 	bl	df9c <LCD_WR_DATA8>
E:\2017-2018\03_Graduation Project\04_Software\05_Wangshi\03_UpdateSoftware-180702\02_UEUser\KL36_Update-180627\Debug/../04_UserBoard/lcd/lcd.c:48

	LCD_WR_REG(0xCB);
    d6aa:	20cb      	movs	r0, #203	; 0xcb
    d6ac:	f000 fcbc 	bl	e028 <LCD_WR_REG>
E:\2017-2018\03_Graduation Project\04_Software\05_Wangshi\03_UpdateSoftware-180702\02_UEUser\KL36_Update-180627\Debug/../04_UserBoard/lcd/lcd.c:49
	LCD_WR_DATA8(0x39);
    d6b0:	2039      	movs	r0, #57	; 0x39
    d6b2:	f000 fc73 	bl	df9c <LCD_WR_DATA8>
E:\2017-2018\03_Graduation Project\04_Software\05_Wangshi\03_UpdateSoftware-180702\02_UEUser\KL36_Update-180627\Debug/../04_UserBoard/lcd/lcd.c:50
	LCD_WR_DATA8(0x2C);
    d6b6:	202c      	movs	r0, #44	; 0x2c
    d6b8:	f000 fc70 	bl	df9c <LCD_WR_DATA8>
E:\2017-2018\03_Graduation Project\04_Software\05_Wangshi\03_UpdateSoftware-180702\02_UEUser\KL36_Update-180627\Debug/../04_UserBoard/lcd/lcd.c:51
	LCD_WR_DATA8(0x00);
    d6bc:	2000      	movs	r0, #0
    d6be:	f000 fc6d 	bl	df9c <LCD_WR_DATA8>
E:\2017-2018\03_Graduation Project\04_Software\05_Wangshi\03_UpdateSoftware-180702\02_UEUser\KL36_Update-180627\Debug/../04_UserBoard/lcd/lcd.c:52
	LCD_WR_DATA8(0x34);
    d6c2:	2034      	movs	r0, #52	; 0x34
    d6c4:	f000 fc6a 	bl	df9c <LCD_WR_DATA8>
E:\2017-2018\03_Graduation Project\04_Software\05_Wangshi\03_UpdateSoftware-180702\02_UEUser\KL36_Update-180627\Debug/../04_UserBoard/lcd/lcd.c:53
	LCD_WR_DATA8(0x02);
    d6c8:	2002      	movs	r0, #2
    d6ca:	f000 fc67 	bl	df9c <LCD_WR_DATA8>
E:\2017-2018\03_Graduation Project\04_Software\05_Wangshi\03_UpdateSoftware-180702\02_UEUser\KL36_Update-180627\Debug/../04_UserBoard/lcd/lcd.c:55

	LCD_WR_REG(0xF7);
    d6ce:	20f7      	movs	r0, #247	; 0xf7
    d6d0:	f000 fcaa 	bl	e028 <LCD_WR_REG>
E:\2017-2018\03_Graduation Project\04_Software\05_Wangshi\03_UpdateSoftware-180702\02_UEUser\KL36_Update-180627\Debug/../04_UserBoard/lcd/lcd.c:56
	LCD_WR_DATA8(0x20);
    d6d4:	2020      	movs	r0, #32
    d6d6:	f000 fc61 	bl	df9c <LCD_WR_DATA8>
E:\2017-2018\03_Graduation Project\04_Software\05_Wangshi\03_UpdateSoftware-180702\02_UEUser\KL36_Update-180627\Debug/../04_UserBoard/lcd/lcd.c:58

	LCD_WR_REG(0xEA);
    d6da:	20ea      	movs	r0, #234	; 0xea
    d6dc:	f000 fca4 	bl	e028 <LCD_WR_REG>
E:\2017-2018\03_Graduation Project\04_Software\05_Wangshi\03_UpdateSoftware-180702\02_UEUser\KL36_Update-180627\Debug/../04_UserBoard/lcd/lcd.c:59
	LCD_WR_DATA8(0x00);
    d6e0:	2000      	movs	r0, #0
    d6e2:	f000 fc5b 	bl	df9c <LCD_WR_DATA8>
E:\2017-2018\03_Graduation Project\04_Software\05_Wangshi\03_UpdateSoftware-180702\02_UEUser\KL36_Update-180627\Debug/../04_UserBoard/lcd/lcd.c:60
	LCD_WR_DATA8(0x00);
    d6e6:	2000      	movs	r0, #0
    d6e8:	f000 fc58 	bl	df9c <LCD_WR_DATA8>
E:\2017-2018\03_Graduation Project\04_Software\05_Wangshi\03_UpdateSoftware-180702\02_UEUser\KL36_Update-180627\Debug/../04_UserBoard/lcd/lcd.c:62

	LCD_WR_REG(0xC0);    //Power control
    d6ec:	20c0      	movs	r0, #192	; 0xc0
    d6ee:	f000 fc9b 	bl	e028 <LCD_WR_REG>
E:\2017-2018\03_Graduation Project\04_Software\05_Wangshi\03_UpdateSoftware-180702\02_UEUser\KL36_Update-180627\Debug/../04_UserBoard/lcd/lcd.c:63
	LCD_WR_DATA8(0x21);   //VRH[5:0]
    d6f2:	2021      	movs	r0, #33	; 0x21
    d6f4:	f000 fc52 	bl	df9c <LCD_WR_DATA8>
E:\2017-2018\03_Graduation Project\04_Software\05_Wangshi\03_UpdateSoftware-180702\02_UEUser\KL36_Update-180627\Debug/../04_UserBoard/lcd/lcd.c:65

	LCD_WR_REG(0xC1);    //Power control
    d6f8:	20c1      	movs	r0, #193	; 0xc1
    d6fa:	f000 fc95 	bl	e028 <LCD_WR_REG>
E:\2017-2018\03_Graduation Project\04_Software\05_Wangshi\03_UpdateSoftware-180702\02_UEUser\KL36_Update-180627\Debug/../04_UserBoard/lcd/lcd.c:66
	LCD_WR_DATA8(0x12);   //SAP[2:0];BT[3:0]
    d6fe:	2012      	movs	r0, #18
    d700:	f000 fc4c 	bl	df9c <LCD_WR_DATA8>
E:\2017-2018\03_Graduation Project\04_Software\05_Wangshi\03_UpdateSoftware-180702\02_UEUser\KL36_Update-180627\Debug/../04_UserBoard/lcd/lcd.c:68

	LCD_WR_REG(0xC5);    //VCM control
    d704:	20c5      	movs	r0, #197	; 0xc5
    d706:	f000 fc8f 	bl	e028 <LCD_WR_REG>
E:\2017-2018\03_Graduation Project\04_Software\05_Wangshi\03_UpdateSoftware-180702\02_UEUser\KL36_Update-180627\Debug/../04_UserBoard/lcd/lcd.c:69
	LCD_WR_DATA8(0x32);
    d70a:	2032      	movs	r0, #50	; 0x32
    d70c:	f000 fc46 	bl	df9c <LCD_WR_DATA8>
E:\2017-2018\03_Graduation Project\04_Software\05_Wangshi\03_UpdateSoftware-180702\02_UEUser\KL36_Update-180627\Debug/../04_UserBoard/lcd/lcd.c:70
	LCD_WR_DATA8(0x3C);
    d710:	203c      	movs	r0, #60	; 0x3c
    d712:	f000 fc43 	bl	df9c <LCD_WR_DATA8>
E:\2017-2018\03_Graduation Project\04_Software\05_Wangshi\03_UpdateSoftware-180702\02_UEUser\KL36_Update-180627\Debug/../04_UserBoard/lcd/lcd.c:72

	LCD_WR_REG(0xC7);    //VCM control2
    d716:	20c7      	movs	r0, #199	; 0xc7
    d718:	f000 fc86 	bl	e028 <LCD_WR_REG>
E:\2017-2018\03_Graduation Project\04_Software\05_Wangshi\03_UpdateSoftware-180702\02_UEUser\KL36_Update-180627\Debug/../04_UserBoard/lcd/lcd.c:73
	LCD_WR_DATA8(0XC1);
    d71c:	20c1      	movs	r0, #193	; 0xc1
    d71e:	f000 fc3d 	bl	df9c <LCD_WR_DATA8>
E:\2017-2018\03_Graduation Project\04_Software\05_Wangshi\03_UpdateSoftware-180702\02_UEUser\KL36_Update-180627\Debug/../04_UserBoard/lcd/lcd.c:75

	LCD_WR_REG(0x36);    // Memory Access Control
    d722:	2036      	movs	r0, #54	; 0x36
    d724:	f000 fc80 	bl	e028 <LCD_WR_REG>
E:\2017-2018\03_Graduation Project\04_Software\05_Wangshi\03_UpdateSoftware-180702\02_UEUser\KL36_Update-180627\Debug/../04_UserBoard/lcd/lcd.c:76
	LCD_WR_DATA8(0x08);
    d728:	2008      	movs	r0, #8
    d72a:	f000 fc37 	bl	df9c <LCD_WR_DATA8>
E:\2017-2018\03_Graduation Project\04_Software\05_Wangshi\03_UpdateSoftware-180702\02_UEUser\KL36_Update-180627\Debug/../04_UserBoard/lcd/lcd.c:78

	LCD_WR_REG(0x3A);
    d72e:	203a      	movs	r0, #58	; 0x3a
    d730:	f000 fc7a 	bl	e028 <LCD_WR_REG>
E:\2017-2018\03_Graduation Project\04_Software\05_Wangshi\03_UpdateSoftware-180702\02_UEUser\KL36_Update-180627\Debug/../04_UserBoard/lcd/lcd.c:79
	LCD_WR_DATA8(0x55);
    d734:	2055      	movs	r0, #85	; 0x55
    d736:	f000 fc31 	bl	df9c <LCD_WR_DATA8>
E:\2017-2018\03_Graduation Project\04_Software\05_Wangshi\03_UpdateSoftware-180702\02_UEUser\KL36_Update-180627\Debug/../04_UserBoard/lcd/lcd.c:81

	LCD_WR_REG(0xB1);
    d73a:	20b1      	movs	r0, #177	; 0xb1
    d73c:	f000 fc74 	bl	e028 <LCD_WR_REG>
E:\2017-2018\03_Graduation Project\04_Software\05_Wangshi\03_UpdateSoftware-180702\02_UEUser\KL36_Update-180627\Debug/../04_UserBoard/lcd/lcd.c:82
	LCD_WR_DATA8(0x00);
    d740:	2000      	movs	r0, #0
    d742:	f000 fc2b 	bl	df9c <LCD_WR_DATA8>
E:\2017-2018\03_Graduation Project\04_Software\05_Wangshi\03_UpdateSoftware-180702\02_UEUser\KL36_Update-180627\Debug/../04_UserBoard/lcd/lcd.c:83
	LCD_WR_DATA8(0x18);
    d746:	2018      	movs	r0, #24
    d748:	f000 fc28 	bl	df9c <LCD_WR_DATA8>
E:\2017-2018\03_Graduation Project\04_Software\05_Wangshi\03_UpdateSoftware-180702\02_UEUser\KL36_Update-180627\Debug/../04_UserBoard/lcd/lcd.c:85

	LCD_WR_REG(0xB6);    // Display Function Control
    d74c:	20b6      	movs	r0, #182	; 0xb6
    d74e:	f000 fc6b 	bl	e028 <LCD_WR_REG>
E:\2017-2018\03_Graduation Project\04_Software\05_Wangshi\03_UpdateSoftware-180702\02_UEUser\KL36_Update-180627\Debug/../04_UserBoard/lcd/lcd.c:86
	LCD_WR_DATA8(0x0A);
    d752:	200a      	movs	r0, #10
    d754:	f000 fc22 	bl	df9c <LCD_WR_DATA8>
E:\2017-2018\03_Graduation Project\04_Software\05_Wangshi\03_UpdateSoftware-180702\02_UEUser\KL36_Update-180627\Debug/../04_UserBoard/lcd/lcd.c:87
	LCD_WR_DATA8(0xA2);
    d758:	20a2      	movs	r0, #162	; 0xa2
    d75a:	f000 fc1f 	bl	df9c <LCD_WR_DATA8>
E:\2017-2018\03_Graduation Project\04_Software\05_Wangshi\03_UpdateSoftware-180702\02_UEUser\KL36_Update-180627\Debug/../04_UserBoard/lcd/lcd.c:91



	LCD_WR_REG(0xF2);    // 3Gamma Function Disable
    d75e:	20f2      	movs	r0, #242	; 0xf2
    d760:	f000 fc62 	bl	e028 <LCD_WR_REG>
E:\2017-2018\03_Graduation Project\04_Software\05_Wangshi\03_UpdateSoftware-180702\02_UEUser\KL36_Update-180627\Debug/../04_UserBoard/lcd/lcd.c:92
	LCD_WR_DATA8(0x00);
    d764:	2000      	movs	r0, #0
    d766:	f000 fc19 	bl	df9c <LCD_WR_DATA8>
E:\2017-2018\03_Graduation Project\04_Software\05_Wangshi\03_UpdateSoftware-180702\02_UEUser\KL36_Update-180627\Debug/../04_UserBoard/lcd/lcd.c:94

	LCD_WR_REG(0x26);    //Gamma curve selected
    d76a:	2026      	movs	r0, #38	; 0x26
    d76c:	f000 fc5c 	bl	e028 <LCD_WR_REG>
E:\2017-2018\03_Graduation Project\04_Software\05_Wangshi\03_UpdateSoftware-180702\02_UEUser\KL36_Update-180627\Debug/../04_UserBoard/lcd/lcd.c:95
	LCD_WR_DATA8(0x01);
    d770:	2001      	movs	r0, #1
    d772:	f000 fc13 	bl	df9c <LCD_WR_DATA8>
E:\2017-2018\03_Graduation Project\04_Software\05_Wangshi\03_UpdateSoftware-180702\02_UEUser\KL36_Update-180627\Debug/../04_UserBoard/lcd/lcd.c:97

	LCD_WR_REG(0xE0);    //Set Gamma
    d776:	20e0      	movs	r0, #224	; 0xe0
    d778:	f000 fc56 	bl	e028 <LCD_WR_REG>
E:\2017-2018\03_Graduation Project\04_Software\05_Wangshi\03_UpdateSoftware-180702\02_UEUser\KL36_Update-180627\Debug/../04_UserBoard/lcd/lcd.c:98
	LCD_WR_DATA8(0x0F);
    d77c:	200f      	movs	r0, #15
    d77e:	f000 fc0d 	bl	df9c <LCD_WR_DATA8>
E:\2017-2018\03_Graduation Project\04_Software\05_Wangshi\03_UpdateSoftware-180702\02_UEUser\KL36_Update-180627\Debug/../04_UserBoard/lcd/lcd.c:99
	LCD_WR_DATA8(0x20);
    d782:	2020      	movs	r0, #32
    d784:	f000 fc0a 	bl	df9c <LCD_WR_DATA8>
E:\2017-2018\03_Graduation Project\04_Software\05_Wangshi\03_UpdateSoftware-180702\02_UEUser\KL36_Update-180627\Debug/../04_UserBoard/lcd/lcd.c:100
	LCD_WR_DATA8(0x1E);
    d788:	201e      	movs	r0, #30
    d78a:	f000 fc07 	bl	df9c <LCD_WR_DATA8>
E:\2017-2018\03_Graduation Project\04_Software\05_Wangshi\03_UpdateSoftware-180702\02_UEUser\KL36_Update-180627\Debug/../04_UserBoard/lcd/lcd.c:101
	LCD_WR_DATA8(0x09);
    d78e:	2009      	movs	r0, #9
    d790:	f000 fc04 	bl	df9c <LCD_WR_DATA8>
E:\2017-2018\03_Graduation Project\04_Software\05_Wangshi\03_UpdateSoftware-180702\02_UEUser\KL36_Update-180627\Debug/../04_UserBoard/lcd/lcd.c:102
	LCD_WR_DATA8(0x12);
    d794:	2012      	movs	r0, #18
    d796:	f000 fc01 	bl	df9c <LCD_WR_DATA8>
E:\2017-2018\03_Graduation Project\04_Software\05_Wangshi\03_UpdateSoftware-180702\02_UEUser\KL36_Update-180627\Debug/../04_UserBoard/lcd/lcd.c:103
	LCD_WR_DATA8(0x0B);
    d79a:	200b      	movs	r0, #11
    d79c:	f000 fbfe 	bl	df9c <LCD_WR_DATA8>
E:\2017-2018\03_Graduation Project\04_Software\05_Wangshi\03_UpdateSoftware-180702\02_UEUser\KL36_Update-180627\Debug/../04_UserBoard/lcd/lcd.c:104
	LCD_WR_DATA8(0x50);
    d7a0:	2050      	movs	r0, #80	; 0x50
    d7a2:	f000 fbfb 	bl	df9c <LCD_WR_DATA8>
E:\2017-2018\03_Graduation Project\04_Software\05_Wangshi\03_UpdateSoftware-180702\02_UEUser\KL36_Update-180627\Debug/../04_UserBoard/lcd/lcd.c:105
	LCD_WR_DATA8(0XBA);
    d7a6:	20ba      	movs	r0, #186	; 0xba
    d7a8:	f000 fbf8 	bl	df9c <LCD_WR_DATA8>
E:\2017-2018\03_Graduation Project\04_Software\05_Wangshi\03_UpdateSoftware-180702\02_UEUser\KL36_Update-180627\Debug/../04_UserBoard/lcd/lcd.c:106
	LCD_WR_DATA8(0x44);
    d7ac:	2044      	movs	r0, #68	; 0x44
    d7ae:	f000 fbf5 	bl	df9c <LCD_WR_DATA8>
E:\2017-2018\03_Graduation Project\04_Software\05_Wangshi\03_UpdateSoftware-180702\02_UEUser\KL36_Update-180627\Debug/../04_UserBoard/lcd/lcd.c:107
	LCD_WR_DATA8(0x09);
    d7b2:	2009      	movs	r0, #9
    d7b4:	f000 fbf2 	bl	df9c <LCD_WR_DATA8>
E:\2017-2018\03_Graduation Project\04_Software\05_Wangshi\03_UpdateSoftware-180702\02_UEUser\KL36_Update-180627\Debug/../04_UserBoard/lcd/lcd.c:108
	LCD_WR_DATA8(0x14);
    d7b8:	2014      	movs	r0, #20
    d7ba:	f000 fbef 	bl	df9c <LCD_WR_DATA8>
E:\2017-2018\03_Graduation Project\04_Software\05_Wangshi\03_UpdateSoftware-180702\02_UEUser\KL36_Update-180627\Debug/../04_UserBoard/lcd/lcd.c:109
	LCD_WR_DATA8(0x05);
    d7be:	2005      	movs	r0, #5
    d7c0:	f000 fbec 	bl	df9c <LCD_WR_DATA8>
E:\2017-2018\03_Graduation Project\04_Software\05_Wangshi\03_UpdateSoftware-180702\02_UEUser\KL36_Update-180627\Debug/../04_UserBoard/lcd/lcd.c:110
	LCD_WR_DATA8(0x23);
    d7c4:	2023      	movs	r0, #35	; 0x23
    d7c6:	f000 fbe9 	bl	df9c <LCD_WR_DATA8>
E:\2017-2018\03_Graduation Project\04_Software\05_Wangshi\03_UpdateSoftware-180702\02_UEUser\KL36_Update-180627\Debug/../04_UserBoard/lcd/lcd.c:111
	LCD_WR_DATA8(0x21);
    d7ca:	2021      	movs	r0, #33	; 0x21
    d7cc:	f000 fbe6 	bl	df9c <LCD_WR_DATA8>
E:\2017-2018\03_Graduation Project\04_Software\05_Wangshi\03_UpdateSoftware-180702\02_UEUser\KL36_Update-180627\Debug/../04_UserBoard/lcd/lcd.c:112
	LCD_WR_DATA8(0x00);
    d7d0:	2000      	movs	r0, #0
    d7d2:	f000 fbe3 	bl	df9c <LCD_WR_DATA8>
E:\2017-2018\03_Graduation Project\04_Software\05_Wangshi\03_UpdateSoftware-180702\02_UEUser\KL36_Update-180627\Debug/../04_UserBoard/lcd/lcd.c:114

	LCD_WR_REG(0XE1);    //Set Gamma
    d7d6:	20e1      	movs	r0, #225	; 0xe1
    d7d8:	f000 fc26 	bl	e028 <LCD_WR_REG>
E:\2017-2018\03_Graduation Project\04_Software\05_Wangshi\03_UpdateSoftware-180702\02_UEUser\KL36_Update-180627\Debug/../04_UserBoard/lcd/lcd.c:115
	LCD_WR_DATA8(0x00);
    d7dc:	2000      	movs	r0, #0
    d7de:	f000 fbdd 	bl	df9c <LCD_WR_DATA8>
E:\2017-2018\03_Graduation Project\04_Software\05_Wangshi\03_UpdateSoftware-180702\02_UEUser\KL36_Update-180627\Debug/../04_UserBoard/lcd/lcd.c:116
	LCD_WR_DATA8(0x19);
    d7e2:	2019      	movs	r0, #25
    d7e4:	f000 fbda 	bl	df9c <LCD_WR_DATA8>
E:\2017-2018\03_Graduation Project\04_Software\05_Wangshi\03_UpdateSoftware-180702\02_UEUser\KL36_Update-180627\Debug/../04_UserBoard/lcd/lcd.c:117
	LCD_WR_DATA8(0x19);
    d7e8:	2019      	movs	r0, #25
    d7ea:	f000 fbd7 	bl	df9c <LCD_WR_DATA8>
E:\2017-2018\03_Graduation Project\04_Software\05_Wangshi\03_UpdateSoftware-180702\02_UEUser\KL36_Update-180627\Debug/../04_UserBoard/lcd/lcd.c:118
	LCD_WR_DATA8(0x00);
    d7ee:	2000      	movs	r0, #0
    d7f0:	f000 fbd4 	bl	df9c <LCD_WR_DATA8>
E:\2017-2018\03_Graduation Project\04_Software\05_Wangshi\03_UpdateSoftware-180702\02_UEUser\KL36_Update-180627\Debug/../04_UserBoard/lcd/lcd.c:119
	LCD_WR_DATA8(0x12);
    d7f4:	2012      	movs	r0, #18
    d7f6:	f000 fbd1 	bl	df9c <LCD_WR_DATA8>
E:\2017-2018\03_Graduation Project\04_Software\05_Wangshi\03_UpdateSoftware-180702\02_UEUser\KL36_Update-180627\Debug/../04_UserBoard/lcd/lcd.c:120
	LCD_WR_DATA8(0x07);
    d7fa:	2007      	movs	r0, #7
    d7fc:	f000 fbce 	bl	df9c <LCD_WR_DATA8>
E:\2017-2018\03_Graduation Project\04_Software\05_Wangshi\03_UpdateSoftware-180702\02_UEUser\KL36_Update-180627\Debug/../04_UserBoard/lcd/lcd.c:121
	LCD_WR_DATA8(0x2D);
    d800:	202d      	movs	r0, #45	; 0x2d
    d802:	f000 fbcb 	bl	df9c <LCD_WR_DATA8>
E:\2017-2018\03_Graduation Project\04_Software\05_Wangshi\03_UpdateSoftware-180702\02_UEUser\KL36_Update-180627\Debug/../04_UserBoard/lcd/lcd.c:122
	LCD_WR_DATA8(0x28);
    d806:	2028      	movs	r0, #40	; 0x28
    d808:	f000 fbc8 	bl	df9c <LCD_WR_DATA8>
E:\2017-2018\03_Graduation Project\04_Software\05_Wangshi\03_UpdateSoftware-180702\02_UEUser\KL36_Update-180627\Debug/../04_UserBoard/lcd/lcd.c:123
	LCD_WR_DATA8(0x3F);
    d80c:	203f      	movs	r0, #63	; 0x3f
    d80e:	f000 fbc5 	bl	df9c <LCD_WR_DATA8>
E:\2017-2018\03_Graduation Project\04_Software\05_Wangshi\03_UpdateSoftware-180702\02_UEUser\KL36_Update-180627\Debug/../04_UserBoard/lcd/lcd.c:124
	LCD_WR_DATA8(0x02);
    d812:	2002      	movs	r0, #2
    d814:	f000 fbc2 	bl	df9c <LCD_WR_DATA8>
E:\2017-2018\03_Graduation Project\04_Software\05_Wangshi\03_UpdateSoftware-180702\02_UEUser\KL36_Update-180627\Debug/../04_UserBoard/lcd/lcd.c:125
	LCD_WR_DATA8(0x0A);
    d818:	200a      	movs	r0, #10
    d81a:	f000 fbbf 	bl	df9c <LCD_WR_DATA8>
E:\2017-2018\03_Graduation Project\04_Software\05_Wangshi\03_UpdateSoftware-180702\02_UEUser\KL36_Update-180627\Debug/../04_UserBoard/lcd/lcd.c:126
	LCD_WR_DATA8(0x08);
    d81e:	2008      	movs	r0, #8
    d820:	f000 fbbc 	bl	df9c <LCD_WR_DATA8>
E:\2017-2018\03_Graduation Project\04_Software\05_Wangshi\03_UpdateSoftware-180702\02_UEUser\KL36_Update-180627\Debug/../04_UserBoard/lcd/lcd.c:127
	LCD_WR_DATA8(0x25);
    d824:	2025      	movs	r0, #37	; 0x25
    d826:	f000 fbb9 	bl	df9c <LCD_WR_DATA8>
E:\2017-2018\03_Graduation Project\04_Software\05_Wangshi\03_UpdateSoftware-180702\02_UEUser\KL36_Update-180627\Debug/../04_UserBoard/lcd/lcd.c:128
	LCD_WR_DATA8(0x2D);
    d82a:	202d      	movs	r0, #45	; 0x2d
    d82c:	f000 fbb6 	bl	df9c <LCD_WR_DATA8>
E:\2017-2018\03_Graduation Project\04_Software\05_Wangshi\03_UpdateSoftware-180702\02_UEUser\KL36_Update-180627\Debug/../04_UserBoard/lcd/lcd.c:129
	LCD_WR_DATA8(0x0F);
    d830:	200f      	movs	r0, #15
    d832:	f000 fbb3 	bl	df9c <LCD_WR_DATA8>
E:\2017-2018\03_Graduation Project\04_Software\05_Wangshi\03_UpdateSoftware-180702\02_UEUser\KL36_Update-180627\Debug/../04_UserBoard/lcd/lcd.c:131

	LCD_WR_REG(0x11);    //Exit Sleep
    d836:	2011      	movs	r0, #17
    d838:	f000 fbf6 	bl	e028 <LCD_WR_REG>
E:\2017-2018\03_Graduation Project\04_Software\05_Wangshi\03_UpdateSoftware-180702\02_UEUser\KL36_Update-180627\Debug/../04_UserBoard/lcd/lcd.c:132
	Delay_ms(120);
    d83c:	2078      	movs	r0, #120	; 0x78
    d83e:	f7ff fad1 	bl	cde4 <Delay_ms>
E:\2017-2018\03_Graduation Project\04_Software\05_Wangshi\03_UpdateSoftware-180702\02_UEUser\KL36_Update-180627\Debug/../04_UserBoard/lcd/lcd.c:133
	LCD_WR_REG(0x29);    //Display on
    d842:	2029      	movs	r0, #41	; 0x29
    d844:	f000 fbf0 	bl	e028 <LCD_WR_REG>
E:\2017-2018\03_Graduation Project\04_Software\05_Wangshi\03_UpdateSoftware-180702\02_UEUser\KL36_Update-180627\Debug/../04_UserBoard/lcd/lcd.c:134
}
    d848:	46c0      	nop			; (mov r8, r8)
    d84a:	46bd      	mov	sp, r7
    d84c:	b001      	add	sp, #4
    d84e:	bd90      	pop	{r4, r7, pc}
    d850:	20000f68 	.word	0x20000f68
    d854:	00001770 	.word	0x00001770
    d858:	20000974 	.word	0x20000974
    d85c:	00000302 	.word	0x00000302
    d860:	00000301 	.word	0x00000301
    d864:	20000960 	.word	0x20000960

0000d868 <LCD_DrawPoint>:
LCD_DrawPoint():
E:\2017-2018\03_Graduation Project\04_Software\05_Wangshi\03_UpdateSoftware-180702\02_UEUser\KL36_Update-180627\Debug/../04_UserBoard/lcd/lcd.c:163
//x,y:(240*320),
//       color:
//
//=====================================================================
void LCD_DrawPoint(uint_16 x,uint_16 y,uint_16 color)    //
{
    d868:	b590      	push	{r4, r7, lr}
    d86a:	b083      	sub	sp, #12
    d86c:	af00      	add	r7, sp, #0
    d86e:	0004      	movs	r4, r0
    d870:	0008      	movs	r0, r1
    d872:	0011      	movs	r1, r2
    d874:	1dbb      	adds	r3, r7, #6
    d876:	1c22      	adds	r2, r4, #0
    d878:	801a      	strh	r2, [r3, #0]
    d87a:	1d3b      	adds	r3, r7, #4
    d87c:	1c02      	adds	r2, r0, #0
    d87e:	801a      	strh	r2, [r3, #0]
    d880:	1cbb      	adds	r3, r7, #2
    d882:	1c0a      	adds	r2, r1, #0
    d884:	801a      	strh	r2, [r3, #0]
E:\2017-2018\03_Graduation Project\04_Software\05_Wangshi\03_UpdateSoftware-180702\02_UEUser\KL36_Update-180627\Debug/../04_UserBoard/lcd/lcd.c:164
	Address_set(x,y,x,y);//
    d886:	1d3b      	adds	r3, r7, #4
    d888:	881c      	ldrh	r4, [r3, #0]
    d88a:	1dbb      	adds	r3, r7, #6
    d88c:	881a      	ldrh	r2, [r3, #0]
    d88e:	1d3b      	adds	r3, r7, #4
    d890:	8819      	ldrh	r1, [r3, #0]
    d892:	1dbb      	adds	r3, r7, #6
    d894:	8818      	ldrh	r0, [r3, #0]
    d896:	0023      	movs	r3, r4
    d898:	f000 fbfb 	bl	e092 <Address_set>
E:\2017-2018\03_Graduation Project\04_Software\05_Wangshi\03_UpdateSoftware-180702\02_UEUser\KL36_Update-180627\Debug/../04_UserBoard/lcd/lcd.c:165
	LCD_WR_DATA(color);
    d89c:	1cbb      	adds	r3, r7, #2
    d89e:	881b      	ldrh	r3, [r3, #0]
    d8a0:	0018      	movs	r0, r3
    d8a2:	f000 fb99 	bl	dfd8 <LCD_WR_DATA>
E:\2017-2018\03_Graduation Project\04_Software\05_Wangshi\03_UpdateSoftware-180702\02_UEUser\KL36_Update-180627\Debug/../04_UserBoard/lcd/lcd.c:166
}
    d8a6:	46c0      	nop			; (mov r8, r8)
    d8a8:	46bd      	mov	sp, r7
    d8aa:	b003      	add	sp, #12
    d8ac:	bd90      	pop	{r4, r7, pc}

0000d8ae <LCD_DrawLine>:
LCD_DrawLine():
E:\2017-2018\03_Graduation Project\04_Software\05_Wangshi\03_UpdateSoftware-180702\02_UEUser\KL36_Update-180627\Debug/../04_UserBoard/lcd/lcd.c:227
//       color:
//
//=====================================================================
void LCD_DrawLine(uint_16 x1,uint_16 y1,
	 uint_16 x2, uint_16 y2,uint_16 color)    //
{
    d8ae:	b5b0      	push	{r4, r5, r7, lr}
    d8b0:	b08c      	sub	sp, #48	; 0x30
    d8b2:	af00      	add	r7, sp, #0
    d8b4:	0005      	movs	r5, r0
    d8b6:	000c      	movs	r4, r1
    d8b8:	0010      	movs	r0, r2
    d8ba:	0019      	movs	r1, r3
    d8bc:	1dbb      	adds	r3, r7, #6
    d8be:	1c2a      	adds	r2, r5, #0
    d8c0:	801a      	strh	r2, [r3, #0]
    d8c2:	1d3b      	adds	r3, r7, #4
    d8c4:	1c22      	adds	r2, r4, #0
    d8c6:	801a      	strh	r2, [r3, #0]
    d8c8:	1cbb      	adds	r3, r7, #2
    d8ca:	1c02      	adds	r2, r0, #0
    d8cc:	801a      	strh	r2, [r3, #0]
    d8ce:	003b      	movs	r3, r7
    d8d0:	1c0a      	adds	r2, r1, #0
    d8d2:	801a      	strh	r2, [r3, #0]
E:\2017-2018\03_Graduation Project\04_Software\05_Wangshi\03_UpdateSoftware-180702\02_UEUser\KL36_Update-180627\Debug/../04_UserBoard/lcd/lcd.c:229
	uint_16 t;
	int xerr=0,yerr=0,delta_x,delta_y,distance;
    d8d4:	2300      	movs	r3, #0
    d8d6:	62bb      	str	r3, [r7, #40]	; 0x28
    d8d8:	2300      	movs	r3, #0
    d8da:	627b      	str	r3, [r7, #36]	; 0x24
E:\2017-2018\03_Graduation Project\04_Software\05_Wangshi\03_UpdateSoftware-180702\02_UEUser\KL36_Update-180627\Debug/../04_UserBoard/lcd/lcd.c:232
	int incx,incy,uRow,uCol;

	delta_x=x2-x1; //
    d8dc:	1cbb      	adds	r3, r7, #2
    d8de:	881a      	ldrh	r2, [r3, #0]
    d8e0:	1dbb      	adds	r3, r7, #6
    d8e2:	881b      	ldrh	r3, [r3, #0]
    d8e4:	1ad3      	subs	r3, r2, r3
    d8e6:	623b      	str	r3, [r7, #32]
E:\2017-2018\03_Graduation Project\04_Software\05_Wangshi\03_UpdateSoftware-180702\02_UEUser\KL36_Update-180627\Debug/../04_UserBoard/lcd/lcd.c:233
	delta_y=y2-y1;
    d8e8:	003b      	movs	r3, r7
    d8ea:	881a      	ldrh	r2, [r3, #0]
    d8ec:	1d3b      	adds	r3, r7, #4
    d8ee:	881b      	ldrh	r3, [r3, #0]
    d8f0:	1ad3      	subs	r3, r2, r3
    d8f2:	61fb      	str	r3, [r7, #28]
E:\2017-2018\03_Graduation Project\04_Software\05_Wangshi\03_UpdateSoftware-180702\02_UEUser\KL36_Update-180627\Debug/../04_UserBoard/lcd/lcd.c:234
	uRow=x1;
    d8f4:	1dbb      	adds	r3, r7, #6
    d8f6:	881b      	ldrh	r3, [r3, #0]
    d8f8:	60fb      	str	r3, [r7, #12]
E:\2017-2018\03_Graduation Project\04_Software\05_Wangshi\03_UpdateSoftware-180702\02_UEUser\KL36_Update-180627\Debug/../04_UserBoard/lcd/lcd.c:235
	uCol=y1;
    d8fa:	1d3b      	adds	r3, r7, #4
    d8fc:	881b      	ldrh	r3, [r3, #0]
    d8fe:	60bb      	str	r3, [r7, #8]
E:\2017-2018\03_Graduation Project\04_Software\05_Wangshi\03_UpdateSoftware-180702\02_UEUser\KL36_Update-180627\Debug/../04_UserBoard/lcd/lcd.c:236
	if(delta_x>0)incx=1; //
    d900:	6a3b      	ldr	r3, [r7, #32]
    d902:	2b00      	cmp	r3, #0
    d904:	dd02      	ble.n	d90c <LCD_DrawLine+0x5e>
E:\2017-2018\03_Graduation Project\04_Software\05_Wangshi\03_UpdateSoftware-180702\02_UEUser\KL36_Update-180627\Debug/../04_UserBoard/lcd/lcd.c:236 (discriminator 1)
    d906:	2301      	movs	r3, #1
    d908:	617b      	str	r3, [r7, #20]
    d90a:	e00b      	b.n	d924 <LCD_DrawLine+0x76>
E:\2017-2018\03_Graduation Project\04_Software\05_Wangshi\03_UpdateSoftware-180702\02_UEUser\KL36_Update-180627\Debug/../04_UserBoard/lcd/lcd.c:237
	else if(delta_x==0)incx=0;//
    d90c:	6a3b      	ldr	r3, [r7, #32]
    d90e:	2b00      	cmp	r3, #0
    d910:	d102      	bne.n	d918 <LCD_DrawLine+0x6a>
E:\2017-2018\03_Graduation Project\04_Software\05_Wangshi\03_UpdateSoftware-180702\02_UEUser\KL36_Update-180627\Debug/../04_UserBoard/lcd/lcd.c:237 (discriminator 1)
    d912:	2300      	movs	r3, #0
    d914:	617b      	str	r3, [r7, #20]
    d916:	e005      	b.n	d924 <LCD_DrawLine+0x76>
E:\2017-2018\03_Graduation Project\04_Software\05_Wangshi\03_UpdateSoftware-180702\02_UEUser\KL36_Update-180627\Debug/../04_UserBoard/lcd/lcd.c:238
	else {incx=-1;delta_x=-delta_x;}
    d918:	2301      	movs	r3, #1
    d91a:	425b      	negs	r3, r3
    d91c:	617b      	str	r3, [r7, #20]
    d91e:	6a3b      	ldr	r3, [r7, #32]
    d920:	425b      	negs	r3, r3
    d922:	623b      	str	r3, [r7, #32]
E:\2017-2018\03_Graduation Project\04_Software\05_Wangshi\03_UpdateSoftware-180702\02_UEUser\KL36_Update-180627\Debug/../04_UserBoard/lcd/lcd.c:239
	if(delta_y>0)incy=1;
    d924:	69fb      	ldr	r3, [r7, #28]
    d926:	2b00      	cmp	r3, #0
    d928:	dd02      	ble.n	d930 <LCD_DrawLine+0x82>
E:\2017-2018\03_Graduation Project\04_Software\05_Wangshi\03_UpdateSoftware-180702\02_UEUser\KL36_Update-180627\Debug/../04_UserBoard/lcd/lcd.c:239 (discriminator 1)
    d92a:	2301      	movs	r3, #1
    d92c:	613b      	str	r3, [r7, #16]
    d92e:	e00b      	b.n	d948 <LCD_DrawLine+0x9a>
E:\2017-2018\03_Graduation Project\04_Software\05_Wangshi\03_UpdateSoftware-180702\02_UEUser\KL36_Update-180627\Debug/../04_UserBoard/lcd/lcd.c:240
	else if(delta_y==0)incy=0;//
    d930:	69fb      	ldr	r3, [r7, #28]
    d932:	2b00      	cmp	r3, #0
    d934:	d102      	bne.n	d93c <LCD_DrawLine+0x8e>
E:\2017-2018\03_Graduation Project\04_Software\05_Wangshi\03_UpdateSoftware-180702\02_UEUser\KL36_Update-180627\Debug/../04_UserBoard/lcd/lcd.c:240 (discriminator 1)
    d936:	2300      	movs	r3, #0
    d938:	613b      	str	r3, [r7, #16]
    d93a:	e005      	b.n	d948 <LCD_DrawLine+0x9a>
E:\2017-2018\03_Graduation Project\04_Software\05_Wangshi\03_UpdateSoftware-180702\02_UEUser\KL36_Update-180627\Debug/../04_UserBoard/lcd/lcd.c:241
	else{incy=-1;delta_y=-delta_y;}
    d93c:	2301      	movs	r3, #1
    d93e:	425b      	negs	r3, r3
    d940:	613b      	str	r3, [r7, #16]
    d942:	69fb      	ldr	r3, [r7, #28]
    d944:	425b      	negs	r3, r3
    d946:	61fb      	str	r3, [r7, #28]
E:\2017-2018\03_Graduation Project\04_Software\05_Wangshi\03_UpdateSoftware-180702\02_UEUser\KL36_Update-180627\Debug/../04_UserBoard/lcd/lcd.c:242
	if( delta_x>delta_y)distance=delta_x; //
    d948:	6a3a      	ldr	r2, [r7, #32]
    d94a:	69fb      	ldr	r3, [r7, #28]
    d94c:	429a      	cmp	r2, r3
    d94e:	dd02      	ble.n	d956 <LCD_DrawLine+0xa8>
E:\2017-2018\03_Graduation Project\04_Software\05_Wangshi\03_UpdateSoftware-180702\02_UEUser\KL36_Update-180627\Debug/../04_UserBoard/lcd/lcd.c:242 (discriminator 1)
    d950:	6a3b      	ldr	r3, [r7, #32]
    d952:	61bb      	str	r3, [r7, #24]
    d954:	e001      	b.n	d95a <LCD_DrawLine+0xac>
E:\2017-2018\03_Graduation Project\04_Software\05_Wangshi\03_UpdateSoftware-180702\02_UEUser\KL36_Update-180627\Debug/../04_UserBoard/lcd/lcd.c:243
	else distance=delta_y;
    d956:	69fb      	ldr	r3, [r7, #28]
    d958:	61bb      	str	r3, [r7, #24]
E:\2017-2018\03_Graduation Project\04_Software\05_Wangshi\03_UpdateSoftware-180702\02_UEUser\KL36_Update-180627\Debug/../04_UserBoard/lcd/lcd.c:244
	for(t=0;t<=distance+1;t++ )//
    d95a:	232e      	movs	r3, #46	; 0x2e
    d95c:	18fb      	adds	r3, r7, r3
    d95e:	2200      	movs	r2, #0
    d960:	801a      	strh	r2, [r3, #0]
    d962:	e02f      	b.n	d9c4 <LCD_DrawLine+0x116>
E:\2017-2018\03_Graduation Project\04_Software\05_Wangshi\03_UpdateSoftware-180702\02_UEUser\KL36_Update-180627\Debug/../04_UserBoard/lcd/lcd.c:246
	{
		LCD_DrawPoint(uRow,uCol,color);//
    d964:	68fb      	ldr	r3, [r7, #12]
    d966:	b29b      	uxth	r3, r3
    d968:	68ba      	ldr	r2, [r7, #8]
    d96a:	b291      	uxth	r1, r2
    d96c:	2240      	movs	r2, #64	; 0x40
    d96e:	18ba      	adds	r2, r7, r2
    d970:	8812      	ldrh	r2, [r2, #0]
    d972:	0018      	movs	r0, r3
    d974:	f7ff ff78 	bl	d868 <LCD_DrawPoint>
E:\2017-2018\03_Graduation Project\04_Software\05_Wangshi\03_UpdateSoftware-180702\02_UEUser\KL36_Update-180627\Debug/../04_UserBoard/lcd/lcd.c:247
		xerr+=delta_x ;
    d978:	6aba      	ldr	r2, [r7, #40]	; 0x28
    d97a:	6a3b      	ldr	r3, [r7, #32]
    d97c:	18d3      	adds	r3, r2, r3
    d97e:	62bb      	str	r3, [r7, #40]	; 0x28
E:\2017-2018\03_Graduation Project\04_Software\05_Wangshi\03_UpdateSoftware-180702\02_UEUser\KL36_Update-180627\Debug/../04_UserBoard/lcd/lcd.c:248
		yerr+=delta_y ;
    d980:	6a7a      	ldr	r2, [r7, #36]	; 0x24
    d982:	69fb      	ldr	r3, [r7, #28]
    d984:	18d3      	adds	r3, r2, r3
    d986:	627b      	str	r3, [r7, #36]	; 0x24
E:\2017-2018\03_Graduation Project\04_Software\05_Wangshi\03_UpdateSoftware-180702\02_UEUser\KL36_Update-180627\Debug/../04_UserBoard/lcd/lcd.c:249
		if(xerr>distance)
    d988:	6aba      	ldr	r2, [r7, #40]	; 0x28
    d98a:	69bb      	ldr	r3, [r7, #24]
    d98c:	429a      	cmp	r2, r3
    d98e:	dd07      	ble.n	d9a0 <LCD_DrawLine+0xf2>
E:\2017-2018\03_Graduation Project\04_Software\05_Wangshi\03_UpdateSoftware-180702\02_UEUser\KL36_Update-180627\Debug/../04_UserBoard/lcd/lcd.c:251
		{
			xerr-=distance;
    d990:	6aba      	ldr	r2, [r7, #40]	; 0x28
    d992:	69bb      	ldr	r3, [r7, #24]
    d994:	1ad3      	subs	r3, r2, r3
    d996:	62bb      	str	r3, [r7, #40]	; 0x28
E:\2017-2018\03_Graduation Project\04_Software\05_Wangshi\03_UpdateSoftware-180702\02_UEUser\KL36_Update-180627\Debug/../04_UserBoard/lcd/lcd.c:252
			uRow+=incx;
    d998:	68fa      	ldr	r2, [r7, #12]
    d99a:	697b      	ldr	r3, [r7, #20]
    d99c:	18d3      	adds	r3, r2, r3
    d99e:	60fb      	str	r3, [r7, #12]
E:\2017-2018\03_Graduation Project\04_Software\05_Wangshi\03_UpdateSoftware-180702\02_UEUser\KL36_Update-180627\Debug/../04_UserBoard/lcd/lcd.c:254
		}
		if(yerr>distance)
    d9a0:	6a7a      	ldr	r2, [r7, #36]	; 0x24
    d9a2:	69bb      	ldr	r3, [r7, #24]
    d9a4:	429a      	cmp	r2, r3
    d9a6:	dd07      	ble.n	d9b8 <LCD_DrawLine+0x10a>
E:\2017-2018\03_Graduation Project\04_Software\05_Wangshi\03_UpdateSoftware-180702\02_UEUser\KL36_Update-180627\Debug/../04_UserBoard/lcd/lcd.c:256
		{
			yerr-=distance;
    d9a8:	6a7a      	ldr	r2, [r7, #36]	; 0x24
    d9aa:	69bb      	ldr	r3, [r7, #24]
    d9ac:	1ad3      	subs	r3, r2, r3
    d9ae:	627b      	str	r3, [r7, #36]	; 0x24
E:\2017-2018\03_Graduation Project\04_Software\05_Wangshi\03_UpdateSoftware-180702\02_UEUser\KL36_Update-180627\Debug/../04_UserBoard/lcd/lcd.c:257
			uCol+=incy;
    d9b0:	68ba      	ldr	r2, [r7, #8]
    d9b2:	693b      	ldr	r3, [r7, #16]
    d9b4:	18d3      	adds	r3, r2, r3
    d9b6:	60bb      	str	r3, [r7, #8]
E:\2017-2018\03_Graduation Project\04_Software\05_Wangshi\03_UpdateSoftware-180702\02_UEUser\KL36_Update-180627\Debug/../04_UserBoard/lcd/lcd.c:244 (discriminator 2)
	for(t=0;t<=distance+1;t++ )//
    d9b8:	212e      	movs	r1, #46	; 0x2e
    d9ba:	187b      	adds	r3, r7, r1
    d9bc:	881a      	ldrh	r2, [r3, #0]
    d9be:	187b      	adds	r3, r7, r1
    d9c0:	3201      	adds	r2, #1
    d9c2:	801a      	strh	r2, [r3, #0]
E:\2017-2018\03_Graduation Project\04_Software\05_Wangshi\03_UpdateSoftware-180702\02_UEUser\KL36_Update-180627\Debug/../04_UserBoard/lcd/lcd.c:244 (discriminator 1)
    d9c4:	232e      	movs	r3, #46	; 0x2e
    d9c6:	18fb      	adds	r3, r7, r3
    d9c8:	881a      	ldrh	r2, [r3, #0]
    d9ca:	69bb      	ldr	r3, [r7, #24]
    d9cc:	3301      	adds	r3, #1
    d9ce:	429a      	cmp	r2, r3
    d9d0:	ddc8      	ble.n	d964 <LCD_DrawLine+0xb6>
E:\2017-2018\03_Graduation Project\04_Software\05_Wangshi\03_UpdateSoftware-180702\02_UEUser\KL36_Update-180627\Debug/../04_UserBoard/lcd/lcd.c:260
		}
	}
}
    d9d2:	46c0      	nop			; (mov r8, r8)
    d9d4:	46bd      	mov	sp, r7
    d9d6:	b00c      	add	sp, #48	; 0x30
    d9d8:	bdb0      	pop	{r4, r5, r7, pc}

0000d9da <LCD_DrawSurface>:
LCD_DrawSurface():
E:\2017-2018\03_Graduation Project\04_Software\05_Wangshi\03_UpdateSoftware-180702\02_UEUser\KL36_Update-180627\Debug/../04_UserBoard/lcd/lcd.c:287
//       color:
//x2>x1,y2>y1
//=====================================================================
void LCD_DrawSurface(uint_16 x1,uint_16 y1,
     uint_16 x2,uint_16 y2,uint_16 color)    //
{
    d9da:	b5b0      	push	{r4, r5, r7, lr}
    d9dc:	b084      	sub	sp, #16
    d9de:	af00      	add	r7, sp, #0
    d9e0:	0005      	movs	r5, r0
    d9e2:	000c      	movs	r4, r1
    d9e4:	0010      	movs	r0, r2
    d9e6:	0019      	movs	r1, r3
    d9e8:	1dbb      	adds	r3, r7, #6
    d9ea:	1c2a      	adds	r2, r5, #0
    d9ec:	801a      	strh	r2, [r3, #0]
    d9ee:	1d3b      	adds	r3, r7, #4
    d9f0:	1c22      	adds	r2, r4, #0
    d9f2:	801a      	strh	r2, [r3, #0]
    d9f4:	1cbb      	adds	r3, r7, #2
    d9f6:	1c02      	adds	r2, r0, #0
    d9f8:	801a      	strh	r2, [r3, #0]
    d9fa:	003b      	movs	r3, r7
    d9fc:	1c0a      	adds	r2, r1, #0
    d9fe:	801a      	strh	r2, [r3, #0]
E:\2017-2018\03_Graduation Project\04_Software\05_Wangshi\03_UpdateSoftware-180702\02_UEUser\KL36_Update-180627\Debug/../04_UserBoard/lcd/lcd.c:289
	uint_16 i,j;
	Address_set(x1,y1,x2,y2);      //
    da00:	003b      	movs	r3, r7
    da02:	881c      	ldrh	r4, [r3, #0]
    da04:	1cbb      	adds	r3, r7, #2
    da06:	881a      	ldrh	r2, [r3, #0]
    da08:	1d3b      	adds	r3, r7, #4
    da0a:	8819      	ldrh	r1, [r3, #0]
    da0c:	1dbb      	adds	r3, r7, #6
    da0e:	8818      	ldrh	r0, [r3, #0]
    da10:	0023      	movs	r3, r4
    da12:	f000 fb3e 	bl	e092 <Address_set>
E:\2017-2018\03_Graduation Project\04_Software\05_Wangshi\03_UpdateSoftware-180702\02_UEUser\KL36_Update-180627\Debug/../04_UserBoard/lcd/lcd.c:290
	for(i=y1;i<=y2;i++)
    da16:	230e      	movs	r3, #14
    da18:	18fb      	adds	r3, r7, r3
    da1a:	1d3a      	adds	r2, r7, #4
    da1c:	8812      	ldrh	r2, [r2, #0]
    da1e:	801a      	strh	r2, [r3, #0]
    da20:	e01e      	b.n	da60 <LCD_DrawSurface+0x86>
E:\2017-2018\03_Graduation Project\04_Software\05_Wangshi\03_UpdateSoftware-180702\02_UEUser\KL36_Update-180627\Debug/../04_UserBoard/lcd/lcd.c:292
	{
		for(j=x1;j<=x2;j++)LCD_WR_DATA(color);//
    da22:	230c      	movs	r3, #12
    da24:	18fb      	adds	r3, r7, r3
    da26:	1dba      	adds	r2, r7, #6
    da28:	8812      	ldrh	r2, [r2, #0]
    da2a:	801a      	strh	r2, [r3, #0]
    da2c:	e00b      	b.n	da46 <LCD_DrawSurface+0x6c>
E:\2017-2018\03_Graduation Project\04_Software\05_Wangshi\03_UpdateSoftware-180702\02_UEUser\KL36_Update-180627\Debug/../04_UserBoard/lcd/lcd.c:292 (discriminator 3)
    da2e:	2320      	movs	r3, #32
    da30:	18fb      	adds	r3, r7, r3
    da32:	881b      	ldrh	r3, [r3, #0]
    da34:	0018      	movs	r0, r3
    da36:	f000 facf 	bl	dfd8 <LCD_WR_DATA>
    da3a:	210c      	movs	r1, #12
    da3c:	187b      	adds	r3, r7, r1
    da3e:	881a      	ldrh	r2, [r3, #0]
    da40:	187b      	adds	r3, r7, r1
    da42:	3201      	adds	r2, #1
    da44:	801a      	strh	r2, [r3, #0]
E:\2017-2018\03_Graduation Project\04_Software\05_Wangshi\03_UpdateSoftware-180702\02_UEUser\KL36_Update-180627\Debug/../04_UserBoard/lcd/lcd.c:292 (discriminator 1)
    da46:	230c      	movs	r3, #12
    da48:	18fa      	adds	r2, r7, r3
    da4a:	1cbb      	adds	r3, r7, #2
    da4c:	8812      	ldrh	r2, [r2, #0]
    da4e:	881b      	ldrh	r3, [r3, #0]
    da50:	429a      	cmp	r2, r3
    da52:	d9ec      	bls.n	da2e <LCD_DrawSurface+0x54>
E:\2017-2018\03_Graduation Project\04_Software\05_Wangshi\03_UpdateSoftware-180702\02_UEUser\KL36_Update-180627\Debug/../04_UserBoard/lcd/lcd.c:290 (discriminator 2)
	for(i=y1;i<=y2;i++)
    da54:	210e      	movs	r1, #14
    da56:	187b      	adds	r3, r7, r1
    da58:	881a      	ldrh	r2, [r3, #0]
    da5a:	187b      	adds	r3, r7, r1
    da5c:	3201      	adds	r2, #1
    da5e:	801a      	strh	r2, [r3, #0]
E:\2017-2018\03_Graduation Project\04_Software\05_Wangshi\03_UpdateSoftware-180702\02_UEUser\KL36_Update-180627\Debug/../04_UserBoard/lcd/lcd.c:290 (discriminator 1)
    da60:	230e      	movs	r3, #14
    da62:	18fa      	adds	r2, r7, r3
    da64:	003b      	movs	r3, r7
    da66:	8812      	ldrh	r2, [r2, #0]
    da68:	881b      	ldrh	r3, [r3, #0]
    da6a:	429a      	cmp	r2, r3
    da6c:	d9d9      	bls.n	da22 <LCD_DrawSurface+0x48>
E:\2017-2018\03_Graduation Project\04_Software\05_Wangshi\03_UpdateSoftware-180702\02_UEUser\KL36_Update-180627\Debug/../04_UserBoard/lcd/lcd.c:294
	}
}
    da6e:	46c0      	nop			; (mov r8, r8)
    da70:	46bd      	mov	sp, r7
    da72:	b004      	add	sp, #16
    da74:	bdb0      	pop	{r4, r5, r7, pc}

0000da76 <LCD_ShowCharactor>:
LCD_ShowCharactor():
E:\2017-2018\03_Graduation Project\04_Software\05_Wangshi\03_UpdateSoftware-180702\02_UEUser\KL36_Update-180627\Debug/../04_UserBoard/lcd/lcd.c:305
//       groundbackcolor:p:
//(16*16),
//=====================================================================
void LCD_ShowCharactor(uint_16  x,uint_16 y,uint_16 fontcolor,
	 uint_16 groundbackcolor,const uint_8 *p)    //16*16
{
    da76:	b5b0      	push	{r4, r5, r7, lr}
    da78:	b084      	sub	sp, #16
    da7a:	af00      	add	r7, sp, #0
    da7c:	0005      	movs	r5, r0
    da7e:	000c      	movs	r4, r1
    da80:	0010      	movs	r0, r2
    da82:	0019      	movs	r1, r3
    da84:	1dbb      	adds	r3, r7, #6
    da86:	1c2a      	adds	r2, r5, #0
    da88:	801a      	strh	r2, [r3, #0]
    da8a:	1d3b      	adds	r3, r7, #4
    da8c:	1c22      	adds	r2, r4, #0
    da8e:	801a      	strh	r2, [r3, #0]
    da90:	1cbb      	adds	r3, r7, #2
    da92:	1c02      	adds	r2, r0, #0
    da94:	801a      	strh	r2, [r3, #0]
    da96:	003b      	movs	r3, r7
    da98:	1c0a      	adds	r2, r1, #0
    da9a:	801a      	strh	r2, [r3, #0]
E:\2017-2018\03_Graduation Project\04_Software\05_Wangshi\03_UpdateSoftware-180702\02_UEUser\KL36_Update-180627\Debug/../04_UserBoard/lcd/lcd.c:307
	uint_8 i,j;
	const uint_8 *temp=p;
    da9c:	6a3b      	ldr	r3, [r7, #32]
    da9e:	60bb      	str	r3, [r7, #8]
E:\2017-2018\03_Graduation Project\04_Software\05_Wangshi\03_UpdateSoftware-180702\02_UEUser\KL36_Update-180627\Debug/../04_UserBoard/lcd/lcd.c:308
    Address_set(x,y,x+15,y+15); //
    daa0:	1dbb      	adds	r3, r7, #6
    daa2:	881b      	ldrh	r3, [r3, #0]
    daa4:	330f      	adds	r3, #15
    daa6:	b29a      	uxth	r2, r3
    daa8:	1d3b      	adds	r3, r7, #4
    daaa:	881b      	ldrh	r3, [r3, #0]
    daac:	330f      	adds	r3, #15
    daae:	b29c      	uxth	r4, r3
    dab0:	1d3b      	adds	r3, r7, #4
    dab2:	8819      	ldrh	r1, [r3, #0]
    dab4:	1dbb      	adds	r3, r7, #6
    dab6:	8818      	ldrh	r0, [r3, #0]
    dab8:	0023      	movs	r3, r4
    daba:	f000 faea 	bl	e092 <Address_set>
E:\2017-2018\03_Graduation Project\04_Software\05_Wangshi\03_UpdateSoftware-180702\02_UEUser\KL36_Update-180627\Debug/../04_UserBoard/lcd/lcd.c:310
//	temp+=index*32;
	for(j=0;j<32;j++)
    dabe:	230e      	movs	r3, #14
    dac0:	18fb      	adds	r3, r7, r3
    dac2:	2200      	movs	r2, #0
    dac4:	701a      	strb	r2, [r3, #0]
    dac6:	e02e      	b.n	db26 <LCD_ShowCharactor+0xb0>
E:\2017-2018\03_Graduation Project\04_Software\05_Wangshi\03_UpdateSoftware-180702\02_UEUser\KL36_Update-180627\Debug/../04_UserBoard/lcd/lcd.c:312
	{
		for(i=0;i<8;i++)
    dac8:	230f      	movs	r3, #15
    daca:	18fb      	adds	r3, r7, r3
    dacc:	2200      	movs	r2, #0
    dace:	701a      	strb	r2, [r3, #0]
    dad0:	e01b      	b.n	db0a <LCD_ShowCharactor+0x94>
E:\2017-2018\03_Graduation Project\04_Software\05_Wangshi\03_UpdateSoftware-180702\02_UEUser\KL36_Update-180627\Debug/../04_UserBoard/lcd/lcd.c:314
		{
		 	if((*temp&(1<<i))!=0)
    dad2:	68bb      	ldr	r3, [r7, #8]
    dad4:	781b      	ldrb	r3, [r3, #0]
    dad6:	001a      	movs	r2, r3
    dad8:	230f      	movs	r3, #15
    dada:	18fb      	adds	r3, r7, r3
    dadc:	781b      	ldrb	r3, [r3, #0]
    dade:	411a      	asrs	r2, r3
    dae0:	0013      	movs	r3, r2
    dae2:	2201      	movs	r2, #1
    dae4:	4013      	ands	r3, r2
    dae6:	d005      	beq.n	daf4 <LCD_ShowCharactor+0x7e>
E:\2017-2018\03_Graduation Project\04_Software\05_Wangshi\03_UpdateSoftware-180702\02_UEUser\KL36_Update-180627\Debug/../04_UserBoard/lcd/lcd.c:316
			{
				LCD_WR_DATA(fontcolor);
    dae8:	1cbb      	adds	r3, r7, #2
    daea:	881b      	ldrh	r3, [r3, #0]
    daec:	0018      	movs	r0, r3
    daee:	f000 fa73 	bl	dfd8 <LCD_WR_DATA>
    daf2:	e004      	b.n	dafe <LCD_ShowCharactor+0x88>
E:\2017-2018\03_Graduation Project\04_Software\05_Wangshi\03_UpdateSoftware-180702\02_UEUser\KL36_Update-180627\Debug/../04_UserBoard/lcd/lcd.c:320
			}
			else
			{
				LCD_WR_DATA(groundbackcolor);
    daf4:	003b      	movs	r3, r7
    daf6:	881b      	ldrh	r3, [r3, #0]
    daf8:	0018      	movs	r0, r3
    dafa:	f000 fa6d 	bl	dfd8 <LCD_WR_DATA>
E:\2017-2018\03_Graduation Project\04_Software\05_Wangshi\03_UpdateSoftware-180702\02_UEUser\KL36_Update-180627\Debug/../04_UserBoard/lcd/lcd.c:312 (discriminator 2)
		for(i=0;i<8;i++)
    dafe:	210f      	movs	r1, #15
    db00:	187b      	adds	r3, r7, r1
    db02:	781a      	ldrb	r2, [r3, #0]
    db04:	187b      	adds	r3, r7, r1
    db06:	3201      	adds	r2, #1
    db08:	701a      	strb	r2, [r3, #0]
E:\2017-2018\03_Graduation Project\04_Software\05_Wangshi\03_UpdateSoftware-180702\02_UEUser\KL36_Update-180627\Debug/../04_UserBoard/lcd/lcd.c:312 (discriminator 1)
    db0a:	230f      	movs	r3, #15
    db0c:	18fb      	adds	r3, r7, r3
    db0e:	781b      	ldrb	r3, [r3, #0]
    db10:	2b07      	cmp	r3, #7
    db12:	d9de      	bls.n	dad2 <LCD_ShowCharactor+0x5c>
E:\2017-2018\03_Graduation Project\04_Software\05_Wangshi\03_UpdateSoftware-180702\02_UEUser\KL36_Update-180627\Debug/../04_UserBoard/lcd/lcd.c:324 (discriminator 2)
			}

		}
		temp++;
    db14:	68bb      	ldr	r3, [r7, #8]
    db16:	3301      	adds	r3, #1
    db18:	60bb      	str	r3, [r7, #8]
E:\2017-2018\03_Graduation Project\04_Software\05_Wangshi\03_UpdateSoftware-180702\02_UEUser\KL36_Update-180627\Debug/../04_UserBoard/lcd/lcd.c:310 (discriminator 2)
	for(j=0;j<32;j++)
    db1a:	210e      	movs	r1, #14
    db1c:	187b      	adds	r3, r7, r1
    db1e:	781a      	ldrb	r2, [r3, #0]
    db20:	187b      	adds	r3, r7, r1
    db22:	3201      	adds	r2, #1
    db24:	701a      	strb	r2, [r3, #0]
E:\2017-2018\03_Graduation Project\04_Software\05_Wangshi\03_UpdateSoftware-180702\02_UEUser\KL36_Update-180627\Debug/../04_UserBoard/lcd/lcd.c:310 (discriminator 1)
    db26:	230e      	movs	r3, #14
    db28:	18fb      	adds	r3, r7, r3
    db2a:	781b      	ldrb	r3, [r3, #0]
    db2c:	2b1f      	cmp	r3, #31
    db2e:	d9cb      	bls.n	dac8 <LCD_ShowCharactor+0x52>
E:\2017-2018\03_Graduation Project\04_Software\05_Wangshi\03_UpdateSoftware-180702\02_UEUser\KL36_Update-180627\Debug/../04_UserBoard/lcd/lcd.c:326
	 }
}
    db30:	46c0      	nop			; (mov r8, r8)
    db32:	46bd      	mov	sp, r7
    db34:	b004      	add	sp, #16
    db36:	bdb0      	pop	{r4, r5, r7, pc}

0000db38 <LCD_ShowString>:
LCD_ShowString():
E:\2017-2018\03_Graduation Project\04_Software\05_Wangshi\03_UpdateSoftware-180702\02_UEUser\KL36_Update-180627\Debug/../04_UserBoard/lcd/lcd.c:338
//
//                   16*16,8*16
//=====================================================================
void LCD_ShowString(uint_16  x,uint_16 y,uint_16 fontcolor,
	 uint_16 groundbackcolor,const uint_8 *p)
{
    db38:	b5b0      	push	{r4, r5, r7, lr}
    db3a:	b088      	sub	sp, #32
    db3c:	af02      	add	r7, sp, #8
    db3e:	0005      	movs	r5, r0
    db40:	000c      	movs	r4, r1
    db42:	0010      	movs	r0, r2
    db44:	0019      	movs	r1, r3
    db46:	1dbb      	adds	r3, r7, #6
    db48:	1c2a      	adds	r2, r5, #0
    db4a:	801a      	strh	r2, [r3, #0]
    db4c:	1d3b      	adds	r3, r7, #4
    db4e:	1c22      	adds	r2, r4, #0
    db50:	801a      	strh	r2, [r3, #0]
    db52:	1cbb      	adds	r3, r7, #2
    db54:	1c02      	adds	r2, r0, #0
    db56:	801a      	strh	r2, [r3, #0]
    db58:	003b      	movs	r3, r7
    db5a:	1c0a      	adds	r2, r1, #0
    db5c:	801a      	strh	r2, [r3, #0]
E:\2017-2018\03_Graduation Project\04_Software\05_Wangshi\03_UpdateSoftware-180702\02_UEUser\KL36_Update-180627\Debug/../04_UserBoard/lcd/lcd.c:341
	uint_8 i,j,k;
	const uint_8 *temp;
	k = 0;
    db5e:	2315      	movs	r3, #21
    db60:	18fb      	adds	r3, r7, r3
    db62:	2200      	movs	r2, #0
    db64:	701a      	strb	r2, [r3, #0]
E:\2017-2018\03_Graduation Project\04_Software\05_Wangshi\03_UpdateSoftware-180702\02_UEUser\KL36_Update-180627\Debug/../04_UserBoard/lcd/lcd.c:342
	while(*p != 0)
    db66:	e0e0      	b.n	dd2a <LCD_ShowString+0x1f2>
__disable_irq():
E:\2017-2018\03_Graduation Project\04_Software\05_Wangshi\03_UpdateSoftware-180702\02_UEUser\KL36_Update-180627\02_Core/core_cmFunc.h:344
  __ASM volatile ("cpsid i" : : : "memory");
    db68:	b672      	cpsid	i
LCD_ShowString():
E:\2017-2018\03_Graduation Project\04_Software\05_Wangshi\03_UpdateSoftware-180702\02_UEUser\KL36_Update-180627\Debug/../04_UserBoard/lcd/lcd.c:345
	{
		__disable_irq();
		if(*p>=0x20 && *p<=0x7e)
    db6a:	6abb      	ldr	r3, [r7, #40]	; 0x28
    db6c:	781b      	ldrb	r3, [r3, #0]
    db6e:	2b1f      	cmp	r3, #31
    db70:	d96b      	bls.n	dc4a <LCD_ShowString+0x112>
E:\2017-2018\03_Graduation Project\04_Software\05_Wangshi\03_UpdateSoftware-180702\02_UEUser\KL36_Update-180627\Debug/../04_UserBoard/lcd/lcd.c:345 (discriminator 1)
    db72:	6abb      	ldr	r3, [r7, #40]	; 0x28
    db74:	781b      	ldrb	r3, [r3, #0]
    db76:	2b7e      	cmp	r3, #126	; 0x7e
    db78:	d867      	bhi.n	dc4a <LCD_ShowString+0x112>
E:\2017-2018\03_Graduation Project\04_Software\05_Wangshi\03_UpdateSoftware-180702\02_UEUser\KL36_Update-180627\Debug/../04_UserBoard/lcd/lcd.c:347
		{
			temp=nAsciiDot;
    db7a:	4b70      	ldr	r3, [pc, #448]	; (dd3c <LCD_ShowString+0x204>)
    db7c:	613b      	str	r3, [r7, #16]
E:\2017-2018\03_Graduation Project\04_Software\05_Wangshi\03_UpdateSoftware-180702\02_UEUser\KL36_Update-180627\Debug/../04_UserBoard/lcd/lcd.c:348
		    Address_set(x+8*k,y,x+7+8*k,y+15); //
    db7e:	2115      	movs	r1, #21
    db80:	187b      	adds	r3, r7, r1
    db82:	781b      	ldrb	r3, [r3, #0]
    db84:	b29b      	uxth	r3, r3
    db86:	00db      	lsls	r3, r3, #3
    db88:	b29a      	uxth	r2, r3
    db8a:	1dbb      	adds	r3, r7, #6
    db8c:	881b      	ldrh	r3, [r3, #0]
    db8e:	18d3      	adds	r3, r2, r3
    db90:	b298      	uxth	r0, r3
    db92:	187b      	adds	r3, r7, r1
    db94:	781b      	ldrb	r3, [r3, #0]
    db96:	b29b      	uxth	r3, r3
    db98:	00db      	lsls	r3, r3, #3
    db9a:	b29a      	uxth	r2, r3
    db9c:	1dbb      	adds	r3, r7, #6
    db9e:	881b      	ldrh	r3, [r3, #0]
    dba0:	18d3      	adds	r3, r2, r3
    dba2:	b29b      	uxth	r3, r3
    dba4:	3307      	adds	r3, #7
    dba6:	b29a      	uxth	r2, r3
    dba8:	1d3b      	adds	r3, r7, #4
    dbaa:	881b      	ldrh	r3, [r3, #0]
    dbac:	330f      	adds	r3, #15
    dbae:	b29c      	uxth	r4, r3
    dbb0:	1d3b      	adds	r3, r7, #4
    dbb2:	8819      	ldrh	r1, [r3, #0]
    dbb4:	0023      	movs	r3, r4
    dbb6:	f000 fa6c 	bl	e092 <Address_set>
E:\2017-2018\03_Graduation Project\04_Software\05_Wangshi\03_UpdateSoftware-180702\02_UEUser\KL36_Update-180627\Debug/../04_UserBoard/lcd/lcd.c:349
			temp+=(*p-0x20)*16;
    dbba:	6abb      	ldr	r3, [r7, #40]	; 0x28
    dbbc:	781b      	ldrb	r3, [r3, #0]
    dbbe:	3b20      	subs	r3, #32
    dbc0:	011b      	lsls	r3, r3, #4
    dbc2:	001a      	movs	r2, r3
    dbc4:	693b      	ldr	r3, [r7, #16]
    dbc6:	189b      	adds	r3, r3, r2
    dbc8:	613b      	str	r3, [r7, #16]
E:\2017-2018\03_Graduation Project\04_Software\05_Wangshi\03_UpdateSoftware-180702\02_UEUser\KL36_Update-180627\Debug/../04_UserBoard/lcd/lcd.c:350
			for(j=0;j<16;j++)
    dbca:	2316      	movs	r3, #22
    dbcc:	18fb      	adds	r3, r7, r3
    dbce:	2200      	movs	r2, #0
    dbd0:	701a      	strb	r2, [r3, #0]
    dbd2:	e02e      	b.n	dc32 <LCD_ShowString+0xfa>
E:\2017-2018\03_Graduation Project\04_Software\05_Wangshi\03_UpdateSoftware-180702\02_UEUser\KL36_Update-180627\Debug/../04_UserBoard/lcd/lcd.c:352
			{
				for(i=0;i<8;i++)
    dbd4:	2317      	movs	r3, #23
    dbd6:	18fb      	adds	r3, r7, r3
    dbd8:	2200      	movs	r2, #0
    dbda:	701a      	strb	r2, [r3, #0]
    dbdc:	e01b      	b.n	dc16 <LCD_ShowString+0xde>
E:\2017-2018\03_Graduation Project\04_Software\05_Wangshi\03_UpdateSoftware-180702\02_UEUser\KL36_Update-180627\Debug/../04_UserBoard/lcd/lcd.c:354
				{
				 	if((*temp&(1<<i))!=0)
    dbde:	693b      	ldr	r3, [r7, #16]
    dbe0:	781b      	ldrb	r3, [r3, #0]
    dbe2:	001a      	movs	r2, r3
    dbe4:	2317      	movs	r3, #23
    dbe6:	18fb      	adds	r3, r7, r3
    dbe8:	781b      	ldrb	r3, [r3, #0]
    dbea:	411a      	asrs	r2, r3
    dbec:	0013      	movs	r3, r2
    dbee:	2201      	movs	r2, #1
    dbf0:	4013      	ands	r3, r2
    dbf2:	d005      	beq.n	dc00 <LCD_ShowString+0xc8>
E:\2017-2018\03_Graduation Project\04_Software\05_Wangshi\03_UpdateSoftware-180702\02_UEUser\KL36_Update-180627\Debug/../04_UserBoard/lcd/lcd.c:356
					{
						LCD_WR_DATA(fontcolor);
    dbf4:	1cbb      	adds	r3, r7, #2
    dbf6:	881b      	ldrh	r3, [r3, #0]
    dbf8:	0018      	movs	r0, r3
    dbfa:	f000 f9ed 	bl	dfd8 <LCD_WR_DATA>
    dbfe:	e004      	b.n	dc0a <LCD_ShowString+0xd2>
E:\2017-2018\03_Graduation Project\04_Software\05_Wangshi\03_UpdateSoftware-180702\02_UEUser\KL36_Update-180627\Debug/../04_UserBoard/lcd/lcd.c:360
					}
					else
					{
						LCD_WR_DATA(groundbackcolor);
    dc00:	003b      	movs	r3, r7
    dc02:	881b      	ldrh	r3, [r3, #0]
    dc04:	0018      	movs	r0, r3
    dc06:	f000 f9e7 	bl	dfd8 <LCD_WR_DATA>
E:\2017-2018\03_Graduation Project\04_Software\05_Wangshi\03_UpdateSoftware-180702\02_UEUser\KL36_Update-180627\Debug/../04_UserBoard/lcd/lcd.c:352 (discriminator 2)
				for(i=0;i<8;i++)
    dc0a:	2117      	movs	r1, #23
    dc0c:	187b      	adds	r3, r7, r1
    dc0e:	781a      	ldrb	r2, [r3, #0]
    dc10:	187b      	adds	r3, r7, r1
    dc12:	3201      	adds	r2, #1
    dc14:	701a      	strb	r2, [r3, #0]
E:\2017-2018\03_Graduation Project\04_Software\05_Wangshi\03_UpdateSoftware-180702\02_UEUser\KL36_Update-180627\Debug/../04_UserBoard/lcd/lcd.c:352 (discriminator 1)
    dc16:	2317      	movs	r3, #23
    dc18:	18fb      	adds	r3, r7, r3
    dc1a:	781b      	ldrb	r3, [r3, #0]
    dc1c:	2b07      	cmp	r3, #7
    dc1e:	d9de      	bls.n	dbde <LCD_ShowString+0xa6>
E:\2017-2018\03_Graduation Project\04_Software\05_Wangshi\03_UpdateSoftware-180702\02_UEUser\KL36_Update-180627\Debug/../04_UserBoard/lcd/lcd.c:363 (discriminator 2)
					}
				}
				temp++;
    dc20:	693b      	ldr	r3, [r7, #16]
    dc22:	3301      	adds	r3, #1
    dc24:	613b      	str	r3, [r7, #16]
E:\2017-2018\03_Graduation Project\04_Software\05_Wangshi\03_UpdateSoftware-180702\02_UEUser\KL36_Update-180627\Debug/../04_UserBoard/lcd/lcd.c:350 (discriminator 2)
			for(j=0;j<16;j++)
    dc26:	2116      	movs	r1, #22
    dc28:	187b      	adds	r3, r7, r1
    dc2a:	781a      	ldrb	r2, [r3, #0]
    dc2c:	187b      	adds	r3, r7, r1
    dc2e:	3201      	adds	r2, #1
    dc30:	701a      	strb	r2, [r3, #0]
E:\2017-2018\03_Graduation Project\04_Software\05_Wangshi\03_UpdateSoftware-180702\02_UEUser\KL36_Update-180627\Debug/../04_UserBoard/lcd/lcd.c:350 (discriminator 1)
    dc32:	2316      	movs	r3, #22
    dc34:	18fb      	adds	r3, r7, r3
    dc36:	781b      	ldrb	r3, [r3, #0]
    dc38:	2b0f      	cmp	r3, #15
    dc3a:	d9cb      	bls.n	dbd4 <LCD_ShowString+0x9c>
E:\2017-2018\03_Graduation Project\04_Software\05_Wangshi\03_UpdateSoftware-180702\02_UEUser\KL36_Update-180627\Debug/../04_UserBoard/lcd/lcd.c:365
			 }
			k++;
    dc3c:	2115      	movs	r1, #21
    dc3e:	187b      	adds	r3, r7, r1
    dc40:	781a      	ldrb	r2, [r3, #0]
    dc42:	187b      	adds	r3, r7, r1
    dc44:	3201      	adds	r2, #1
    dc46:	701a      	strb	r2, [r3, #0]
    dc48:	e06b      	b.n	dd22 <LCD_ShowString+0x1ea>
E:\2017-2018\03_Graduation Project\04_Software\05_Wangshi\03_UpdateSoftware-180702\02_UEUser\KL36_Update-180627\Debug/../04_UserBoard/lcd/lcd.c:367
		}
		else if(*p > 0x7e)
    dc4a:	6abb      	ldr	r3, [r7, #40]	; 0x28
    dc4c:	781b      	ldrb	r3, [r3, #0]
    dc4e:	2b7e      	cmp	r3, #126	; 0x7e
    dc50:	d967      	bls.n	dd22 <LCD_ShowString+0x1ea>
E:\2017-2018\03_Graduation Project\04_Software\05_Wangshi\03_UpdateSoftware-180702\02_UEUser\KL36_Update-180627\Debug/../04_UserBoard/lcd/lcd.c:369
		{
             for(i=0;i<ChineseCharacterLength;i++)
    dc52:	2317      	movs	r3, #23
    dc54:	18fb      	adds	r3, r7, r3
    dc56:	2200      	movs	r2, #0
    dc58:	701a      	strb	r2, [r3, #0]
    dc5a:	e057      	b.n	dd0c <LCD_ShowString+0x1d4>
E:\2017-2018\03_Graduation Project\04_Software\05_Wangshi\03_UpdateSoftware-180702\02_UEUser\KL36_Update-180627\Debug/../04_UserBoard/lcd/lcd.c:371
             {
            	 uint_8 a = *p;
    dc5c:	200f      	movs	r0, #15
    dc5e:	183b      	adds	r3, r7, r0
    dc60:	6aba      	ldr	r2, [r7, #40]	; 0x28
    dc62:	7812      	ldrb	r2, [r2, #0]
    dc64:	701a      	strb	r2, [r3, #0]
E:\2017-2018\03_Graduation Project\04_Software\05_Wangshi\03_UpdateSoftware-180702\02_UEUser\KL36_Update-180627\Debug/../04_UserBoard/lcd/lcd.c:372
            	 uint_8 b = *(p+1);
    dc66:	230e      	movs	r3, #14
    dc68:	18fb      	adds	r3, r7, r3
    dc6a:	6aba      	ldr	r2, [r7, #40]	; 0x28
    dc6c:	7852      	ldrb	r2, [r2, #1]
    dc6e:	701a      	strb	r2, [r3, #0]
E:\2017-2018\03_Graduation Project\04_Software\05_Wangshi\03_UpdateSoftware-180702\02_UEUser\KL36_Update-180627\Debug/../04_UserBoard/lcd/lcd.c:373
            	 uint_8 c = GB_16[i].Index[0];
    dc70:	2417      	movs	r4, #23
    dc72:	193b      	adds	r3, r7, r4
    dc74:	781a      	ldrb	r2, [r3, #0]
    dc76:	4932      	ldr	r1, [pc, #200]	; (dd40 <LCD_ShowString+0x208>)
    dc78:	0013      	movs	r3, r2
    dc7a:	011b      	lsls	r3, r3, #4
    dc7c:	189b      	adds	r3, r3, r2
    dc7e:	005b      	lsls	r3, r3, #1
    dc80:	565a      	ldrsb	r2, [r3, r1]
    dc82:	250d      	movs	r5, #13
    dc84:	197b      	adds	r3, r7, r5
    dc86:	701a      	strb	r2, [r3, #0]
E:\2017-2018\03_Graduation Project\04_Software\05_Wangshi\03_UpdateSoftware-180702\02_UEUser\KL36_Update-180627\Debug/../04_UserBoard/lcd/lcd.c:374
            	 uint_8 d = GB_16[i].Index[1];
    dc88:	193b      	adds	r3, r7, r4
    dc8a:	781a      	ldrb	r2, [r3, #0]
    dc8c:	492c      	ldr	r1, [pc, #176]	; (dd40 <LCD_ShowString+0x208>)
    dc8e:	0013      	movs	r3, r2
    dc90:	011b      	lsls	r3, r3, #4
    dc92:	189b      	adds	r3, r3, r2
    dc94:	005b      	lsls	r3, r3, #1
    dc96:	18cb      	adds	r3, r1, r3
    dc98:	3301      	adds	r3, #1
    dc9a:	2200      	movs	r2, #0
    dc9c:	569a      	ldrsb	r2, [r3, r2]
    dc9e:	230c      	movs	r3, #12
    dca0:	18fb      	adds	r3, r7, r3
    dca2:	701a      	strb	r2, [r3, #0]
E:\2017-2018\03_Graduation Project\04_Software\05_Wangshi\03_UpdateSoftware-180702\02_UEUser\KL36_Update-180627\Debug/../04_UserBoard/lcd/lcd.c:375
                 if( (a == c) && (b == d))
    dca4:	183a      	adds	r2, r7, r0
    dca6:	197b      	adds	r3, r7, r5
    dca8:	7812      	ldrb	r2, [r2, #0]
    dcaa:	781b      	ldrb	r3, [r3, #0]
    dcac:	429a      	cmp	r2, r3
    dcae:	d127      	bne.n	dd00 <LCD_ShowString+0x1c8>
E:\2017-2018\03_Graduation Project\04_Software\05_Wangshi\03_UpdateSoftware-180702\02_UEUser\KL36_Update-180627\Debug/../04_UserBoard/lcd/lcd.c:375 (discriminator 1)
    dcb0:	230e      	movs	r3, #14
    dcb2:	18fa      	adds	r2, r7, r3
    dcb4:	230c      	movs	r3, #12
    dcb6:	18fb      	adds	r3, r7, r3
    dcb8:	7812      	ldrb	r2, [r2, #0]
    dcba:	781b      	ldrb	r3, [r3, #0]
    dcbc:	429a      	cmp	r2, r3
    dcbe:	d11f      	bne.n	dd00 <LCD_ShowString+0x1c8>
E:\2017-2018\03_Graduation Project\04_Software\05_Wangshi\03_UpdateSoftware-180702\02_UEUser\KL36_Update-180627\Debug/../04_UserBoard/lcd/lcd.c:377
                 {
                	 LCD_ShowCharactor(x+8*k,y,fontcolor,groundbackcolor,GB_16[i].Msk);
    dcc0:	2315      	movs	r3, #21
    dcc2:	18fb      	adds	r3, r7, r3
    dcc4:	781b      	ldrb	r3, [r3, #0]
    dcc6:	b29b      	uxth	r3, r3
    dcc8:	00db      	lsls	r3, r3, #3
    dcca:	b29a      	uxth	r2, r3
    dccc:	1dbb      	adds	r3, r7, #6
    dcce:	881b      	ldrh	r3, [r3, #0]
    dcd0:	18d3      	adds	r3, r2, r3
    dcd2:	b298      	uxth	r0, r3
    dcd4:	2317      	movs	r3, #23
    dcd6:	18fb      	adds	r3, r7, r3
    dcd8:	781a      	ldrb	r2, [r3, #0]
    dcda:	0013      	movs	r3, r2
    dcdc:	011b      	lsls	r3, r3, #4
    dcde:	189b      	adds	r3, r3, r2
    dce0:	005b      	lsls	r3, r3, #1
    dce2:	4a17      	ldr	r2, [pc, #92]	; (dd40 <LCD_ShowString+0x208>)
    dce4:	189b      	adds	r3, r3, r2
    dce6:	3302      	adds	r3, #2
    dce8:	003a      	movs	r2, r7
    dcea:	8815      	ldrh	r5, [r2, #0]
    dcec:	1cba      	adds	r2, r7, #2
    dcee:	8814      	ldrh	r4, [r2, #0]
    dcf0:	1d3a      	adds	r2, r7, #4
    dcf2:	8811      	ldrh	r1, [r2, #0]
    dcf4:	9300      	str	r3, [sp, #0]
    dcf6:	002b      	movs	r3, r5
    dcf8:	0022      	movs	r2, r4
    dcfa:	f7ff febc 	bl	da76 <LCD_ShowCharactor>
E:\2017-2018\03_Graduation Project\04_Software\05_Wangshi\03_UpdateSoftware-180702\02_UEUser\KL36_Update-180627\Debug/../04_UserBoard/lcd/lcd.c:378
                	 break;
    dcfe:	e00a      	b.n	dd16 <LCD_ShowString+0x1de>
E:\2017-2018\03_Graduation Project\04_Software\05_Wangshi\03_UpdateSoftware-180702\02_UEUser\KL36_Update-180627\Debug/../04_UserBoard/lcd/lcd.c:369 (discriminator 2)
             for(i=0;i<ChineseCharacterLength;i++)
    dd00:	2117      	movs	r1, #23
    dd02:	187b      	adds	r3, r7, r1
    dd04:	781a      	ldrb	r2, [r3, #0]
    dd06:	187b      	adds	r3, r7, r1
    dd08:	3201      	adds	r2, #1
    dd0a:	701a      	strb	r2, [r3, #0]
E:\2017-2018\03_Graduation Project\04_Software\05_Wangshi\03_UpdateSoftware-180702\02_UEUser\KL36_Update-180627\Debug/../04_UserBoard/lcd/lcd.c:369 (discriminator 1)
    dd0c:	2317      	movs	r3, #23
    dd0e:	18fb      	adds	r3, r7, r3
    dd10:	781b      	ldrb	r3, [r3, #0]
    dd12:	2b04      	cmp	r3, #4
    dd14:	d9a2      	bls.n	dc5c <LCD_ShowString+0x124>
E:\2017-2018\03_Graduation Project\04_Software\05_Wangshi\03_UpdateSoftware-180702\02_UEUser\KL36_Update-180627\Debug/../04_UserBoard/lcd/lcd.c:381
                 }
             }
             k+=1;
    dd16:	2215      	movs	r2, #21
    dd18:	18bb      	adds	r3, r7, r2
    dd1a:	18ba      	adds	r2, r7, r2
    dd1c:	7812      	ldrb	r2, [r2, #0]
    dd1e:	3201      	adds	r2, #1
    dd20:	701a      	strb	r2, [r3, #0]
E:\2017-2018\03_Graduation Project\04_Software\05_Wangshi\03_UpdateSoftware-180702\02_UEUser\KL36_Update-180627\Debug/../04_UserBoard/lcd/lcd.c:383
		}
		p++;
    dd22:	6abb      	ldr	r3, [r7, #40]	; 0x28
    dd24:	3301      	adds	r3, #1
    dd26:	62bb      	str	r3, [r7, #40]	; 0x28
__enable_irq():
E:\2017-2018\03_Graduation Project\04_Software\05_Wangshi\03_UpdateSoftware-180702\02_UEUser\KL36_Update-180627\02_Core/core_cmFunc.h:333
  __ASM volatile ("cpsie i" : : : "memory");
    dd28:	b662      	cpsie	i
LCD_ShowString():
E:\2017-2018\03_Graduation Project\04_Software\05_Wangshi\03_UpdateSoftware-180702\02_UEUser\KL36_Update-180627\Debug/../04_UserBoard/lcd/lcd.c:342
	while(*p != 0)
    dd2a:	6abb      	ldr	r3, [r7, #40]	; 0x28
    dd2c:	781b      	ldrb	r3, [r3, #0]
    dd2e:	2b00      	cmp	r3, #0
    dd30:	d000      	beq.n	dd34 <LCD_ShowString+0x1fc>
    dd32:	e719      	b.n	db68 <LCD_ShowString+0x30>
E:\2017-2018\03_Graduation Project\04_Software\05_Wangshi\03_UpdateSoftware-180702\02_UEUser\KL36_Update-180627\Debug/../04_UserBoard/lcd/lcd.c:386
		__enable_irq();
	}
}
    dd34:	46c0      	nop			; (mov r8, r8)
    dd36:	46bd      	mov	sp, r7
    dd38:	b006      	add	sp, #24
    dd3a:	bdb0      	pop	{r4, r5, r7, pc}
    dd3c:	0000e87c 	.word	0x0000e87c
    dd40:	0000ee7c 	.word	0x0000ee7c

0000dd44 <aotu_panel>:
aotu_panel():
E:\2017-2018\03_Graduation Project\04_Software\05_Wangshi\03_UpdateSoftware-180702\02_UEUser\KL36_Update-180627\Debug/../04_UserBoard/lcd/lcd.c:395
//
//x,y:(240*320),x1,y1:(240*320)
//
//=====================================================================
void aotu_panel(uint_16 x,uint_16 y,uint_16 x1,uint_16 y1,uint_8 s) //
{
    dd44:	b5f0      	push	{r4, r5, r6, r7, lr}
    dd46:	b087      	sub	sp, #28
    dd48:	af02      	add	r7, sp, #8
    dd4a:	0005      	movs	r5, r0
    dd4c:	000c      	movs	r4, r1
    dd4e:	0010      	movs	r0, r2
    dd50:	0019      	movs	r1, r3
    dd52:	1dbb      	adds	r3, r7, #6
    dd54:	1c2a      	adds	r2, r5, #0
    dd56:	801a      	strh	r2, [r3, #0]
    dd58:	1d3b      	adds	r3, r7, #4
    dd5a:	1c22      	adds	r2, r4, #0
    dd5c:	801a      	strh	r2, [r3, #0]
    dd5e:	1cbb      	adds	r3, r7, #2
    dd60:	1c02      	adds	r2, r0, #0
    dd62:	801a      	strh	r2, [r3, #0]
    dd64:	003b      	movs	r3, r7
    dd66:	1c0a      	adds	r2, r1, #0
    dd68:	801a      	strh	r2, [r3, #0]
E:\2017-2018\03_Graduation Project\04_Software\05_Wangshi\03_UpdateSoftware-180702\02_UEUser\KL36_Update-180627\Debug/../04_UserBoard/lcd/lcd.c:398
   uint_8 i,n;
   uint_16 color;
   color = GRAY;
    dd6a:	250c      	movs	r5, #12
    dd6c:	197b      	adds	r3, r7, r5
    dd6e:	4a89      	ldr	r2, [pc, #548]	; (df94 <aotu_panel+0x250>)
    dd70:	801a      	strh	r2, [r3, #0]
E:\2017-2018\03_Graduation Project\04_Software\05_Wangshi\03_UpdateSoftware-180702\02_UEUser\KL36_Update-180627\Debug/../04_UserBoard/lcd/lcd.c:399
   LCD_DrawSurface(x,y,x1,y1,color);
    dd72:	003b      	movs	r3, r7
    dd74:	881c      	ldrh	r4, [r3, #0]
    dd76:	1cbb      	adds	r3, r7, #2
    dd78:	881a      	ldrh	r2, [r3, #0]
    dd7a:	1d3b      	adds	r3, r7, #4
    dd7c:	8819      	ldrh	r1, [r3, #0]
    dd7e:	1dbb      	adds	r3, r7, #6
    dd80:	8818      	ldrh	r0, [r3, #0]
    dd82:	197b      	adds	r3, r7, r5
    dd84:	881b      	ldrh	r3, [r3, #0]
    dd86:	9300      	str	r3, [sp, #0]
    dd88:	0023      	movs	r3, r4
    dd8a:	f7ff fe26 	bl	d9da <LCD_DrawSurface>
E:\2017-2018\03_Graduation Project\04_Software\05_Wangshi\03_UpdateSoftware-180702\02_UEUser\KL36_Update-180627\Debug/../04_UserBoard/lcd/lcd.c:400
   n=2;
    dd8e:	230b      	movs	r3, #11
    dd90:	18fb      	adds	r3, r7, r3
    dd92:	2202      	movs	r2, #2
    dd94:	701a      	strb	r2, [r3, #0]
E:\2017-2018\03_Graduation Project\04_Software\05_Wangshi\03_UpdateSoftware-180702\02_UEUser\KL36_Update-180627\Debug/../04_UserBoard/lcd/lcd.c:401
   color = BLACK;
    dd96:	197b      	adds	r3, r7, r5
    dd98:	2200      	movs	r2, #0
    dd9a:	801a      	strh	r2, [r3, #0]
E:\2017-2018\03_Graduation Project\04_Software\05_Wangshi\03_UpdateSoftware-180702\02_UEUser\KL36_Update-180627\Debug/../04_UserBoard/lcd/lcd.c:402
   LCD_DrawLine(x,y,x1,y,color);
    dd9c:	1d3b      	adds	r3, r7, #4
    dd9e:	881c      	ldrh	r4, [r3, #0]
    dda0:	1cbb      	adds	r3, r7, #2
    dda2:	881a      	ldrh	r2, [r3, #0]
    dda4:	1d3b      	adds	r3, r7, #4
    dda6:	8819      	ldrh	r1, [r3, #0]
    dda8:	1dbb      	adds	r3, r7, #6
    ddaa:	8818      	ldrh	r0, [r3, #0]
    ddac:	197b      	adds	r3, r7, r5
    ddae:	881b      	ldrh	r3, [r3, #0]
    ddb0:	9300      	str	r3, [sp, #0]
    ddb2:	0023      	movs	r3, r4
    ddb4:	f7ff fd7b 	bl	d8ae <LCD_DrawLine>
E:\2017-2018\03_Graduation Project\04_Software\05_Wangshi\03_UpdateSoftware-180702\02_UEUser\KL36_Update-180627\Debug/../04_UserBoard/lcd/lcd.c:403
   LCD_DrawLine(x,y,x,y1,color);
    ddb8:	003b      	movs	r3, r7
    ddba:	881c      	ldrh	r4, [r3, #0]
    ddbc:	1dbb      	adds	r3, r7, #6
    ddbe:	881a      	ldrh	r2, [r3, #0]
    ddc0:	1d3b      	adds	r3, r7, #4
    ddc2:	8819      	ldrh	r1, [r3, #0]
    ddc4:	1dbb      	adds	r3, r7, #6
    ddc6:	8818      	ldrh	r0, [r3, #0]
    ddc8:	197b      	adds	r3, r7, r5
    ddca:	881b      	ldrh	r3, [r3, #0]
    ddcc:	9300      	str	r3, [sp, #0]
    ddce:	0023      	movs	r3, r4
    ddd0:	f7ff fd6d 	bl	d8ae <LCD_DrawLine>
E:\2017-2018\03_Graduation Project\04_Software\05_Wangshi\03_UpdateSoftware-180702\02_UEUser\KL36_Update-180627\Debug/../04_UserBoard/lcd/lcd.c:404
   color = BLACK;
    ddd4:	197b      	adds	r3, r7, r5
    ddd6:	2200      	movs	r2, #0
    ddd8:	801a      	strh	r2, [r3, #0]
E:\2017-2018\03_Graduation Project\04_Software\05_Wangshi\03_UpdateSoftware-180702\02_UEUser\KL36_Update-180627\Debug/../04_UserBoard/lcd/lcd.c:405
   LCD_DrawLine(x1,y,x1,y1,color);
    ddda:	003b      	movs	r3, r7
    dddc:	881c      	ldrh	r4, [r3, #0]
    ddde:	1cbb      	adds	r3, r7, #2
    dde0:	881a      	ldrh	r2, [r3, #0]
    dde2:	1d3b      	adds	r3, r7, #4
    dde4:	8819      	ldrh	r1, [r3, #0]
    dde6:	1cbb      	adds	r3, r7, #2
    dde8:	8818      	ldrh	r0, [r3, #0]
    ddea:	197b      	adds	r3, r7, r5
    ddec:	881b      	ldrh	r3, [r3, #0]
    ddee:	9300      	str	r3, [sp, #0]
    ddf0:	0023      	movs	r3, r4
    ddf2:	f7ff fd5c 	bl	d8ae <LCD_DrawLine>
E:\2017-2018\03_Graduation Project\04_Software\05_Wangshi\03_UpdateSoftware-180702\02_UEUser\KL36_Update-180627\Debug/../04_UserBoard/lcd/lcd.c:406
   LCD_DrawLine(x,y1,x1,y1,color);
    ddf6:	003b      	movs	r3, r7
    ddf8:	881c      	ldrh	r4, [r3, #0]
    ddfa:	1cbb      	adds	r3, r7, #2
    ddfc:	881a      	ldrh	r2, [r3, #0]
    ddfe:	003b      	movs	r3, r7
    de00:	8819      	ldrh	r1, [r3, #0]
    de02:	1dbb      	adds	r3, r7, #6
    de04:	8818      	ldrh	r0, [r3, #0]
    de06:	197b      	adds	r3, r7, r5
    de08:	881b      	ldrh	r3, [r3, #0]
    de0a:	9300      	str	r3, [sp, #0]
    de0c:	0023      	movs	r3, r4
    de0e:	f7ff fd4e 	bl	d8ae <LCD_DrawLine>
E:\2017-2018\03_Graduation Project\04_Software\05_Wangshi\03_UpdateSoftware-180702\02_UEUser\KL36_Update-180627\Debug/../04_UserBoard/lcd/lcd.c:410



   for(i=1;i<n;i++)
    de12:	230f      	movs	r3, #15
    de14:	18fb      	adds	r3, r7, r3
    de16:	2201      	movs	r2, #1
    de18:	701a      	strb	r2, [r3, #0]
    de1a:	e0ae      	b.n	df7a <aotu_panel+0x236>
E:\2017-2018\03_Graduation Project\04_Software\05_Wangshi\03_UpdateSoftware-180702\02_UEUser\KL36_Update-180627\Debug/../04_UserBoard/lcd/lcd.c:414
   {


   color=(s==0?BLACK:WHITE);  //
    de1c:	2320      	movs	r3, #32
    de1e:	2208      	movs	r2, #8
    de20:	4694      	mov	ip, r2
    de22:	44bc      	add	ip, r7
    de24:	4463      	add	r3, ip
    de26:	781b      	ldrb	r3, [r3, #0]
    de28:	2b00      	cmp	r3, #0
    de2a:	d101      	bne.n	de30 <aotu_panel+0xec>
E:\2017-2018\03_Graduation Project\04_Software\05_Wangshi\03_UpdateSoftware-180702\02_UEUser\KL36_Update-180627\Debug/../04_UserBoard/lcd/lcd.c:414 (discriminator 1)
    de2c:	2200      	movs	r2, #0
    de2e:	e000      	b.n	de32 <aotu_panel+0xee>
E:\2017-2018\03_Graduation Project\04_Software\05_Wangshi\03_UpdateSoftware-180702\02_UEUser\KL36_Update-180627\Debug/../04_UserBoard/lcd/lcd.c:414 (discriminator 2)
    de30:	4a59      	ldr	r2, [pc, #356]	; (df98 <aotu_panel+0x254>)
E:\2017-2018\03_Graduation Project\04_Software\05_Wangshi\03_UpdateSoftware-180702\02_UEUser\KL36_Update-180627\Debug/../04_UserBoard/lcd/lcd.c:414 (discriminator 4)
    de32:	260c      	movs	r6, #12
    de34:	19bb      	adds	r3, r7, r6
    de36:	801a      	strh	r2, [r3, #0]
E:\2017-2018\03_Graduation Project\04_Software\05_Wangshi\03_UpdateSoftware-180702\02_UEUser\KL36_Update-180627\Debug/../04_UserBoard/lcd/lcd.c:417 (discriminator 4)


   LCD_DrawLine(x+i,y+i,x1-i,y+i,color);
    de38:	250f      	movs	r5, #15
    de3a:	197b      	adds	r3, r7, r5
    de3c:	781b      	ldrb	r3, [r3, #0]
    de3e:	b29a      	uxth	r2, r3
    de40:	1dbb      	adds	r3, r7, #6
    de42:	881b      	ldrh	r3, [r3, #0]
    de44:	18d3      	adds	r3, r2, r3
    de46:	b298      	uxth	r0, r3
    de48:	197b      	adds	r3, r7, r5
    de4a:	781b      	ldrb	r3, [r3, #0]
    de4c:	b29a      	uxth	r2, r3
    de4e:	1d3b      	adds	r3, r7, #4
    de50:	881b      	ldrh	r3, [r3, #0]
    de52:	18d3      	adds	r3, r2, r3
    de54:	b299      	uxth	r1, r3
    de56:	197b      	adds	r3, r7, r5
    de58:	781b      	ldrb	r3, [r3, #0]
    de5a:	b29b      	uxth	r3, r3
    de5c:	1cba      	adds	r2, r7, #2
    de5e:	8812      	ldrh	r2, [r2, #0]
    de60:	1ad3      	subs	r3, r2, r3
    de62:	b29c      	uxth	r4, r3
    de64:	197b      	adds	r3, r7, r5
    de66:	781b      	ldrb	r3, [r3, #0]
    de68:	b29a      	uxth	r2, r3
    de6a:	1d3b      	adds	r3, r7, #4
    de6c:	881b      	ldrh	r3, [r3, #0]
    de6e:	18d3      	adds	r3, r2, r3
    de70:	b29a      	uxth	r2, r3
    de72:	19bb      	adds	r3, r7, r6
    de74:	881b      	ldrh	r3, [r3, #0]
    de76:	9300      	str	r3, [sp, #0]
    de78:	0013      	movs	r3, r2
    de7a:	0022      	movs	r2, r4
    de7c:	f7ff fd17 	bl	d8ae <LCD_DrawLine>
E:\2017-2018\03_Graduation Project\04_Software\05_Wangshi\03_UpdateSoftware-180702\02_UEUser\KL36_Update-180627\Debug/../04_UserBoard/lcd/lcd.c:418 (discriminator 4)
   LCD_DrawLine(x+i,y+i,x+i,y1-i,color);
    de80:	197b      	adds	r3, r7, r5
    de82:	781b      	ldrb	r3, [r3, #0]
    de84:	b29a      	uxth	r2, r3
    de86:	1dbb      	adds	r3, r7, #6
    de88:	881b      	ldrh	r3, [r3, #0]
    de8a:	18d3      	adds	r3, r2, r3
    de8c:	b298      	uxth	r0, r3
    de8e:	197b      	adds	r3, r7, r5
    de90:	781b      	ldrb	r3, [r3, #0]
    de92:	b29a      	uxth	r2, r3
    de94:	1d3b      	adds	r3, r7, #4
    de96:	881b      	ldrh	r3, [r3, #0]
    de98:	18d3      	adds	r3, r2, r3
    de9a:	b299      	uxth	r1, r3
    de9c:	197b      	adds	r3, r7, r5
    de9e:	781b      	ldrb	r3, [r3, #0]
    dea0:	b29a      	uxth	r2, r3
    dea2:	1dbb      	adds	r3, r7, #6
    dea4:	881b      	ldrh	r3, [r3, #0]
    dea6:	18d3      	adds	r3, r2, r3
    dea8:	b29c      	uxth	r4, r3
    deaa:	197b      	adds	r3, r7, r5
    deac:	781b      	ldrb	r3, [r3, #0]
    deae:	b29b      	uxth	r3, r3
    deb0:	003a      	movs	r2, r7
    deb2:	8812      	ldrh	r2, [r2, #0]
    deb4:	1ad3      	subs	r3, r2, r3
    deb6:	b29a      	uxth	r2, r3
    deb8:	19bb      	adds	r3, r7, r6
    deba:	881b      	ldrh	r3, [r3, #0]
    debc:	9300      	str	r3, [sp, #0]
    debe:	0013      	movs	r3, r2
    dec0:	0022      	movs	r2, r4
    dec2:	f7ff fcf4 	bl	d8ae <LCD_DrawLine>
E:\2017-2018\03_Graduation Project\04_Software\05_Wangshi\03_UpdateSoftware-180702\02_UEUser\KL36_Update-180627\Debug/../04_UserBoard/lcd/lcd.c:420 (discriminator 4)

   color=(s==0?WHITE:BLACK);
    dec6:	2320      	movs	r3, #32
    dec8:	2208      	movs	r2, #8
    deca:	4694      	mov	ip, r2
    decc:	44bc      	add	ip, r7
    dece:	4463      	add	r3, ip
    ded0:	781b      	ldrb	r3, [r3, #0]
    ded2:	2b00      	cmp	r3, #0
    ded4:	d101      	bne.n	deda <aotu_panel+0x196>
E:\2017-2018\03_Graduation Project\04_Software\05_Wangshi\03_UpdateSoftware-180702\02_UEUser\KL36_Update-180627\Debug/../04_UserBoard/lcd/lcd.c:420 (discriminator 1)
    ded6:	4a30      	ldr	r2, [pc, #192]	; (df98 <aotu_panel+0x254>)
    ded8:	e000      	b.n	dedc <aotu_panel+0x198>
E:\2017-2018\03_Graduation Project\04_Software\05_Wangshi\03_UpdateSoftware-180702\02_UEUser\KL36_Update-180627\Debug/../04_UserBoard/lcd/lcd.c:420 (discriminator 2)
    deda:	2200      	movs	r2, #0
E:\2017-2018\03_Graduation Project\04_Software\05_Wangshi\03_UpdateSoftware-180702\02_UEUser\KL36_Update-180627\Debug/../04_UserBoard/lcd/lcd.c:420 (discriminator 4)
    dedc:	260c      	movs	r6, #12
    dede:	19bb      	adds	r3, r7, r6
    dee0:	801a      	strh	r2, [r3, #0]
E:\2017-2018\03_Graduation Project\04_Software\05_Wangshi\03_UpdateSoftware-180702\02_UEUser\KL36_Update-180627\Debug/../04_UserBoard/lcd/lcd.c:422 (discriminator 4)

   LCD_DrawLine(x1-i,y+i,x1-i,y1-i,color);
    dee2:	250f      	movs	r5, #15
    dee4:	197b      	adds	r3, r7, r5
    dee6:	781b      	ldrb	r3, [r3, #0]
    dee8:	b29b      	uxth	r3, r3
    deea:	1cba      	adds	r2, r7, #2
    deec:	8812      	ldrh	r2, [r2, #0]
    deee:	1ad3      	subs	r3, r2, r3
    def0:	b298      	uxth	r0, r3
    def2:	197b      	adds	r3, r7, r5
    def4:	781b      	ldrb	r3, [r3, #0]
    def6:	b29a      	uxth	r2, r3
    def8:	1d3b      	adds	r3, r7, #4
    defa:	881b      	ldrh	r3, [r3, #0]
    defc:	18d3      	adds	r3, r2, r3
    defe:	b299      	uxth	r1, r3
    df00:	197b      	adds	r3, r7, r5
    df02:	781b      	ldrb	r3, [r3, #0]
    df04:	b29b      	uxth	r3, r3
    df06:	1cba      	adds	r2, r7, #2
    df08:	8812      	ldrh	r2, [r2, #0]
    df0a:	1ad3      	subs	r3, r2, r3
    df0c:	b29c      	uxth	r4, r3
    df0e:	197b      	adds	r3, r7, r5
    df10:	781b      	ldrb	r3, [r3, #0]
    df12:	b29b      	uxth	r3, r3
    df14:	003a      	movs	r2, r7
    df16:	8812      	ldrh	r2, [r2, #0]
    df18:	1ad3      	subs	r3, r2, r3
    df1a:	b29a      	uxth	r2, r3
    df1c:	19bb      	adds	r3, r7, r6
    df1e:	881b      	ldrh	r3, [r3, #0]
    df20:	9300      	str	r3, [sp, #0]
    df22:	0013      	movs	r3, r2
    df24:	0022      	movs	r2, r4
    df26:	f7ff fcc2 	bl	d8ae <LCD_DrawLine>
E:\2017-2018\03_Graduation Project\04_Software\05_Wangshi\03_UpdateSoftware-180702\02_UEUser\KL36_Update-180627\Debug/../04_UserBoard/lcd/lcd.c:423 (discriminator 4)
   LCD_DrawLine(x+i,y1-i,x1-i,y1-i,color);
    df2a:	197b      	adds	r3, r7, r5
    df2c:	781b      	ldrb	r3, [r3, #0]
    df2e:	b29a      	uxth	r2, r3
    df30:	1dbb      	adds	r3, r7, #6
    df32:	881b      	ldrh	r3, [r3, #0]
    df34:	18d3      	adds	r3, r2, r3
    df36:	b298      	uxth	r0, r3
    df38:	197b      	adds	r3, r7, r5
    df3a:	781b      	ldrb	r3, [r3, #0]
    df3c:	b29b      	uxth	r3, r3
    df3e:	003a      	movs	r2, r7
    df40:	8812      	ldrh	r2, [r2, #0]
    df42:	1ad3      	subs	r3, r2, r3
    df44:	b299      	uxth	r1, r3
    df46:	197b      	adds	r3, r7, r5
    df48:	781b      	ldrb	r3, [r3, #0]
    df4a:	b29b      	uxth	r3, r3
    df4c:	1cba      	adds	r2, r7, #2
    df4e:	8812      	ldrh	r2, [r2, #0]
    df50:	1ad3      	subs	r3, r2, r3
    df52:	b29c      	uxth	r4, r3
    df54:	197b      	adds	r3, r7, r5
    df56:	781b      	ldrb	r3, [r3, #0]
    df58:	b29b      	uxth	r3, r3
    df5a:	003a      	movs	r2, r7
    df5c:	8812      	ldrh	r2, [r2, #0]
    df5e:	1ad3      	subs	r3, r2, r3
    df60:	b29a      	uxth	r2, r3
    df62:	19bb      	adds	r3, r7, r6
    df64:	881b      	ldrh	r3, [r3, #0]
    df66:	9300      	str	r3, [sp, #0]
    df68:	0013      	movs	r3, r2
    df6a:	0022      	movs	r2, r4
    df6c:	f7ff fc9f 	bl	d8ae <LCD_DrawLine>
E:\2017-2018\03_Graduation Project\04_Software\05_Wangshi\03_UpdateSoftware-180702\02_UEUser\KL36_Update-180627\Debug/../04_UserBoard/lcd/lcd.c:410 (discriminator 4)
   for(i=1;i<n;i++)
    df70:	197b      	adds	r3, r7, r5
    df72:	781a      	ldrb	r2, [r3, #0]
    df74:	197b      	adds	r3, r7, r5
    df76:	3201      	adds	r2, #1
    df78:	701a      	strb	r2, [r3, #0]
E:\2017-2018\03_Graduation Project\04_Software\05_Wangshi\03_UpdateSoftware-180702\02_UEUser\KL36_Update-180627\Debug/../04_UserBoard/lcd/lcd.c:410 (discriminator 2)
    df7a:	230f      	movs	r3, #15
    df7c:	18fa      	adds	r2, r7, r3
    df7e:	230b      	movs	r3, #11
    df80:	18fb      	adds	r3, r7, r3
    df82:	7812      	ldrb	r2, [r2, #0]
    df84:	781b      	ldrb	r3, [r3, #0]
    df86:	429a      	cmp	r2, r3
    df88:	d200      	bcs.n	df8c <aotu_panel+0x248>
    df8a:	e747      	b.n	de1c <aotu_panel+0xd8>
E:\2017-2018\03_Graduation Project\04_Software\05_Wangshi\03_UpdateSoftware-180702\02_UEUser\KL36_Update-180627\Debug/../04_UserBoard/lcd/lcd.c:425
   };
};
    df8c:	46c0      	nop			; (mov r8, r8)
    df8e:	46bd      	mov	sp, r7
    df90:	b005      	add	sp, #20
    df92:	bdf0      	pop	{r4, r5, r6, r7, pc}
    df94:	ffff8430 	.word	0xffff8430
    df98:	0000ffff 	.word	0x0000ffff

0000df9c <LCD_WR_DATA8>:
LCD_WR_DATA8():
E:\2017-2018\03_Graduation Project\04_Software\05_Wangshi\03_UpdateSoftware-180702\02_UEUser\KL36_Update-180627\Debug/../04_UserBoard/lcd/lcd.c:444
	uint_32 result=1;
	while(n--)result*=m;
	return result;
}
void LCD_WR_DATA8(uint_8 da) //-8
{
    df9c:	b580      	push	{r7, lr}
    df9e:	b082      	sub	sp, #8
    dfa0:	af00      	add	r7, sp, #0
    dfa2:	0002      	movs	r2, r0
    dfa4:	1dfb      	adds	r3, r7, #7
    dfa6:	701a      	strb	r2, [r3, #0]
E:\2017-2018\03_Graduation Project\04_Software\05_Wangshi\03_UpdateSoftware-180702\02_UEUser\KL36_Update-180627\Debug/../04_UserBoard/lcd/lcd.c:445
	gpio_set(LCD_DC,1);
    dfa8:	4b08      	ldr	r3, [pc, #32]	; (dfcc <LCD_WR_DATA8+0x30>)
    dfaa:	681b      	ldr	r3, [r3, #0]
    dfac:	4a08      	ldr	r2, [pc, #32]	; (dfd0 <LCD_WR_DATA8+0x34>)
    dfae:	2101      	movs	r1, #1
    dfb0:	0010      	movs	r0, r2
    dfb2:	4798      	blx	r3
E:\2017-2018\03_Graduation Project\04_Software\05_Wangshi\03_UpdateSoftware-180702\02_UEUser\KL36_Update-180627\Debug/../04_UserBoard/lcd/lcd.c:446
	SPI_send1(0,da);
    dfb4:	4b07      	ldr	r3, [pc, #28]	; (dfd4 <LCD_WR_DATA8+0x38>)
    dfb6:	681b      	ldr	r3, [r3, #0]
    dfb8:	1dfa      	adds	r2, r7, #7
    dfba:	7812      	ldrb	r2, [r2, #0]
    dfbc:	0011      	movs	r1, r2
    dfbe:	2000      	movs	r0, #0
    dfc0:	4798      	blx	r3
E:\2017-2018\03_Graduation Project\04_Software\05_Wangshi\03_UpdateSoftware-180702\02_UEUser\KL36_Update-180627\Debug/../04_UserBoard/lcd/lcd.c:447
}
    dfc2:	46c0      	nop			; (mov r8, r8)
    dfc4:	46bd      	mov	sp, r7
    dfc6:	b002      	add	sp, #8
    dfc8:	bd80      	pop	{r7, pc}
    dfca:	46c0      	nop			; (mov r8, r8)
    dfcc:	20000960 	.word	0x20000960
    dfd0:	00000301 	.word	0x00000301
    dfd4:	20000f64 	.word	0x20000f64

0000dfd8 <LCD_WR_DATA>:
LCD_WR_DATA():
E:\2017-2018\03_Graduation Project\04_Software\05_Wangshi\03_UpdateSoftware-180702\02_UEUser\KL36_Update-180627\Debug/../04_UserBoard/lcd/lcd.c:449
 void LCD_WR_DATA(uint_16 da)
{
    dfd8:	b580      	push	{r7, lr}
    dfda:	b082      	sub	sp, #8
    dfdc:	af00      	add	r7, sp, #0
    dfde:	0002      	movs	r2, r0
    dfe0:	1dbb      	adds	r3, r7, #6
    dfe2:	801a      	strh	r2, [r3, #0]
E:\2017-2018\03_Graduation Project\04_Software\05_Wangshi\03_UpdateSoftware-180702\02_UEUser\KL36_Update-180627\Debug/../04_UserBoard/lcd/lcd.c:450
	gpio_set(LCD_DC,1);
    dfe4:	4b0d      	ldr	r3, [pc, #52]	; (e01c <LCD_WR_DATA+0x44>)
    dfe6:	681b      	ldr	r3, [r3, #0]
    dfe8:	4a0d      	ldr	r2, [pc, #52]	; (e020 <LCD_WR_DATA+0x48>)
    dfea:	2101      	movs	r1, #1
    dfec:	0010      	movs	r0, r2
    dfee:	4798      	blx	r3
E:\2017-2018\03_Graduation Project\04_Software\05_Wangshi\03_UpdateSoftware-180702\02_UEUser\KL36_Update-180627\Debug/../04_UserBoard/lcd/lcd.c:451
    SPI_send1(0,da>>8);
    dff0:	4b0c      	ldr	r3, [pc, #48]	; (e024 <LCD_WR_DATA+0x4c>)
    dff2:	681b      	ldr	r3, [r3, #0]
    dff4:	1dba      	adds	r2, r7, #6
    dff6:	8812      	ldrh	r2, [r2, #0]
    dff8:	0a12      	lsrs	r2, r2, #8
    dffa:	b292      	uxth	r2, r2
    dffc:	b2d2      	uxtb	r2, r2
    dffe:	0011      	movs	r1, r2
    e000:	2000      	movs	r0, #0
    e002:	4798      	blx	r3
E:\2017-2018\03_Graduation Project\04_Software\05_Wangshi\03_UpdateSoftware-180702\02_UEUser\KL36_Update-180627\Debug/../04_UserBoard/lcd/lcd.c:452
    SPI_send1(0,da);
    e004:	4b07      	ldr	r3, [pc, #28]	; (e024 <LCD_WR_DATA+0x4c>)
    e006:	681b      	ldr	r3, [r3, #0]
    e008:	1dba      	adds	r2, r7, #6
    e00a:	8812      	ldrh	r2, [r2, #0]
    e00c:	b2d2      	uxtb	r2, r2
    e00e:	0011      	movs	r1, r2
    e010:	2000      	movs	r0, #0
    e012:	4798      	blx	r3
E:\2017-2018\03_Graduation Project\04_Software\05_Wangshi\03_UpdateSoftware-180702\02_UEUser\KL36_Update-180627\Debug/../04_UserBoard/lcd/lcd.c:453
}
    e014:	46c0      	nop			; (mov r8, r8)
    e016:	46bd      	mov	sp, r7
    e018:	b002      	add	sp, #8
    e01a:	bd80      	pop	{r7, pc}
    e01c:	20000960 	.word	0x20000960
    e020:	00000301 	.word	0x00000301
    e024:	20000f64 	.word	0x20000f64

0000e028 <LCD_WR_REG>:
LCD_WR_REG():
E:\2017-2018\03_Graduation Project\04_Software\05_Wangshi\03_UpdateSoftware-180702\02_UEUser\KL36_Update-180627\Debug/../04_UserBoard/lcd/lcd.c:455
void LCD_WR_REG(uint_8 da)
{
    e028:	b580      	push	{r7, lr}
    e02a:	b082      	sub	sp, #8
    e02c:	af00      	add	r7, sp, #0
    e02e:	0002      	movs	r2, r0
    e030:	1dfb      	adds	r3, r7, #7
    e032:	701a      	strb	r2, [r3, #0]
E:\2017-2018\03_Graduation Project\04_Software\05_Wangshi\03_UpdateSoftware-180702\02_UEUser\KL36_Update-180627\Debug/../04_UserBoard/lcd/lcd.c:456
	gpio_set(LCD_DC,0);
    e034:	4b08      	ldr	r3, [pc, #32]	; (e058 <LCD_WR_REG+0x30>)
    e036:	681b      	ldr	r3, [r3, #0]
    e038:	4a08      	ldr	r2, [pc, #32]	; (e05c <LCD_WR_REG+0x34>)
    e03a:	2100      	movs	r1, #0
    e03c:	0010      	movs	r0, r2
    e03e:	4798      	blx	r3
E:\2017-2018\03_Graduation Project\04_Software\05_Wangshi\03_UpdateSoftware-180702\02_UEUser\KL36_Update-180627\Debug/../04_UserBoard/lcd/lcd.c:457
	SPI_send1(0,da);
    e040:	4b07      	ldr	r3, [pc, #28]	; (e060 <LCD_WR_REG+0x38>)
    e042:	681b      	ldr	r3, [r3, #0]
    e044:	1dfa      	adds	r2, r7, #7
    e046:	7812      	ldrb	r2, [r2, #0]
    e048:	0011      	movs	r1, r2
    e04a:	2000      	movs	r0, #0
    e04c:	4798      	blx	r3
E:\2017-2018\03_Graduation Project\04_Software\05_Wangshi\03_UpdateSoftware-180702\02_UEUser\KL36_Update-180627\Debug/../04_UserBoard/lcd/lcd.c:458
}
    e04e:	46c0      	nop			; (mov r8, r8)
    e050:	46bd      	mov	sp, r7
    e052:	b002      	add	sp, #8
    e054:	bd80      	pop	{r7, pc}
    e056:	46c0      	nop			; (mov r8, r8)
    e058:	20000960 	.word	0x20000960
    e05c:	00000301 	.word	0x00000301
    e060:	20000f64 	.word	0x20000f64

0000e064 <LCD_WR_REG_DATA>:
LCD_WR_REG_DATA():
E:\2017-2018\03_Graduation Project\04_Software\05_Wangshi\03_UpdateSoftware-180702\02_UEUser\KL36_Update-180627\Debug/../04_UserBoard/lcd/lcd.c:461
//void LCD_WR_REG_DATA(uint_16 reg,uint_16 da)
 void LCD_WR_REG_DATA(uint_8 reg,uint_16 da)
{
    e064:	b580      	push	{r7, lr}
    e066:	b082      	sub	sp, #8
    e068:	af00      	add	r7, sp, #0
    e06a:	0002      	movs	r2, r0
    e06c:	1dfb      	adds	r3, r7, #7
    e06e:	701a      	strb	r2, [r3, #0]
    e070:	1d3b      	adds	r3, r7, #4
    e072:	1c0a      	adds	r2, r1, #0
    e074:	801a      	strh	r2, [r3, #0]
E:\2017-2018\03_Graduation Project\04_Software\05_Wangshi\03_UpdateSoftware-180702\02_UEUser\KL36_Update-180627\Debug/../04_UserBoard/lcd/lcd.c:462
    LCD_WR_REG(reg);
    e076:	1dfb      	adds	r3, r7, #7
    e078:	781b      	ldrb	r3, [r3, #0]
    e07a:	0018      	movs	r0, r3
    e07c:	f7ff ffd4 	bl	e028 <LCD_WR_REG>
E:\2017-2018\03_Graduation Project\04_Software\05_Wangshi\03_UpdateSoftware-180702\02_UEUser\KL36_Update-180627\Debug/../04_UserBoard/lcd/lcd.c:463
	LCD_WR_DATA(da);
    e080:	1d3b      	adds	r3, r7, #4
    e082:	881b      	ldrh	r3, [r3, #0]
    e084:	0018      	movs	r0, r3
    e086:	f7ff ffa7 	bl	dfd8 <LCD_WR_DATA>
E:\2017-2018\03_Graduation Project\04_Software\05_Wangshi\03_UpdateSoftware-180702\02_UEUser\KL36_Update-180627\Debug/../04_UserBoard/lcd/lcd.c:464
}
    e08a:	46c0      	nop			; (mov r8, r8)
    e08c:	46bd      	mov	sp, r7
    e08e:	b002      	add	sp, #8
    e090:	bd80      	pop	{r7, pc}

0000e092 <Address_set>:
Address_set():
E:\2017-2018\03_Graduation Project\04_Software\05_Wangshi\03_UpdateSoftware-180702\02_UEUser\KL36_Update-180627\Debug/../04_UserBoard/lcd/lcd.c:466
void Address_set(uint_16 x1,uint_16 y1,uint_16 x2,uint_16 y2)
{
    e092:	b5b0      	push	{r4, r5, r7, lr}
    e094:	b082      	sub	sp, #8
    e096:	af00      	add	r7, sp, #0
    e098:	0005      	movs	r5, r0
    e09a:	000c      	movs	r4, r1
    e09c:	0010      	movs	r0, r2
    e09e:	0019      	movs	r1, r3
    e0a0:	1dbb      	adds	r3, r7, #6
    e0a2:	1c2a      	adds	r2, r5, #0
    e0a4:	801a      	strh	r2, [r3, #0]
    e0a6:	1d3b      	adds	r3, r7, #4
    e0a8:	1c22      	adds	r2, r4, #0
    e0aa:	801a      	strh	r2, [r3, #0]
    e0ac:	1cbb      	adds	r3, r7, #2
    e0ae:	1c02      	adds	r2, r0, #0
    e0b0:	801a      	strh	r2, [r3, #0]
    e0b2:	003b      	movs	r3, r7
    e0b4:	1c0a      	adds	r2, r1, #0
    e0b6:	801a      	strh	r2, [r3, #0]
E:\2017-2018\03_Graduation Project\04_Software\05_Wangshi\03_UpdateSoftware-180702\02_UEUser\KL36_Update-180627\Debug/../04_UserBoard/lcd/lcd.c:467
	LCD_WR_REG(0x2a);      //
    e0b8:	202a      	movs	r0, #42	; 0x2a
    e0ba:	f7ff ffb5 	bl	e028 <LCD_WR_REG>
E:\2017-2018\03_Graduation Project\04_Software\05_Wangshi\03_UpdateSoftware-180702\02_UEUser\KL36_Update-180627\Debug/../04_UserBoard/lcd/lcd.c:468
	LCD_WR_DATA8(x1>>8);   //
    e0be:	1dbb      	adds	r3, r7, #6
    e0c0:	881b      	ldrh	r3, [r3, #0]
    e0c2:	0a1b      	lsrs	r3, r3, #8
    e0c4:	b29b      	uxth	r3, r3
    e0c6:	b2db      	uxtb	r3, r3
    e0c8:	0018      	movs	r0, r3
    e0ca:	f7ff ff67 	bl	df9c <LCD_WR_DATA8>
E:\2017-2018\03_Graduation Project\04_Software\05_Wangshi\03_UpdateSoftware-180702\02_UEUser\KL36_Update-180627\Debug/../04_UserBoard/lcd/lcd.c:469
	LCD_WR_DATA8(x1);
    e0ce:	1dbb      	adds	r3, r7, #6
    e0d0:	881b      	ldrh	r3, [r3, #0]
    e0d2:	b2db      	uxtb	r3, r3
    e0d4:	0018      	movs	r0, r3
    e0d6:	f7ff ff61 	bl	df9c <LCD_WR_DATA8>
E:\2017-2018\03_Graduation Project\04_Software\05_Wangshi\03_UpdateSoftware-180702\02_UEUser\KL36_Update-180627\Debug/../04_UserBoard/lcd/lcd.c:470
	LCD_WR_DATA8(x2>>8);   //
    e0da:	1cbb      	adds	r3, r7, #2
    e0dc:	881b      	ldrh	r3, [r3, #0]
    e0de:	0a1b      	lsrs	r3, r3, #8
    e0e0:	b29b      	uxth	r3, r3
    e0e2:	b2db      	uxtb	r3, r3
    e0e4:	0018      	movs	r0, r3
    e0e6:	f7ff ff59 	bl	df9c <LCD_WR_DATA8>
E:\2017-2018\03_Graduation Project\04_Software\05_Wangshi\03_UpdateSoftware-180702\02_UEUser\KL36_Update-180627\Debug/../04_UserBoard/lcd/lcd.c:471
	LCD_WR_DATA8(x2);
    e0ea:	1cbb      	adds	r3, r7, #2
    e0ec:	881b      	ldrh	r3, [r3, #0]
    e0ee:	b2db      	uxtb	r3, r3
    e0f0:	0018      	movs	r0, r3
    e0f2:	f7ff ff53 	bl	df9c <LCD_WR_DATA8>
E:\2017-2018\03_Graduation Project\04_Software\05_Wangshi\03_UpdateSoftware-180702\02_UEUser\KL36_Update-180627\Debug/../04_UserBoard/lcd/lcd.c:473

	LCD_WR_REG(0x2b);     //
    e0f6:	202b      	movs	r0, #43	; 0x2b
    e0f8:	f7ff ff96 	bl	e028 <LCD_WR_REG>
E:\2017-2018\03_Graduation Project\04_Software\05_Wangshi\03_UpdateSoftware-180702\02_UEUser\KL36_Update-180627\Debug/../04_UserBoard/lcd/lcd.c:474
	LCD_WR_DATA8(y1>>8);  //
    e0fc:	1d3b      	adds	r3, r7, #4
    e0fe:	881b      	ldrh	r3, [r3, #0]
    e100:	0a1b      	lsrs	r3, r3, #8
    e102:	b29b      	uxth	r3, r3
    e104:	b2db      	uxtb	r3, r3
    e106:	0018      	movs	r0, r3
    e108:	f7ff ff48 	bl	df9c <LCD_WR_DATA8>
E:\2017-2018\03_Graduation Project\04_Software\05_Wangshi\03_UpdateSoftware-180702\02_UEUser\KL36_Update-180627\Debug/../04_UserBoard/lcd/lcd.c:475
	LCD_WR_DATA8(y1);
    e10c:	1d3b      	adds	r3, r7, #4
    e10e:	881b      	ldrh	r3, [r3, #0]
    e110:	b2db      	uxtb	r3, r3
    e112:	0018      	movs	r0, r3
    e114:	f7ff ff42 	bl	df9c <LCD_WR_DATA8>
E:\2017-2018\03_Graduation Project\04_Software\05_Wangshi\03_UpdateSoftware-180702\02_UEUser\KL36_Update-180627\Debug/../04_UserBoard/lcd/lcd.c:476
	LCD_WR_DATA8(y2>>8);  //
    e118:	003b      	movs	r3, r7
    e11a:	881b      	ldrh	r3, [r3, #0]
    e11c:	0a1b      	lsrs	r3, r3, #8
    e11e:	b29b      	uxth	r3, r3
    e120:	b2db      	uxtb	r3, r3
    e122:	0018      	movs	r0, r3
    e124:	f7ff ff3a 	bl	df9c <LCD_WR_DATA8>
E:\2017-2018\03_Graduation Project\04_Software\05_Wangshi\03_UpdateSoftware-180702\02_UEUser\KL36_Update-180627\Debug/../04_UserBoard/lcd/lcd.c:477
	LCD_WR_DATA8(y2);
    e128:	003b      	movs	r3, r7
    e12a:	881b      	ldrh	r3, [r3, #0]
    e12c:	b2db      	uxtb	r3, r3
    e12e:	0018      	movs	r0, r3
    e130:	f7ff ff34 	bl	df9c <LCD_WR_DATA8>
E:\2017-2018\03_Graduation Project\04_Software\05_Wangshi\03_UpdateSoftware-180702\02_UEUser\KL36_Update-180627\Debug/../04_UserBoard/lcd/lcd.c:479

	LCD_WR_REG(0x2C);     //
    e134:	202c      	movs	r0, #44	; 0x2c
    e136:	f7ff ff77 	bl	e028 <LCD_WR_REG>
E:\2017-2018\03_Graduation Project\04_Software\05_Wangshi\03_UpdateSoftware-180702\02_UEUser\KL36_Update-180627\Debug/../04_UserBoard/lcd/lcd.c:480
}
    e13a:	46c0      	nop			; (mov r8, r8)
    e13c:	46bd      	mov	sp, r7
    e13e:	b002      	add	sp, #8
    e140:	bdb0      	pop	{r4, r5, r7, pc}
	...

0000e144 <SystemInit>:
SystemInit():
E:\2017-2018\03_Graduation Project\04_Software\05_Wangshi\03_UpdateSoftware-180702\02_UEUser\KL36_Update-180627\Debug/../03_MCU/startup/system_MKL36Z4.c:104
   -- SystemInit()
   ---------------------------------------------------------------------------- */

//

void SystemInit (void) {
    e144:	b580      	push	{r7, lr}
    e146:	af00      	add	r7, sp, #0
E:\2017-2018\03_Graduation Project\04_Software\05_Wangshi\03_UpdateSoftware-180702\02_UEUser\KL36_Update-180627\Debug/../03_MCU/startup/system_MKL36Z4.c:112
    //ENABLE_WDOG
    //
    if(ENABLE_WDOG)
    	wdog_start(3);
    else
    	wdog_stop();
    e148:	f000 f88e 	bl	e268 <wdog_stop>
E:\2017-2018\03_Graduation Project\04_Software\05_Wangshi\03_UpdateSoftware-180702\02_UEUser\KL36_Update-180627\Debug/../03_MCU/startup/system_MKL36Z4.c:115
    /* System clock initialization */
    /* SIM_CLKDIV1: OUTDIV1=0,??=0,??=0,??=0,??=0,??=0,??=0,??=0,??=0,??=0,OUTDIV4=3,??=0,??=0,??=0,??=0,??=0,??=0,??=0,??=0,??=0,??=0,??=0,??=0,??=0,??=0,??=0,??=0 */
    SIM_CLKDIV1 = (SIM_CLKDIV1_OUTDIV1(0x00) | SIM_CLKDIV1_OUTDIV4(0x03)); /* Set the system prescalers to safe value */
    e14c:	493c      	ldr	r1, [pc, #240]	; (e240 <SystemInit+0xfc>)
    e14e:	4a3d      	ldr	r2, [pc, #244]	; (e244 <SystemInit+0x100>)
    e150:	23c0      	movs	r3, #192	; 0xc0
    e152:	029b      	lsls	r3, r3, #10
    e154:	508b      	str	r3, [r1, r2]
E:\2017-2018\03_Graduation Project\04_Software\05_Wangshi\03_UpdateSoftware-180702\02_UEUser\KL36_Update-180627\Debug/../03_MCU/startup/system_MKL36Z4.c:117
    /* SIM_SCGC5: PORTA=1 */
    SIM_SCGC5 |= SIM_SCGC5_PORTA_MASK;   /* Enable clock gate for ports to enable pin routing */
    e156:	4a3a      	ldr	r2, [pc, #232]	; (e240 <SystemInit+0xfc>)
    e158:	4b3b      	ldr	r3, [pc, #236]	; (e248 <SystemInit+0x104>)
    e15a:	58d3      	ldr	r3, [r2, r3]
    e15c:	4938      	ldr	r1, [pc, #224]	; (e240 <SystemInit+0xfc>)
    e15e:	2280      	movs	r2, #128	; 0x80
    e160:	0092      	lsls	r2, r2, #2
    e162:	4313      	orrs	r3, r2
    e164:	4a38      	ldr	r2, [pc, #224]	; (e248 <SystemInit+0x104>)
    e166:	508b      	str	r3, [r1, r2]
E:\2017-2018\03_Graduation Project\04_Software\05_Wangshi\03_UpdateSoftware-180702\02_UEUser\KL36_Update-180627\Debug/../03_MCU/startup/system_MKL36Z4.c:118
    if ((PMC_REGSC & PMC_REGSC_ACKISO_MASK) != 0x0U) {
    e168:	4b38      	ldr	r3, [pc, #224]	; (e24c <SystemInit+0x108>)
    e16a:	789b      	ldrb	r3, [r3, #2]
    e16c:	b2db      	uxtb	r3, r3
    e16e:	001a      	movs	r2, r3
    e170:	2308      	movs	r3, #8
    e172:	4013      	ands	r3, r2
    e174:	d007      	beq.n	e186 <SystemInit+0x42>
E:\2017-2018\03_Graduation Project\04_Software\05_Wangshi\03_UpdateSoftware-180702\02_UEUser\KL36_Update-180627\Debug/../03_MCU/startup/system_MKL36Z4.c:120
        /* PMC_REGSC: ACKISO=1 */
        PMC_REGSC |= PMC_REGSC_ACKISO_MASK; /* Release IO pads after wakeup from VLLS mode. */
    e176:	4b35      	ldr	r3, [pc, #212]	; (e24c <SystemInit+0x108>)
    e178:	789b      	ldrb	r3, [r3, #2]
    e17a:	b2db      	uxtb	r3, r3
    e17c:	4a33      	ldr	r2, [pc, #204]	; (e24c <SystemInit+0x108>)
    e17e:	2108      	movs	r1, #8
    e180:	430b      	orrs	r3, r1
    e182:	b2db      	uxtb	r3, r3
    e184:	7093      	strb	r3, [r2, #2]
E:\2017-2018\03_Graduation Project\04_Software\05_Wangshi\03_UpdateSoftware-180702\02_UEUser\KL36_Update-180627\Debug/../03_MCU/startup/system_MKL36Z4.c:123
    }
    /* SIM_CLKDIV1: OUTDIV1=0,??=0,??=0,??=0,??=0,??=0,??=0,??=0,??=0,??=0,OUTDIV4=1,??=0,??=0,??=0,??=0,??=0,??=0,??=0,??=0,??=0,??=0,??=0,??=0,??=0,??=0,??=0,??=0 */
    SIM_CLKDIV1 = (SIM_CLKDIV1_OUTDIV1(0x00) | SIM_CLKDIV1_OUTDIV4(0x01)); /* Update system prescalers */
    e186:	492e      	ldr	r1, [pc, #184]	; (e240 <SystemInit+0xfc>)
    e188:	4a2e      	ldr	r2, [pc, #184]	; (e244 <SystemInit+0x100>)
    e18a:	2380      	movs	r3, #128	; 0x80
    e18c:	025b      	lsls	r3, r3, #9
    e18e:	508b      	str	r3, [r1, r2]
E:\2017-2018\03_Graduation Project\04_Software\05_Wangshi\03_UpdateSoftware-180702\02_UEUser\KL36_Update-180627\Debug/../03_MCU/startup/system_MKL36Z4.c:125
    /* SIM_SOPT2: ??=0,PLLFLLSEL=0 */
    SIM_SOPT2 &= (uint32_t)~(uint32_t)((SIM_SOPT2_PLLFLLSEL_MASK | 0x00020000U)); /* Select FLL as a clock source for various peripherals */
    e190:	4a2b      	ldr	r2, [pc, #172]	; (e240 <SystemInit+0xfc>)
    e192:	4b2f      	ldr	r3, [pc, #188]	; (e250 <SystemInit+0x10c>)
    e194:	58d3      	ldr	r3, [r2, r3]
    e196:	492a      	ldr	r1, [pc, #168]	; (e240 <SystemInit+0xfc>)
    e198:	4a2e      	ldr	r2, [pc, #184]	; (e254 <SystemInit+0x110>)
    e19a:	4013      	ands	r3, r2
    e19c:	4a2c      	ldr	r2, [pc, #176]	; (e250 <SystemInit+0x10c>)
    e19e:	508b      	str	r3, [r1, r2]
E:\2017-2018\03_Graduation Project\04_Software\05_Wangshi\03_UpdateSoftware-180702\02_UEUser\KL36_Update-180627\Debug/../03_MCU/startup/system_MKL36Z4.c:127
    /* SIM_SOPT1: OSC32KSEL=0 */
    SIM_SOPT1 &= (uint32_t)~(uint32_t)(SIM_SOPT1_OSC32KSEL(0x03)); /* System oscillator drives 32 kHz clock for various peripherals */
    e1a0:	4b27      	ldr	r3, [pc, #156]	; (e240 <SystemInit+0xfc>)
    e1a2:	681a      	ldr	r2, [r3, #0]
    e1a4:	4b26      	ldr	r3, [pc, #152]	; (e240 <SystemInit+0xfc>)
    e1a6:	492c      	ldr	r1, [pc, #176]	; (e258 <SystemInit+0x114>)
    e1a8:	400a      	ands	r2, r1
    e1aa:	601a      	str	r2, [r3, #0]
E:\2017-2018\03_Graduation Project\04_Software\05_Wangshi\03_UpdateSoftware-180702\02_UEUser\KL36_Update-180627\Debug/../03_MCU/startup/system_MKL36Z4.c:129
    /* SIM_SOPT2: TPMSRC=1 */
    SIM_SOPT2 = (uint32_t)((SIM_SOPT2 & (uint32_t)~(uint32_t)(
    e1ac:	4a24      	ldr	r2, [pc, #144]	; (e240 <SystemInit+0xfc>)
    e1ae:	4b28      	ldr	r3, [pc, #160]	; (e250 <SystemInit+0x10c>)
    e1b0:	58d3      	ldr	r3, [r2, r3]
    e1b2:	4a2a      	ldr	r2, [pc, #168]	; (e25c <SystemInit+0x118>)
    e1b4:	4013      	ands	r3, r2
    e1b6:	4922      	ldr	r1, [pc, #136]	; (e240 <SystemInit+0xfc>)
    e1b8:	2280      	movs	r2, #128	; 0x80
    e1ba:	0452      	lsls	r2, r2, #17
    e1bc:	4313      	orrs	r3, r2
    e1be:	4a24      	ldr	r2, [pc, #144]	; (e250 <SystemInit+0x10c>)
    e1c0:	508b      	str	r3, [r1, r2]
E:\2017-2018\03_Graduation Project\04_Software\05_Wangshi\03_UpdateSoftware-180702\02_UEUser\KL36_Update-180627\Debug/../03_MCU/startup/system_MKL36Z4.c:136
    )) | (uint32_t)(
            SIM_SOPT2_TPMSRC(0x01)
    ));                      /* Set the TPM clock */
    /* Switch to FEI Mode */
    /* MCG_C1: CLKS=0,FRDIV=0,IREFS=1,IRCLKEN=1,IREFSTEN=0 */
    MCG_C1 = MCG_C1_CLKS(0x00) |
    e1c2:	4b27      	ldr	r3, [pc, #156]	; (e260 <SystemInit+0x11c>)
    e1c4:	2206      	movs	r2, #6
    e1c6:	701a      	strb	r2, [r3, #0]
E:\2017-2018\03_Graduation Project\04_Software\05_Wangshi\03_UpdateSoftware-180702\02_UEUser\KL36_Update-180627\Debug/../03_MCU/startup/system_MKL36Z4.c:141
            MCG_C1_FRDIV(0x00) |
            MCG_C1_IREFS_MASK |
            MCG_C1_IRCLKEN_MASK;
    /* MCG_C2: LOCRE0=0,RANGE0=0,HGO0=0,EREFS0=0,LP=0,IRCS=0 */
    MCG_C2 &= (uint8_t)~(uint8_t)(
    e1c8:	4b25      	ldr	r3, [pc, #148]	; (e260 <SystemInit+0x11c>)
    e1ca:	785b      	ldrb	r3, [r3, #1]
    e1cc:	b2db      	uxtb	r3, r3
    e1ce:	4a24      	ldr	r2, [pc, #144]	; (e260 <SystemInit+0x11c>)
    e1d0:	2140      	movs	r1, #64	; 0x40
    e1d2:	400b      	ands	r3, r1
    e1d4:	b2db      	uxtb	r3, r3
    e1d6:	7053      	strb	r3, [r2, #1]
E:\2017-2018\03_Graduation Project\04_Software\05_Wangshi\03_UpdateSoftware-180702\02_UEUser\KL36_Update-180627\Debug/../03_MCU/startup/system_MKL36Z4.c:150
            MCG_C2_EREFS0_MASK |
            MCG_C2_LP_MASK |
            MCG_C2_IRCS_MASK
    );
    /* MCG_C4: DMX32=1,DRST_DRS=1 */
    MCG_C4 = (uint8_t)((MCG_C4 & (uint8_t)~(uint8_t)(
    e1d8:	4b21      	ldr	r3, [pc, #132]	; (e260 <SystemInit+0x11c>)
    e1da:	78db      	ldrb	r3, [r3, #3]
    e1dc:	b2db      	uxtb	r3, r3
    e1de:	b25b      	sxtb	r3, r3
E:\2017-2018\03_Graduation Project\04_Software\05_Wangshi\03_UpdateSoftware-180702\02_UEUser\KL36_Update-180627\Debug/../03_MCU/startup/system_MKL36Z4.c:152
            MCG_C4_DRST_DRS(0x02)
    )) | (uint8_t)(
    e1e0:	221f      	movs	r2, #31
    e1e2:	4013      	ands	r3, r2
    e1e4:	b25b      	sxtb	r3, r3
    e1e6:	2260      	movs	r2, #96	; 0x60
    e1e8:	4252      	negs	r2, r2
    e1ea:	4313      	orrs	r3, r2
    e1ec:	b25a      	sxtb	r2, r3
E:\2017-2018\03_Graduation Project\04_Software\05_Wangshi\03_UpdateSoftware-180702\02_UEUser\KL36_Update-180627\Debug/../03_MCU/startup/system_MKL36Z4.c:150
    MCG_C4 = (uint8_t)((MCG_C4 & (uint8_t)~(uint8_t)(
    e1ee:	4b1c      	ldr	r3, [pc, #112]	; (e260 <SystemInit+0x11c>)
    e1f0:	b2d2      	uxtb	r2, r2
    e1f2:	70da      	strb	r2, [r3, #3]
E:\2017-2018\03_Graduation Project\04_Software\05_Wangshi\03_UpdateSoftware-180702\02_UEUser\KL36_Update-180627\Debug/../03_MCU/startup/system_MKL36Z4.c:157
            MCG_C4_DMX32_MASK |
            MCG_C4_DRST_DRS(0x01)
    ));
    /* OSC0_CR: ERCLKEN=0,??=0,EREFSTEN=0,??=0,SC2P=0,SC4P=0,SC8P=0,SC16P=0 */
    OSC0_CR = 0x00U;
    e1f4:	4b1b      	ldr	r3, [pc, #108]	; (e264 <SystemInit+0x120>)
    e1f6:	2200      	movs	r2, #0
    e1f8:	701a      	strb	r2, [r3, #0]
E:\2017-2018\03_Graduation Project\04_Software\05_Wangshi\03_UpdateSoftware-180702\02_UEUser\KL36_Update-180627\Debug/../03_MCU/startup/system_MKL36Z4.c:159
    /* MCG_C5: ??=0,PLLCLKEN0=0,PLLSTEN0=0,PRDIV0=0 */
    MCG_C5 = MCG_C5_PRDIV0(0x00);
    e1fa:	4b19      	ldr	r3, [pc, #100]	; (e260 <SystemInit+0x11c>)
    e1fc:	2200      	movs	r2, #0
    e1fe:	711a      	strb	r2, [r3, #4]
E:\2017-2018\03_Graduation Project\04_Software\05_Wangshi\03_UpdateSoftware-180702\02_UEUser\KL36_Update-180627\Debug/../03_MCU/startup/system_MKL36Z4.c:161
    /* MCG_C6: LOLIE0=0,PLLS=0,CME0=0,VDIV0=0 */
    MCG_C6 = MCG_C6_VDIV0(0x00);
    e200:	4b17      	ldr	r3, [pc, #92]	; (e260 <SystemInit+0x11c>)
    e202:	2200      	movs	r2, #0
    e204:	715a      	strb	r2, [r3, #5]
E:\2017-2018\03_Graduation Project\04_Software\05_Wangshi\03_UpdateSoftware-180702\02_UEUser\KL36_Update-180627\Debug/../03_MCU/startup/system_MKL36Z4.c:162
    while((MCG_S & MCG_S_IREFST_MASK) == 0x00U) { /* Check that the source of the FLL reference clock is the internal reference clock. */
    e206:	46c0      	nop			; (mov r8, r8)
E:\2017-2018\03_Graduation Project\04_Software\05_Wangshi\03_UpdateSoftware-180702\02_UEUser\KL36_Update-180627\Debug/../03_MCU/startup/system_MKL36Z4.c:162 (discriminator 1)
    e208:	4b15      	ldr	r3, [pc, #84]	; (e260 <SystemInit+0x11c>)
    e20a:	799b      	ldrb	r3, [r3, #6]
    e20c:	b2db      	uxtb	r3, r3
    e20e:	001a      	movs	r2, r3
    e210:	2310      	movs	r3, #16
    e212:	4013      	ands	r3, r2
    e214:	d0f8      	beq.n	e208 <SystemInit+0xc4>
E:\2017-2018\03_Graduation Project\04_Software\05_Wangshi\03_UpdateSoftware-180702\02_UEUser\KL36_Update-180627\Debug/../03_MCU/startup/system_MKL36Z4.c:164
    }
    while((MCG_S & 0x0CU) != 0x00U) {    /* Wait until output of the FLL is selected */
    e216:	46c0      	nop			; (mov r8, r8)
E:\2017-2018\03_Graduation Project\04_Software\05_Wangshi\03_UpdateSoftware-180702\02_UEUser\KL36_Update-180627\Debug/../03_MCU/startup/system_MKL36Z4.c:164 (discriminator 1)
    e218:	4b11      	ldr	r3, [pc, #68]	; (e260 <SystemInit+0x11c>)
    e21a:	799b      	ldrb	r3, [r3, #6]
    e21c:	b2db      	uxtb	r3, r3
    e21e:	001a      	movs	r2, r3
    e220:	230c      	movs	r3, #12
    e222:	4013      	ands	r3, r2
    e224:	d1f8      	bne.n	e218 <SystemInit+0xd4>
E:\2017-2018\03_Graduation Project\04_Software\05_Wangshi\03_UpdateSoftware-180702\02_UEUser\KL36_Update-180627\Debug/../03_MCU/startup/system_MKL36Z4.c:237
    //        if (((MCG_S & MCG_S_CLKST_MASK) >> MCG_S_CLKST_SHIFT) == 0x3) break;
    //    }
    //    //4.PEE

    //PORT
    SIM->SCGC5 |= SIM_SCGC5_PORTA_MASK
    e226:	4a06      	ldr	r2, [pc, #24]	; (e240 <SystemInit+0xfc>)
    e228:	4b07      	ldr	r3, [pc, #28]	; (e248 <SystemInit+0x104>)
    e22a:	58d3      	ldr	r3, [r2, r3]
    e22c:	4904      	ldr	r1, [pc, #16]	; (e240 <SystemInit+0xfc>)
    e22e:	22f8      	movs	r2, #248	; 0xf8
    e230:	0192      	lsls	r2, r2, #6
    e232:	4313      	orrs	r3, r2
    e234:	4a04      	ldr	r2, [pc, #16]	; (e248 <SystemInit+0x104>)
    e236:	508b      	str	r3, [r1, r2]
E:\2017-2018\03_Graduation Project\04_Software\05_Wangshi\03_UpdateSoftware-180702\02_UEUser\KL36_Update-180627\Debug/../03_MCU/startup/system_MKL36Z4.c:243
            | SIM_SCGC5_PORTB_MASK
            | SIM_SCGC5_PORTC_MASK
            | SIM_SCGC5_PORTD_MASK
            | SIM_SCGC5_PORTE_MASK;

}
    e238:	46c0      	nop			; (mov r8, r8)
    e23a:	46bd      	mov	sp, r7
    e23c:	bd80      	pop	{r7, pc}
    e23e:	46c0      	nop			; (mov r8, r8)
    e240:	40047000 	.word	0x40047000
    e244:	00001044 	.word	0x00001044
    e248:	00001038 	.word	0x00001038
    e24c:	4007d000 	.word	0x4007d000
    e250:	00001004 	.word	0x00001004
    e254:	fffcffff 	.word	0xfffcffff
    e258:	fff3ffff 	.word	0xfff3ffff
    e25c:	fcffffff 	.word	0xfcffffff
    e260:	40064000 	.word	0x40064000
    e264:	40065000 	.word	0x40065000

0000e268 <wdog_stop>:
wdog_stop():
E:\2017-2018\03_Graduation Project\04_Software\05_Wangshi\03_UpdateSoftware-180702\02_UEUser\KL36_Update-180627\Debug/../03_MCU/MCU_drivers/wdog/wdog.c:41
//
//
//
//=========================================================================
void wdog_stop()
{
    e268:	b580      	push	{r7, lr}
    e26a:	af00      	add	r7, sp, #0
E:\2017-2018\03_Graduation Project\04_Software\05_Wangshi\03_UpdateSoftware-180702\02_UEUser\KL36_Update-180627\Debug/../03_MCU/MCU_drivers/wdog/wdog.c:42
    SIM_COPC &= ~SIM_COPC_COPT_MASK;
    e26c:	4a06      	ldr	r2, [pc, #24]	; (e288 <wdog_stop+0x20>)
    e26e:	2388      	movs	r3, #136	; 0x88
    e270:	015b      	lsls	r3, r3, #5
    e272:	58d3      	ldr	r3, [r2, r3]
    e274:	4904      	ldr	r1, [pc, #16]	; (e288 <wdog_stop+0x20>)
    e276:	220c      	movs	r2, #12
    e278:	4393      	bics	r3, r2
    e27a:	001a      	movs	r2, r3
    e27c:	2388      	movs	r3, #136	; 0x88
    e27e:	015b      	lsls	r3, r3, #5
    e280:	50ca      	str	r2, [r1, r3]
E:\2017-2018\03_Graduation Project\04_Software\05_Wangshi\03_UpdateSoftware-180702\02_UEUser\KL36_Update-180627\Debug/../03_MCU/MCU_drivers/wdog/wdog.c:43
}
    e282:	46c0      	nop			; (mov r8, r8)
    e284:	46bd      	mov	sp, r7
    e286:	bd80      	pop	{r7, pc}
    e288:	40047000 	.word	0x40047000

0000e28c <exit>:
exit():
    e28c:	4b08      	ldr	r3, [pc, #32]	; (e2b0 <exit+0x24>)
    e28e:	b510      	push	{r4, lr}
    e290:	0004      	movs	r4, r0
    e292:	2b00      	cmp	r3, #0
    e294:	d002      	beq.n	e29c <exit+0x10>
    e296:	2100      	movs	r1, #0
    e298:	e000      	b.n	e29c <exit+0x10>
    e29a:	bf00      	nop
    e29c:	4b05      	ldr	r3, [pc, #20]	; (e2b4 <exit+0x28>)
    e29e:	6818      	ldr	r0, [r3, #0]
    e2a0:	6a83      	ldr	r3, [r0, #40]	; 0x28
    e2a2:	2b00      	cmp	r3, #0
    e2a4:	d000      	beq.n	e2a8 <exit+0x1c>
    e2a6:	4798      	blx	r3
    e2a8:	0020      	movs	r0, r4
    e2aa:	f000 f84f 	bl	e34c <_exit>
    e2ae:	46c0      	nop			; (mov r8, r8)
    e2b0:	00000000 	.word	0x00000000
    e2b4:	0000ef28 	.word	0x0000ef28

0000e2b8 <__libc_init_array>:
__libc_init_array():
    e2b8:	b570      	push	{r4, r5, r6, lr}
    e2ba:	2600      	movs	r6, #0
    e2bc:	4d0c      	ldr	r5, [pc, #48]	; (e2f0 <__libc_init_array+0x38>)
    e2be:	4c0d      	ldr	r4, [pc, #52]	; (e2f4 <__libc_init_array+0x3c>)
    e2c0:	1b64      	subs	r4, r4, r5
    e2c2:	10a4      	asrs	r4, r4, #2
    e2c4:	42a6      	cmp	r6, r4
    e2c6:	d109      	bne.n	e2dc <__libc_init_array+0x24>
    e2c8:	2600      	movs	r6, #0
    e2ca:	f000 fe2f 	bl	ef2c <_init>
    e2ce:	4d0a      	ldr	r5, [pc, #40]	; (e2f8 <__libc_init_array+0x40>)
    e2d0:	4c0a      	ldr	r4, [pc, #40]	; (e2fc <__libc_init_array+0x44>)
    e2d2:	1b64      	subs	r4, r4, r5
    e2d4:	10a4      	asrs	r4, r4, #2
    e2d6:	42a6      	cmp	r6, r4
    e2d8:	d105      	bne.n	e2e6 <__libc_init_array+0x2e>
    e2da:	bd70      	pop	{r4, r5, r6, pc}
    e2dc:	00b3      	lsls	r3, r6, #2
    e2de:	58eb      	ldr	r3, [r5, r3]
    e2e0:	4798      	blx	r3
    e2e2:	3601      	adds	r6, #1
    e2e4:	e7ee      	b.n	e2c4 <__libc_init_array+0xc>
    e2e6:	00b3      	lsls	r3, r6, #2
    e2e8:	58eb      	ldr	r3, [r5, r3]
    e2ea:	4798      	blx	r3
    e2ec:	3601      	adds	r6, #1
    e2ee:	e7f2      	b.n	e2d6 <__libc_init_array+0x1e>
    e2f0:	0000ef4c 	.word	0x0000ef4c
    e2f4:	0000ef4c 	.word	0x0000ef4c
    e2f8:	0000ef4c 	.word	0x0000ef4c
    e2fc:	0000ef50 	.word	0x0000ef50

0000e300 <memcpy>:
memcpy():
    e300:	2300      	movs	r3, #0
    e302:	b510      	push	{r4, lr}
    e304:	429a      	cmp	r2, r3
    e306:	d100      	bne.n	e30a <memcpy+0xa>
    e308:	bd10      	pop	{r4, pc}
    e30a:	5ccc      	ldrb	r4, [r1, r3]
    e30c:	54c4      	strb	r4, [r0, r3]
    e30e:	3301      	adds	r3, #1
    e310:	e7f8      	b.n	e304 <memcpy+0x4>

0000e312 <memset>:
memset():
    e312:	0003      	movs	r3, r0
    e314:	1812      	adds	r2, r2, r0
    e316:	4293      	cmp	r3, r2
    e318:	d100      	bne.n	e31c <memset+0xa>
    e31a:	4770      	bx	lr
    e31c:	7019      	strb	r1, [r3, #0]
    e31e:	3301      	adds	r3, #1
    e320:	e7f9      	b.n	e316 <memset+0x4>

0000e322 <strncpy>:
strncpy():
    e322:	b530      	push	{r4, r5, lr}
    e324:	0005      	movs	r5, r0
    e326:	2a00      	cmp	r2, #0
    e328:	d100      	bne.n	e32c <strncpy+0xa>
    e32a:	bd30      	pop	{r4, r5, pc}
    e32c:	780c      	ldrb	r4, [r1, #0]
    e32e:	3a01      	subs	r2, #1
    e330:	1c6b      	adds	r3, r5, #1
    e332:	702c      	strb	r4, [r5, #0]
    e334:	3101      	adds	r1, #1
    e336:	2c00      	cmp	r4, #0
    e338:	d105      	bne.n	e346 <strncpy+0x24>
    e33a:	189a      	adds	r2, r3, r2
    e33c:	429a      	cmp	r2, r3
    e33e:	d0f4      	beq.n	e32a <strncpy+0x8>
    e340:	701c      	strb	r4, [r3, #0]
    e342:	3301      	adds	r3, #1
    e344:	e7fa      	b.n	e33c <strncpy+0x1a>
    e346:	001d      	movs	r5, r3
    e348:	e7ed      	b.n	e326 <strncpy+0x4>
	...

0000e34c <_exit>:
_exit():
    e34c:	e7fe      	b.n	e34c <_exit>
    e34e:	46c0      	nop			; (mov r8, r8)
    e350:	204c4841 	.word	0x204c4841
    e354:	206e7552 	.word	0x206e7552
    e358:	2020202e 	.word	0x2020202e
    e35c:	20202020 	.word	0x20202020
    e360:	20202020 	.word	0x20202020
    e364:	20202020 	.word	0x20202020
    e368:	20202020 	.word	0x20202020
    e36c:	00000000 	.word	0x00000000
    e370:	204c4841 	.word	0x204c4841
    e374:	206e7552 	.word	0x206e7552
    e378:	20202e2e 	.word	0x20202e2e
    e37c:	20202020 	.word	0x20202020
    e380:	20202020 	.word	0x20202020
    e384:	20202020 	.word	0x20202020
    e388:	20202020 	.word	0x20202020
    e38c:	00000000 	.word	0x00000000
    e390:	204c4841 	.word	0x204c4841
    e394:	74696e49 	.word	0x74696e49
    e398:	696c6169 	.word	0x696c6169
    e39c:	2e20657a 	.word	0x2e20657a
    e3a0:	20202020 	.word	0x20202020
    e3a4:	20202020 	.word	0x20202020
    e3a8:	20202020 	.word	0x20202020
    e3ac:	00000000 	.word	0x00000000
    e3b0:	204c4841 	.word	0x204c4841
    e3b4:	74696e49 	.word	0x74696e49
    e3b8:	696c6169 	.word	0x696c6169
    e3bc:	2e20657a 	.word	0x2e20657a
    e3c0:	2020202e 	.word	0x2020202e
    e3c4:	20202020 	.word	0x20202020
    e3c8:	20202020 	.word	0x20202020
    e3cc:	00000000 	.word	0x00000000
    e3d0:	74696e49 	.word	0x74696e49
    e3d4:	45206c61 	.word	0x45206c61
    e3d8:	726f7272 	.word	0x726f7272
    e3dc:	2054413a 	.word	0x2054413a
    e3e0:	6f727245 	.word	0x6f727245
    e3e4:	20202072 	.word	0x20202072
    e3e8:	20202020 	.word	0x20202020
    e3ec:	00000000 	.word	0x00000000
    e3f0:	74696e49 	.word	0x74696e49
    e3f4:	45206c61 	.word	0x45206c61
    e3f8:	726f7272 	.word	0x726f7272
    e3fc:	4554413a 	.word	0x4554413a
    e400:	72452030 	.word	0x72452030
    e404:	20726f72 	.word	0x20726f72
    e408:	20202020 	.word	0x20202020
    e40c:	00000000 	.word	0x00000000
    e410:	74696e49 	.word	0x74696e49
    e414:	45206c61 	.word	0x45206c61
    e418:	726f7272 	.word	0x726f7272
    e41c:	454d493a 	.word	0x454d493a
    e420:	72452049 	.word	0x72452049
    e424:	20726f72 	.word	0x20726f72
    e428:	20202020 	.word	0x20202020
    e42c:	00000000 	.word	0x00000000
    e430:	74696e49 	.word	0x74696e49
    e434:	45206c61 	.word	0x45206c61
    e438:	726f7272 	.word	0x726f7272
    e43c:	534d493a 	.word	0x534d493a
    e440:	72452049 	.word	0x72452049
    e444:	20726f72 	.word	0x20726f72
    e448:	20202020 	.word	0x20202020
    e44c:	00000000 	.word	0x00000000
    e450:	74696e49 	.word	0x74696e49
    e454:	45206c61 	.word	0x45206c61
    e458:	726f7272 	.word	0x726f7272
    e45c:	5420423a 	.word	0x5420423a
    e460:	20657079 	.word	0x20657079
    e464:	6f727245 	.word	0x6f727245
    e468:	20202072 	.word	0x20202072
    e46c:	00000000 	.word	0x00000000
    e470:	74696e49 	.word	0x74696e49
    e474:	45206c61 	.word	0x45206c61
    e478:	726f7272 	.word	0x726f7272
    e47c:	74654e3a 	.word	0x74654e3a
    e480:	72724520 	.word	0x72724520
    e484:	2020726f 	.word	0x2020726f
    e488:	20202020 	.word	0x20202020
    e48c:	00000000 	.word	0x00000000
    e490:	74696e49 	.word	0x74696e49
    e494:	45206c61 	.word	0x45206c61
    e498:	726f7272 	.word	0x726f7272
    e49c:	5044503a 	.word	0x5044503a
    e4a0:	72724520 	.word	0x72724520
    e4a4:	2020726f 	.word	0x2020726f
    e4a8:	20202020 	.word	0x20202020
    e4ac:	00000000 	.word	0x00000000
    e4b0:	74696e49 	.word	0x74696e49
    e4b4:	45206c61 	.word	0x45206c61
    e4b8:	726f7272 	.word	0x726f7272
    e4bc:	7465473a 	.word	0x7465473a
    e4c0:	20504920 	.word	0x20504920
    e4c4:	6f727245 	.word	0x6f727245
    e4c8:	20202072 	.word	0x20202072
    e4cc:	00000000 	.word	0x00000000
    e4d0:	74696e49 	.word	0x74696e49
    e4d4:	45206c61 	.word	0x45206c61
    e4d8:	726f7272 	.word	0x726f7272
    e4dc:	2054413a 	.word	0x2054413a
    e4e0:	492c4b4f 	.word	0x492c4b4f
    e4e4:	72452050 	.word	0x72452050
    e4e8:	20726f72 	.word	0x20726f72
    e4ec:	00000000 	.word	0x00000000
    e4f0:	74696e49 	.word	0x74696e49
    e4f4:	45206c61 	.word	0x45206c61
    e4f8:	726f7272 	.word	0x726f7272
    e4fc:	5043543a 	.word	0x5043543a
    e500:	72724520 	.word	0x72724520
    e504:	2020726f 	.word	0x2020726f
    e508:	00202020 	.word	0x00202020
    e50c:	204c4841 	.word	0x204c4841
    e510:	74696e49 	.word	0x74696e49
    e514:	696c6169 	.word	0x696c6169
    e518:	5320657a 	.word	0x5320657a
    e51c:	65636375 	.word	0x65636375
    e520:	75667373 	.word	0x75667373
    e524:	20796c6c 	.word	0x20796c6c
    e528:	00000000 	.word	0x00000000
    e52c:	00000030 	.word	0x00000030
    e530:	20202020 	.word	0x20202020
    e534:	20202020 	.word	0x20202020
    e538:	00002020 	.word	0x00002020
    e53c:	20202020 	.word	0x20202020
    e540:	00000020 	.word	0x00000020
    e544:	204c4841 	.word	0x204c4841
    e548:	646e6553 	.word	0x646e6553
    e54c:	20202e20 	.word	0x20202e20
    e550:	20202020 	.word	0x20202020
    e554:	20202020 	.word	0x20202020
    e558:	20202020 	.word	0x20202020
    e55c:	20202020 	.word	0x20202020
    e560:	00000000 	.word	0x00000000
    e564:	204c4841 	.word	0x204c4841
    e568:	646e6553 	.word	0x646e6553
    e56c:	202e2e20 	.word	0x202e2e20
    e570:	20202020 	.word	0x20202020
    e574:	20202020 	.word	0x20202020
    e578:	20202020 	.word	0x20202020
    e57c:	20202020 	.word	0x20202020
    e580:	00000000 	.word	0x00000000
    e584:	204c4841 	.word	0x204c4841
    e588:	646e6553 	.word	0x646e6553
    e58c:	63755320 	.word	0x63755320
    e590:	73736563 	.word	0x73736563
    e594:	6c6c7566 	.word	0x6c6c7566
    e598:	20202079 	.word	0x20202079
    e59c:	20202020 	.word	0x20202020
    e5a0:	00000000 	.word	0x00000000
    e5a4:	646e6553 	.word	0x646e6553
    e5a8:	72724520 	.word	0x72724520
    e5ac:	533a726f 	.word	0x533a726f
    e5b0:	20646e65 	.word	0x20646e65
    e5b4:	20746f4e 	.word	0x20746f4e
    e5b8:	72617453 	.word	0x72617453
    e5bc:	20202074 	.word	0x20202074
    e5c0:	00000000 	.word	0x00000000
    e5c4:	646e6553 	.word	0x646e6553
    e5c8:	72724520 	.word	0x72724520
    e5cc:	533a726f 	.word	0x533a726f
    e5d0:	20646e65 	.word	0x20646e65
    e5d4:	61746144 	.word	0x61746144
    e5d8:	746f4e20 	.word	0x746f4e20
    e5dc:	204b4f20 	.word	0x204b4f20
    e5e0:	00000000 	.word	0x00000000
    e5e4:	204c4841 	.word	0x204c4841
    e5e8:	76636552 	.word	0x76636552
    e5ec:	656e6f20 	.word	0x656e6f20
    e5f0:	61726620 	.word	0x61726620
    e5f4:	2020656d 	.word	0x2020656d
    e5f8:	20202020 	.word	0x20202020
    e5fc:	20202020 	.word	0x20202020
    e600:	20202020 	.word	0x20202020
    e604:	00202020 	.word	0x00202020
    e608:	63637573 	.word	0x63637573
    e60c:	00737365 	.word	0x00737365
    e610:	204c4841 	.word	0x204c4841
    e614:	646e6553 	.word	0x646e6553
    e618:	63755320 	.word	0x63755320
    e61c:	73736563 	.word	0x73736563
    e620:	6c6c7566 	.word	0x6c6c7566
    e624:	20202079 	.word	0x20202079
    e628:	20202020 	.word	0x20202020
    e62c:	20202020 	.word	0x20202020
    e630:	00202020 	.word	0x00202020
    e634:	204c4841 	.word	0x204c4841
    e638:	76636552 	.word	0x76636552
    e63c:	206f4e20 	.word	0x206f4e20
    e640:	6d6d6f43 	.word	0x6d6d6f43
    e644:	20646e61 	.word	0x20646e61
    e648:	20202020 	.word	0x20202020
    e64c:	20202020 	.word	0x20202020
    e650:	00000000 	.word	0x00000000
    e654:	00003055 	.word	0x00003055
    e658:	f9baf0bd 	.word	0xf9baf0bd
    e65c:	6f49abc2 	.word	0x6f49abc2
    e660:	45472d54 	.word	0x45472d54
    e664:	00000043 	.word	0x00000043
    e668:	7954bea1 	.word	0x7954bea1
    e66c:	bfa16570 	.word	0xbfa16570
    e670:	00000020 	.word	0x00000020
    e674:	6f53bea1 	.word	0x6f53bea1
    e678:	bfa17466 	.word	0xbfa17466
    e67c:	00000020 	.word	0x00000020
    e680:	5365bea1 	.word	0x5365bea1
    e684:	bfa14d49 	.word	0xbfa14d49
    e688:	00000020 	.word	0x00000020
    e68c:	6554bea1 	.word	0x6554bea1
    e690:	bfa1706d 	.word	0xbfa1706d
    e694:	0000002d 	.word	0x0000002d
    e698:	5342bea1 	.word	0x5342bea1
    e69c:	a16d754e 	.word	0xa16d754e
    e6a0:	000000bf 	.word	0x000000bf
    e6a4:	6953bea1 	.word	0x6953bea1
    e6a8:	6c616e67 	.word	0x6c616e67
    e6ac:	0020bfa1 	.word	0x0020bfa1
    e6b0:	2049bea1 	.word	0x2049bea1
    e6b4:	bfa15020 	.word	0xbfa15020
    e6b8:	00000000 	.word	0x00000000
    e6bc:	4f50bea1 	.word	0x4f50bea1
    e6c0:	bfa15452 	.word	0xbfa15452
    e6c4:	00000000 	.word	0x00000000
    e6c8:	3a495354 	.word	0x3a495354
    e6cc:	20202020 	.word	0x20202020
    e6d0:	65724620 	.word	0x65724620
    e6d4:	3a297328 	.word	0x3a297328
    e6d8:	00202020 	.word	0x00202020
    e6dc:	656d6954 	.word	0x656d6954
    e6e0:	0000003a 	.word	0x0000003a
    e6e4:	38313032 	.word	0x38313032
    e6e8:	2d37302d 	.word	0x2d37302d
    e6ec:	32203130 	.word	0x32203130
    e6f0:	35353a31 	.word	0x35353a31
    e6f4:	0030303a 	.word	0x0030303a
    e6f8:	76636552 	.word	0x76636552
    e6fc:	6e756f43 	.word	0x6e756f43
    e700:	00003a74 	.word	0x00003a74
    e704:	74617453 	.word	0x74617453
    e708:	00003a65 	.word	0x00003a65
    e70c:	a1c8f1bb 	.word	0xa1c8f1bb
    e710:	bbcea8b6 	.word	0xbbcea8b6
    e714:	a2cfc5d0 	.word	0xa2cfc5d0
    e718:	dcb0a7ca 	.word	0xdcb0a7ca
    e71c:	00000a0d 	.word	0x00000a0d
    e720:	a1c8f1bb 	.word	0xa1c8f1bb
    e724:	bbcea8b6 	.word	0xbbcea8b6
    e728:	a2cfc5d0 	.word	0xa2cfc5d0
    e72c:	a6b9c9b3 	.word	0xa6b9c9b3
    e730:	00000a0d 	.word	0x00000a0d
    e734:	a1c8f1bb 	.word	0xa1c8f1bb
    e738:	e4bcb1ca 	.word	0xe4bcb1ca
    e73c:	dcb0a7ca 	.word	0xdcb0a7ca
    e740:	00000a0d 	.word	0x00000a0d
    e744:	a1c8f1bb 	.word	0xa1c8f1bb
    e748:	e4bcb1ca 	.word	0xe4bcb1ca
    e74c:	a2cfc5d0 	.word	0xa2cfc5d0
    e750:	a6b9c9b3 	.word	0xa6b9c9b3
    e754:	00000a0d 	.word	0x00000a0d
    e758:	a1c8f1bb 	.word	0xa1c8f1bb
    e75c:	c8b6d9cb 	.word	0xc8b6d9cb
    e760:	dcb0a7ca 	.word	0xdcb0a7ca
    e764:	00000a0d 	.word	0x00000a0d
    e768:	a1c8f1bb 	.word	0xa1c8f1bb
    e76c:	c8b6d9cb 	.word	0xc8b6d9cb
    e770:	a6b9c9b3 	.word	0xa6b9c9b3
    e774:	00000a0d 	.word	0x00000a0d
    e778:	a1c8f1bb 	.word	0xa1c8f1bb
    e77c:	c8b6dfb8 	.word	0xc8b6dfb8
    e780:	dcb0a7ca 	.word	0xdcb0a7ca
    e784:	00000a0d 	.word	0x00000a0d
    e788:	a1c8f1bb 	.word	0xa1c8f1bb
    e78c:	c8b6dfb8 	.word	0xc8b6dfb8
    e790:	a6b9c9b3 	.word	0xa6b9c9b3
    e794:	00000a0d 	.word	0x00000a0d
    e798:	0000eac4 	.word	0x0000eac4
    e79c:	0000c2d4 	.word	0x0000c2d4
    e7a0:	0000d5c8 	.word	0x0000d5c8
    e7a4:	0000003a 	.word	0x0000003a
    e7a8:	33323130 	.word	0x33323130
    e7ac:	37363534 	.word	0x37363534
    e7b0:	42413938 	.word	0x42413938
    e7b4:	46454443 	.word	0x46454443
    e7b8:	4a494847 	.word	0x4a494847
    e7bc:	4e4d4c4b 	.word	0x4e4d4c4b
    e7c0:	5251504f 	.word	0x5251504f
    e7c4:	56555453 	.word	0x56555453
    e7c8:	5a595857 	.word	0x5a595857
    e7cc:	00000000 	.word	0x00000000
    e7d0:	00009950 	.word	0x00009950
    e7d4:	000097c2 	.word	0x000097c2
    e7d8:	00009806 	.word	0x00009806
    e7dc:	0000976a 	.word	0x0000976a
    e7e0:	00009806 	.word	0x00009806
    e7e4:	000098f6 	.word	0x000098f6
    e7e8:	00009806 	.word	0x00009806
    e7ec:	0000976a 	.word	0x0000976a
    e7f0:	000097c2 	.word	0x000097c2
    e7f4:	000097c2 	.word	0x000097c2
    e7f8:	000098f6 	.word	0x000098f6
    e7fc:	0000976a 	.word	0x0000976a
    e800:	00009762 	.word	0x00009762
    e804:	00009762 	.word	0x00009762
    e808:	00009762 	.word	0x00009762
    e80c:	00009904 	.word	0x00009904
    e810:	0000a078 	.word	0x0000a078
    e814:	00009f7a 	.word	0x00009f7a
    e818:	00009f7a 	.word	0x00009f7a
    e81c:	0000a298 	.word	0x0000a298
    e820:	00009f74 	.word	0x00009f74
    e824:	00009f74 	.word	0x00009f74
    e828:	0000a280 	.word	0x0000a280
    e82c:	0000a298 	.word	0x0000a298
    e830:	00009f74 	.word	0x00009f74
    e834:	0000a280 	.word	0x0000a280
    e838:	00009f74 	.word	0x00009f74
    e83c:	0000a298 	.word	0x0000a298
    e840:	0000a28e 	.word	0x0000a28e
    e844:	0000a28e 	.word	0x0000a28e
    e848:	0000a28e 	.word	0x0000a28e
    e84c:	0000a29c 	.word	0x0000a29c
    e850:	0000b3e4 	.word	0x0000b3e4
    e854:	0000b264 	.word	0x0000b264
    e858:	0000b27a 	.word	0x0000b27a
    e85c:	0000b290 	.word	0x0000b290
    e860:	0000b2a6 	.word	0x0000b2a6
    e864:	0000b360 	.word	0x0000b360
    e868:	0000b376 	.word	0x0000b376
    e86c:	0000b38c 	.word	0x0000b38c
    e870:	0000b3a2 	.word	0x0000b3a2
    e874:	0000b3b8 	.word	0x0000b3b8
    e878:	0000b3ce 	.word	0x0000b3ce

0000e87c <nAsciiDot>:
	...
    e88c:	3c180000 18183c3c 18180018 00000000     ...<<<..........
    e89c:	66666600 00000024 00000000 00000000     .fff$...........
    e8ac:	36000000 36367f36 36367f36 00000000     ...66.666.66....
    e8bc:	633e1818 603e0343 183e6361 00000018     ..>cC.>`ac>.....
    e8cc:	00000000 18306343 6163060c 00000000     ....Cc0...ca....
    e8dc:	361c0000 3b6e1c36 6e333333 00000000     ...66.n;333n....
    e8ec:	0c0c0c00 00000006 00000000 00000000     ................
    e8fc:	18300000 0c0c0c0c 30180c0c 00000000     ..0........0....
    e90c:	180c0000 30303030 0c183030 00000000     ....000000......
    e91c:	00000000 ff3c6600 0000663c 00000000     .....f<.<f......
    e92c:	00000000 7e181800 00001818 00000000     .......~........
	...
    e944:	18181800 0000000c 00000000 7f000000     ................
	...
    e964:	18180000 00000000 00000000 18306040     ............@`0.
    e974:	0103060c 00000000 633e0000 6b6b7363     ..........>ccskk
    e984:	3e636367 00000000 1c180000 1818181e     gcc>............
    e994:	7e181818 00000000 633e0000 0c183060     ...~......>c`0..
    e9a4:	7f630306 00000000 633e0000 603c6060     ..c.......>c``<`
    e9b4:	3e636060 00000000 38300000 7f33363c     ``c>......08<63.
    e9c4:	78303030 00000000 037f0000 703f0303     000x..........?p
    e9d4:	3e636060 00000000 061c0000 633f0303     ``c>..........?c
    e9e4:	3e636363 00000000 637f0000 18306060     ccc>.......c``0.
    e9f4:	0c0c0c0c 00000000 633e0000 633e6363     ..........>ccc>c
    ea04:	3e636363 00000000 633e0000 607e6363     ccc>......>ccc~`
    ea14:	1e306060 00000000 00000000 00001818     ``0.............
    ea24:	00181800 00000000 00000000 00001818     ................
    ea34:	0c181800 00000000 60000000 060c1830     ...........`0...
    ea44:	6030180c 00000000 00000000 007f0000     ..0`............
    ea54:	00007f00 00000000 06000000 6030180c     ..............0`
    ea64:	060c1830 00000000 633e0000 18183063     0.........>cc0..
    ea74:	18180018 00000000 3e000000 7b7b6363     ...........>cc{{
    ea84:	3e033b7b 00000000 1c080000 7f636336     {;.>........6cc.
    ea94:	63636363 00000000 663f0000 663e6666     cccc......?fff>f
    eaa4:	3f666666 00000000 663c0000 03030343     fff?......<fC...
    eab4:	3c664303 00000000 361f0000 66666666     .Cf<.......6ffff
    eac4:	1f366666 00000000 667f0000 161e1646     ff6........fF...
    ead4:	7f664606 00000000 667f0000 161e1646     .Ff........fF...
    eae4:	0f060606 00000000 663c0000 7b030343     ..........<fC..{
    eaf4:	5c666363 00000000 63630000 637f6363     ccf\......cccc.c
    eb04:	63636363 00000000 183c0000 18181818     cccc......<.....
    eb14:	3c181818 00000000 30780000 30303030     ...<......x00000
    eb24:	1e333333 00000000 66670000 1e1e3636     333.......gf66..
    eb34:	67666636 00000000 060f0000 06060606     6ffg............
    eb44:	7f664606 00000000 77630000 636b7f7f     .Ff.......cw..kc
    eb54:	63636363 00000000 67630000 737b7f6f     cccc......cgo.{s
    eb64:	63636363 00000000 361c0000 63636363     cccc.......6cccc
    eb74:	1c366363 00000000 663f0000 063e6666     cc6.......?fff>.
    eb84:	0f060606 00000000 633e0000 63636363     ..........>ccccc
    eb94:	3e7b6b63 00007030 663f0000 363e6666     ck{>0p....?fff>6
    eba4:	67666666 00000000 633e0000 301c0663     fffg......>cc..0
    ebb4:	3e636360 00000000 7e7e0000 1818185a     `cc>......~~Z...
    ebc4:	3c181818 00000000 63630000 63636363     ...<......cccccc
    ebd4:	3e636363 00000000 63630000 63636363     ccc>......cccccc
    ebe4:	081c3663 00000000 63630000 6b636363     c6........ccccck
    ebf4:	36367f6b 00000000 63630000 1c1c3636     k.66......cc66..
    ec04:	63633636 00000000 66660000 183c6666     66cc......ffff<.
    ec14:	3c181818 00000000 637f0000 0c183061     ...<.......ca0..
    ec24:	7f634306 00000000 0c3c0000 0c0c0c0c     .Cc.......<.....
    ec34:	3c0c0c0c 00000000 01000000 1c0e0703     ...<............
    ec44:	40607038 00000000 303c0000 30303030     8p`@......<00000
    ec54:	3c303030 00000000 63361c08 00000000     000<......6c....
	...
    ec78:	0000ff00 00180c0c 00000000 00000000     ................
	...
    ec90:	3e301e00 6e333333 00000000 06070000     ..0>333n........
    eca0:	66361e06 3b666666 00000000 00000000     ..6ffff;........
    ecb0:	03633e00 3e630303 00000000 30380000     .>c...c>......80
    ecc0:	33363c30 6e333333 00000000 00000000     0<63333n........
    ecd0:	7f633e00 3e630303 00000000 361c0000     .>c...c>.......6
    ece0:	060f0626 0f060606 00000000 00000000     &...............
    ecf0:	33336e00 3e333333 001e3330 06070000     .n33333>03......
    ed00:	666e3606 67666666 00000000 18180000     .6nffffg........
    ed10:	18181c00 3c181818 00000000 60600000     .......<......``
    ed20:	60607000 60606060 003c6666 06070000     .p``````ff<.....
    ed30:	1e366606 6766361e 00000000 181c0000     .f6..6fg........
    ed40:	18181818 3c181818 00000000 00000000     .......<........
    ed50:	6b7f3700 6b6b6b6b 00000000 00000000     .7.kkkkk........
    ed60:	66663b00 66666666 00000000 00000000     .;ffffff........
    ed70:	63633e00 3e636363 00000000 00000000     .>ccccc>........
    ed80:	66663b00 3e666666 000f0606 00000000     .;fffff>........
    ed90:	33336e00 3e333333 00783030 00000000     .n33333>00x.....
    eda0:	466e3b00 0f060606 00000000 00000000     .;nF............
    edb0:	06633e00 3e63301c 00000000 0c080000     .>c..0c>........
    edc0:	0c0c3f0c 386c0c0c 00000000 00000000     .?....l8........
    edd0:	33333300 6e333333 00000000 00000000     .333333n........
    ede0:	66666600 183c6666 00000000 00000000     .fffff<.........
    edf0:	63636300 367f6b6b 00000000 00000000     .ccckk.6........
    ee00:	1c366300 63361c1c 00000000 00000000     .c6...6c........
    ee10:	63636300 7e636363 001f3060 00000000     .cccccc~`0......
    ee20:	18337f00 7f63060c 00000000 18700000     ..3...c.......p.
    ee30:	180e1818 70181818 00000000 18180000     .......p........
    ee40:	18001818 18181818 00000000 180e0000     ................
    ee50:	18701818 0e181818 00000000 3b6e0000     ..p...........n;
	...
    ee70:	63361c08 007f6363 00000000              ..6ccc......

0000ee7c <GB_16>:
    ee7c:	0080f0bd 01400080 04100220 77f40a08     ......@. ......w
    ee8c:	00802083 00800ff8 04900888 3ffe12a0     . .............?
    ee9c:	f9ba0000 22200220 02207fff 22903e10     .... . ".. ..>."
    eeac:	3e1023fe 22fc2250 22443e44 227c2244     .#.>P"."D>D"D"|"
    eebc:	10802944 0410abc2 7fff2410 10800410     D).......$......
    eecc:	10043ffc 1ffc1004 00041004 00040004     .?..............
    eedc:	00020002 bea10001 00000000 07e00fe0     ................
    eeec:	01e003e0 00e001e0 01e000e0 03e001e0     ................
    eefc:	0fe007e0 00000000 0000bfa1 0fe00000     ................
    ef0c:	0f800fc0 0f000f00 0e000e00 0f000f00     ................
    ef1c:	0fc00f80 00000fe0 00000000              ............

0000ef28 <_global_impure_ptr>:
    ef28:	20000804                                ... 

0000ef2c <_init>:
_init():
    ef2c:	b5f8      	push	{r3, r4, r5, r6, r7, lr}
    ef2e:	46c0      	nop			; (mov r8, r8)
    ef30:	bcf8      	pop	{r3, r4, r5, r6, r7}
    ef32:	bc08      	pop	{r3}
    ef34:	469e      	mov	lr, r3
    ef36:	4770      	bx	lr

0000ef38 <_fini>:
_fini():
    ef38:	b5f8      	push	{r3, r4, r5, r6, r7, lr}
    ef3a:	46c0      	nop			; (mov r8, r8)
    ef3c:	bcf8      	pop	{r3, r4, r5, r6, r7}
    ef3e:	bc08      	pop	{r3}
    ef40:	469e      	mov	lr, r3
    ef42:	4770      	bx	lr
