
KL36_Bios.elf:     file format elf32-littlearm
KL36_Bios.elf
architecture: arm, flags 0x00000112:
EXEC_P, HAS_SYMS, D_PAGED
start address 0x000004d1

Program Header:
    LOAD off    0x00010000 vaddr 0x00000000 paddr 0x00000000 align 2**16
         filesz 0x000000c0 memsz 0x000000c0 flags r--
    LOAD off    0x00010400 vaddr 0x00000400 paddr 0x00000400 align 2**16
         filesz 0x00000010 memsz 0x00000010 flags r--
    LOAD off    0x00010410 vaddr 0x00000410 paddr 0x00000410 align 2**16
         filesz 0x00005934 memsz 0x00005934 flags rwx
    LOAD off    0x00016400 vaddr 0x00006400 paddr 0x00006400 align 2**16
         filesz 0x00000134 memsz 0x00000134 flags r--
    LOAD off    0x0001f800 vaddr 0x1ffff800 paddr 0x00006534 align 2**16
         filesz 0x00000190 memsz 0x00000190 flags rw-
    LOAD off    0x0001f990 vaddr 0x1ffff990 paddr 0x000066c8 align 2**16
         filesz 0x00000000 memsz 0x000006a0 flags rw-
private flags = 5000200: [Version5 EABI] [soft-float ABI]

Sections:
Idx Name            Size      VMA       LMA       File off  Algn  Flags
  0 .interrupts     000000c0  00000000  00000000  00010000  2**2  CONTENTS, ALLOC, LOAD, READONLY, DATA
  1 .flash_config   00000010  00000400  00000400  00010400  2**0  CONTENTS, ALLOC, LOAD, READONLY, DATA
  2 .text           00005924  00000410  00000410  00010410  2**3  CONTENTS, ALLOC, LOAD, READONLY, CODE
  3 .ARM            00000008  00005d34  00005d34  00015d34  2**2  CONTENTS, ALLOC, LOAD, READONLY, DATA
  4 .init_array     00000004  00005d3c  00005d3c  00015d3c  2**2  CONTENTS, ALLOC, LOAD, DATA
  5 .fini_array     00000004  00005d40  00005d40  00015d40  2**2  CONTENTS, ALLOC, LOAD, DATA
  6 .fun_config     00000134  00006400  00006400  00016400  2**2  CONTENTS, ALLOC, LOAD, READONLY, DATA
  7 .mtb            00000000  1ffff800  1ffff800  0001f990  2**0  CONTENTS
  8 .data           00000190  1ffff800  00006534  0001f800  2**2  CONTENTS, ALLOC, LOAD, DATA
  9 .bss            0000039c  1ffff990  000066c8  0001f990  2**3  ALLOC
 10 .heap           00000204  1ffffd2c  00006a64  0001f990  2**0  ALLOC
 11 .stack          00000100  1fffff30  00006c68  0001f990  2**0  ALLOC
 12 .ARM.attributes 00000028  00000000  00000000  0001f990  2**0  CONTENTS, READONLY
 13 .debug_info     0000c20f  00000000  00000000  0001f9b8  2**0  CONTENTS, READONLY, DEBUGGING
 14 .debug_abbrev   0000285d  00000000  00000000  0002bbc7  2**0  CONTENTS, READONLY, DEBUGGING
 15 .debug_loc      0000631a  00000000  00000000  0002e424  2**0  CONTENTS, READONLY, DEBUGGING
 16 .debug_aranges  00000590  00000000  00000000  00034740  2**3  CONTENTS, READONLY, DEBUGGING
 17 .debug_ranges   00000b50  00000000  00000000  00034cd0  2**0  CONTENTS, READONLY, DEBUGGING
 18 .debug_macro    0000fdc5  00000000  00000000  00035820  2**0  CONTENTS, READONLY, DEBUGGING
 19 .debug_line     00007c92  00000000  00000000  000455e5  2**0  CONTENTS, READONLY, DEBUGGING
 20 .debug_str      0004fc07  00000000  00000000  0004d277  2**0  CONTENTS, READONLY, DEBUGGING
 21 .comment        0000007e  00000000  00000000  0009ce7e  2**0  CONTENTS, READONLY
 22 .debug_frame    00001044  00000000  00000000  0009cefc  2**2  CONTENTS, READONLY, DEBUGGING
SYMBOL TABLE:
00000000 l    d  .interrupts	00000000 .interrupts
00000400 l    d  .flash_config	00000000 .flash_config
00000410 l    d  .text	00000000 .text
00005d34 l    d  .ARM	00000000 .ARM
00005d3c l    d  .init_array	00000000 .init_array
00005d40 l    d  .fini_array	00000000 .fini_array
00006400 l    d  .fun_config	00000000 .fun_config
1ffff800 l    d  .mtb	00000000 .mtb
1ffff800 l    d  .data	00000000 .data
1ffff990 l    d  .bss	00000000 .bss
1ffffd2c l    d  .heap	00000000 .heap
1fffff30 l    d  .stack	00000000 .stack
00000000 l    d  .ARM.attributes	00000000 .ARM.attributes
00000000 l    d  .debug_info	00000000 .debug_info
00000000 l    d  .debug_abbrev	00000000 .debug_abbrev
00000000 l    d  .debug_loc	00000000 .debug_loc
00000000 l    d  .debug_aranges	00000000 .debug_aranges
00000000 l    d  .debug_ranges	00000000 .debug_ranges
00000000 l    d  .debug_macro	00000000 .debug_macro
00000000 l    d  .debug_line	00000000 .debug_line
00000000 l    d  .debug_str	00000000 .debug_str
00000000 l    d  .comment	00000000 .comment
00000000 l    d  .debug_frame	00000000 .debug_frame
00000000 l    df *ABS*	00000000 ./03_MCU/startup/startup_MKL36Z4.o
00000000 l    df *ABS*	00000000 crtstuff.c
00005d1c l     O .text	00000000 __EH_FRAME_BEGIN__
00000410 l     F .text	00000000 __do_global_dtors_aux
1ffff990 l       .bss	00000001 completed.8654
00005d40 l     O .fini_array	00000000 __do_global_dtors_aux_fini_array_entry
00000438 l     F .text	00000000 frame_dummy
1ffff994 l       .bss	00000018 object.8659
00005d3c l     O .init_array	00000000 __frame_dummy_init_array_entry
00000000 l    df *ABS*	00000000 c:/program files (x86)/gnu tools arm embedded/7 2017-q4-major/bin/../lib/gcc/arm-none-eabi/7.2.1/../../../../arm-none-eabi/lib/thumb/v6-m/crt0.o
00000000 l    df *ABS*	00000000 _udivsi3.o
0000051c l       .text	00000000 .udivsi3_skip_div0_test
00000000 l    df *ABS*	00000000 _divsi3.o
00000630 l       .text	00000000 .divsi3_skip_div0_test
00000000 l    df *ABS*	00000000 _dvmd_tls.o
00000000 l    df *ABS*	00000000 _aeabi_uldivmod.o
00000000 l    df *ABS*	00000000 libgcc2.c
00000000 l    df *ABS*	00000000 libgcc2.c
00000000 l    df *ABS*	00000000 adddf3.c
00000000 l    df *ABS*	00000000 divdf3.c
00000000 l    df *ABS*	00000000 muldf3.c
00000000 l    df *ABS*	00000000 subdf3.c
00000000 l    df *ABS*	00000000 floatsidf.c
00000000 l    df *ABS*	00000000 _clzsi2.o
00000000 l    df *ABS*	00000000 _clzdi2.o
00000000 l    df *ABS*	00000000 lib_a-strcmp.o
00000000 l    df *ABS*	00000000 lib_a-strlen.o
00000000 l    df *ABS*	00000000 isr.c
1ffff9ac l     O .bss	00000007 buf.6153
1ffff9b4 l     O .bss	00000002 dataLen.6162
1ffff9b6 l     O .bss	00000002 frameLen.6163
00000000 l    df *ABS*	00000000 main.c
00000000 l    df *ABS*	00000000 timeStamp.c
00000000 l    df *ABS*	00000000 common.c
00000000 l    df *ABS*	00000000 ueupdate.c
00002ce0 l     F .text	000000c0 updateDecode.part.0
00000000 l    df *ABS*	00000000 uecom.c
0000316c l     F .text	00000028 uecom_power.part.0
1ffff9bc l     O .bss	000000c8 AT_reBuf
1ffff9b8 l     O .bss	00000001 AT_haveCommand
1ffffa84 l     O .bss	00000001 AT_reLength
1ffffa88 l     O .bss	0000000f IMEI
1ffffa98 l     O .bss	0000000f IMSI
1ffffaa7 l     O .bss	00000001 flag.6216
1ffffaa8 l     O .bss	00000002 index.6218
1ffffaaa l     O .bss	00000002 length.6219
1ffffaac l     O .bss	00000002 recvLength.6217
00000000 l    df *ABS*	00000000 light.c
00000000 l    df *ABS*	00000000 bootloader.c
00000000 l    df *ABS*	00000000 system_MKL36Z4.c
00000000 l    df *ABS*	00000000 uart.c
00000000 l    df *ABS*	00000000 tsi.c
00000000 l    df *ABS*	00000000 systick.c
00000000 l    df *ABS*	00000000 spi.c
00000000 l    df *ABS*	00000000 lptmr.c
00000000 l    df *ABS*	00000000 i2c.c
00005ce4 l     O .text	00000008 I2C_BASE_TABLE
00005cec l     O .text	00000002 I2C_IRQ_TABLE
00000000 l    df *ABS*	00000000 gpio.c
00000000 l    df *ABS*	00000000 flash.c
00000000 l    df *ABS*	00000000 adc.c
00000000 l    df *ABS*	00000000 exit.c
00000000 l    df *ABS*	00000000 init.c
00000000 l    df *ABS*	00000000 memcpy-stub.c
00000000 l    df *ABS*	00000000 memset.c
00000000 l    df *ABS*	00000000 strcat.c
00000000 l    df *ABS*	00000000 strcpy.c
00000000 l    df *ABS*	00000000 strncmp.c
00000000 l    df *ABS*	00000000 strncpy.c
00000000 l    df *ABS*	00000000 strstr.c
00000000 l    df *ABS*	00000000 _exit.c
00000000 l    df *ABS*	00000000 impure.c
1ffff930 l     O .data	00000060 impure_data
00000000 l    df *ABS*	00000000 c:/program files (x86)/gnu tools arm embedded/7 2017-q4-major/bin/../lib/gcc/arm-none-eabi/7.2.1/thumb/v6-m/crti.o
00000000 l    df *ABS*	00000000 c:/program files (x86)/gnu tools arm embedded/7 2017-q4-major/bin/../lib/gcc/arm-none-eabi/7.2.1/thumb/v6-m/crtn.o
00000000 l    df *ABS*	00000000 
00005d40 l       .init_array	00000000 __init_array_end
00005d3c l       .init_array	00000000 __preinit_array_end
00005d3c l       .init_array	00000000 __init_array_start
00005d3c l       .init_array	00000000 __preinit_array_start
00005538 g     F .text	00000078 flash_write
1ffffd30 g       .heap	00000000 __HeapBase
0000584a g     F .text	00000010 strcpy
00005404 g     F .text	00000018 gpio_get_int
000055c0 g     F .text	00000008 flash_read_physical
0000546c g     F .text	00000028 gpio_drive_strength
1ffff800 g       .data	00000000 __data_start__
00000100 g       *ABS*	00000000 STACK_SIZE
00000514  w    F .text	00000004 I2C0_IRQHandler
00000514  w    F .text	00000004 HardFault_Handler
00004b68 g     F .text	0000002c SPI_sendN
000022bc g     F .text	0000001c SysTick_Handler
00004324 g     F .text	0000000c light_init
00000514  w    F .text	00000004 PendSV_Handler
00000514  w    F .text	00000004 NMI_Handler
00005d3c g       .ARM	00000000 __exidx_end
00000514  w    F .text	00000004 PORTC_PORTD_IRQHandler
000035fc g     F .text	00000584 uecom_gnssGetInfo
000045cc g     F .text	0000004e uart_sendN
00002e5c g     F .text	00000230 ueupdate_recv
00000514  w    F .text	00000004 I2C1_IRQHandler
0000230c g     F .text	00000032 UART1_IRQHandler
00006534 g       .fun_config	00000000 __etext
00004c5c g     F .text	00000020 disable_lptmr_int
00000514  w    F .text	00000004 DMA2_IRQHandler
00003360 g     F .text	00000034 uecom_linkBase
00004e1c g     F .text	0000015c I2C_readN
000046b8 g     F .text	00000048 uart_enable_re_int
00000514  w    F .text	00000004 TPM0_IRQHandler
000024c4 g     F .text	0000000e systemInfoGet
00000514  w    F .text	00000004 I2S0_IRQHandler
00000514  w    F .text	00000004 LLWU_IRQHandler
00000514  w    F .text	00000004 TSI0_IRQHandler
1ffff88c g     O .data	0000000e GPSACT_0
00003b80 g     F .text	00000158 uecom_httpGet
000022d8 g     F .text	00000032 UART0_IRQHandler
0000580c g     F .text	00000012 memcpy
000055c8 g     F .text	00000058 flash_protect
00002c8c g     F .text	0000001c enable_irq
00005d3c g       .init_array	00000000 __DTOR_END__
00004f78 g     F .text	0000009c I2C_rece1
00000808 g     F .text	0000003e .hidden __aeabi_uldivmod
1ffff928 g     O .data	00000004 SystemCoreClock
0000543c g     F .text	00000030 gpio_clear_allint
00000514  w    F .text	00000004 ADC0_IRQHandler
0000051c g     F .text	0000010a .hidden __udivsi3
1ffff990 g       .bss	00000000 __START_BSS
1ffff800 g     O .data	00000005 AT
000048e0 g     F .text	00000010 tsi_set_threshold
1fffff30 g       .heap	00000000 __HeapLimit
1ffff990 g       .bss	00000000 __bss_start__
00005198 g     F .text	00000094 I2C_writeN
00005014 g     F .text	00000108 I2C_receN
000054b8 g     F .text	00000080 flash_erase
0000001a g       *ABS*	00000000 __start_sector__
00000514  w    F .text	00000004 SPI1_IRQHandler
0000089c g     F .text	00000182 .hidden __udivmoddi4
1ffffab0 g     O .bss	000001f4 gRecvBuf
00000514  w    F .text	00000004 DefaultISR
00004700 g     F .text	00000048 uart_disable_re_int
1ffff914 g     O .data	00000010 HTTPSEND_0
1ffff904 g     O .data	0000000f HTTPREAD
00001058 g     F .text	00000604 .hidden __aeabi_ddiv
00003394 g     F .text	000000c4 uecom_linkCS
00005d34 g       .ARM	00000000 __exidx_start
0000165c g     F .text	000004e4 .hidden __aeabi_dmul
00005d18 g     O .text	00000004 _global_impure_ptr
00000848 g     F .text	00000054 .hidden __aeabi_lmul
000057c4 g     F .text	00000048 __libc_init_array
1ffffcb4 g     O .bss	00000002 uFrameNum
0000308c g     F .text	000000a8 updateEncode
00005494 g     F .text	00000024 flash_init
00000458 g     F .text	00000000 _mainCRTStartup
00004c40 g     F .text	0000001c enable_lptmr_int
00005d1c g     F .text	00000000 _init
00000514  w    F .text	00000004 TPM2_IRQHandler
1ffffcb6 g     O .bss	00000002 uCurFrame
00002c64 g     F .text	00000028 timeChange
00004930 g     F .text	0000001c tsi_softsearch
00000514  w    F .text	00000004 RTC_IRQHandler
00005d04 g     O .text	00000014 PORT_ARR
000004d0  w    F .text	00000044 Reset_Handler
00004be8 g     F .text	0000000c SPI_disable_re_int
00000514  w    F .text	00000004 LCD_IRQHandler
0000564c g     F .text	00000020 adc_read
00004748 g     F .text	00000034 uart_get_re_int
000046a8 g     F .text	00000010 uart_reN
00000a20 g     F .text	00000638 .hidden __aeabi_dadd
0000582e g     F .text	0000001c strcat
1ffff868 g     O .data	0000000e CIPCLOSE
1ffffcb8 g     O .bss	00000001 uSectNo
1ffff878 g     O .data	00000009 CSQ
00000514  w    F .text	00000004 RTC_Seconds_IRQHandler
00000630 g     F .text	00000000 .hidden __aeabi_idiv
00000514  w    F .text	00000004 MCG_IRQHandler
0000461c g     F .text	0000002e uart_send_string
000023dc g     F .text	000000c8 UART2_IRQHandler
00003f34 g     F .text	000000c0 frameEncode
1ffff8d4 g     O .data	00000012 GPSRESTART_3
1ffff990 g       .data	00000000 __data_end__
000024b8 g     F .text	0000000c systemTimeSet
00005d3c g       .init_array	00000000 __CTOR_LIST__
00000200 g       *ABS*	00000000 HEAP_SIZE
00002244 g     F .text	0000003c .hidden __clzsi2
00004430 g     F .text	00000150 uart_init
00004898 g     F .text	00000048 tsi_get_value16
1ffffd2c g       .bss	00000000 __bss_end__
00005300 g     F .text	00000018 gpio_get
00000514  w    F .text	00000004 Reserved20_IRQHandler
00004b94 g     F .text	0000001c SPI_receive1
00002af8 g     F .text	0000016c transformToDateString
1ffffca8 g     O .bss	00000008 gTime
00001b40 g     F .text	00000690 .hidden __aeabi_dsub
00000458 g     F .text	00000000 _start
000058a4 g     F .text	00000032 strstr
1ffffcb0 g     O .bss	00000002 gRecvLen
0000585a g     F .text	00000022 strncmp
00005cc4 g     O .text	00000008 UART_ARR
0000511c g     F .text	0000007c I2C_write1
0000494c g     F .text	00000054 systick_init
0000477c g     F .text	00000068 uart_deint
0000587c g     F .text	00000028 strncpy
00004910 g     F .text	00000020 tsi_disable_re_int
00004bf4 g     F .text	0000003c lptmr_init
00002624 g     F .text	000004d4 transformToDate
00004bb0 g     F .text	0000002c SPI_receiveN
00003ff4 g     F .text	000000e0 uecom_send
000021d0 g     F .text	00000074 .hidden __aeabi_i2d
000053bc g     F .text	00000048 gpio_disable_int
1ffff820 g     O .data	0000000f CGACT_1
1ffff830 g     O .data	0000001e CGDCONT
00000804  w    F .text	00000002 .hidden __aeabi_ldiv0
000055b0 g     F .text	0000000e flash_read_logic
1ffff92c g     O .data	00000003 table_irq_uart
00002cc4 g     F .text	0000001a Delay_ms
00004b34 g     F .text	00000034 SPI_send1
0000464c g     F .text	0000005c uart_re1
1ffff808 g     O .data	00000007 ATE_0
1ffff810 g     O .data	0000000e CCED_1
1ffff85c g     O .data	0000000a CIMI
1ffff924 g     O .data	00000003 OK
0000541c g     F .text	00000020 gpio_clear_int
00004338 g     F .text	00000008 light_change
0000581e g     F .text	00000010 memset
00000000 g       .interrupts	000000c0 __isr_vector
00002528 g     F .text	000000fc main
00000514  w    F .text	00000004 PIT_IRQHandler
0000051c g     F .text	00000000 .hidden __aeabi_uidiv
00000514  w    F .text	00000004 SVC_Handler
1ffff800 g       .data	00000000 __DATA_RAM
00004340 g     F .text	00000026 bootloader_goToUserApp
000048f0 g     F .text	00000020 tsi_enable_re_int
00004c30 g     F .text	00000010 lptmr_reset
00004d2c g     F .text	000000f0 I2C_read1
1ffffd30 g       .heap	00000000 __end__
00003194 g     F .text	00000030 uecom_power
00000630 g     F .text	000001cc .hidden __divsi3
00005d3c g       .init_array	00000000 __CTOR_END__
00000514  w    F .text	00000004 DMA3_IRQHandler
000040d4 g     F .text	00000204 uecom_recv
00002298 g     F .text	00000014 strcmp
000031c4 g     F .text	00000034 uecom_modelInfo
00005d3c g       .init_array	00000000 __DTOR_LIST__
1ffffd2c g       .bss	00000000 __END_BSS
00002da0 g     F .text	0000003c ueupdate_init
00004368 g     F .text	000000c8 SystemInit
00000514  w    F .text	00000004 DMA0_IRQHandler
00003134 g     F .text	00000038 ueupdate_back
1ffffcbc g     O .bss	00000004 uMSP
1ffff884 g     O .data	00000006 ERROR
00005d28 g     F .text	00000000 _fini
000024d4 g     F .text	00000054 updateJudge
00000514  w    F .text	00000004 DAC0_IRQHandler
00003458 g     F .text	0000011c uecom_baseInfo
200003f8 g       .stack	00000000 __StackTop
000056e0 g     F .text	000000b8 adc_init
000042d8 g     F .text	0000004c uecom_interrupt
1ffff800 g       .mtb	00000000 _mtb_end
000047e4 g     F .text	000000b4 tsi_init
00003d74 g     F .text	00000090 uecom_internal_getIMSI
1ffffcc0 g     O .bss	00000014 uCheck
1ffff850 g     O .data	0000000a CGSN
000066c4 g       *ABS*	00000000 __DATA_END
00005620 g     F .text	0000002a flash_isempty
0000536c g     F .text	00000050 gpio_enable_int
1ffff89c g     O .data	0000000e GPSACT_1
00000514  w    F .text	00000004 TPM1_IRQHandler
00002340 g     F .text	0000009c CreateFrame
00004c7c g     F .text	000000b0 I2C_init
00004330 g     F .text	00000008 light_control
200003f8 g       *ABS*	00000000 __stack
00000628 g     F .text	00000008 .hidden __aeabi_uidivmod
00000514  w    F .text	00000004 LVD_LVW_IRQHandler
00005334 g     F .text	00000038 gpio_pull
00000514  w    F .text	00000004 SPI0_IRQHandler
00000514  w    F .text	00000004 PORTA_IRQHandler
1ffff8c0 g     O .data	00000012 GPSRESTART_2
1ffffcd4 g     O .bss	00000001 uBackOrder
00000000 g       .interrupts	00000000 __VECTOR_TABLE
00006534 g       .fun_config	00000000 __DATA_ROM
200002f8 g       *ABS*	00000000 __StackLimit
000049a0 g     F .text	00000194 SPI_init
00005798 g     F .text	0000002c exit
00000514  w    F .text	00000004 FTFA_IRQHandler
000031f8 g     F .text	00000168 uecom_sendCmd
00005cf0 g     O .text	00000014 GPIO_ARR
00003574 g     F .text	00000088 uecom_gnssSwitch
1ffff800 g       .mtb	00000000 _mtb_start
00006400 g       .fun_config	00000134 FunConfig
00000514  w    F .text	00000004 Reserved40_IRQHandler
00003e84 g     F .text	00000040 uecom_default_delay_ms
00000804  w    F .text	00000002 .hidden __aeabi_idiv0
0000522c g     F .text	0000002c I2C_enable_re_int
000058d8 g     F .text	00000002 _exit
00005258 g     F .text	00000024 I2C_disable_re_int
00000514  w    F .text	00000004 LPTMR0_IRQHandler
1ffffcb2 g     O .bss	00000001 gFunFlag
00000848 g     F .text	00000054 .hidden __muldi3
000022ac g     F .text	0000000e strlen
0000566c g     F .text	00000074 adc_cal
00003ec4 g     F .text	00000070 uint_to_str
1ffffcd8 g     O .bss	00000053 ckdata
00004580 g     F .text	0000004c uart_send1
000024a4 g     F .text	00000014 systemTimeGet
000052d8 g     F .text	00000028 gpio_set
00005318 g     F .text	0000001c gpio_reverse
00003e04 g     F .text	00000080 uecom_init
0000527c g     F .text	0000005c gpio_init
00004bdc g     F .text	0000000c SPI_enable_re_int
00003cd8 g     F .text	0000009c uecom_internal_getIMEI
00002280 g     F .text	00000016 .hidden __clzdi2
00002ddc g     F .text	00000080 ueupdate_check
00000514  w    F .text	00000004 CMP0_IRQHandler
000007fc g     F .text	00000008 .hidden __aeabi_idivmod
1ffff8e8 g     O .data	0000000c GPSRMC
1ffff8ac g     O .data	00000012 GPSRESTART_1
1ffff8f4 g     O .data	0000000e HTTPINIT
00000514  w    F .text	00000004 DMA1_IRQHandler
00002ca8 g     F .text	0000001c disable_irq



Disassembly of section .text:

00000410 <__do_global_dtors_aux>:
__do_global_dtors_aux():
     410:	b510      	push	{r4, lr}
     412:	4c06      	ldr	r4, [pc, #24]	; (42c <__do_global_dtors_aux+0x1c>)
     414:	7823      	ldrb	r3, [r4, #0]
     416:	2b00      	cmp	r3, #0
     418:	d107      	bne.n	42a <__do_global_dtors_aux+0x1a>
     41a:	4b05      	ldr	r3, [pc, #20]	; (430 <__do_global_dtors_aux+0x20>)
     41c:	2b00      	cmp	r3, #0
     41e:	d002      	beq.n	426 <__do_global_dtors_aux+0x16>
     420:	4804      	ldr	r0, [pc, #16]	; (434 <__do_global_dtors_aux+0x24>)
     422:	e000      	b.n	426 <__do_global_dtors_aux+0x16>
     424:	bf00      	nop
     426:	2301      	movs	r3, #1
     428:	7023      	strb	r3, [r4, #0]
     42a:	bd10      	pop	{r4, pc}
     42c:	1ffff990 	.word	0x1ffff990
     430:	00000000 	.word	0x00000000
     434:	00005d1c 	.word	0x00005d1c

00000438 <frame_dummy>:
frame_dummy():
     438:	4b04      	ldr	r3, [pc, #16]	; (44c <frame_dummy+0x14>)
     43a:	b510      	push	{r4, lr}
     43c:	2b00      	cmp	r3, #0
     43e:	d003      	beq.n	448 <frame_dummy+0x10>
     440:	4903      	ldr	r1, [pc, #12]	; (450 <frame_dummy+0x18>)
     442:	4804      	ldr	r0, [pc, #16]	; (454 <frame_dummy+0x1c>)
     444:	e000      	b.n	448 <frame_dummy+0x10>
     446:	bf00      	nop
     448:	bd10      	pop	{r4, pc}
     44a:	46c0      	nop			; (mov r8, r8)
     44c:	00000000 	.word	0x00000000
     450:	1ffff994 	.word	0x1ffff994
     454:	00005d1c 	.word	0x00005d1c

00000458 <_mainCRTStartup>:
_start():
     458:	4b16      	ldr	r3, [pc, #88]	; (4b4 <_mainCRTStartup+0x5c>)
     45a:	2b00      	cmp	r3, #0
     45c:	d100      	bne.n	460 <_mainCRTStartup+0x8>
     45e:	4b14      	ldr	r3, [pc, #80]	; (4b0 <_mainCRTStartup+0x58>)
     460:	469d      	mov	sp, r3
     462:	2240      	movs	r2, #64	; 0x40
     464:	0292      	lsls	r2, r2, #10
     466:	1a9a      	subs	r2, r3, r2
     468:	4692      	mov	sl, r2
     46a:	2100      	movs	r1, #0
     46c:	468b      	mov	fp, r1
     46e:	460f      	mov	r7, r1
     470:	4813      	ldr	r0, [pc, #76]	; (4c0 <_mainCRTStartup+0x68>)
     472:	4a14      	ldr	r2, [pc, #80]	; (4c4 <_mainCRTStartup+0x6c>)
     474:	1a12      	subs	r2, r2, r0
     476:	f005 f9d2 	bl	581e <memset>
     47a:	4b0f      	ldr	r3, [pc, #60]	; (4b8 <_mainCRTStartup+0x60>)
     47c:	2b00      	cmp	r3, #0
     47e:	d000      	beq.n	482 <_mainCRTStartup+0x2a>
     480:	4798      	blx	r3
     482:	4b0e      	ldr	r3, [pc, #56]	; (4bc <_mainCRTStartup+0x64>)
     484:	2b00      	cmp	r3, #0
     486:	d000      	beq.n	48a <_mainCRTStartup+0x32>
     488:	4798      	blx	r3
     48a:	2000      	movs	r0, #0
     48c:	2100      	movs	r1, #0
     48e:	0004      	movs	r4, r0
     490:	000d      	movs	r5, r1
     492:	480d      	ldr	r0, [pc, #52]	; (4c8 <_mainCRTStartup+0x70>)
     494:	2800      	cmp	r0, #0
     496:	d002      	beq.n	49e <_mainCRTStartup+0x46>
     498:	480c      	ldr	r0, [pc, #48]	; (4cc <_mainCRTStartup+0x74>)
     49a:	e000      	b.n	49e <_mainCRTStartup+0x46>
     49c:	bf00      	nop
     49e:	f005 f991 	bl	57c4 <__libc_init_array>
     4a2:	0020      	movs	r0, r4
     4a4:	0029      	movs	r1, r5
     4a6:	f002 f83f 	bl	2528 <main>
     4aa:	f005 f975 	bl	5798 <exit>
     4ae:	46c0      	nop			; (mov r8, r8)
     4b0:	00080000 	.word	0x00080000
     4b4:	200003f8 	.word	0x200003f8
	...
     4c0:	1ffff990 	.word	0x1ffff990
     4c4:	1ffffd2c 	.word	0x1ffffd2c
	...

000004d0 <Reset_Handler>:
Reset_Handler():
E:\2017-2018\03_Graduation Project\04_Software\05_Wangshi\02_6220\06_UpdateSoftware-180714\01_UEBootloader\KL36_Bios-180714\Debug/../03_MCU/startup/startup_MKL36Z4.S:213
    .align 2
    .globl   Reset_Handler
    .weak    Reset_Handler
    .type    Reset_Handler, %function
Reset_Handler:
    cpsid   i               /* Mask interrupts */
     4d0:	b672      	cpsid	i
E:\2017-2018\03_Graduation Project\04_Software\05_Wangshi\02_6220\06_UpdateSoftware-180714\01_UEBootloader\KL36_Bios-180714\Debug/../03_MCU/startup/startup_MKL36Z4.S:215
#ifndef __NO_SYSTEM_INIT
    bl SystemInit
     4d2:	f003 ff49 	bl	4368 <SystemInit>
E:\2017-2018\03_Graduation Project\04_Software\05_Wangshi\02_6220\06_UpdateSoftware-180714\01_UEBootloader\KL36_Bios-180714\Debug/../03_MCU/startup/startup_MKL36Z4.S:217
#endif
    cpsie   i               /* Unmask interrupts */
     4d6:	b662      	cpsie	i
E:\2017-2018\03_Graduation Project\04_Software\05_Wangshi\02_6220\06_UpdateSoftware-180714\01_UEBootloader\KL36_Bios-180714\Debug/../03_MCU/startup/startup_MKL36Z4.S:225
 *      linker script.
 *      __etext: End of code section, i.e., begin of data sections to copy from.
 *      __data_start__/__data_end__: RAM address range that data should be
 *      copied to. Both must be aligned to 4 bytes boundary.  */

    ldr    r1, =__etext
     4d8:	4909      	ldr	r1, [pc, #36]	; (500 <Reset_Handler+0x30>)
E:\2017-2018\03_Graduation Project\04_Software\05_Wangshi\02_6220\06_UpdateSoftware-180714\01_UEBootloader\KL36_Bios-180714\Debug/../03_MCU/startup/startup_MKL36Z4.S:226
    ldr    r2, =__data_start__
     4da:	4a0a      	ldr	r2, [pc, #40]	; (504 <Reset_Handler+0x34>)
E:\2017-2018\03_Graduation Project\04_Software\05_Wangshi\02_6220\06_UpdateSoftware-180714\01_UEBootloader\KL36_Bios-180714\Debug/../03_MCU/startup/startup_MKL36Z4.S:227
    ldr    r3, =__data_end__
     4dc:	4b0a      	ldr	r3, [pc, #40]	; (508 <Reset_Handler+0x38>)
E:\2017-2018\03_Graduation Project\04_Software\05_Wangshi\02_6220\06_UpdateSoftware-180714\01_UEBootloader\KL36_Bios-180714\Debug/../03_MCU/startup/startup_MKL36Z4.S:229

    subs    r3, r2
     4de:	1a9b      	subs	r3, r3, r2
E:\2017-2018\03_Graduation Project\04_Software\05_Wangshi\02_6220\06_UpdateSoftware-180714\01_UEBootloader\KL36_Bios-180714\Debug/../03_MCU/startup/startup_MKL36Z4.S:230
    ble     .LC0
     4e0:	dd03      	ble.n	4ea <Reset_Handler+0x1a>
E:\2017-2018\03_Graduation Project\04_Software\05_Wangshi\02_6220\06_UpdateSoftware-180714\01_UEBootloader\KL36_Bios-180714\Debug/../03_MCU/startup/startup_MKL36Z4.S:233

.LC1:
    subs    r3, 4
     4e2:	3b04      	subs	r3, #4
E:\2017-2018\03_Graduation Project\04_Software\05_Wangshi\02_6220\06_UpdateSoftware-180714\01_UEBootloader\KL36_Bios-180714\Debug/../03_MCU/startup/startup_MKL36Z4.S:234
    ldr    r0, [r1,r3]
     4e4:	58c8      	ldr	r0, [r1, r3]
E:\2017-2018\03_Graduation Project\04_Software\05_Wangshi\02_6220\06_UpdateSoftware-180714\01_UEBootloader\KL36_Bios-180714\Debug/../03_MCU/startup/startup_MKL36Z4.S:235
    str    r0, [r2,r3]
     4e6:	50d0      	str	r0, [r2, r3]
E:\2017-2018\03_Graduation Project\04_Software\05_Wangshi\02_6220\06_UpdateSoftware-180714\01_UEBootloader\KL36_Bios-180714\Debug/../03_MCU/startup/startup_MKL36Z4.S:236
    bgt    .LC1
     4e8:	dcfb      	bgt.n	4e2 <Reset_Handler+0x12>
E:\2017-2018\03_Graduation Project\04_Software\05_Wangshi\02_6220\06_UpdateSoftware-180714\01_UEBootloader\KL36_Bios-180714\Debug/../03_MCU/startup/startup_MKL36Z4.S:249
 *     Loop to zero out BSS section, which uses following symbols
 *     in linker script:
 *      __bss_start__: start of BSS section. Must align to 4
 *      __bss_end__: end of BSS section. Must align to 4
 */
    ldr r1, =__bss_start__
     4ea:	4908      	ldr	r1, [pc, #32]	; (50c <Reset_Handler+0x3c>)
E:\2017-2018\03_Graduation Project\04_Software\05_Wangshi\02_6220\06_UpdateSoftware-180714\01_UEBootloader\KL36_Bios-180714\Debug/../03_MCU/startup/startup_MKL36Z4.S:250
    ldr r2, =__bss_end__
     4ec:	4a08      	ldr	r2, [pc, #32]	; (510 <Reset_Handler+0x40>)
E:\2017-2018\03_Graduation Project\04_Software\05_Wangshi\02_6220\06_UpdateSoftware-180714\01_UEBootloader\KL36_Bios-180714\Debug/../03_MCU/startup/startup_MKL36Z4.S:252

    subs    r2, r1
     4ee:	1a52      	subs	r2, r2, r1
E:\2017-2018\03_Graduation Project\04_Software\05_Wangshi\02_6220\06_UpdateSoftware-180714\01_UEBootloader\KL36_Bios-180714\Debug/../03_MCU/startup/startup_MKL36Z4.S:253
    ble .LC3
     4f0:	dd03      	ble.n	4fa <Reset_Handler+0x2a>
E:\2017-2018\03_Graduation Project\04_Software\05_Wangshi\02_6220\06_UpdateSoftware-180714\01_UEBootloader\KL36_Bios-180714\Debug/../03_MCU/startup/startup_MKL36Z4.S:255

    movs    r0, 0
     4f2:	2000      	movs	r0, #0
E:\2017-2018\03_Graduation Project\04_Software\05_Wangshi\02_6220\06_UpdateSoftware-180714\01_UEBootloader\KL36_Bios-180714\Debug/../03_MCU/startup/startup_MKL36Z4.S:257
.LC2:
    str r0, [r1, r2]
     4f4:	5088      	str	r0, [r1, r2]
E:\2017-2018\03_Graduation Project\04_Software\05_Wangshi\02_6220\06_UpdateSoftware-180714\01_UEBootloader\KL36_Bios-180714\Debug/../03_MCU/startup/startup_MKL36Z4.S:258
    subs    r2, 4
     4f6:	3a04      	subs	r2, #4
E:\2017-2018\03_Graduation Project\04_Software\05_Wangshi\02_6220\06_UpdateSoftware-180714\01_UEBootloader\KL36_Bios-180714\Debug/../03_MCU/startup/startup_MKL36Z4.S:259
    bge .LC2
     4f8:	dafc      	bge.n	4f4 <Reset_Handler+0x24>
E:\2017-2018\03_Graduation Project\04_Software\05_Wangshi\02_6220\06_UpdateSoftware-180714\01_UEBootloader\KL36_Bios-180714\Debug/../03_MCU/startup/startup_MKL36Z4.S:265
.LC3:
#endif
#ifndef __START
#define __START _start
#endif
    bl    __START
     4fa:	f7ff ffad 	bl	458 <_mainCRTStartup>
     4fe:	0000      	.short	0x0000
E:\2017-2018\03_Graduation Project\04_Software\05_Wangshi\02_6220\06_UpdateSoftware-180714\01_UEBootloader\KL36_Bios-180714\Debug/../03_MCU/startup/startup_MKL36Z4.S:225
    ldr    r1, =__etext
     500:	00006534 	.word	0x00006534
E:\2017-2018\03_Graduation Project\04_Software\05_Wangshi\02_6220\06_UpdateSoftware-180714\01_UEBootloader\KL36_Bios-180714\Debug/../03_MCU/startup/startup_MKL36Z4.S:226
    ldr    r2, =__data_start__
     504:	1ffff800 	.word	0x1ffff800
E:\2017-2018\03_Graduation Project\04_Software\05_Wangshi\02_6220\06_UpdateSoftware-180714\01_UEBootloader\KL36_Bios-180714\Debug/../03_MCU/startup/startup_MKL36Z4.S:227
    ldr    r3, =__data_end__
     508:	1ffff990 	.word	0x1ffff990
E:\2017-2018\03_Graduation Project\04_Software\05_Wangshi\02_6220\06_UpdateSoftware-180714\01_UEBootloader\KL36_Bios-180714\Debug/../03_MCU/startup/startup_MKL36Z4.S:249
    ldr r1, =__bss_start__
     50c:	1ffff990 	.word	0x1ffff990
E:\2017-2018\03_Graduation Project\04_Software\05_Wangshi\02_6220\06_UpdateSoftware-180714\01_UEBootloader\KL36_Bios-180714\Debug/../03_MCU/startup/startup_MKL36Z4.S:250
    ldr r2, =__bss_end__
     510:	1ffffd2c 	.word	0x1ffffd2c

00000514 <ADC0_IRQHandler>:
DMA1_IRQHandler():
E:\2017-2018\03_Graduation Project\04_Software\05_Wangshi\02_6220\06_UpdateSoftware-180714\01_UEBootloader\KL36_Bios-180714\Debug/../03_MCU/startup/startup_MKL36Z4.S:274
    .align	1
    .thumb_func
    .weak DefaultISR
    .type DefaultISR, %function
DefaultISR:
    ldr	r0, =DefaultISR
     514:	4800      	ldr	r0, [pc, #0]	; (518 <ADC0_IRQHandler+0x4>)
E:\2017-2018\03_Graduation Project\04_Software\05_Wangshi\02_6220\06_UpdateSoftware-180714\01_UEBootloader\KL36_Bios-180714\Debug/../03_MCU/startup/startup_MKL36Z4.S:275
    bx r0
     516:	4700      	bx	r0
E:\2017-2018\03_Graduation Project\04_Software\05_Wangshi\02_6220\06_UpdateSoftware-180714\01_UEBootloader\KL36_Bios-180714\Debug/../03_MCU/startup/startup_MKL36Z4.S:274
    ldr	r0, =DefaultISR
     518:	00000515 	.word	0x00000515

0000051c <__udivsi3>:
__aeabi_uidiv():
     51c:	2200      	movs	r2, #0
     51e:	0843      	lsrs	r3, r0, #1
     520:	428b      	cmp	r3, r1
     522:	d374      	bcc.n	60e <__udivsi3+0xf2>
     524:	0903      	lsrs	r3, r0, #4
     526:	428b      	cmp	r3, r1
     528:	d35f      	bcc.n	5ea <__udivsi3+0xce>
     52a:	0a03      	lsrs	r3, r0, #8
     52c:	428b      	cmp	r3, r1
     52e:	d344      	bcc.n	5ba <__udivsi3+0x9e>
     530:	0b03      	lsrs	r3, r0, #12
     532:	428b      	cmp	r3, r1
     534:	d328      	bcc.n	588 <__udivsi3+0x6c>
     536:	0c03      	lsrs	r3, r0, #16
     538:	428b      	cmp	r3, r1
     53a:	d30d      	bcc.n	558 <__udivsi3+0x3c>
     53c:	22ff      	movs	r2, #255	; 0xff
     53e:	0209      	lsls	r1, r1, #8
     540:	ba12      	rev	r2, r2
     542:	0c03      	lsrs	r3, r0, #16
     544:	428b      	cmp	r3, r1
     546:	d302      	bcc.n	54e <__udivsi3+0x32>
     548:	1212      	asrs	r2, r2, #8
     54a:	0209      	lsls	r1, r1, #8
     54c:	d065      	beq.n	61a <__udivsi3+0xfe>
     54e:	0b03      	lsrs	r3, r0, #12
     550:	428b      	cmp	r3, r1
     552:	d319      	bcc.n	588 <__udivsi3+0x6c>
     554:	e000      	b.n	558 <__udivsi3+0x3c>
     556:	0a09      	lsrs	r1, r1, #8
     558:	0bc3      	lsrs	r3, r0, #15
     55a:	428b      	cmp	r3, r1
     55c:	d301      	bcc.n	562 <__udivsi3+0x46>
     55e:	03cb      	lsls	r3, r1, #15
     560:	1ac0      	subs	r0, r0, r3
     562:	4152      	adcs	r2, r2
     564:	0b83      	lsrs	r3, r0, #14
     566:	428b      	cmp	r3, r1
     568:	d301      	bcc.n	56e <__udivsi3+0x52>
     56a:	038b      	lsls	r3, r1, #14
     56c:	1ac0      	subs	r0, r0, r3
     56e:	4152      	adcs	r2, r2
     570:	0b43      	lsrs	r3, r0, #13
     572:	428b      	cmp	r3, r1
     574:	d301      	bcc.n	57a <__udivsi3+0x5e>
     576:	034b      	lsls	r3, r1, #13
     578:	1ac0      	subs	r0, r0, r3
     57a:	4152      	adcs	r2, r2
     57c:	0b03      	lsrs	r3, r0, #12
     57e:	428b      	cmp	r3, r1
     580:	d301      	bcc.n	586 <__udivsi3+0x6a>
     582:	030b      	lsls	r3, r1, #12
     584:	1ac0      	subs	r0, r0, r3
     586:	4152      	adcs	r2, r2
     588:	0ac3      	lsrs	r3, r0, #11
     58a:	428b      	cmp	r3, r1
     58c:	d301      	bcc.n	592 <__udivsi3+0x76>
     58e:	02cb      	lsls	r3, r1, #11
     590:	1ac0      	subs	r0, r0, r3
     592:	4152      	adcs	r2, r2
     594:	0a83      	lsrs	r3, r0, #10
     596:	428b      	cmp	r3, r1
     598:	d301      	bcc.n	59e <__udivsi3+0x82>
     59a:	028b      	lsls	r3, r1, #10
     59c:	1ac0      	subs	r0, r0, r3
     59e:	4152      	adcs	r2, r2
     5a0:	0a43      	lsrs	r3, r0, #9
     5a2:	428b      	cmp	r3, r1
     5a4:	d301      	bcc.n	5aa <__udivsi3+0x8e>
     5a6:	024b      	lsls	r3, r1, #9
     5a8:	1ac0      	subs	r0, r0, r3
     5aa:	4152      	adcs	r2, r2
     5ac:	0a03      	lsrs	r3, r0, #8
     5ae:	428b      	cmp	r3, r1
     5b0:	d301      	bcc.n	5b6 <__udivsi3+0x9a>
     5b2:	020b      	lsls	r3, r1, #8
     5b4:	1ac0      	subs	r0, r0, r3
     5b6:	4152      	adcs	r2, r2
     5b8:	d2cd      	bcs.n	556 <__udivsi3+0x3a>
     5ba:	09c3      	lsrs	r3, r0, #7
     5bc:	428b      	cmp	r3, r1
     5be:	d301      	bcc.n	5c4 <__udivsi3+0xa8>
     5c0:	01cb      	lsls	r3, r1, #7
     5c2:	1ac0      	subs	r0, r0, r3
     5c4:	4152      	adcs	r2, r2
     5c6:	0983      	lsrs	r3, r0, #6
     5c8:	428b      	cmp	r3, r1
     5ca:	d301      	bcc.n	5d0 <__udivsi3+0xb4>
     5cc:	018b      	lsls	r3, r1, #6
     5ce:	1ac0      	subs	r0, r0, r3
     5d0:	4152      	adcs	r2, r2
     5d2:	0943      	lsrs	r3, r0, #5
     5d4:	428b      	cmp	r3, r1
     5d6:	d301      	bcc.n	5dc <__udivsi3+0xc0>
     5d8:	014b      	lsls	r3, r1, #5
     5da:	1ac0      	subs	r0, r0, r3
     5dc:	4152      	adcs	r2, r2
     5de:	0903      	lsrs	r3, r0, #4
     5e0:	428b      	cmp	r3, r1
     5e2:	d301      	bcc.n	5e8 <__udivsi3+0xcc>
     5e4:	010b      	lsls	r3, r1, #4
     5e6:	1ac0      	subs	r0, r0, r3
     5e8:	4152      	adcs	r2, r2
     5ea:	08c3      	lsrs	r3, r0, #3
     5ec:	428b      	cmp	r3, r1
     5ee:	d301      	bcc.n	5f4 <__udivsi3+0xd8>
     5f0:	00cb      	lsls	r3, r1, #3
     5f2:	1ac0      	subs	r0, r0, r3
     5f4:	4152      	adcs	r2, r2
     5f6:	0883      	lsrs	r3, r0, #2
     5f8:	428b      	cmp	r3, r1
     5fa:	d301      	bcc.n	600 <__udivsi3+0xe4>
     5fc:	008b      	lsls	r3, r1, #2
     5fe:	1ac0      	subs	r0, r0, r3
     600:	4152      	adcs	r2, r2
     602:	0843      	lsrs	r3, r0, #1
     604:	428b      	cmp	r3, r1
     606:	d301      	bcc.n	60c <__udivsi3+0xf0>
     608:	004b      	lsls	r3, r1, #1
     60a:	1ac0      	subs	r0, r0, r3
     60c:	4152      	adcs	r2, r2
     60e:	1a41      	subs	r1, r0, r1
     610:	d200      	bcs.n	614 <__udivsi3+0xf8>
     612:	4601      	mov	r1, r0
     614:	4152      	adcs	r2, r2
     616:	4610      	mov	r0, r2
     618:	4770      	bx	lr
     61a:	e7ff      	b.n	61c <__udivsi3+0x100>
     61c:	b501      	push	{r0, lr}
     61e:	2000      	movs	r0, #0
     620:	f000 f8f0 	bl	804 <__aeabi_idiv0>
     624:	bd02      	pop	{r1, pc}
     626:	46c0      	nop			; (mov r8, r8)

00000628 <__aeabi_uidivmod>:
__aeabi_uidivmod():
     628:	2900      	cmp	r1, #0
     62a:	d0f7      	beq.n	61c <__udivsi3+0x100>
     62c:	e776      	b.n	51c <__udivsi3>
     62e:	4770      	bx	lr

00000630 <__divsi3>:
__divsi3():
     630:	4603      	mov	r3, r0
     632:	430b      	orrs	r3, r1
     634:	d47f      	bmi.n	736 <__divsi3+0x106>
     636:	2200      	movs	r2, #0
     638:	0843      	lsrs	r3, r0, #1
     63a:	428b      	cmp	r3, r1
     63c:	d374      	bcc.n	728 <__divsi3+0xf8>
     63e:	0903      	lsrs	r3, r0, #4
     640:	428b      	cmp	r3, r1
     642:	d35f      	bcc.n	704 <__divsi3+0xd4>
     644:	0a03      	lsrs	r3, r0, #8
     646:	428b      	cmp	r3, r1
     648:	d344      	bcc.n	6d4 <__divsi3+0xa4>
     64a:	0b03      	lsrs	r3, r0, #12
     64c:	428b      	cmp	r3, r1
     64e:	d328      	bcc.n	6a2 <__divsi3+0x72>
     650:	0c03      	lsrs	r3, r0, #16
     652:	428b      	cmp	r3, r1
     654:	d30d      	bcc.n	672 <__divsi3+0x42>
     656:	22ff      	movs	r2, #255	; 0xff
     658:	0209      	lsls	r1, r1, #8
     65a:	ba12      	rev	r2, r2
     65c:	0c03      	lsrs	r3, r0, #16
     65e:	428b      	cmp	r3, r1
     660:	d302      	bcc.n	668 <__divsi3+0x38>
     662:	1212      	asrs	r2, r2, #8
     664:	0209      	lsls	r1, r1, #8
     666:	d065      	beq.n	734 <__divsi3+0x104>
     668:	0b03      	lsrs	r3, r0, #12
     66a:	428b      	cmp	r3, r1
     66c:	d319      	bcc.n	6a2 <__divsi3+0x72>
     66e:	e000      	b.n	672 <__divsi3+0x42>
     670:	0a09      	lsrs	r1, r1, #8
     672:	0bc3      	lsrs	r3, r0, #15
     674:	428b      	cmp	r3, r1
     676:	d301      	bcc.n	67c <__divsi3+0x4c>
     678:	03cb      	lsls	r3, r1, #15
     67a:	1ac0      	subs	r0, r0, r3
     67c:	4152      	adcs	r2, r2
     67e:	0b83      	lsrs	r3, r0, #14
     680:	428b      	cmp	r3, r1
     682:	d301      	bcc.n	688 <__divsi3+0x58>
     684:	038b      	lsls	r3, r1, #14
     686:	1ac0      	subs	r0, r0, r3
     688:	4152      	adcs	r2, r2
     68a:	0b43      	lsrs	r3, r0, #13
     68c:	428b      	cmp	r3, r1
     68e:	d301      	bcc.n	694 <__divsi3+0x64>
     690:	034b      	lsls	r3, r1, #13
     692:	1ac0      	subs	r0, r0, r3
     694:	4152      	adcs	r2, r2
     696:	0b03      	lsrs	r3, r0, #12
     698:	428b      	cmp	r3, r1
     69a:	d301      	bcc.n	6a0 <__divsi3+0x70>
     69c:	030b      	lsls	r3, r1, #12
     69e:	1ac0      	subs	r0, r0, r3
     6a0:	4152      	adcs	r2, r2
     6a2:	0ac3      	lsrs	r3, r0, #11
     6a4:	428b      	cmp	r3, r1
     6a6:	d301      	bcc.n	6ac <__divsi3+0x7c>
     6a8:	02cb      	lsls	r3, r1, #11
     6aa:	1ac0      	subs	r0, r0, r3
     6ac:	4152      	adcs	r2, r2
     6ae:	0a83      	lsrs	r3, r0, #10
     6b0:	428b      	cmp	r3, r1
     6b2:	d301      	bcc.n	6b8 <__divsi3+0x88>
     6b4:	028b      	lsls	r3, r1, #10
     6b6:	1ac0      	subs	r0, r0, r3
     6b8:	4152      	adcs	r2, r2
     6ba:	0a43      	lsrs	r3, r0, #9
     6bc:	428b      	cmp	r3, r1
     6be:	d301      	bcc.n	6c4 <__divsi3+0x94>
     6c0:	024b      	lsls	r3, r1, #9
     6c2:	1ac0      	subs	r0, r0, r3
     6c4:	4152      	adcs	r2, r2
     6c6:	0a03      	lsrs	r3, r0, #8
     6c8:	428b      	cmp	r3, r1
     6ca:	d301      	bcc.n	6d0 <__divsi3+0xa0>
     6cc:	020b      	lsls	r3, r1, #8
     6ce:	1ac0      	subs	r0, r0, r3
     6d0:	4152      	adcs	r2, r2
     6d2:	d2cd      	bcs.n	670 <__divsi3+0x40>
     6d4:	09c3      	lsrs	r3, r0, #7
     6d6:	428b      	cmp	r3, r1
     6d8:	d301      	bcc.n	6de <__divsi3+0xae>
     6da:	01cb      	lsls	r3, r1, #7
     6dc:	1ac0      	subs	r0, r0, r3
     6de:	4152      	adcs	r2, r2
     6e0:	0983      	lsrs	r3, r0, #6
     6e2:	428b      	cmp	r3, r1
     6e4:	d301      	bcc.n	6ea <__divsi3+0xba>
     6e6:	018b      	lsls	r3, r1, #6
     6e8:	1ac0      	subs	r0, r0, r3
     6ea:	4152      	adcs	r2, r2
     6ec:	0943      	lsrs	r3, r0, #5
     6ee:	428b      	cmp	r3, r1
     6f0:	d301      	bcc.n	6f6 <__divsi3+0xc6>
     6f2:	014b      	lsls	r3, r1, #5
     6f4:	1ac0      	subs	r0, r0, r3
     6f6:	4152      	adcs	r2, r2
     6f8:	0903      	lsrs	r3, r0, #4
     6fa:	428b      	cmp	r3, r1
     6fc:	d301      	bcc.n	702 <__divsi3+0xd2>
     6fe:	010b      	lsls	r3, r1, #4
     700:	1ac0      	subs	r0, r0, r3
     702:	4152      	adcs	r2, r2
     704:	08c3      	lsrs	r3, r0, #3
     706:	428b      	cmp	r3, r1
     708:	d301      	bcc.n	70e <__divsi3+0xde>
     70a:	00cb      	lsls	r3, r1, #3
     70c:	1ac0      	subs	r0, r0, r3
     70e:	4152      	adcs	r2, r2
     710:	0883      	lsrs	r3, r0, #2
     712:	428b      	cmp	r3, r1
     714:	d301      	bcc.n	71a <__divsi3+0xea>
     716:	008b      	lsls	r3, r1, #2
     718:	1ac0      	subs	r0, r0, r3
     71a:	4152      	adcs	r2, r2
     71c:	0843      	lsrs	r3, r0, #1
     71e:	428b      	cmp	r3, r1
     720:	d301      	bcc.n	726 <__divsi3+0xf6>
     722:	004b      	lsls	r3, r1, #1
     724:	1ac0      	subs	r0, r0, r3
     726:	4152      	adcs	r2, r2
     728:	1a41      	subs	r1, r0, r1
     72a:	d200      	bcs.n	72e <__divsi3+0xfe>
     72c:	4601      	mov	r1, r0
     72e:	4152      	adcs	r2, r2
     730:	4610      	mov	r0, r2
     732:	4770      	bx	lr
     734:	e05d      	b.n	7f2 <__divsi3+0x1c2>
     736:	0fca      	lsrs	r2, r1, #31
     738:	d000      	beq.n	73c <__divsi3+0x10c>
     73a:	4249      	negs	r1, r1
     73c:	1003      	asrs	r3, r0, #32
     73e:	d300      	bcc.n	742 <__divsi3+0x112>
     740:	4240      	negs	r0, r0
     742:	4053      	eors	r3, r2
     744:	2200      	movs	r2, #0
     746:	469c      	mov	ip, r3
     748:	0903      	lsrs	r3, r0, #4
     74a:	428b      	cmp	r3, r1
     74c:	d32d      	bcc.n	7aa <__divsi3+0x17a>
     74e:	0a03      	lsrs	r3, r0, #8
     750:	428b      	cmp	r3, r1
     752:	d312      	bcc.n	77a <__divsi3+0x14a>
     754:	22fc      	movs	r2, #252	; 0xfc
     756:	0189      	lsls	r1, r1, #6
     758:	ba12      	rev	r2, r2
     75a:	0a03      	lsrs	r3, r0, #8
     75c:	428b      	cmp	r3, r1
     75e:	d30c      	bcc.n	77a <__divsi3+0x14a>
     760:	0189      	lsls	r1, r1, #6
     762:	1192      	asrs	r2, r2, #6
     764:	428b      	cmp	r3, r1
     766:	d308      	bcc.n	77a <__divsi3+0x14a>
     768:	0189      	lsls	r1, r1, #6
     76a:	1192      	asrs	r2, r2, #6
     76c:	428b      	cmp	r3, r1
     76e:	d304      	bcc.n	77a <__divsi3+0x14a>
     770:	0189      	lsls	r1, r1, #6
     772:	d03a      	beq.n	7ea <__divsi3+0x1ba>
     774:	1192      	asrs	r2, r2, #6
     776:	e000      	b.n	77a <__divsi3+0x14a>
     778:	0989      	lsrs	r1, r1, #6
     77a:	09c3      	lsrs	r3, r0, #7
     77c:	428b      	cmp	r3, r1
     77e:	d301      	bcc.n	784 <__divsi3+0x154>
     780:	01cb      	lsls	r3, r1, #7
     782:	1ac0      	subs	r0, r0, r3
     784:	4152      	adcs	r2, r2
     786:	0983      	lsrs	r3, r0, #6
     788:	428b      	cmp	r3, r1
     78a:	d301      	bcc.n	790 <__divsi3+0x160>
     78c:	018b      	lsls	r3, r1, #6
     78e:	1ac0      	subs	r0, r0, r3
     790:	4152      	adcs	r2, r2
     792:	0943      	lsrs	r3, r0, #5
     794:	428b      	cmp	r3, r1
     796:	d301      	bcc.n	79c <__divsi3+0x16c>
     798:	014b      	lsls	r3, r1, #5
     79a:	1ac0      	subs	r0, r0, r3
     79c:	4152      	adcs	r2, r2
     79e:	0903      	lsrs	r3, r0, #4
     7a0:	428b      	cmp	r3, r1
     7a2:	d301      	bcc.n	7a8 <__divsi3+0x178>
     7a4:	010b      	lsls	r3, r1, #4
     7a6:	1ac0      	subs	r0, r0, r3
     7a8:	4152      	adcs	r2, r2
     7aa:	08c3      	lsrs	r3, r0, #3
     7ac:	428b      	cmp	r3, r1
     7ae:	d301      	bcc.n	7b4 <__divsi3+0x184>
     7b0:	00cb      	lsls	r3, r1, #3
     7b2:	1ac0      	subs	r0, r0, r3
     7b4:	4152      	adcs	r2, r2
     7b6:	0883      	lsrs	r3, r0, #2
     7b8:	428b      	cmp	r3, r1
     7ba:	d301      	bcc.n	7c0 <__divsi3+0x190>
     7bc:	008b      	lsls	r3, r1, #2
     7be:	1ac0      	subs	r0, r0, r3
     7c0:	4152      	adcs	r2, r2
     7c2:	d2d9      	bcs.n	778 <__divsi3+0x148>
     7c4:	0843      	lsrs	r3, r0, #1
     7c6:	428b      	cmp	r3, r1
     7c8:	d301      	bcc.n	7ce <__divsi3+0x19e>
     7ca:	004b      	lsls	r3, r1, #1
     7cc:	1ac0      	subs	r0, r0, r3
     7ce:	4152      	adcs	r2, r2
     7d0:	1a41      	subs	r1, r0, r1
     7d2:	d200      	bcs.n	7d6 <__divsi3+0x1a6>
     7d4:	4601      	mov	r1, r0
     7d6:	4663      	mov	r3, ip
     7d8:	4152      	adcs	r2, r2
     7da:	105b      	asrs	r3, r3, #1
     7dc:	4610      	mov	r0, r2
     7de:	d301      	bcc.n	7e4 <__divsi3+0x1b4>
     7e0:	4240      	negs	r0, r0
     7e2:	2b00      	cmp	r3, #0
     7e4:	d500      	bpl.n	7e8 <__divsi3+0x1b8>
     7e6:	4249      	negs	r1, r1
     7e8:	4770      	bx	lr
     7ea:	4663      	mov	r3, ip
     7ec:	105b      	asrs	r3, r3, #1
     7ee:	d300      	bcc.n	7f2 <__divsi3+0x1c2>
     7f0:	4240      	negs	r0, r0
     7f2:	b501      	push	{r0, lr}
     7f4:	2000      	movs	r0, #0
     7f6:	f000 f805 	bl	804 <__aeabi_idiv0>
     7fa:	bd02      	pop	{r1, pc}

000007fc <__aeabi_idivmod>:
__aeabi_idivmod():
     7fc:	2900      	cmp	r1, #0
     7fe:	d0f8      	beq.n	7f2 <__divsi3+0x1c2>
     800:	e716      	b.n	630 <__divsi3>
     802:	4770      	bx	lr

00000804 <__aeabi_idiv0>:
__aeabi_idiv0():
     804:	4770      	bx	lr
     806:	46c0      	nop			; (mov r8, r8)

00000808 <__aeabi_uldivmod>:
__aeabi_uldivmod():
     808:	2b00      	cmp	r3, #0
     80a:	d111      	bne.n	830 <__aeabi_uldivmod+0x28>
     80c:	2a00      	cmp	r2, #0
     80e:	d10f      	bne.n	830 <__aeabi_uldivmod+0x28>
     810:	2900      	cmp	r1, #0
     812:	d100      	bne.n	816 <__aeabi_uldivmod+0xe>
     814:	2800      	cmp	r0, #0
     816:	d002      	beq.n	81e <__aeabi_uldivmod+0x16>
     818:	2100      	movs	r1, #0
     81a:	43c9      	mvns	r1, r1
     81c:	1c08      	adds	r0, r1, #0
     81e:	b407      	push	{r0, r1, r2}
     820:	4802      	ldr	r0, [pc, #8]	; (82c <__aeabi_uldivmod+0x24>)
     822:	a102      	add	r1, pc, #8	; (adr r1, 82c <__aeabi_uldivmod+0x24>)
     824:	1840      	adds	r0, r0, r1
     826:	9002      	str	r0, [sp, #8]
     828:	bd03      	pop	{r0, r1, pc}
     82a:	46c0      	nop			; (mov r8, r8)
     82c:	ffffffd9 	.word	0xffffffd9
     830:	b403      	push	{r0, r1}
     832:	4668      	mov	r0, sp
     834:	b501      	push	{r0, lr}
     836:	9802      	ldr	r0, [sp, #8]
     838:	f000 f830 	bl	89c <__udivmoddi4>
     83c:	9b01      	ldr	r3, [sp, #4]
     83e:	469e      	mov	lr, r3
     840:	b002      	add	sp, #8
     842:	bc0c      	pop	{r2, r3}
     844:	4770      	bx	lr
     846:	46c0      	nop			; (mov r8, r8)

00000848 <__aeabi_lmul>:
__muldi3():
     848:	b5f0      	push	{r4, r5, r6, r7, lr}
     84a:	46ce      	mov	lr, r9
     84c:	4647      	mov	r7, r8
     84e:	0415      	lsls	r5, r2, #16
     850:	0c2d      	lsrs	r5, r5, #16
     852:	002e      	movs	r6, r5
     854:	b580      	push	{r7, lr}
     856:	0407      	lsls	r7, r0, #16
     858:	0c14      	lsrs	r4, r2, #16
     85a:	0c3f      	lsrs	r7, r7, #16
     85c:	4699      	mov	r9, r3
     85e:	0c03      	lsrs	r3, r0, #16
     860:	437e      	muls	r6, r7
     862:	435d      	muls	r5, r3
     864:	4367      	muls	r7, r4
     866:	4363      	muls	r3, r4
     868:	197f      	adds	r7, r7, r5
     86a:	0c34      	lsrs	r4, r6, #16
     86c:	19e4      	adds	r4, r4, r7
     86e:	469c      	mov	ip, r3
     870:	42a5      	cmp	r5, r4
     872:	d903      	bls.n	87c <__aeabi_lmul+0x34>
     874:	2380      	movs	r3, #128	; 0x80
     876:	025b      	lsls	r3, r3, #9
     878:	4698      	mov	r8, r3
     87a:	44c4      	add	ip, r8
     87c:	464b      	mov	r3, r9
     87e:	4343      	muls	r3, r0
     880:	4351      	muls	r1, r2
     882:	0c25      	lsrs	r5, r4, #16
     884:	0436      	lsls	r6, r6, #16
     886:	4465      	add	r5, ip
     888:	0c36      	lsrs	r6, r6, #16
     88a:	0424      	lsls	r4, r4, #16
     88c:	19a4      	adds	r4, r4, r6
     88e:	195b      	adds	r3, r3, r5
     890:	1859      	adds	r1, r3, r1
     892:	0020      	movs	r0, r4
     894:	bc0c      	pop	{r2, r3}
     896:	4690      	mov	r8, r2
     898:	4699      	mov	r9, r3
     89a:	bdf0      	pop	{r4, r5, r6, r7, pc}

0000089c <__udivmoddi4>:
__udivmoddi4():
     89c:	b5f0      	push	{r4, r5, r6, r7, lr}
     89e:	464f      	mov	r7, r9
     8a0:	4646      	mov	r6, r8
     8a2:	46d6      	mov	lr, sl
     8a4:	b5c0      	push	{r6, r7, lr}
     8a6:	0004      	movs	r4, r0
     8a8:	b082      	sub	sp, #8
     8aa:	000d      	movs	r5, r1
     8ac:	4691      	mov	r9, r2
     8ae:	4698      	mov	r8, r3
     8b0:	428b      	cmp	r3, r1
     8b2:	d82f      	bhi.n	914 <__udivmoddi4+0x78>
     8b4:	d02c      	beq.n	910 <__udivmoddi4+0x74>
     8b6:	4641      	mov	r1, r8
     8b8:	4648      	mov	r0, r9
     8ba:	f001 fce1 	bl	2280 <__clzdi2>
     8be:	0029      	movs	r1, r5
     8c0:	0006      	movs	r6, r0
     8c2:	0020      	movs	r0, r4
     8c4:	f001 fcdc 	bl	2280 <__clzdi2>
     8c8:	1a33      	subs	r3, r6, r0
     8ca:	469c      	mov	ip, r3
     8cc:	3b20      	subs	r3, #32
     8ce:	469a      	mov	sl, r3
     8d0:	d500      	bpl.n	8d4 <__udivmoddi4+0x38>
     8d2:	e076      	b.n	9c2 <__udivmoddi4+0x126>
     8d4:	464b      	mov	r3, r9
     8d6:	4652      	mov	r2, sl
     8d8:	4093      	lsls	r3, r2
     8da:	001f      	movs	r7, r3
     8dc:	464b      	mov	r3, r9
     8de:	4662      	mov	r2, ip
     8e0:	4093      	lsls	r3, r2
     8e2:	001e      	movs	r6, r3
     8e4:	42af      	cmp	r7, r5
     8e6:	d828      	bhi.n	93a <__udivmoddi4+0x9e>
     8e8:	d025      	beq.n	936 <__udivmoddi4+0x9a>
     8ea:	4653      	mov	r3, sl
     8ec:	1ba4      	subs	r4, r4, r6
     8ee:	41bd      	sbcs	r5, r7
     8f0:	2b00      	cmp	r3, #0
     8f2:	da00      	bge.n	8f6 <__udivmoddi4+0x5a>
     8f4:	e07b      	b.n	9ee <__udivmoddi4+0x152>
     8f6:	2200      	movs	r2, #0
     8f8:	2300      	movs	r3, #0
     8fa:	9200      	str	r2, [sp, #0]
     8fc:	9301      	str	r3, [sp, #4]
     8fe:	2301      	movs	r3, #1
     900:	4652      	mov	r2, sl
     902:	4093      	lsls	r3, r2
     904:	9301      	str	r3, [sp, #4]
     906:	2301      	movs	r3, #1
     908:	4662      	mov	r2, ip
     90a:	4093      	lsls	r3, r2
     90c:	9300      	str	r3, [sp, #0]
     90e:	e018      	b.n	942 <__udivmoddi4+0xa6>
     910:	4282      	cmp	r2, r0
     912:	d9d0      	bls.n	8b6 <__udivmoddi4+0x1a>
     914:	2200      	movs	r2, #0
     916:	2300      	movs	r3, #0
     918:	9200      	str	r2, [sp, #0]
     91a:	9301      	str	r3, [sp, #4]
     91c:	9b0a      	ldr	r3, [sp, #40]	; 0x28
     91e:	2b00      	cmp	r3, #0
     920:	d001      	beq.n	926 <__udivmoddi4+0x8a>
     922:	601c      	str	r4, [r3, #0]
     924:	605d      	str	r5, [r3, #4]
     926:	9800      	ldr	r0, [sp, #0]
     928:	9901      	ldr	r1, [sp, #4]
     92a:	b002      	add	sp, #8
     92c:	bc1c      	pop	{r2, r3, r4}
     92e:	4690      	mov	r8, r2
     930:	4699      	mov	r9, r3
     932:	46a2      	mov	sl, r4
     934:	bdf0      	pop	{r4, r5, r6, r7, pc}
     936:	42a3      	cmp	r3, r4
     938:	d9d7      	bls.n	8ea <__udivmoddi4+0x4e>
     93a:	2200      	movs	r2, #0
     93c:	2300      	movs	r3, #0
     93e:	9200      	str	r2, [sp, #0]
     940:	9301      	str	r3, [sp, #4]
     942:	4663      	mov	r3, ip
     944:	2b00      	cmp	r3, #0
     946:	d0e9      	beq.n	91c <__udivmoddi4+0x80>
     948:	07fb      	lsls	r3, r7, #31
     94a:	4698      	mov	r8, r3
     94c:	4641      	mov	r1, r8
     94e:	0872      	lsrs	r2, r6, #1
     950:	430a      	orrs	r2, r1
     952:	087b      	lsrs	r3, r7, #1
     954:	4666      	mov	r6, ip
     956:	e00e      	b.n	976 <__udivmoddi4+0xda>
     958:	42ab      	cmp	r3, r5
     95a:	d101      	bne.n	960 <__udivmoddi4+0xc4>
     95c:	42a2      	cmp	r2, r4
     95e:	d80c      	bhi.n	97a <__udivmoddi4+0xde>
     960:	1aa4      	subs	r4, r4, r2
     962:	419d      	sbcs	r5, r3
     964:	2001      	movs	r0, #1
     966:	1924      	adds	r4, r4, r4
     968:	416d      	adcs	r5, r5
     96a:	2100      	movs	r1, #0
     96c:	3e01      	subs	r6, #1
     96e:	1824      	adds	r4, r4, r0
     970:	414d      	adcs	r5, r1
     972:	2e00      	cmp	r6, #0
     974:	d006      	beq.n	984 <__udivmoddi4+0xe8>
     976:	42ab      	cmp	r3, r5
     978:	d9ee      	bls.n	958 <__udivmoddi4+0xbc>
     97a:	3e01      	subs	r6, #1
     97c:	1924      	adds	r4, r4, r4
     97e:	416d      	adcs	r5, r5
     980:	2e00      	cmp	r6, #0
     982:	d1f8      	bne.n	976 <__udivmoddi4+0xda>
     984:	9800      	ldr	r0, [sp, #0]
     986:	9901      	ldr	r1, [sp, #4]
     988:	4653      	mov	r3, sl
     98a:	1900      	adds	r0, r0, r4
     98c:	4169      	adcs	r1, r5
     98e:	2b00      	cmp	r3, #0
     990:	db23      	blt.n	9da <__udivmoddi4+0x13e>
     992:	002b      	movs	r3, r5
     994:	4652      	mov	r2, sl
     996:	40d3      	lsrs	r3, r2
     998:	002a      	movs	r2, r5
     99a:	4664      	mov	r4, ip
     99c:	40e2      	lsrs	r2, r4
     99e:	001c      	movs	r4, r3
     9a0:	4653      	mov	r3, sl
     9a2:	0015      	movs	r5, r2
     9a4:	2b00      	cmp	r3, #0
     9a6:	db2d      	blt.n	a04 <__udivmoddi4+0x168>
     9a8:	0026      	movs	r6, r4
     9aa:	4657      	mov	r7, sl
     9ac:	40be      	lsls	r6, r7
     9ae:	0033      	movs	r3, r6
     9b0:	0026      	movs	r6, r4
     9b2:	4667      	mov	r7, ip
     9b4:	40be      	lsls	r6, r7
     9b6:	0032      	movs	r2, r6
     9b8:	1a80      	subs	r0, r0, r2
     9ba:	4199      	sbcs	r1, r3
     9bc:	9000      	str	r0, [sp, #0]
     9be:	9101      	str	r1, [sp, #4]
     9c0:	e7ac      	b.n	91c <__udivmoddi4+0x80>
     9c2:	4662      	mov	r2, ip
     9c4:	2320      	movs	r3, #32
     9c6:	1a9b      	subs	r3, r3, r2
     9c8:	464a      	mov	r2, r9
     9ca:	40da      	lsrs	r2, r3
     9cc:	4661      	mov	r1, ip
     9ce:	0013      	movs	r3, r2
     9d0:	4642      	mov	r2, r8
     9d2:	408a      	lsls	r2, r1
     9d4:	0017      	movs	r7, r2
     9d6:	431f      	orrs	r7, r3
     9d8:	e780      	b.n	8dc <__udivmoddi4+0x40>
     9da:	4662      	mov	r2, ip
     9dc:	2320      	movs	r3, #32
     9de:	1a9b      	subs	r3, r3, r2
     9e0:	002a      	movs	r2, r5
     9e2:	4666      	mov	r6, ip
     9e4:	409a      	lsls	r2, r3
     9e6:	0023      	movs	r3, r4
     9e8:	40f3      	lsrs	r3, r6
     9ea:	4313      	orrs	r3, r2
     9ec:	e7d4      	b.n	998 <__udivmoddi4+0xfc>
     9ee:	4662      	mov	r2, ip
     9f0:	2320      	movs	r3, #32
     9f2:	2100      	movs	r1, #0
     9f4:	1a9b      	subs	r3, r3, r2
     9f6:	2200      	movs	r2, #0
     9f8:	9100      	str	r1, [sp, #0]
     9fa:	9201      	str	r2, [sp, #4]
     9fc:	2201      	movs	r2, #1
     9fe:	40da      	lsrs	r2, r3
     a00:	9201      	str	r2, [sp, #4]
     a02:	e780      	b.n	906 <__udivmoddi4+0x6a>
     a04:	2320      	movs	r3, #32
     a06:	4662      	mov	r2, ip
     a08:	0026      	movs	r6, r4
     a0a:	1a9b      	subs	r3, r3, r2
     a0c:	40de      	lsrs	r6, r3
     a0e:	002f      	movs	r7, r5
     a10:	46b0      	mov	r8, r6
     a12:	4666      	mov	r6, ip
     a14:	40b7      	lsls	r7, r6
     a16:	4646      	mov	r6, r8
     a18:	003b      	movs	r3, r7
     a1a:	4333      	orrs	r3, r6
     a1c:	e7c8      	b.n	9b0 <__udivmoddi4+0x114>
     a1e:	46c0      	nop			; (mov r8, r8)

00000a20 <__aeabi_dadd>:
__aeabi_dadd():
     a20:	b5f0      	push	{r4, r5, r6, r7, lr}
     a22:	464f      	mov	r7, r9
     a24:	4646      	mov	r6, r8
     a26:	46d6      	mov	lr, sl
     a28:	000c      	movs	r4, r1
     a2a:	0309      	lsls	r1, r1, #12
     a2c:	b5c0      	push	{r6, r7, lr}
     a2e:	0a49      	lsrs	r1, r1, #9
     a30:	0f47      	lsrs	r7, r0, #29
     a32:	005e      	lsls	r6, r3, #1
     a34:	4339      	orrs	r1, r7
     a36:	031f      	lsls	r7, r3, #12
     a38:	0fdb      	lsrs	r3, r3, #31
     a3a:	469c      	mov	ip, r3
     a3c:	0065      	lsls	r5, r4, #1
     a3e:	0a7b      	lsrs	r3, r7, #9
     a40:	0f57      	lsrs	r7, r2, #29
     a42:	431f      	orrs	r7, r3
     a44:	0d6d      	lsrs	r5, r5, #21
     a46:	0fe4      	lsrs	r4, r4, #31
     a48:	0d76      	lsrs	r6, r6, #21
     a4a:	46a1      	mov	r9, r4
     a4c:	00c0      	lsls	r0, r0, #3
     a4e:	46b8      	mov	r8, r7
     a50:	00d2      	lsls	r2, r2, #3
     a52:	1bab      	subs	r3, r5, r6
     a54:	4564      	cmp	r4, ip
     a56:	d07b      	beq.n	b50 <__aeabi_dadd+0x130>
     a58:	2b00      	cmp	r3, #0
     a5a:	dd5f      	ble.n	b1c <__aeabi_dadd+0xfc>
     a5c:	2e00      	cmp	r6, #0
     a5e:	d000      	beq.n	a62 <__aeabi_dadd+0x42>
     a60:	e0a4      	b.n	bac <__aeabi_dadd+0x18c>
     a62:	003e      	movs	r6, r7
     a64:	4316      	orrs	r6, r2
     a66:	d100      	bne.n	a6a <__aeabi_dadd+0x4a>
     a68:	e112      	b.n	c90 <__aeabi_dadd+0x270>
     a6a:	1e5e      	subs	r6, r3, #1
     a6c:	2e00      	cmp	r6, #0
     a6e:	d000      	beq.n	a72 <__aeabi_dadd+0x52>
     a70:	e19e      	b.n	db0 <__aeabi_dadd+0x390>
     a72:	1a87      	subs	r7, r0, r2
     a74:	4643      	mov	r3, r8
     a76:	42b8      	cmp	r0, r7
     a78:	4180      	sbcs	r0, r0
     a7a:	2501      	movs	r5, #1
     a7c:	1ac9      	subs	r1, r1, r3
     a7e:	4240      	negs	r0, r0
     a80:	1a09      	subs	r1, r1, r0
     a82:	020b      	lsls	r3, r1, #8
     a84:	d400      	bmi.n	a88 <__aeabi_dadd+0x68>
     a86:	e131      	b.n	cec <__aeabi_dadd+0x2cc>
     a88:	0249      	lsls	r1, r1, #9
     a8a:	0a4e      	lsrs	r6, r1, #9
     a8c:	2e00      	cmp	r6, #0
     a8e:	d100      	bne.n	a92 <__aeabi_dadd+0x72>
     a90:	e16e      	b.n	d70 <__aeabi_dadd+0x350>
     a92:	0030      	movs	r0, r6
     a94:	f001 fbd6 	bl	2244 <__clzsi2>
     a98:	0003      	movs	r3, r0
     a9a:	3b08      	subs	r3, #8
     a9c:	2b1f      	cmp	r3, #31
     a9e:	dd00      	ble.n	aa2 <__aeabi_dadd+0x82>
     aa0:	e161      	b.n	d66 <__aeabi_dadd+0x346>
     aa2:	2220      	movs	r2, #32
     aa4:	0039      	movs	r1, r7
     aa6:	1ad2      	subs	r2, r2, r3
     aa8:	409e      	lsls	r6, r3
     aaa:	40d1      	lsrs	r1, r2
     aac:	409f      	lsls	r7, r3
     aae:	430e      	orrs	r6, r1
     ab0:	429d      	cmp	r5, r3
     ab2:	dd00      	ble.n	ab6 <__aeabi_dadd+0x96>
     ab4:	e151      	b.n	d5a <__aeabi_dadd+0x33a>
     ab6:	1b5d      	subs	r5, r3, r5
     ab8:	1c6b      	adds	r3, r5, #1
     aba:	2b1f      	cmp	r3, #31
     abc:	dd00      	ble.n	ac0 <__aeabi_dadd+0xa0>
     abe:	e17c      	b.n	dba <__aeabi_dadd+0x39a>
     ac0:	2120      	movs	r1, #32
     ac2:	1ac9      	subs	r1, r1, r3
     ac4:	003d      	movs	r5, r7
     ac6:	0030      	movs	r0, r6
     ac8:	408f      	lsls	r7, r1
     aca:	4088      	lsls	r0, r1
     acc:	40dd      	lsrs	r5, r3
     ace:	1e79      	subs	r1, r7, #1
     ad0:	418f      	sbcs	r7, r1
     ad2:	0031      	movs	r1, r6
     ad4:	2207      	movs	r2, #7
     ad6:	4328      	orrs	r0, r5
     ad8:	40d9      	lsrs	r1, r3
     ada:	2500      	movs	r5, #0
     adc:	4307      	orrs	r7, r0
     ade:	403a      	ands	r2, r7
     ae0:	2a00      	cmp	r2, #0
     ae2:	d009      	beq.n	af8 <__aeabi_dadd+0xd8>
     ae4:	230f      	movs	r3, #15
     ae6:	403b      	ands	r3, r7
     ae8:	2b04      	cmp	r3, #4
     aea:	d005      	beq.n	af8 <__aeabi_dadd+0xd8>
     aec:	1d3b      	adds	r3, r7, #4
     aee:	42bb      	cmp	r3, r7
     af0:	41bf      	sbcs	r7, r7
     af2:	427f      	negs	r7, r7
     af4:	19c9      	adds	r1, r1, r7
     af6:	001f      	movs	r7, r3
     af8:	020b      	lsls	r3, r1, #8
     afa:	d400      	bmi.n	afe <__aeabi_dadd+0xde>
     afc:	e226      	b.n	f4c <__aeabi_dadd+0x52c>
     afe:	1c6a      	adds	r2, r5, #1
     b00:	4bc6      	ldr	r3, [pc, #792]	; (e1c <__aeabi_dadd+0x3fc>)
     b02:	0555      	lsls	r5, r2, #21
     b04:	0d6d      	lsrs	r5, r5, #21
     b06:	429a      	cmp	r2, r3
     b08:	d100      	bne.n	b0c <__aeabi_dadd+0xec>
     b0a:	e106      	b.n	d1a <__aeabi_dadd+0x2fa>
     b0c:	4ac4      	ldr	r2, [pc, #784]	; (e20 <__aeabi_dadd+0x400>)
     b0e:	08ff      	lsrs	r7, r7, #3
     b10:	400a      	ands	r2, r1
     b12:	0753      	lsls	r3, r2, #29
     b14:	0252      	lsls	r2, r2, #9
     b16:	433b      	orrs	r3, r7
     b18:	0b12      	lsrs	r2, r2, #12
     b1a:	e08e      	b.n	c3a <__aeabi_dadd+0x21a>
     b1c:	2b00      	cmp	r3, #0
     b1e:	d000      	beq.n	b22 <__aeabi_dadd+0x102>
     b20:	e0b8      	b.n	c94 <__aeabi_dadd+0x274>
     b22:	1c6b      	adds	r3, r5, #1
     b24:	055b      	lsls	r3, r3, #21
     b26:	0d5b      	lsrs	r3, r3, #21
     b28:	2b01      	cmp	r3, #1
     b2a:	dc00      	bgt.n	b2e <__aeabi_dadd+0x10e>
     b2c:	e130      	b.n	d90 <__aeabi_dadd+0x370>
     b2e:	1a87      	subs	r7, r0, r2
     b30:	4643      	mov	r3, r8
     b32:	42b8      	cmp	r0, r7
     b34:	41b6      	sbcs	r6, r6
     b36:	1acb      	subs	r3, r1, r3
     b38:	4276      	negs	r6, r6
     b3a:	1b9e      	subs	r6, r3, r6
     b3c:	0233      	lsls	r3, r6, #8
     b3e:	d500      	bpl.n	b42 <__aeabi_dadd+0x122>
     b40:	e14c      	b.n	ddc <__aeabi_dadd+0x3bc>
     b42:	003b      	movs	r3, r7
     b44:	4333      	orrs	r3, r6
     b46:	d1a1      	bne.n	a8c <__aeabi_dadd+0x6c>
     b48:	2200      	movs	r2, #0
     b4a:	2400      	movs	r4, #0
     b4c:	2500      	movs	r5, #0
     b4e:	e070      	b.n	c32 <__aeabi_dadd+0x212>
     b50:	2b00      	cmp	r3, #0
     b52:	dc00      	bgt.n	b56 <__aeabi_dadd+0x136>
     b54:	e0e5      	b.n	d22 <__aeabi_dadd+0x302>
     b56:	2e00      	cmp	r6, #0
     b58:	d100      	bne.n	b5c <__aeabi_dadd+0x13c>
     b5a:	e083      	b.n	c64 <__aeabi_dadd+0x244>
     b5c:	4eaf      	ldr	r6, [pc, #700]	; (e1c <__aeabi_dadd+0x3fc>)
     b5e:	42b5      	cmp	r5, r6
     b60:	d060      	beq.n	c24 <__aeabi_dadd+0x204>
     b62:	2680      	movs	r6, #128	; 0x80
     b64:	0436      	lsls	r6, r6, #16
     b66:	4337      	orrs	r7, r6
     b68:	46b8      	mov	r8, r7
     b6a:	2b38      	cmp	r3, #56	; 0x38
     b6c:	dc00      	bgt.n	b70 <__aeabi_dadd+0x150>
     b6e:	e13e      	b.n	dee <__aeabi_dadd+0x3ce>
     b70:	4643      	mov	r3, r8
     b72:	4313      	orrs	r3, r2
     b74:	001f      	movs	r7, r3
     b76:	1e7a      	subs	r2, r7, #1
     b78:	4197      	sbcs	r7, r2
     b7a:	183f      	adds	r7, r7, r0
     b7c:	4287      	cmp	r7, r0
     b7e:	4180      	sbcs	r0, r0
     b80:	4240      	negs	r0, r0
     b82:	1809      	adds	r1, r1, r0
     b84:	020b      	lsls	r3, r1, #8
     b86:	d400      	bmi.n	b8a <__aeabi_dadd+0x16a>
     b88:	e0b0      	b.n	cec <__aeabi_dadd+0x2cc>
     b8a:	4ba4      	ldr	r3, [pc, #656]	; (e1c <__aeabi_dadd+0x3fc>)
     b8c:	3501      	adds	r5, #1
     b8e:	429d      	cmp	r5, r3
     b90:	d100      	bne.n	b94 <__aeabi_dadd+0x174>
     b92:	e0c3      	b.n	d1c <__aeabi_dadd+0x2fc>
     b94:	4aa2      	ldr	r2, [pc, #648]	; (e20 <__aeabi_dadd+0x400>)
     b96:	087b      	lsrs	r3, r7, #1
     b98:	400a      	ands	r2, r1
     b9a:	2101      	movs	r1, #1
     b9c:	400f      	ands	r7, r1
     b9e:	431f      	orrs	r7, r3
     ba0:	0851      	lsrs	r1, r2, #1
     ba2:	07d3      	lsls	r3, r2, #31
     ba4:	2207      	movs	r2, #7
     ba6:	431f      	orrs	r7, r3
     ba8:	403a      	ands	r2, r7
     baa:	e799      	b.n	ae0 <__aeabi_dadd+0xc0>
     bac:	4e9b      	ldr	r6, [pc, #620]	; (e1c <__aeabi_dadd+0x3fc>)
     bae:	42b5      	cmp	r5, r6
     bb0:	d038      	beq.n	c24 <__aeabi_dadd+0x204>
     bb2:	2680      	movs	r6, #128	; 0x80
     bb4:	0436      	lsls	r6, r6, #16
     bb6:	4337      	orrs	r7, r6
     bb8:	46b8      	mov	r8, r7
     bba:	2b38      	cmp	r3, #56	; 0x38
     bbc:	dd00      	ble.n	bc0 <__aeabi_dadd+0x1a0>
     bbe:	e0dc      	b.n	d7a <__aeabi_dadd+0x35a>
     bc0:	2b1f      	cmp	r3, #31
     bc2:	dc00      	bgt.n	bc6 <__aeabi_dadd+0x1a6>
     bc4:	e130      	b.n	e28 <__aeabi_dadd+0x408>
     bc6:	001e      	movs	r6, r3
     bc8:	4647      	mov	r7, r8
     bca:	3e20      	subs	r6, #32
     bcc:	40f7      	lsrs	r7, r6
     bce:	46bc      	mov	ip, r7
     bd0:	2b20      	cmp	r3, #32
     bd2:	d004      	beq.n	bde <__aeabi_dadd+0x1be>
     bd4:	2640      	movs	r6, #64	; 0x40
     bd6:	1af3      	subs	r3, r6, r3
     bd8:	4646      	mov	r6, r8
     bda:	409e      	lsls	r6, r3
     bdc:	4332      	orrs	r2, r6
     bde:	0017      	movs	r7, r2
     be0:	4663      	mov	r3, ip
     be2:	1e7a      	subs	r2, r7, #1
     be4:	4197      	sbcs	r7, r2
     be6:	431f      	orrs	r7, r3
     be8:	e0cc      	b.n	d84 <__aeabi_dadd+0x364>
     bea:	2b00      	cmp	r3, #0
     bec:	d100      	bne.n	bf0 <__aeabi_dadd+0x1d0>
     bee:	e204      	b.n	ffa <__aeabi_dadd+0x5da>
     bf0:	4643      	mov	r3, r8
     bf2:	4313      	orrs	r3, r2
     bf4:	d100      	bne.n	bf8 <__aeabi_dadd+0x1d8>
     bf6:	e159      	b.n	eac <__aeabi_dadd+0x48c>
     bf8:	074b      	lsls	r3, r1, #29
     bfa:	08c0      	lsrs	r0, r0, #3
     bfc:	4318      	orrs	r0, r3
     bfe:	2380      	movs	r3, #128	; 0x80
     c00:	08c9      	lsrs	r1, r1, #3
     c02:	031b      	lsls	r3, r3, #12
     c04:	4219      	tst	r1, r3
     c06:	d008      	beq.n	c1a <__aeabi_dadd+0x1fa>
     c08:	4645      	mov	r5, r8
     c0a:	08ed      	lsrs	r5, r5, #3
     c0c:	421d      	tst	r5, r3
     c0e:	d104      	bne.n	c1a <__aeabi_dadd+0x1fa>
     c10:	4643      	mov	r3, r8
     c12:	08d0      	lsrs	r0, r2, #3
     c14:	0759      	lsls	r1, r3, #29
     c16:	4308      	orrs	r0, r1
     c18:	0029      	movs	r1, r5
     c1a:	0f42      	lsrs	r2, r0, #29
     c1c:	00c9      	lsls	r1, r1, #3
     c1e:	4d7f      	ldr	r5, [pc, #508]	; (e1c <__aeabi_dadd+0x3fc>)
     c20:	4311      	orrs	r1, r2
     c22:	00c0      	lsls	r0, r0, #3
     c24:	074b      	lsls	r3, r1, #29
     c26:	08ca      	lsrs	r2, r1, #3
     c28:	497c      	ldr	r1, [pc, #496]	; (e1c <__aeabi_dadd+0x3fc>)
     c2a:	08c0      	lsrs	r0, r0, #3
     c2c:	4303      	orrs	r3, r0
     c2e:	428d      	cmp	r5, r1
     c30:	d068      	beq.n	d04 <__aeabi_dadd+0x2e4>
     c32:	0312      	lsls	r2, r2, #12
     c34:	056d      	lsls	r5, r5, #21
     c36:	0b12      	lsrs	r2, r2, #12
     c38:	0d6d      	lsrs	r5, r5, #21
     c3a:	2100      	movs	r1, #0
     c3c:	0312      	lsls	r2, r2, #12
     c3e:	0018      	movs	r0, r3
     c40:	0b13      	lsrs	r3, r2, #12
     c42:	0d0a      	lsrs	r2, r1, #20
     c44:	0512      	lsls	r2, r2, #20
     c46:	431a      	orrs	r2, r3
     c48:	4b76      	ldr	r3, [pc, #472]	; (e24 <__aeabi_dadd+0x404>)
     c4a:	052d      	lsls	r5, r5, #20
     c4c:	4013      	ands	r3, r2
     c4e:	432b      	orrs	r3, r5
     c50:	005b      	lsls	r3, r3, #1
     c52:	07e4      	lsls	r4, r4, #31
     c54:	085b      	lsrs	r3, r3, #1
     c56:	4323      	orrs	r3, r4
     c58:	0019      	movs	r1, r3
     c5a:	bc1c      	pop	{r2, r3, r4}
     c5c:	4690      	mov	r8, r2
     c5e:	4699      	mov	r9, r3
     c60:	46a2      	mov	sl, r4
     c62:	bdf0      	pop	{r4, r5, r6, r7, pc}
     c64:	003e      	movs	r6, r7
     c66:	4316      	orrs	r6, r2
     c68:	d012      	beq.n	c90 <__aeabi_dadd+0x270>
     c6a:	1e5e      	subs	r6, r3, #1
     c6c:	2e00      	cmp	r6, #0
     c6e:	d000      	beq.n	c72 <__aeabi_dadd+0x252>
     c70:	e100      	b.n	e74 <__aeabi_dadd+0x454>
     c72:	1887      	adds	r7, r0, r2
     c74:	4287      	cmp	r7, r0
     c76:	4180      	sbcs	r0, r0
     c78:	4441      	add	r1, r8
     c7a:	4240      	negs	r0, r0
     c7c:	1809      	adds	r1, r1, r0
     c7e:	2501      	movs	r5, #1
     c80:	020b      	lsls	r3, r1, #8
     c82:	d533      	bpl.n	cec <__aeabi_dadd+0x2cc>
     c84:	2502      	movs	r5, #2
     c86:	e785      	b.n	b94 <__aeabi_dadd+0x174>
     c88:	4664      	mov	r4, ip
     c8a:	0033      	movs	r3, r6
     c8c:	4641      	mov	r1, r8
     c8e:	0010      	movs	r0, r2
     c90:	001d      	movs	r5, r3
     c92:	e7c7      	b.n	c24 <__aeabi_dadd+0x204>
     c94:	2d00      	cmp	r5, #0
     c96:	d000      	beq.n	c9a <__aeabi_dadd+0x27a>
     c98:	e0da      	b.n	e50 <__aeabi_dadd+0x430>
     c9a:	000c      	movs	r4, r1
     c9c:	4304      	orrs	r4, r0
     c9e:	d0f3      	beq.n	c88 <__aeabi_dadd+0x268>
     ca0:	1c5c      	adds	r4, r3, #1
     ca2:	d100      	bne.n	ca6 <__aeabi_dadd+0x286>
     ca4:	e19f      	b.n	fe6 <__aeabi_dadd+0x5c6>
     ca6:	4c5d      	ldr	r4, [pc, #372]	; (e1c <__aeabi_dadd+0x3fc>)
     ca8:	42a6      	cmp	r6, r4
     caa:	d100      	bne.n	cae <__aeabi_dadd+0x28e>
     cac:	e12f      	b.n	f0e <__aeabi_dadd+0x4ee>
     cae:	43db      	mvns	r3, r3
     cb0:	2b38      	cmp	r3, #56	; 0x38
     cb2:	dd00      	ble.n	cb6 <__aeabi_dadd+0x296>
     cb4:	e166      	b.n	f84 <__aeabi_dadd+0x564>
     cb6:	2b1f      	cmp	r3, #31
     cb8:	dd00      	ble.n	cbc <__aeabi_dadd+0x29c>
     cba:	e183      	b.n	fc4 <__aeabi_dadd+0x5a4>
     cbc:	2420      	movs	r4, #32
     cbe:	0005      	movs	r5, r0
     cc0:	1ae4      	subs	r4, r4, r3
     cc2:	000f      	movs	r7, r1
     cc4:	40dd      	lsrs	r5, r3
     cc6:	40d9      	lsrs	r1, r3
     cc8:	40a0      	lsls	r0, r4
     cca:	4643      	mov	r3, r8
     ccc:	40a7      	lsls	r7, r4
     cce:	1a5b      	subs	r3, r3, r1
     cd0:	1e44      	subs	r4, r0, #1
     cd2:	41a0      	sbcs	r0, r4
     cd4:	4698      	mov	r8, r3
     cd6:	432f      	orrs	r7, r5
     cd8:	4338      	orrs	r0, r7
     cda:	1a17      	subs	r7, r2, r0
     cdc:	42ba      	cmp	r2, r7
     cde:	4192      	sbcs	r2, r2
     ce0:	4643      	mov	r3, r8
     ce2:	4252      	negs	r2, r2
     ce4:	1a99      	subs	r1, r3, r2
     ce6:	4664      	mov	r4, ip
     ce8:	0035      	movs	r5, r6
     cea:	e6ca      	b.n	a82 <__aeabi_dadd+0x62>
     cec:	2207      	movs	r2, #7
     cee:	403a      	ands	r2, r7
     cf0:	2a00      	cmp	r2, #0
     cf2:	d000      	beq.n	cf6 <__aeabi_dadd+0x2d6>
     cf4:	e6f6      	b.n	ae4 <__aeabi_dadd+0xc4>
     cf6:	074b      	lsls	r3, r1, #29
     cf8:	08ca      	lsrs	r2, r1, #3
     cfa:	4948      	ldr	r1, [pc, #288]	; (e1c <__aeabi_dadd+0x3fc>)
     cfc:	08ff      	lsrs	r7, r7, #3
     cfe:	433b      	orrs	r3, r7
     d00:	428d      	cmp	r5, r1
     d02:	d196      	bne.n	c32 <__aeabi_dadd+0x212>
     d04:	0019      	movs	r1, r3
     d06:	4311      	orrs	r1, r2
     d08:	d100      	bne.n	d0c <__aeabi_dadd+0x2ec>
     d0a:	e19e      	b.n	104a <__aeabi_dadd+0x62a>
     d0c:	2180      	movs	r1, #128	; 0x80
     d0e:	0309      	lsls	r1, r1, #12
     d10:	430a      	orrs	r2, r1
     d12:	0312      	lsls	r2, r2, #12
     d14:	0b12      	lsrs	r2, r2, #12
     d16:	4d41      	ldr	r5, [pc, #260]	; (e1c <__aeabi_dadd+0x3fc>)
     d18:	e78f      	b.n	c3a <__aeabi_dadd+0x21a>
     d1a:	0015      	movs	r5, r2
     d1c:	2200      	movs	r2, #0
     d1e:	2300      	movs	r3, #0
     d20:	e78b      	b.n	c3a <__aeabi_dadd+0x21a>
     d22:	2b00      	cmp	r3, #0
     d24:	d000      	beq.n	d28 <__aeabi_dadd+0x308>
     d26:	e0c7      	b.n	eb8 <__aeabi_dadd+0x498>
     d28:	1c6b      	adds	r3, r5, #1
     d2a:	055f      	lsls	r7, r3, #21
     d2c:	0d7f      	lsrs	r7, r7, #21
     d2e:	2f01      	cmp	r7, #1
     d30:	dc00      	bgt.n	d34 <__aeabi_dadd+0x314>
     d32:	e0f1      	b.n	f18 <__aeabi_dadd+0x4f8>
     d34:	4d39      	ldr	r5, [pc, #228]	; (e1c <__aeabi_dadd+0x3fc>)
     d36:	42ab      	cmp	r3, r5
     d38:	d100      	bne.n	d3c <__aeabi_dadd+0x31c>
     d3a:	e0b9      	b.n	eb0 <__aeabi_dadd+0x490>
     d3c:	1885      	adds	r5, r0, r2
     d3e:	000a      	movs	r2, r1
     d40:	4285      	cmp	r5, r0
     d42:	4189      	sbcs	r1, r1
     d44:	4442      	add	r2, r8
     d46:	4249      	negs	r1, r1
     d48:	1851      	adds	r1, r2, r1
     d4a:	2207      	movs	r2, #7
     d4c:	07cf      	lsls	r7, r1, #31
     d4e:	086d      	lsrs	r5, r5, #1
     d50:	432f      	orrs	r7, r5
     d52:	0849      	lsrs	r1, r1, #1
     d54:	403a      	ands	r2, r7
     d56:	001d      	movs	r5, r3
     d58:	e6c2      	b.n	ae0 <__aeabi_dadd+0xc0>
     d5a:	2207      	movs	r2, #7
     d5c:	4930      	ldr	r1, [pc, #192]	; (e20 <__aeabi_dadd+0x400>)
     d5e:	1aed      	subs	r5, r5, r3
     d60:	4031      	ands	r1, r6
     d62:	403a      	ands	r2, r7
     d64:	e6bc      	b.n	ae0 <__aeabi_dadd+0xc0>
     d66:	003e      	movs	r6, r7
     d68:	3828      	subs	r0, #40	; 0x28
     d6a:	4086      	lsls	r6, r0
     d6c:	2700      	movs	r7, #0
     d6e:	e69f      	b.n	ab0 <__aeabi_dadd+0x90>
     d70:	0038      	movs	r0, r7
     d72:	f001 fa67 	bl	2244 <__clzsi2>
     d76:	3020      	adds	r0, #32
     d78:	e68e      	b.n	a98 <__aeabi_dadd+0x78>
     d7a:	4643      	mov	r3, r8
     d7c:	4313      	orrs	r3, r2
     d7e:	001f      	movs	r7, r3
     d80:	1e7a      	subs	r2, r7, #1
     d82:	4197      	sbcs	r7, r2
     d84:	1bc7      	subs	r7, r0, r7
     d86:	42b8      	cmp	r0, r7
     d88:	4180      	sbcs	r0, r0
     d8a:	4240      	negs	r0, r0
     d8c:	1a09      	subs	r1, r1, r0
     d8e:	e678      	b.n	a82 <__aeabi_dadd+0x62>
     d90:	000e      	movs	r6, r1
     d92:	003b      	movs	r3, r7
     d94:	4306      	orrs	r6, r0
     d96:	4313      	orrs	r3, r2
     d98:	2d00      	cmp	r5, #0
     d9a:	d161      	bne.n	e60 <__aeabi_dadd+0x440>
     d9c:	2e00      	cmp	r6, #0
     d9e:	d000      	beq.n	da2 <__aeabi_dadd+0x382>
     da0:	e0f4      	b.n	f8c <__aeabi_dadd+0x56c>
     da2:	2b00      	cmp	r3, #0
     da4:	d100      	bne.n	da8 <__aeabi_dadd+0x388>
     da6:	e11b      	b.n	fe0 <__aeabi_dadd+0x5c0>
     da8:	4664      	mov	r4, ip
     daa:	0039      	movs	r1, r7
     dac:	0010      	movs	r0, r2
     dae:	e739      	b.n	c24 <__aeabi_dadd+0x204>
     db0:	4f1a      	ldr	r7, [pc, #104]	; (e1c <__aeabi_dadd+0x3fc>)
     db2:	42bb      	cmp	r3, r7
     db4:	d07a      	beq.n	eac <__aeabi_dadd+0x48c>
     db6:	0033      	movs	r3, r6
     db8:	e6ff      	b.n	bba <__aeabi_dadd+0x19a>
     dba:	0030      	movs	r0, r6
     dbc:	3d1f      	subs	r5, #31
     dbe:	40e8      	lsrs	r0, r5
     dc0:	2b20      	cmp	r3, #32
     dc2:	d003      	beq.n	dcc <__aeabi_dadd+0x3ac>
     dc4:	2140      	movs	r1, #64	; 0x40
     dc6:	1acb      	subs	r3, r1, r3
     dc8:	409e      	lsls	r6, r3
     dca:	4337      	orrs	r7, r6
     dcc:	1e7b      	subs	r3, r7, #1
     dce:	419f      	sbcs	r7, r3
     dd0:	2207      	movs	r2, #7
     dd2:	4307      	orrs	r7, r0
     dd4:	403a      	ands	r2, r7
     dd6:	2100      	movs	r1, #0
     dd8:	2500      	movs	r5, #0
     dda:	e789      	b.n	cf0 <__aeabi_dadd+0x2d0>
     ddc:	1a17      	subs	r7, r2, r0
     dde:	4643      	mov	r3, r8
     de0:	42ba      	cmp	r2, r7
     de2:	41b6      	sbcs	r6, r6
     de4:	1a59      	subs	r1, r3, r1
     de6:	4276      	negs	r6, r6
     de8:	1b8e      	subs	r6, r1, r6
     dea:	4664      	mov	r4, ip
     dec:	e64e      	b.n	a8c <__aeabi_dadd+0x6c>
     dee:	2b1f      	cmp	r3, #31
     df0:	dd00      	ble.n	df4 <__aeabi_dadd+0x3d4>
     df2:	e0ad      	b.n	f50 <__aeabi_dadd+0x530>
     df4:	2620      	movs	r6, #32
     df6:	4647      	mov	r7, r8
     df8:	1af6      	subs	r6, r6, r3
     dfa:	40b7      	lsls	r7, r6
     dfc:	46b9      	mov	r9, r7
     dfe:	0017      	movs	r7, r2
     e00:	46b2      	mov	sl, r6
     e02:	40df      	lsrs	r7, r3
     e04:	464e      	mov	r6, r9
     e06:	433e      	orrs	r6, r7
     e08:	0037      	movs	r7, r6
     e0a:	4656      	mov	r6, sl
     e0c:	40b2      	lsls	r2, r6
     e0e:	1e56      	subs	r6, r2, #1
     e10:	41b2      	sbcs	r2, r6
     e12:	4317      	orrs	r7, r2
     e14:	4642      	mov	r2, r8
     e16:	40da      	lsrs	r2, r3
     e18:	1889      	adds	r1, r1, r2
     e1a:	e6ae      	b.n	b7a <__aeabi_dadd+0x15a>
     e1c:	000007ff 	.word	0x000007ff
     e20:	ff7fffff 	.word	0xff7fffff
     e24:	800fffff 	.word	0x800fffff
     e28:	2620      	movs	r6, #32
     e2a:	4647      	mov	r7, r8
     e2c:	1af6      	subs	r6, r6, r3
     e2e:	40b7      	lsls	r7, r6
     e30:	46b9      	mov	r9, r7
     e32:	0017      	movs	r7, r2
     e34:	46b2      	mov	sl, r6
     e36:	40df      	lsrs	r7, r3
     e38:	464e      	mov	r6, r9
     e3a:	433e      	orrs	r6, r7
     e3c:	0037      	movs	r7, r6
     e3e:	4656      	mov	r6, sl
     e40:	40b2      	lsls	r2, r6
     e42:	1e56      	subs	r6, r2, #1
     e44:	41b2      	sbcs	r2, r6
     e46:	4317      	orrs	r7, r2
     e48:	4642      	mov	r2, r8
     e4a:	40da      	lsrs	r2, r3
     e4c:	1a89      	subs	r1, r1, r2
     e4e:	e799      	b.n	d84 <__aeabi_dadd+0x364>
     e50:	4c7f      	ldr	r4, [pc, #508]	; (1050 <__aeabi_dadd+0x630>)
     e52:	42a6      	cmp	r6, r4
     e54:	d05b      	beq.n	f0e <__aeabi_dadd+0x4ee>
     e56:	2480      	movs	r4, #128	; 0x80
     e58:	0424      	lsls	r4, r4, #16
     e5a:	425b      	negs	r3, r3
     e5c:	4321      	orrs	r1, r4
     e5e:	e727      	b.n	cb0 <__aeabi_dadd+0x290>
     e60:	2e00      	cmp	r6, #0
     e62:	d10c      	bne.n	e7e <__aeabi_dadd+0x45e>
     e64:	2b00      	cmp	r3, #0
     e66:	d100      	bne.n	e6a <__aeabi_dadd+0x44a>
     e68:	e0cb      	b.n	1002 <__aeabi_dadd+0x5e2>
     e6a:	4664      	mov	r4, ip
     e6c:	0039      	movs	r1, r7
     e6e:	0010      	movs	r0, r2
     e70:	4d77      	ldr	r5, [pc, #476]	; (1050 <__aeabi_dadd+0x630>)
     e72:	e6d7      	b.n	c24 <__aeabi_dadd+0x204>
     e74:	4f76      	ldr	r7, [pc, #472]	; (1050 <__aeabi_dadd+0x630>)
     e76:	42bb      	cmp	r3, r7
     e78:	d018      	beq.n	eac <__aeabi_dadd+0x48c>
     e7a:	0033      	movs	r3, r6
     e7c:	e675      	b.n	b6a <__aeabi_dadd+0x14a>
     e7e:	2b00      	cmp	r3, #0
     e80:	d014      	beq.n	eac <__aeabi_dadd+0x48c>
     e82:	074b      	lsls	r3, r1, #29
     e84:	08c0      	lsrs	r0, r0, #3
     e86:	4318      	orrs	r0, r3
     e88:	2380      	movs	r3, #128	; 0x80
     e8a:	08c9      	lsrs	r1, r1, #3
     e8c:	031b      	lsls	r3, r3, #12
     e8e:	4219      	tst	r1, r3
     e90:	d007      	beq.n	ea2 <__aeabi_dadd+0x482>
     e92:	08fc      	lsrs	r4, r7, #3
     e94:	421c      	tst	r4, r3
     e96:	d104      	bne.n	ea2 <__aeabi_dadd+0x482>
     e98:	0779      	lsls	r1, r7, #29
     e9a:	08d0      	lsrs	r0, r2, #3
     e9c:	4308      	orrs	r0, r1
     e9e:	46e1      	mov	r9, ip
     ea0:	0021      	movs	r1, r4
     ea2:	464c      	mov	r4, r9
     ea4:	0f42      	lsrs	r2, r0, #29
     ea6:	00c9      	lsls	r1, r1, #3
     ea8:	4311      	orrs	r1, r2
     eaa:	00c0      	lsls	r0, r0, #3
     eac:	4d68      	ldr	r5, [pc, #416]	; (1050 <__aeabi_dadd+0x630>)
     eae:	e6b9      	b.n	c24 <__aeabi_dadd+0x204>
     eb0:	001d      	movs	r5, r3
     eb2:	2200      	movs	r2, #0
     eb4:	2300      	movs	r3, #0
     eb6:	e6c0      	b.n	c3a <__aeabi_dadd+0x21a>
     eb8:	2d00      	cmp	r5, #0
     eba:	d15b      	bne.n	f74 <__aeabi_dadd+0x554>
     ebc:	000d      	movs	r5, r1
     ebe:	4305      	orrs	r5, r0
     ec0:	d100      	bne.n	ec4 <__aeabi_dadd+0x4a4>
     ec2:	e6e2      	b.n	c8a <__aeabi_dadd+0x26a>
     ec4:	1c5d      	adds	r5, r3, #1
     ec6:	d100      	bne.n	eca <__aeabi_dadd+0x4aa>
     ec8:	e0b0      	b.n	102c <__aeabi_dadd+0x60c>
     eca:	4d61      	ldr	r5, [pc, #388]	; (1050 <__aeabi_dadd+0x630>)
     ecc:	42ae      	cmp	r6, r5
     ece:	d01f      	beq.n	f10 <__aeabi_dadd+0x4f0>
     ed0:	43db      	mvns	r3, r3
     ed2:	2b38      	cmp	r3, #56	; 0x38
     ed4:	dc71      	bgt.n	fba <__aeabi_dadd+0x59a>
     ed6:	2b1f      	cmp	r3, #31
     ed8:	dd00      	ble.n	edc <__aeabi_dadd+0x4bc>
     eda:	e096      	b.n	100a <__aeabi_dadd+0x5ea>
     edc:	2520      	movs	r5, #32
     ede:	000f      	movs	r7, r1
     ee0:	1aed      	subs	r5, r5, r3
     ee2:	40af      	lsls	r7, r5
     ee4:	46b9      	mov	r9, r7
     ee6:	0007      	movs	r7, r0
     ee8:	46aa      	mov	sl, r5
     eea:	40df      	lsrs	r7, r3
     eec:	464d      	mov	r5, r9
     eee:	433d      	orrs	r5, r7
     ef0:	002f      	movs	r7, r5
     ef2:	4655      	mov	r5, sl
     ef4:	40a8      	lsls	r0, r5
     ef6:	40d9      	lsrs	r1, r3
     ef8:	1e45      	subs	r5, r0, #1
     efa:	41a8      	sbcs	r0, r5
     efc:	4488      	add	r8, r1
     efe:	4307      	orrs	r7, r0
     f00:	18bf      	adds	r7, r7, r2
     f02:	4297      	cmp	r7, r2
     f04:	4192      	sbcs	r2, r2
     f06:	4251      	negs	r1, r2
     f08:	4441      	add	r1, r8
     f0a:	0035      	movs	r5, r6
     f0c:	e63a      	b.n	b84 <__aeabi_dadd+0x164>
     f0e:	4664      	mov	r4, ip
     f10:	0035      	movs	r5, r6
     f12:	4641      	mov	r1, r8
     f14:	0010      	movs	r0, r2
     f16:	e685      	b.n	c24 <__aeabi_dadd+0x204>
     f18:	000b      	movs	r3, r1
     f1a:	4303      	orrs	r3, r0
     f1c:	2d00      	cmp	r5, #0
     f1e:	d000      	beq.n	f22 <__aeabi_dadd+0x502>
     f20:	e663      	b.n	bea <__aeabi_dadd+0x1ca>
     f22:	2b00      	cmp	r3, #0
     f24:	d0f5      	beq.n	f12 <__aeabi_dadd+0x4f2>
     f26:	4643      	mov	r3, r8
     f28:	4313      	orrs	r3, r2
     f2a:	d100      	bne.n	f2e <__aeabi_dadd+0x50e>
     f2c:	e67a      	b.n	c24 <__aeabi_dadd+0x204>
     f2e:	1887      	adds	r7, r0, r2
     f30:	4287      	cmp	r7, r0
     f32:	4180      	sbcs	r0, r0
     f34:	2207      	movs	r2, #7
     f36:	4441      	add	r1, r8
     f38:	4240      	negs	r0, r0
     f3a:	1809      	adds	r1, r1, r0
     f3c:	403a      	ands	r2, r7
     f3e:	020b      	lsls	r3, r1, #8
     f40:	d400      	bmi.n	f44 <__aeabi_dadd+0x524>
     f42:	e6d5      	b.n	cf0 <__aeabi_dadd+0x2d0>
     f44:	4b43      	ldr	r3, [pc, #268]	; (1054 <__aeabi_dadd+0x634>)
     f46:	3501      	adds	r5, #1
     f48:	4019      	ands	r1, r3
     f4a:	e5c9      	b.n	ae0 <__aeabi_dadd+0xc0>
     f4c:	0038      	movs	r0, r7
     f4e:	e669      	b.n	c24 <__aeabi_dadd+0x204>
     f50:	001e      	movs	r6, r3
     f52:	4647      	mov	r7, r8
     f54:	3e20      	subs	r6, #32
     f56:	40f7      	lsrs	r7, r6
     f58:	46bc      	mov	ip, r7
     f5a:	2b20      	cmp	r3, #32
     f5c:	d004      	beq.n	f68 <__aeabi_dadd+0x548>
     f5e:	2640      	movs	r6, #64	; 0x40
     f60:	1af3      	subs	r3, r6, r3
     f62:	4646      	mov	r6, r8
     f64:	409e      	lsls	r6, r3
     f66:	4332      	orrs	r2, r6
     f68:	0017      	movs	r7, r2
     f6a:	4663      	mov	r3, ip
     f6c:	1e7a      	subs	r2, r7, #1
     f6e:	4197      	sbcs	r7, r2
     f70:	431f      	orrs	r7, r3
     f72:	e602      	b.n	b7a <__aeabi_dadd+0x15a>
     f74:	4d36      	ldr	r5, [pc, #216]	; (1050 <__aeabi_dadd+0x630>)
     f76:	42ae      	cmp	r6, r5
     f78:	d0ca      	beq.n	f10 <__aeabi_dadd+0x4f0>
     f7a:	2580      	movs	r5, #128	; 0x80
     f7c:	042d      	lsls	r5, r5, #16
     f7e:	425b      	negs	r3, r3
     f80:	4329      	orrs	r1, r5
     f82:	e7a6      	b.n	ed2 <__aeabi_dadd+0x4b2>
     f84:	4308      	orrs	r0, r1
     f86:	1e41      	subs	r1, r0, #1
     f88:	4188      	sbcs	r0, r1
     f8a:	e6a6      	b.n	cda <__aeabi_dadd+0x2ba>
     f8c:	2b00      	cmp	r3, #0
     f8e:	d100      	bne.n	f92 <__aeabi_dadd+0x572>
     f90:	e648      	b.n	c24 <__aeabi_dadd+0x204>
     f92:	1a87      	subs	r7, r0, r2
     f94:	4643      	mov	r3, r8
     f96:	42b8      	cmp	r0, r7
     f98:	41b6      	sbcs	r6, r6
     f9a:	1acb      	subs	r3, r1, r3
     f9c:	4276      	negs	r6, r6
     f9e:	1b9e      	subs	r6, r3, r6
     fa0:	0233      	lsls	r3, r6, #8
     fa2:	d54b      	bpl.n	103c <__aeabi_dadd+0x61c>
     fa4:	1a17      	subs	r7, r2, r0
     fa6:	4643      	mov	r3, r8
     fa8:	42ba      	cmp	r2, r7
     faa:	4192      	sbcs	r2, r2
     fac:	1a59      	subs	r1, r3, r1
     fae:	4252      	negs	r2, r2
     fb0:	1a89      	subs	r1, r1, r2
     fb2:	2207      	movs	r2, #7
     fb4:	4664      	mov	r4, ip
     fb6:	403a      	ands	r2, r7
     fb8:	e592      	b.n	ae0 <__aeabi_dadd+0xc0>
     fba:	4301      	orrs	r1, r0
     fbc:	000f      	movs	r7, r1
     fbe:	1e79      	subs	r1, r7, #1
     fc0:	418f      	sbcs	r7, r1
     fc2:	e79d      	b.n	f00 <__aeabi_dadd+0x4e0>
     fc4:	001c      	movs	r4, r3
     fc6:	000f      	movs	r7, r1
     fc8:	3c20      	subs	r4, #32
     fca:	40e7      	lsrs	r7, r4
     fcc:	2b20      	cmp	r3, #32
     fce:	d003      	beq.n	fd8 <__aeabi_dadd+0x5b8>
     fd0:	2440      	movs	r4, #64	; 0x40
     fd2:	1ae3      	subs	r3, r4, r3
     fd4:	4099      	lsls	r1, r3
     fd6:	4308      	orrs	r0, r1
     fd8:	1e41      	subs	r1, r0, #1
     fda:	4188      	sbcs	r0, r1
     fdc:	4338      	orrs	r0, r7
     fde:	e67c      	b.n	cda <__aeabi_dadd+0x2ba>
     fe0:	2200      	movs	r2, #0
     fe2:	2400      	movs	r4, #0
     fe4:	e625      	b.n	c32 <__aeabi_dadd+0x212>
     fe6:	1a17      	subs	r7, r2, r0
     fe8:	4643      	mov	r3, r8
     fea:	42ba      	cmp	r2, r7
     fec:	4192      	sbcs	r2, r2
     fee:	1a59      	subs	r1, r3, r1
     ff0:	4252      	negs	r2, r2
     ff2:	1a89      	subs	r1, r1, r2
     ff4:	4664      	mov	r4, ip
     ff6:	0035      	movs	r5, r6
     ff8:	e543      	b.n	a82 <__aeabi_dadd+0x62>
     ffa:	4641      	mov	r1, r8
     ffc:	0010      	movs	r0, r2
     ffe:	4d14      	ldr	r5, [pc, #80]	; (1050 <__aeabi_dadd+0x630>)
    1000:	e610      	b.n	c24 <__aeabi_dadd+0x204>
    1002:	2280      	movs	r2, #128	; 0x80
    1004:	2400      	movs	r4, #0
    1006:	0312      	lsls	r2, r2, #12
    1008:	e680      	b.n	d0c <__aeabi_dadd+0x2ec>
    100a:	001d      	movs	r5, r3
    100c:	000f      	movs	r7, r1
    100e:	3d20      	subs	r5, #32
    1010:	40ef      	lsrs	r7, r5
    1012:	46bc      	mov	ip, r7
    1014:	2b20      	cmp	r3, #32
    1016:	d003      	beq.n	1020 <__aeabi_dadd+0x600>
    1018:	2540      	movs	r5, #64	; 0x40
    101a:	1aeb      	subs	r3, r5, r3
    101c:	4099      	lsls	r1, r3
    101e:	4308      	orrs	r0, r1
    1020:	0007      	movs	r7, r0
    1022:	4663      	mov	r3, ip
    1024:	1e78      	subs	r0, r7, #1
    1026:	4187      	sbcs	r7, r0
    1028:	431f      	orrs	r7, r3
    102a:	e769      	b.n	f00 <__aeabi_dadd+0x4e0>
    102c:	1887      	adds	r7, r0, r2
    102e:	4297      	cmp	r7, r2
    1030:	419b      	sbcs	r3, r3
    1032:	4441      	add	r1, r8
    1034:	425b      	negs	r3, r3
    1036:	18c9      	adds	r1, r1, r3
    1038:	0035      	movs	r5, r6
    103a:	e5a3      	b.n	b84 <__aeabi_dadd+0x164>
    103c:	003b      	movs	r3, r7
    103e:	4333      	orrs	r3, r6
    1040:	d0ce      	beq.n	fe0 <__aeabi_dadd+0x5c0>
    1042:	2207      	movs	r2, #7
    1044:	0031      	movs	r1, r6
    1046:	403a      	ands	r2, r7
    1048:	e652      	b.n	cf0 <__aeabi_dadd+0x2d0>
    104a:	2300      	movs	r3, #0
    104c:	001a      	movs	r2, r3
    104e:	e5f4      	b.n	c3a <__aeabi_dadd+0x21a>
    1050:	000007ff 	.word	0x000007ff
    1054:	ff7fffff 	.word	0xff7fffff

00001058 <__aeabi_ddiv>:
__aeabi_ddiv():
    1058:	b5f0      	push	{r4, r5, r6, r7, lr}
    105a:	4657      	mov	r7, sl
    105c:	46de      	mov	lr, fp
    105e:	464e      	mov	r6, r9
    1060:	4645      	mov	r5, r8
    1062:	b5e0      	push	{r5, r6, r7, lr}
    1064:	4683      	mov	fp, r0
    1066:	0007      	movs	r7, r0
    1068:	030e      	lsls	r6, r1, #12
    106a:	0048      	lsls	r0, r1, #1
    106c:	b085      	sub	sp, #20
    106e:	4692      	mov	sl, r2
    1070:	001c      	movs	r4, r3
    1072:	0b36      	lsrs	r6, r6, #12
    1074:	0d40      	lsrs	r0, r0, #21
    1076:	0fcd      	lsrs	r5, r1, #31
    1078:	2800      	cmp	r0, #0
    107a:	d100      	bne.n	107e <__aeabi_ddiv+0x26>
    107c:	e09d      	b.n	11ba <__aeabi_ddiv+0x162>
    107e:	4b95      	ldr	r3, [pc, #596]	; (12d4 <__aeabi_ddiv+0x27c>)
    1080:	4298      	cmp	r0, r3
    1082:	d039      	beq.n	10f8 <__aeabi_ddiv+0xa0>
    1084:	2380      	movs	r3, #128	; 0x80
    1086:	00f6      	lsls	r6, r6, #3
    1088:	041b      	lsls	r3, r3, #16
    108a:	431e      	orrs	r6, r3
    108c:	4a92      	ldr	r2, [pc, #584]	; (12d8 <__aeabi_ddiv+0x280>)
    108e:	0f7b      	lsrs	r3, r7, #29
    1090:	4333      	orrs	r3, r6
    1092:	4699      	mov	r9, r3
    1094:	4694      	mov	ip, r2
    1096:	0003      	movs	r3, r0
    1098:	4463      	add	r3, ip
    109a:	9300      	str	r3, [sp, #0]
    109c:	2300      	movs	r3, #0
    109e:	2600      	movs	r6, #0
    10a0:	00ff      	lsls	r7, r7, #3
    10a2:	9302      	str	r3, [sp, #8]
    10a4:	0323      	lsls	r3, r4, #12
    10a6:	0b1b      	lsrs	r3, r3, #12
    10a8:	4698      	mov	r8, r3
    10aa:	0063      	lsls	r3, r4, #1
    10ac:	0fe4      	lsrs	r4, r4, #31
    10ae:	4652      	mov	r2, sl
    10b0:	0d5b      	lsrs	r3, r3, #21
    10b2:	9401      	str	r4, [sp, #4]
    10b4:	d100      	bne.n	10b8 <__aeabi_ddiv+0x60>
    10b6:	e0b3      	b.n	1220 <__aeabi_ddiv+0x1c8>
    10b8:	4986      	ldr	r1, [pc, #536]	; (12d4 <__aeabi_ddiv+0x27c>)
    10ba:	428b      	cmp	r3, r1
    10bc:	d100      	bne.n	10c0 <__aeabi_ddiv+0x68>
    10be:	e09e      	b.n	11fe <__aeabi_ddiv+0x1a6>
    10c0:	4642      	mov	r2, r8
    10c2:	00d1      	lsls	r1, r2, #3
    10c4:	2280      	movs	r2, #128	; 0x80
    10c6:	0412      	lsls	r2, r2, #16
    10c8:	430a      	orrs	r2, r1
    10ca:	4651      	mov	r1, sl
    10cc:	0f49      	lsrs	r1, r1, #29
    10ce:	4311      	orrs	r1, r2
    10d0:	468b      	mov	fp, r1
    10d2:	4981      	ldr	r1, [pc, #516]	; (12d8 <__aeabi_ddiv+0x280>)
    10d4:	4652      	mov	r2, sl
    10d6:	468c      	mov	ip, r1
    10d8:	9900      	ldr	r1, [sp, #0]
    10da:	4463      	add	r3, ip
    10dc:	1acb      	subs	r3, r1, r3
    10de:	2100      	movs	r1, #0
    10e0:	00d2      	lsls	r2, r2, #3
    10e2:	9300      	str	r3, [sp, #0]
    10e4:	002b      	movs	r3, r5
    10e6:	4063      	eors	r3, r4
    10e8:	469a      	mov	sl, r3
    10ea:	2e0f      	cmp	r6, #15
    10ec:	d900      	bls.n	10f0 <__aeabi_ddiv+0x98>
    10ee:	e105      	b.n	12fc <__aeabi_ddiv+0x2a4>
    10f0:	4b7a      	ldr	r3, [pc, #488]	; (12dc <__aeabi_ddiv+0x284>)
    10f2:	00b6      	lsls	r6, r6, #2
    10f4:	599b      	ldr	r3, [r3, r6]
    10f6:	469f      	mov	pc, r3
    10f8:	465b      	mov	r3, fp
    10fa:	4333      	orrs	r3, r6
    10fc:	4699      	mov	r9, r3
    10fe:	d000      	beq.n	1102 <__aeabi_ddiv+0xaa>
    1100:	e0b8      	b.n	1274 <__aeabi_ddiv+0x21c>
    1102:	2302      	movs	r3, #2
    1104:	2608      	movs	r6, #8
    1106:	2700      	movs	r7, #0
    1108:	9000      	str	r0, [sp, #0]
    110a:	9302      	str	r3, [sp, #8]
    110c:	e7ca      	b.n	10a4 <__aeabi_ddiv+0x4c>
    110e:	46cb      	mov	fp, r9
    1110:	003a      	movs	r2, r7
    1112:	9902      	ldr	r1, [sp, #8]
    1114:	9501      	str	r5, [sp, #4]
    1116:	9b01      	ldr	r3, [sp, #4]
    1118:	469a      	mov	sl, r3
    111a:	2902      	cmp	r1, #2
    111c:	d027      	beq.n	116e <__aeabi_ddiv+0x116>
    111e:	2903      	cmp	r1, #3
    1120:	d100      	bne.n	1124 <__aeabi_ddiv+0xcc>
    1122:	e280      	b.n	1626 <__aeabi_ddiv+0x5ce>
    1124:	2901      	cmp	r1, #1
    1126:	d044      	beq.n	11b2 <__aeabi_ddiv+0x15a>
    1128:	496d      	ldr	r1, [pc, #436]	; (12e0 <__aeabi_ddiv+0x288>)
    112a:	9b00      	ldr	r3, [sp, #0]
    112c:	468c      	mov	ip, r1
    112e:	4463      	add	r3, ip
    1130:	001c      	movs	r4, r3
    1132:	2c00      	cmp	r4, #0
    1134:	dd38      	ble.n	11a8 <__aeabi_ddiv+0x150>
    1136:	0753      	lsls	r3, r2, #29
    1138:	d000      	beq.n	113c <__aeabi_ddiv+0xe4>
    113a:	e213      	b.n	1564 <__aeabi_ddiv+0x50c>
    113c:	08d2      	lsrs	r2, r2, #3
    113e:	465b      	mov	r3, fp
    1140:	01db      	lsls	r3, r3, #7
    1142:	d509      	bpl.n	1158 <__aeabi_ddiv+0x100>
    1144:	4659      	mov	r1, fp
    1146:	4b67      	ldr	r3, [pc, #412]	; (12e4 <__aeabi_ddiv+0x28c>)
    1148:	4019      	ands	r1, r3
    114a:	468b      	mov	fp, r1
    114c:	2180      	movs	r1, #128	; 0x80
    114e:	00c9      	lsls	r1, r1, #3
    1150:	468c      	mov	ip, r1
    1152:	9b00      	ldr	r3, [sp, #0]
    1154:	4463      	add	r3, ip
    1156:	001c      	movs	r4, r3
    1158:	4b63      	ldr	r3, [pc, #396]	; (12e8 <__aeabi_ddiv+0x290>)
    115a:	429c      	cmp	r4, r3
    115c:	dc07      	bgt.n	116e <__aeabi_ddiv+0x116>
    115e:	465b      	mov	r3, fp
    1160:	0564      	lsls	r4, r4, #21
    1162:	075f      	lsls	r7, r3, #29
    1164:	025b      	lsls	r3, r3, #9
    1166:	4317      	orrs	r7, r2
    1168:	0b1b      	lsrs	r3, r3, #12
    116a:	0d62      	lsrs	r2, r4, #21
    116c:	e002      	b.n	1174 <__aeabi_ddiv+0x11c>
    116e:	2300      	movs	r3, #0
    1170:	2700      	movs	r7, #0
    1172:	4a58      	ldr	r2, [pc, #352]	; (12d4 <__aeabi_ddiv+0x27c>)
    1174:	2100      	movs	r1, #0
    1176:	031b      	lsls	r3, r3, #12
    1178:	0b1c      	lsrs	r4, r3, #12
    117a:	0d0b      	lsrs	r3, r1, #20
    117c:	051b      	lsls	r3, r3, #20
    117e:	4323      	orrs	r3, r4
    1180:	0514      	lsls	r4, r2, #20
    1182:	4a5a      	ldr	r2, [pc, #360]	; (12ec <__aeabi_ddiv+0x294>)
    1184:	0038      	movs	r0, r7
    1186:	4013      	ands	r3, r2
    1188:	431c      	orrs	r4, r3
    118a:	4653      	mov	r3, sl
    118c:	0064      	lsls	r4, r4, #1
    118e:	07db      	lsls	r3, r3, #31
    1190:	0864      	lsrs	r4, r4, #1
    1192:	431c      	orrs	r4, r3
    1194:	0021      	movs	r1, r4
    1196:	b005      	add	sp, #20
    1198:	bc3c      	pop	{r2, r3, r4, r5}
    119a:	4690      	mov	r8, r2
    119c:	4699      	mov	r9, r3
    119e:	46a2      	mov	sl, r4
    11a0:	46ab      	mov	fp, r5
    11a2:	bdf0      	pop	{r4, r5, r6, r7, pc}
    11a4:	2201      	movs	r2, #1
    11a6:	4252      	negs	r2, r2
    11a8:	2301      	movs	r3, #1
    11aa:	1b1b      	subs	r3, r3, r4
    11ac:	2b38      	cmp	r3, #56	; 0x38
    11ae:	dc00      	bgt.n	11b2 <__aeabi_ddiv+0x15a>
    11b0:	e1ad      	b.n	150e <__aeabi_ddiv+0x4b6>
    11b2:	2200      	movs	r2, #0
    11b4:	2300      	movs	r3, #0
    11b6:	2700      	movs	r7, #0
    11b8:	e7dc      	b.n	1174 <__aeabi_ddiv+0x11c>
    11ba:	465b      	mov	r3, fp
    11bc:	4333      	orrs	r3, r6
    11be:	4699      	mov	r9, r3
    11c0:	d05e      	beq.n	1280 <__aeabi_ddiv+0x228>
    11c2:	2e00      	cmp	r6, #0
    11c4:	d100      	bne.n	11c8 <__aeabi_ddiv+0x170>
    11c6:	e18a      	b.n	14de <__aeabi_ddiv+0x486>
    11c8:	0030      	movs	r0, r6
    11ca:	f001 f83b 	bl	2244 <__clzsi2>
    11ce:	0003      	movs	r3, r0
    11d0:	3b0b      	subs	r3, #11
    11d2:	2b1c      	cmp	r3, #28
    11d4:	dd00      	ble.n	11d8 <__aeabi_ddiv+0x180>
    11d6:	e17b      	b.n	14d0 <__aeabi_ddiv+0x478>
    11d8:	221d      	movs	r2, #29
    11da:	1ad3      	subs	r3, r2, r3
    11dc:	465a      	mov	r2, fp
    11de:	0001      	movs	r1, r0
    11e0:	40da      	lsrs	r2, r3
    11e2:	3908      	subs	r1, #8
    11e4:	408e      	lsls	r6, r1
    11e6:	0013      	movs	r3, r2
    11e8:	465f      	mov	r7, fp
    11ea:	4333      	orrs	r3, r6
    11ec:	4699      	mov	r9, r3
    11ee:	408f      	lsls	r7, r1
    11f0:	4b3f      	ldr	r3, [pc, #252]	; (12f0 <__aeabi_ddiv+0x298>)
    11f2:	2600      	movs	r6, #0
    11f4:	1a1b      	subs	r3, r3, r0
    11f6:	9300      	str	r3, [sp, #0]
    11f8:	2300      	movs	r3, #0
    11fa:	9302      	str	r3, [sp, #8]
    11fc:	e752      	b.n	10a4 <__aeabi_ddiv+0x4c>
    11fe:	4641      	mov	r1, r8
    1200:	4653      	mov	r3, sl
    1202:	430b      	orrs	r3, r1
    1204:	493b      	ldr	r1, [pc, #236]	; (12f4 <__aeabi_ddiv+0x29c>)
    1206:	469b      	mov	fp, r3
    1208:	468c      	mov	ip, r1
    120a:	9b00      	ldr	r3, [sp, #0]
    120c:	4463      	add	r3, ip
    120e:	9300      	str	r3, [sp, #0]
    1210:	465b      	mov	r3, fp
    1212:	2b00      	cmp	r3, #0
    1214:	d13b      	bne.n	128e <__aeabi_ddiv+0x236>
    1216:	2302      	movs	r3, #2
    1218:	2200      	movs	r2, #0
    121a:	431e      	orrs	r6, r3
    121c:	2102      	movs	r1, #2
    121e:	e761      	b.n	10e4 <__aeabi_ddiv+0x8c>
    1220:	4643      	mov	r3, r8
    1222:	4313      	orrs	r3, r2
    1224:	469b      	mov	fp, r3
    1226:	d037      	beq.n	1298 <__aeabi_ddiv+0x240>
    1228:	4643      	mov	r3, r8
    122a:	2b00      	cmp	r3, #0
    122c:	d100      	bne.n	1230 <__aeabi_ddiv+0x1d8>
    122e:	e162      	b.n	14f6 <__aeabi_ddiv+0x49e>
    1230:	4640      	mov	r0, r8
    1232:	f001 f807 	bl	2244 <__clzsi2>
    1236:	0003      	movs	r3, r0
    1238:	3b0b      	subs	r3, #11
    123a:	2b1c      	cmp	r3, #28
    123c:	dd00      	ble.n	1240 <__aeabi_ddiv+0x1e8>
    123e:	e153      	b.n	14e8 <__aeabi_ddiv+0x490>
    1240:	0002      	movs	r2, r0
    1242:	4641      	mov	r1, r8
    1244:	3a08      	subs	r2, #8
    1246:	4091      	lsls	r1, r2
    1248:	4688      	mov	r8, r1
    124a:	211d      	movs	r1, #29
    124c:	1acb      	subs	r3, r1, r3
    124e:	4651      	mov	r1, sl
    1250:	40d9      	lsrs	r1, r3
    1252:	000b      	movs	r3, r1
    1254:	4641      	mov	r1, r8
    1256:	430b      	orrs	r3, r1
    1258:	469b      	mov	fp, r3
    125a:	4653      	mov	r3, sl
    125c:	4093      	lsls	r3, r2
    125e:	001a      	movs	r2, r3
    1260:	9b00      	ldr	r3, [sp, #0]
    1262:	4925      	ldr	r1, [pc, #148]	; (12f8 <__aeabi_ddiv+0x2a0>)
    1264:	469c      	mov	ip, r3
    1266:	4460      	add	r0, ip
    1268:	0003      	movs	r3, r0
    126a:	468c      	mov	ip, r1
    126c:	4463      	add	r3, ip
    126e:	9300      	str	r3, [sp, #0]
    1270:	2100      	movs	r1, #0
    1272:	e737      	b.n	10e4 <__aeabi_ddiv+0x8c>
    1274:	2303      	movs	r3, #3
    1276:	46b1      	mov	r9, r6
    1278:	9000      	str	r0, [sp, #0]
    127a:	260c      	movs	r6, #12
    127c:	9302      	str	r3, [sp, #8]
    127e:	e711      	b.n	10a4 <__aeabi_ddiv+0x4c>
    1280:	2300      	movs	r3, #0
    1282:	9300      	str	r3, [sp, #0]
    1284:	3301      	adds	r3, #1
    1286:	2604      	movs	r6, #4
    1288:	2700      	movs	r7, #0
    128a:	9302      	str	r3, [sp, #8]
    128c:	e70a      	b.n	10a4 <__aeabi_ddiv+0x4c>
    128e:	2303      	movs	r3, #3
    1290:	46c3      	mov	fp, r8
    1292:	431e      	orrs	r6, r3
    1294:	2103      	movs	r1, #3
    1296:	e725      	b.n	10e4 <__aeabi_ddiv+0x8c>
    1298:	3301      	adds	r3, #1
    129a:	431e      	orrs	r6, r3
    129c:	2200      	movs	r2, #0
    129e:	2101      	movs	r1, #1
    12a0:	e720      	b.n	10e4 <__aeabi_ddiv+0x8c>
    12a2:	2300      	movs	r3, #0
    12a4:	469a      	mov	sl, r3
    12a6:	2380      	movs	r3, #128	; 0x80
    12a8:	2700      	movs	r7, #0
    12aa:	031b      	lsls	r3, r3, #12
    12ac:	4a09      	ldr	r2, [pc, #36]	; (12d4 <__aeabi_ddiv+0x27c>)
    12ae:	e761      	b.n	1174 <__aeabi_ddiv+0x11c>
    12b0:	2380      	movs	r3, #128	; 0x80
    12b2:	4649      	mov	r1, r9
    12b4:	031b      	lsls	r3, r3, #12
    12b6:	4219      	tst	r1, r3
    12b8:	d100      	bne.n	12bc <__aeabi_ddiv+0x264>
    12ba:	e0e2      	b.n	1482 <__aeabi_ddiv+0x42a>
    12bc:	4659      	mov	r1, fp
    12be:	4219      	tst	r1, r3
    12c0:	d000      	beq.n	12c4 <__aeabi_ddiv+0x26c>
    12c2:	e0de      	b.n	1482 <__aeabi_ddiv+0x42a>
    12c4:	430b      	orrs	r3, r1
    12c6:	031b      	lsls	r3, r3, #12
    12c8:	0017      	movs	r7, r2
    12ca:	0b1b      	lsrs	r3, r3, #12
    12cc:	46a2      	mov	sl, r4
    12ce:	4a01      	ldr	r2, [pc, #4]	; (12d4 <__aeabi_ddiv+0x27c>)
    12d0:	e750      	b.n	1174 <__aeabi_ddiv+0x11c>
    12d2:	46c0      	nop			; (mov r8, r8)
    12d4:	000007ff 	.word	0x000007ff
    12d8:	fffffc01 	.word	0xfffffc01
    12dc:	00005b44 	.word	0x00005b44
    12e0:	000003ff 	.word	0x000003ff
    12e4:	feffffff 	.word	0xfeffffff
    12e8:	000007fe 	.word	0x000007fe
    12ec:	800fffff 	.word	0x800fffff
    12f0:	fffffc0d 	.word	0xfffffc0d
    12f4:	fffff801 	.word	0xfffff801
    12f8:	000003f3 	.word	0x000003f3
    12fc:	45d9      	cmp	r9, fp
    12fe:	d900      	bls.n	1302 <__aeabi_ddiv+0x2aa>
    1300:	e0cb      	b.n	149a <__aeabi_ddiv+0x442>
    1302:	d100      	bne.n	1306 <__aeabi_ddiv+0x2ae>
    1304:	e0c6      	b.n	1494 <__aeabi_ddiv+0x43c>
    1306:	003c      	movs	r4, r7
    1308:	4648      	mov	r0, r9
    130a:	2700      	movs	r7, #0
    130c:	9b00      	ldr	r3, [sp, #0]
    130e:	3b01      	subs	r3, #1
    1310:	9300      	str	r3, [sp, #0]
    1312:	465b      	mov	r3, fp
    1314:	0e16      	lsrs	r6, r2, #24
    1316:	021b      	lsls	r3, r3, #8
    1318:	431e      	orrs	r6, r3
    131a:	0213      	lsls	r3, r2, #8
    131c:	4698      	mov	r8, r3
    131e:	0433      	lsls	r3, r6, #16
    1320:	0c1b      	lsrs	r3, r3, #16
    1322:	4699      	mov	r9, r3
    1324:	0c31      	lsrs	r1, r6, #16
    1326:	9101      	str	r1, [sp, #4]
    1328:	f7ff f97e 	bl	628 <__aeabi_uidivmod>
    132c:	464a      	mov	r2, r9
    132e:	4342      	muls	r2, r0
    1330:	040b      	lsls	r3, r1, #16
    1332:	0c21      	lsrs	r1, r4, #16
    1334:	0005      	movs	r5, r0
    1336:	4319      	orrs	r1, r3
    1338:	428a      	cmp	r2, r1
    133a:	d907      	bls.n	134c <__aeabi_ddiv+0x2f4>
    133c:	1989      	adds	r1, r1, r6
    133e:	3d01      	subs	r5, #1
    1340:	428e      	cmp	r6, r1
    1342:	d803      	bhi.n	134c <__aeabi_ddiv+0x2f4>
    1344:	428a      	cmp	r2, r1
    1346:	d901      	bls.n	134c <__aeabi_ddiv+0x2f4>
    1348:	1e85      	subs	r5, r0, #2
    134a:	1989      	adds	r1, r1, r6
    134c:	1a88      	subs	r0, r1, r2
    134e:	9901      	ldr	r1, [sp, #4]
    1350:	f7ff f96a 	bl	628 <__aeabi_uidivmod>
    1354:	0409      	lsls	r1, r1, #16
    1356:	468c      	mov	ip, r1
    1358:	464a      	mov	r2, r9
    135a:	0421      	lsls	r1, r4, #16
    135c:	4664      	mov	r4, ip
    135e:	4342      	muls	r2, r0
    1360:	0c09      	lsrs	r1, r1, #16
    1362:	0003      	movs	r3, r0
    1364:	4321      	orrs	r1, r4
    1366:	428a      	cmp	r2, r1
    1368:	d904      	bls.n	1374 <__aeabi_ddiv+0x31c>
    136a:	1989      	adds	r1, r1, r6
    136c:	3b01      	subs	r3, #1
    136e:	428e      	cmp	r6, r1
    1370:	d800      	bhi.n	1374 <__aeabi_ddiv+0x31c>
    1372:	e0f1      	b.n	1558 <__aeabi_ddiv+0x500>
    1374:	042d      	lsls	r5, r5, #16
    1376:	431d      	orrs	r5, r3
    1378:	46ab      	mov	fp, r5
    137a:	4643      	mov	r3, r8
    137c:	1a89      	subs	r1, r1, r2
    137e:	4642      	mov	r2, r8
    1380:	0c28      	lsrs	r0, r5, #16
    1382:	0412      	lsls	r2, r2, #16
    1384:	0c1d      	lsrs	r5, r3, #16
    1386:	465b      	mov	r3, fp
    1388:	0c14      	lsrs	r4, r2, #16
    138a:	0022      	movs	r2, r4
    138c:	041b      	lsls	r3, r3, #16
    138e:	0c1b      	lsrs	r3, r3, #16
    1390:	435a      	muls	r2, r3
    1392:	9403      	str	r4, [sp, #12]
    1394:	436b      	muls	r3, r5
    1396:	4344      	muls	r4, r0
    1398:	9502      	str	r5, [sp, #8]
    139a:	4368      	muls	r0, r5
    139c:	191b      	adds	r3, r3, r4
    139e:	0c15      	lsrs	r5, r2, #16
    13a0:	18eb      	adds	r3, r5, r3
    13a2:	429c      	cmp	r4, r3
    13a4:	d903      	bls.n	13ae <__aeabi_ddiv+0x356>
    13a6:	2480      	movs	r4, #128	; 0x80
    13a8:	0264      	lsls	r4, r4, #9
    13aa:	46a4      	mov	ip, r4
    13ac:	4460      	add	r0, ip
    13ae:	0c1c      	lsrs	r4, r3, #16
    13b0:	0415      	lsls	r5, r2, #16
    13b2:	041b      	lsls	r3, r3, #16
    13b4:	0c2d      	lsrs	r5, r5, #16
    13b6:	1820      	adds	r0, r4, r0
    13b8:	195d      	adds	r5, r3, r5
    13ba:	4281      	cmp	r1, r0
    13bc:	d377      	bcc.n	14ae <__aeabi_ddiv+0x456>
    13be:	d073      	beq.n	14a8 <__aeabi_ddiv+0x450>
    13c0:	1a0c      	subs	r4, r1, r0
    13c2:	4aa2      	ldr	r2, [pc, #648]	; (164c <__aeabi_ddiv+0x5f4>)
    13c4:	1b7d      	subs	r5, r7, r5
    13c6:	42af      	cmp	r7, r5
    13c8:	41bf      	sbcs	r7, r7
    13ca:	4694      	mov	ip, r2
    13cc:	9b00      	ldr	r3, [sp, #0]
    13ce:	427f      	negs	r7, r7
    13d0:	4463      	add	r3, ip
    13d2:	1be0      	subs	r0, r4, r7
    13d4:	001c      	movs	r4, r3
    13d6:	4286      	cmp	r6, r0
    13d8:	d100      	bne.n	13dc <__aeabi_ddiv+0x384>
    13da:	e0db      	b.n	1594 <__aeabi_ddiv+0x53c>
    13dc:	9901      	ldr	r1, [sp, #4]
    13de:	f7ff f923 	bl	628 <__aeabi_uidivmod>
    13e2:	464a      	mov	r2, r9
    13e4:	4342      	muls	r2, r0
    13e6:	040b      	lsls	r3, r1, #16
    13e8:	0c29      	lsrs	r1, r5, #16
    13ea:	0007      	movs	r7, r0
    13ec:	4319      	orrs	r1, r3
    13ee:	428a      	cmp	r2, r1
    13f0:	d907      	bls.n	1402 <__aeabi_ddiv+0x3aa>
    13f2:	1989      	adds	r1, r1, r6
    13f4:	3f01      	subs	r7, #1
    13f6:	428e      	cmp	r6, r1
    13f8:	d803      	bhi.n	1402 <__aeabi_ddiv+0x3aa>
    13fa:	428a      	cmp	r2, r1
    13fc:	d901      	bls.n	1402 <__aeabi_ddiv+0x3aa>
    13fe:	1e87      	subs	r7, r0, #2
    1400:	1989      	adds	r1, r1, r6
    1402:	1a88      	subs	r0, r1, r2
    1404:	9901      	ldr	r1, [sp, #4]
    1406:	f7ff f90f 	bl	628 <__aeabi_uidivmod>
    140a:	0409      	lsls	r1, r1, #16
    140c:	464a      	mov	r2, r9
    140e:	4689      	mov	r9, r1
    1410:	0429      	lsls	r1, r5, #16
    1412:	464d      	mov	r5, r9
    1414:	4342      	muls	r2, r0
    1416:	0c09      	lsrs	r1, r1, #16
    1418:	0003      	movs	r3, r0
    141a:	4329      	orrs	r1, r5
    141c:	428a      	cmp	r2, r1
    141e:	d907      	bls.n	1430 <__aeabi_ddiv+0x3d8>
    1420:	1989      	adds	r1, r1, r6
    1422:	3b01      	subs	r3, #1
    1424:	428e      	cmp	r6, r1
    1426:	d803      	bhi.n	1430 <__aeabi_ddiv+0x3d8>
    1428:	428a      	cmp	r2, r1
    142a:	d901      	bls.n	1430 <__aeabi_ddiv+0x3d8>
    142c:	1e83      	subs	r3, r0, #2
    142e:	1989      	adds	r1, r1, r6
    1430:	043f      	lsls	r7, r7, #16
    1432:	1a89      	subs	r1, r1, r2
    1434:	003a      	movs	r2, r7
    1436:	9f03      	ldr	r7, [sp, #12]
    1438:	431a      	orrs	r2, r3
    143a:	0038      	movs	r0, r7
    143c:	0413      	lsls	r3, r2, #16
    143e:	0c1b      	lsrs	r3, r3, #16
    1440:	4358      	muls	r0, r3
    1442:	4681      	mov	r9, r0
    1444:	9802      	ldr	r0, [sp, #8]
    1446:	0c15      	lsrs	r5, r2, #16
    1448:	436f      	muls	r7, r5
    144a:	4343      	muls	r3, r0
    144c:	4345      	muls	r5, r0
    144e:	4648      	mov	r0, r9
    1450:	0c00      	lsrs	r0, r0, #16
    1452:	4684      	mov	ip, r0
    1454:	19db      	adds	r3, r3, r7
    1456:	4463      	add	r3, ip
    1458:	429f      	cmp	r7, r3
    145a:	d903      	bls.n	1464 <__aeabi_ddiv+0x40c>
    145c:	2080      	movs	r0, #128	; 0x80
    145e:	0240      	lsls	r0, r0, #9
    1460:	4684      	mov	ip, r0
    1462:	4465      	add	r5, ip
    1464:	4648      	mov	r0, r9
    1466:	0c1f      	lsrs	r7, r3, #16
    1468:	0400      	lsls	r0, r0, #16
    146a:	041b      	lsls	r3, r3, #16
    146c:	0c00      	lsrs	r0, r0, #16
    146e:	197d      	adds	r5, r7, r5
    1470:	1818      	adds	r0, r3, r0
    1472:	42a9      	cmp	r1, r5
    1474:	d200      	bcs.n	1478 <__aeabi_ddiv+0x420>
    1476:	e084      	b.n	1582 <__aeabi_ddiv+0x52a>
    1478:	d100      	bne.n	147c <__aeabi_ddiv+0x424>
    147a:	e07f      	b.n	157c <__aeabi_ddiv+0x524>
    147c:	2301      	movs	r3, #1
    147e:	431a      	orrs	r2, r3
    1480:	e657      	b.n	1132 <__aeabi_ddiv+0xda>
    1482:	2380      	movs	r3, #128	; 0x80
    1484:	464a      	mov	r2, r9
    1486:	031b      	lsls	r3, r3, #12
    1488:	4313      	orrs	r3, r2
    148a:	031b      	lsls	r3, r3, #12
    148c:	0b1b      	lsrs	r3, r3, #12
    148e:	46aa      	mov	sl, r5
    1490:	4a6f      	ldr	r2, [pc, #444]	; (1650 <__aeabi_ddiv+0x5f8>)
    1492:	e66f      	b.n	1174 <__aeabi_ddiv+0x11c>
    1494:	42ba      	cmp	r2, r7
    1496:	d900      	bls.n	149a <__aeabi_ddiv+0x442>
    1498:	e735      	b.n	1306 <__aeabi_ddiv+0x2ae>
    149a:	464b      	mov	r3, r9
    149c:	07dc      	lsls	r4, r3, #31
    149e:	0858      	lsrs	r0, r3, #1
    14a0:	087b      	lsrs	r3, r7, #1
    14a2:	431c      	orrs	r4, r3
    14a4:	07ff      	lsls	r7, r7, #31
    14a6:	e734      	b.n	1312 <__aeabi_ddiv+0x2ba>
    14a8:	2400      	movs	r4, #0
    14aa:	42af      	cmp	r7, r5
    14ac:	d289      	bcs.n	13c2 <__aeabi_ddiv+0x36a>
    14ae:	4447      	add	r7, r8
    14b0:	4547      	cmp	r7, r8
    14b2:	41a4      	sbcs	r4, r4
    14b4:	465b      	mov	r3, fp
    14b6:	4264      	negs	r4, r4
    14b8:	19a4      	adds	r4, r4, r6
    14ba:	1864      	adds	r4, r4, r1
    14bc:	3b01      	subs	r3, #1
    14be:	42a6      	cmp	r6, r4
    14c0:	d21e      	bcs.n	1500 <__aeabi_ddiv+0x4a8>
    14c2:	42a0      	cmp	r0, r4
    14c4:	d86d      	bhi.n	15a2 <__aeabi_ddiv+0x54a>
    14c6:	d100      	bne.n	14ca <__aeabi_ddiv+0x472>
    14c8:	e0b6      	b.n	1638 <__aeabi_ddiv+0x5e0>
    14ca:	1a24      	subs	r4, r4, r0
    14cc:	469b      	mov	fp, r3
    14ce:	e778      	b.n	13c2 <__aeabi_ddiv+0x36a>
    14d0:	0003      	movs	r3, r0
    14d2:	465a      	mov	r2, fp
    14d4:	3b28      	subs	r3, #40	; 0x28
    14d6:	409a      	lsls	r2, r3
    14d8:	2700      	movs	r7, #0
    14da:	4691      	mov	r9, r2
    14dc:	e688      	b.n	11f0 <__aeabi_ddiv+0x198>
    14de:	4658      	mov	r0, fp
    14e0:	f000 feb0 	bl	2244 <__clzsi2>
    14e4:	3020      	adds	r0, #32
    14e6:	e672      	b.n	11ce <__aeabi_ddiv+0x176>
    14e8:	0003      	movs	r3, r0
    14ea:	4652      	mov	r2, sl
    14ec:	3b28      	subs	r3, #40	; 0x28
    14ee:	409a      	lsls	r2, r3
    14f0:	4693      	mov	fp, r2
    14f2:	2200      	movs	r2, #0
    14f4:	e6b4      	b.n	1260 <__aeabi_ddiv+0x208>
    14f6:	4650      	mov	r0, sl
    14f8:	f000 fea4 	bl	2244 <__clzsi2>
    14fc:	3020      	adds	r0, #32
    14fe:	e69a      	b.n	1236 <__aeabi_ddiv+0x1de>
    1500:	42a6      	cmp	r6, r4
    1502:	d1e2      	bne.n	14ca <__aeabi_ddiv+0x472>
    1504:	45b8      	cmp	r8, r7
    1506:	d9dc      	bls.n	14c2 <__aeabi_ddiv+0x46a>
    1508:	1a34      	subs	r4, r6, r0
    150a:	469b      	mov	fp, r3
    150c:	e759      	b.n	13c2 <__aeabi_ddiv+0x36a>
    150e:	2b1f      	cmp	r3, #31
    1510:	dc65      	bgt.n	15de <__aeabi_ddiv+0x586>
    1512:	4c50      	ldr	r4, [pc, #320]	; (1654 <__aeabi_ddiv+0x5fc>)
    1514:	9900      	ldr	r1, [sp, #0]
    1516:	46a4      	mov	ip, r4
    1518:	465c      	mov	r4, fp
    151a:	4461      	add	r1, ip
    151c:	0008      	movs	r0, r1
    151e:	408c      	lsls	r4, r1
    1520:	0011      	movs	r1, r2
    1522:	4082      	lsls	r2, r0
    1524:	40d9      	lsrs	r1, r3
    1526:	1e50      	subs	r0, r2, #1
    1528:	4182      	sbcs	r2, r0
    152a:	430c      	orrs	r4, r1
    152c:	4314      	orrs	r4, r2
    152e:	465a      	mov	r2, fp
    1530:	40da      	lsrs	r2, r3
    1532:	0013      	movs	r3, r2
    1534:	0762      	lsls	r2, r4, #29
    1536:	d009      	beq.n	154c <__aeabi_ddiv+0x4f4>
    1538:	220f      	movs	r2, #15
    153a:	4022      	ands	r2, r4
    153c:	2a04      	cmp	r2, #4
    153e:	d005      	beq.n	154c <__aeabi_ddiv+0x4f4>
    1540:	0022      	movs	r2, r4
    1542:	1d14      	adds	r4, r2, #4
    1544:	4294      	cmp	r4, r2
    1546:	4189      	sbcs	r1, r1
    1548:	4249      	negs	r1, r1
    154a:	185b      	adds	r3, r3, r1
    154c:	021a      	lsls	r2, r3, #8
    154e:	d562      	bpl.n	1616 <__aeabi_ddiv+0x5be>
    1550:	2201      	movs	r2, #1
    1552:	2300      	movs	r3, #0
    1554:	2700      	movs	r7, #0
    1556:	e60d      	b.n	1174 <__aeabi_ddiv+0x11c>
    1558:	428a      	cmp	r2, r1
    155a:	d800      	bhi.n	155e <__aeabi_ddiv+0x506>
    155c:	e70a      	b.n	1374 <__aeabi_ddiv+0x31c>
    155e:	1e83      	subs	r3, r0, #2
    1560:	1989      	adds	r1, r1, r6
    1562:	e707      	b.n	1374 <__aeabi_ddiv+0x31c>
    1564:	230f      	movs	r3, #15
    1566:	4013      	ands	r3, r2
    1568:	2b04      	cmp	r3, #4
    156a:	d100      	bne.n	156e <__aeabi_ddiv+0x516>
    156c:	e5e6      	b.n	113c <__aeabi_ddiv+0xe4>
    156e:	1d17      	adds	r7, r2, #4
    1570:	4297      	cmp	r7, r2
    1572:	4192      	sbcs	r2, r2
    1574:	4253      	negs	r3, r2
    1576:	449b      	add	fp, r3
    1578:	08fa      	lsrs	r2, r7, #3
    157a:	e5e0      	b.n	113e <__aeabi_ddiv+0xe6>
    157c:	2800      	cmp	r0, #0
    157e:	d100      	bne.n	1582 <__aeabi_ddiv+0x52a>
    1580:	e5d7      	b.n	1132 <__aeabi_ddiv+0xda>
    1582:	1871      	adds	r1, r6, r1
    1584:	1e53      	subs	r3, r2, #1
    1586:	42b1      	cmp	r1, r6
    1588:	d327      	bcc.n	15da <__aeabi_ddiv+0x582>
    158a:	42a9      	cmp	r1, r5
    158c:	d315      	bcc.n	15ba <__aeabi_ddiv+0x562>
    158e:	d058      	beq.n	1642 <__aeabi_ddiv+0x5ea>
    1590:	001a      	movs	r2, r3
    1592:	e773      	b.n	147c <__aeabi_ddiv+0x424>
    1594:	2b00      	cmp	r3, #0
    1596:	dc00      	bgt.n	159a <__aeabi_ddiv+0x542>
    1598:	e604      	b.n	11a4 <__aeabi_ddiv+0x14c>
    159a:	2301      	movs	r3, #1
    159c:	2200      	movs	r2, #0
    159e:	449b      	add	fp, r3
    15a0:	e5cd      	b.n	113e <__aeabi_ddiv+0xe6>
    15a2:	2302      	movs	r3, #2
    15a4:	4447      	add	r7, r8
    15a6:	4547      	cmp	r7, r8
    15a8:	4189      	sbcs	r1, r1
    15aa:	425b      	negs	r3, r3
    15ac:	469c      	mov	ip, r3
    15ae:	4249      	negs	r1, r1
    15b0:	1989      	adds	r1, r1, r6
    15b2:	190c      	adds	r4, r1, r4
    15b4:	44e3      	add	fp, ip
    15b6:	1a24      	subs	r4, r4, r0
    15b8:	e703      	b.n	13c2 <__aeabi_ddiv+0x36a>
    15ba:	4643      	mov	r3, r8
    15bc:	005f      	lsls	r7, r3, #1
    15be:	4547      	cmp	r7, r8
    15c0:	419b      	sbcs	r3, r3
    15c2:	46b8      	mov	r8, r7
    15c4:	425b      	negs	r3, r3
    15c6:	199e      	adds	r6, r3, r6
    15c8:	3a02      	subs	r2, #2
    15ca:	1989      	adds	r1, r1, r6
    15cc:	42a9      	cmp	r1, r5
    15ce:	d000      	beq.n	15d2 <__aeabi_ddiv+0x57a>
    15d0:	e754      	b.n	147c <__aeabi_ddiv+0x424>
    15d2:	4540      	cmp	r0, r8
    15d4:	d000      	beq.n	15d8 <__aeabi_ddiv+0x580>
    15d6:	e751      	b.n	147c <__aeabi_ddiv+0x424>
    15d8:	e5ab      	b.n	1132 <__aeabi_ddiv+0xda>
    15da:	001a      	movs	r2, r3
    15dc:	e7f6      	b.n	15cc <__aeabi_ddiv+0x574>
    15de:	211f      	movs	r1, #31
    15e0:	465f      	mov	r7, fp
    15e2:	4249      	negs	r1, r1
    15e4:	1b0c      	subs	r4, r1, r4
    15e6:	40e7      	lsrs	r7, r4
    15e8:	2b20      	cmp	r3, #32
    15ea:	d007      	beq.n	15fc <__aeabi_ddiv+0x5a4>
    15ec:	491a      	ldr	r1, [pc, #104]	; (1658 <__aeabi_ddiv+0x600>)
    15ee:	9b00      	ldr	r3, [sp, #0]
    15f0:	468c      	mov	ip, r1
    15f2:	4463      	add	r3, ip
    15f4:	0018      	movs	r0, r3
    15f6:	465b      	mov	r3, fp
    15f8:	4083      	lsls	r3, r0
    15fa:	431a      	orrs	r2, r3
    15fc:	1e50      	subs	r0, r2, #1
    15fe:	4182      	sbcs	r2, r0
    1600:	433a      	orrs	r2, r7
    1602:	2707      	movs	r7, #7
    1604:	2300      	movs	r3, #0
    1606:	4017      	ands	r7, r2
    1608:	d009      	beq.n	161e <__aeabi_ddiv+0x5c6>
    160a:	210f      	movs	r1, #15
    160c:	2300      	movs	r3, #0
    160e:	4011      	ands	r1, r2
    1610:	0014      	movs	r4, r2
    1612:	2904      	cmp	r1, #4
    1614:	d195      	bne.n	1542 <__aeabi_ddiv+0x4ea>
    1616:	0022      	movs	r2, r4
    1618:	075f      	lsls	r7, r3, #29
    161a:	025b      	lsls	r3, r3, #9
    161c:	0b1b      	lsrs	r3, r3, #12
    161e:	08d2      	lsrs	r2, r2, #3
    1620:	4317      	orrs	r7, r2
    1622:	2200      	movs	r2, #0
    1624:	e5a6      	b.n	1174 <__aeabi_ddiv+0x11c>
    1626:	2380      	movs	r3, #128	; 0x80
    1628:	4659      	mov	r1, fp
    162a:	031b      	lsls	r3, r3, #12
    162c:	430b      	orrs	r3, r1
    162e:	031b      	lsls	r3, r3, #12
    1630:	0017      	movs	r7, r2
    1632:	0b1b      	lsrs	r3, r3, #12
    1634:	4a06      	ldr	r2, [pc, #24]	; (1650 <__aeabi_ddiv+0x5f8>)
    1636:	e59d      	b.n	1174 <__aeabi_ddiv+0x11c>
    1638:	42bd      	cmp	r5, r7
    163a:	d8b2      	bhi.n	15a2 <__aeabi_ddiv+0x54a>
    163c:	469b      	mov	fp, r3
    163e:	2400      	movs	r4, #0
    1640:	e6bf      	b.n	13c2 <__aeabi_ddiv+0x36a>
    1642:	4580      	cmp	r8, r0
    1644:	d3b9      	bcc.n	15ba <__aeabi_ddiv+0x562>
    1646:	001a      	movs	r2, r3
    1648:	e7c3      	b.n	15d2 <__aeabi_ddiv+0x57a>
    164a:	46c0      	nop			; (mov r8, r8)
    164c:	000003ff 	.word	0x000003ff
    1650:	000007ff 	.word	0x000007ff
    1654:	0000041e 	.word	0x0000041e
    1658:	0000043e 	.word	0x0000043e

0000165c <__aeabi_dmul>:
__aeabi_dmul():
    165c:	b5f0      	push	{r4, r5, r6, r7, lr}
    165e:	4657      	mov	r7, sl
    1660:	46de      	mov	lr, fp
    1662:	464e      	mov	r6, r9
    1664:	4645      	mov	r5, r8
    1666:	b5e0      	push	{r5, r6, r7, lr}
    1668:	4683      	mov	fp, r0
    166a:	0006      	movs	r6, r0
    166c:	030f      	lsls	r7, r1, #12
    166e:	0048      	lsls	r0, r1, #1
    1670:	b087      	sub	sp, #28
    1672:	4692      	mov	sl, r2
    1674:	001d      	movs	r5, r3
    1676:	0b3f      	lsrs	r7, r7, #12
    1678:	0d40      	lsrs	r0, r0, #21
    167a:	0fcc      	lsrs	r4, r1, #31
    167c:	2800      	cmp	r0, #0
    167e:	d100      	bne.n	1682 <__aeabi_dmul+0x26>
    1680:	e06f      	b.n	1762 <__aeabi_dmul+0x106>
    1682:	4bde      	ldr	r3, [pc, #888]	; (19fc <__aeabi_dmul+0x3a0>)
    1684:	4298      	cmp	r0, r3
    1686:	d038      	beq.n	16fa <__aeabi_dmul+0x9e>
    1688:	2380      	movs	r3, #128	; 0x80
    168a:	00ff      	lsls	r7, r7, #3
    168c:	041b      	lsls	r3, r3, #16
    168e:	431f      	orrs	r7, r3
    1690:	0f73      	lsrs	r3, r6, #29
    1692:	433b      	orrs	r3, r7
    1694:	9301      	str	r3, [sp, #4]
    1696:	4bda      	ldr	r3, [pc, #872]	; (1a00 <__aeabi_dmul+0x3a4>)
    1698:	2700      	movs	r7, #0
    169a:	4699      	mov	r9, r3
    169c:	2300      	movs	r3, #0
    169e:	469b      	mov	fp, r3
    16a0:	00f6      	lsls	r6, r6, #3
    16a2:	4481      	add	r9, r0
    16a4:	032b      	lsls	r3, r5, #12
    16a6:	0069      	lsls	r1, r5, #1
    16a8:	0b1b      	lsrs	r3, r3, #12
    16aa:	4652      	mov	r2, sl
    16ac:	4698      	mov	r8, r3
    16ae:	0d49      	lsrs	r1, r1, #21
    16b0:	0fed      	lsrs	r5, r5, #31
    16b2:	2900      	cmp	r1, #0
    16b4:	d100      	bne.n	16b8 <__aeabi_dmul+0x5c>
    16b6:	e085      	b.n	17c4 <__aeabi_dmul+0x168>
    16b8:	4bd0      	ldr	r3, [pc, #832]	; (19fc <__aeabi_dmul+0x3a0>)
    16ba:	4299      	cmp	r1, r3
    16bc:	d100      	bne.n	16c0 <__aeabi_dmul+0x64>
    16be:	e073      	b.n	17a8 <__aeabi_dmul+0x14c>
    16c0:	4643      	mov	r3, r8
    16c2:	00da      	lsls	r2, r3, #3
    16c4:	2380      	movs	r3, #128	; 0x80
    16c6:	041b      	lsls	r3, r3, #16
    16c8:	4313      	orrs	r3, r2
    16ca:	4652      	mov	r2, sl
    16cc:	48cc      	ldr	r0, [pc, #816]	; (1a00 <__aeabi_dmul+0x3a4>)
    16ce:	0f52      	lsrs	r2, r2, #29
    16d0:	4684      	mov	ip, r0
    16d2:	4313      	orrs	r3, r2
    16d4:	4652      	mov	r2, sl
    16d6:	2000      	movs	r0, #0
    16d8:	4461      	add	r1, ip
    16da:	00d2      	lsls	r2, r2, #3
    16dc:	4489      	add	r9, r1
    16de:	0021      	movs	r1, r4
    16e0:	4069      	eors	r1, r5
    16e2:	9100      	str	r1, [sp, #0]
    16e4:	468c      	mov	ip, r1
    16e6:	2101      	movs	r1, #1
    16e8:	4449      	add	r1, r9
    16ea:	468a      	mov	sl, r1
    16ec:	2f0f      	cmp	r7, #15
    16ee:	d900      	bls.n	16f2 <__aeabi_dmul+0x96>
    16f0:	e090      	b.n	1814 <__aeabi_dmul+0x1b8>
    16f2:	49c4      	ldr	r1, [pc, #784]	; (1a04 <__aeabi_dmul+0x3a8>)
    16f4:	00bf      	lsls	r7, r7, #2
    16f6:	59cf      	ldr	r7, [r1, r7]
    16f8:	46bf      	mov	pc, r7
    16fa:	465b      	mov	r3, fp
    16fc:	433b      	orrs	r3, r7
    16fe:	9301      	str	r3, [sp, #4]
    1700:	d000      	beq.n	1704 <__aeabi_dmul+0xa8>
    1702:	e16a      	b.n	19da <__aeabi_dmul+0x37e>
    1704:	2302      	movs	r3, #2
    1706:	2708      	movs	r7, #8
    1708:	2600      	movs	r6, #0
    170a:	4681      	mov	r9, r0
    170c:	469b      	mov	fp, r3
    170e:	e7c9      	b.n	16a4 <__aeabi_dmul+0x48>
    1710:	0032      	movs	r2, r6
    1712:	4658      	mov	r0, fp
    1714:	9b01      	ldr	r3, [sp, #4]
    1716:	4661      	mov	r1, ip
    1718:	9100      	str	r1, [sp, #0]
    171a:	2802      	cmp	r0, #2
    171c:	d100      	bne.n	1720 <__aeabi_dmul+0xc4>
    171e:	e075      	b.n	180c <__aeabi_dmul+0x1b0>
    1720:	2803      	cmp	r0, #3
    1722:	d100      	bne.n	1726 <__aeabi_dmul+0xca>
    1724:	e1fe      	b.n	1b24 <__aeabi_dmul+0x4c8>
    1726:	2801      	cmp	r0, #1
    1728:	d000      	beq.n	172c <__aeabi_dmul+0xd0>
    172a:	e12c      	b.n	1986 <__aeabi_dmul+0x32a>
    172c:	2300      	movs	r3, #0
    172e:	2700      	movs	r7, #0
    1730:	2600      	movs	r6, #0
    1732:	2500      	movs	r5, #0
    1734:	033f      	lsls	r7, r7, #12
    1736:	0d2a      	lsrs	r2, r5, #20
    1738:	0b3f      	lsrs	r7, r7, #12
    173a:	48b3      	ldr	r0, [pc, #716]	; (1a08 <__aeabi_dmul+0x3ac>)
    173c:	0512      	lsls	r2, r2, #20
    173e:	433a      	orrs	r2, r7
    1740:	4002      	ands	r2, r0
    1742:	051b      	lsls	r3, r3, #20
    1744:	4313      	orrs	r3, r2
    1746:	9a00      	ldr	r2, [sp, #0]
    1748:	005b      	lsls	r3, r3, #1
    174a:	07d1      	lsls	r1, r2, #31
    174c:	085b      	lsrs	r3, r3, #1
    174e:	430b      	orrs	r3, r1
    1750:	0030      	movs	r0, r6
    1752:	0019      	movs	r1, r3
    1754:	b007      	add	sp, #28
    1756:	bc3c      	pop	{r2, r3, r4, r5}
    1758:	4690      	mov	r8, r2
    175a:	4699      	mov	r9, r3
    175c:	46a2      	mov	sl, r4
    175e:	46ab      	mov	fp, r5
    1760:	bdf0      	pop	{r4, r5, r6, r7, pc}
    1762:	465b      	mov	r3, fp
    1764:	433b      	orrs	r3, r7
    1766:	9301      	str	r3, [sp, #4]
    1768:	d100      	bne.n	176c <__aeabi_dmul+0x110>
    176a:	e12f      	b.n	19cc <__aeabi_dmul+0x370>
    176c:	2f00      	cmp	r7, #0
    176e:	d100      	bne.n	1772 <__aeabi_dmul+0x116>
    1770:	e1a5      	b.n	1abe <__aeabi_dmul+0x462>
    1772:	0038      	movs	r0, r7
    1774:	f000 fd66 	bl	2244 <__clzsi2>
    1778:	0003      	movs	r3, r0
    177a:	3b0b      	subs	r3, #11
    177c:	2b1c      	cmp	r3, #28
    177e:	dd00      	ble.n	1782 <__aeabi_dmul+0x126>
    1780:	e196      	b.n	1ab0 <__aeabi_dmul+0x454>
    1782:	221d      	movs	r2, #29
    1784:	1ad3      	subs	r3, r2, r3
    1786:	465a      	mov	r2, fp
    1788:	0001      	movs	r1, r0
    178a:	40da      	lsrs	r2, r3
    178c:	465e      	mov	r6, fp
    178e:	3908      	subs	r1, #8
    1790:	408f      	lsls	r7, r1
    1792:	0013      	movs	r3, r2
    1794:	408e      	lsls	r6, r1
    1796:	433b      	orrs	r3, r7
    1798:	9301      	str	r3, [sp, #4]
    179a:	4b9c      	ldr	r3, [pc, #624]	; (1a0c <__aeabi_dmul+0x3b0>)
    179c:	2700      	movs	r7, #0
    179e:	1a1b      	subs	r3, r3, r0
    17a0:	4699      	mov	r9, r3
    17a2:	2300      	movs	r3, #0
    17a4:	469b      	mov	fp, r3
    17a6:	e77d      	b.n	16a4 <__aeabi_dmul+0x48>
    17a8:	4641      	mov	r1, r8
    17aa:	4653      	mov	r3, sl
    17ac:	430b      	orrs	r3, r1
    17ae:	4993      	ldr	r1, [pc, #588]	; (19fc <__aeabi_dmul+0x3a0>)
    17b0:	468c      	mov	ip, r1
    17b2:	44e1      	add	r9, ip
    17b4:	2b00      	cmp	r3, #0
    17b6:	d000      	beq.n	17ba <__aeabi_dmul+0x15e>
    17b8:	e11a      	b.n	19f0 <__aeabi_dmul+0x394>
    17ba:	2202      	movs	r2, #2
    17bc:	2002      	movs	r0, #2
    17be:	4317      	orrs	r7, r2
    17c0:	2200      	movs	r2, #0
    17c2:	e78c      	b.n	16de <__aeabi_dmul+0x82>
    17c4:	4313      	orrs	r3, r2
    17c6:	d100      	bne.n	17ca <__aeabi_dmul+0x16e>
    17c8:	e10d      	b.n	19e6 <__aeabi_dmul+0x38a>
    17ca:	4643      	mov	r3, r8
    17cc:	2b00      	cmp	r3, #0
    17ce:	d100      	bne.n	17d2 <__aeabi_dmul+0x176>
    17d0:	e181      	b.n	1ad6 <__aeabi_dmul+0x47a>
    17d2:	4640      	mov	r0, r8
    17d4:	f000 fd36 	bl	2244 <__clzsi2>
    17d8:	0002      	movs	r2, r0
    17da:	3a0b      	subs	r2, #11
    17dc:	2a1c      	cmp	r2, #28
    17de:	dd00      	ble.n	17e2 <__aeabi_dmul+0x186>
    17e0:	e172      	b.n	1ac8 <__aeabi_dmul+0x46c>
    17e2:	0001      	movs	r1, r0
    17e4:	4643      	mov	r3, r8
    17e6:	3908      	subs	r1, #8
    17e8:	408b      	lsls	r3, r1
    17ea:	4698      	mov	r8, r3
    17ec:	231d      	movs	r3, #29
    17ee:	1a9a      	subs	r2, r3, r2
    17f0:	4653      	mov	r3, sl
    17f2:	40d3      	lsrs	r3, r2
    17f4:	001a      	movs	r2, r3
    17f6:	4643      	mov	r3, r8
    17f8:	4313      	orrs	r3, r2
    17fa:	4652      	mov	r2, sl
    17fc:	408a      	lsls	r2, r1
    17fe:	4649      	mov	r1, r9
    1800:	1a08      	subs	r0, r1, r0
    1802:	4982      	ldr	r1, [pc, #520]	; (1a0c <__aeabi_dmul+0x3b0>)
    1804:	4689      	mov	r9, r1
    1806:	4481      	add	r9, r0
    1808:	2000      	movs	r0, #0
    180a:	e768      	b.n	16de <__aeabi_dmul+0x82>
    180c:	4b7b      	ldr	r3, [pc, #492]	; (19fc <__aeabi_dmul+0x3a0>)
    180e:	2700      	movs	r7, #0
    1810:	2600      	movs	r6, #0
    1812:	e78e      	b.n	1732 <__aeabi_dmul+0xd6>
    1814:	0c14      	lsrs	r4, r2, #16
    1816:	0412      	lsls	r2, r2, #16
    1818:	0c12      	lsrs	r2, r2, #16
    181a:	0011      	movs	r1, r2
    181c:	0c37      	lsrs	r7, r6, #16
    181e:	0436      	lsls	r6, r6, #16
    1820:	0c35      	lsrs	r5, r6, #16
    1822:	4379      	muls	r1, r7
    1824:	0028      	movs	r0, r5
    1826:	468c      	mov	ip, r1
    1828:	002e      	movs	r6, r5
    182a:	4360      	muls	r0, r4
    182c:	4460      	add	r0, ip
    182e:	4683      	mov	fp, r0
    1830:	4356      	muls	r6, r2
    1832:	0021      	movs	r1, r4
    1834:	0c30      	lsrs	r0, r6, #16
    1836:	4680      	mov	r8, r0
    1838:	4658      	mov	r0, fp
    183a:	4379      	muls	r1, r7
    183c:	4440      	add	r0, r8
    183e:	9102      	str	r1, [sp, #8]
    1840:	4584      	cmp	ip, r0
    1842:	d906      	bls.n	1852 <__aeabi_dmul+0x1f6>
    1844:	4688      	mov	r8, r1
    1846:	2180      	movs	r1, #128	; 0x80
    1848:	0249      	lsls	r1, r1, #9
    184a:	468c      	mov	ip, r1
    184c:	44e0      	add	r8, ip
    184e:	4641      	mov	r1, r8
    1850:	9102      	str	r1, [sp, #8]
    1852:	0436      	lsls	r6, r6, #16
    1854:	0c01      	lsrs	r1, r0, #16
    1856:	0c36      	lsrs	r6, r6, #16
    1858:	0400      	lsls	r0, r0, #16
    185a:	468b      	mov	fp, r1
    185c:	1981      	adds	r1, r0, r6
    185e:	0c1e      	lsrs	r6, r3, #16
    1860:	041b      	lsls	r3, r3, #16
    1862:	0c1b      	lsrs	r3, r3, #16
    1864:	9103      	str	r1, [sp, #12]
    1866:	0019      	movs	r1, r3
    1868:	4379      	muls	r1, r7
    186a:	468c      	mov	ip, r1
    186c:	0028      	movs	r0, r5
    186e:	4375      	muls	r5, r6
    1870:	4465      	add	r5, ip
    1872:	46a8      	mov	r8, r5
    1874:	4358      	muls	r0, r3
    1876:	0c05      	lsrs	r5, r0, #16
    1878:	4445      	add	r5, r8
    187a:	4377      	muls	r7, r6
    187c:	42a9      	cmp	r1, r5
    187e:	d903      	bls.n	1888 <__aeabi_dmul+0x22c>
    1880:	2180      	movs	r1, #128	; 0x80
    1882:	0249      	lsls	r1, r1, #9
    1884:	468c      	mov	ip, r1
    1886:	4467      	add	r7, ip
    1888:	0c29      	lsrs	r1, r5, #16
    188a:	468c      	mov	ip, r1
    188c:	0039      	movs	r1, r7
    188e:	0400      	lsls	r0, r0, #16
    1890:	0c00      	lsrs	r0, r0, #16
    1892:	042d      	lsls	r5, r5, #16
    1894:	182d      	adds	r5, r5, r0
    1896:	4461      	add	r1, ip
    1898:	44ab      	add	fp, r5
    189a:	9105      	str	r1, [sp, #20]
    189c:	4659      	mov	r1, fp
    189e:	9104      	str	r1, [sp, #16]
    18a0:	9901      	ldr	r1, [sp, #4]
    18a2:	040f      	lsls	r7, r1, #16
    18a4:	0c3f      	lsrs	r7, r7, #16
    18a6:	0c08      	lsrs	r0, r1, #16
    18a8:	0039      	movs	r1, r7
    18aa:	4351      	muls	r1, r2
    18ac:	4342      	muls	r2, r0
    18ae:	4690      	mov	r8, r2
    18b0:	0002      	movs	r2, r0
    18b2:	468c      	mov	ip, r1
    18b4:	0c09      	lsrs	r1, r1, #16
    18b6:	468b      	mov	fp, r1
    18b8:	4362      	muls	r2, r4
    18ba:	437c      	muls	r4, r7
    18bc:	4444      	add	r4, r8
    18be:	445c      	add	r4, fp
    18c0:	45a0      	cmp	r8, r4
    18c2:	d903      	bls.n	18cc <__aeabi_dmul+0x270>
    18c4:	2180      	movs	r1, #128	; 0x80
    18c6:	0249      	lsls	r1, r1, #9
    18c8:	4688      	mov	r8, r1
    18ca:	4442      	add	r2, r8
    18cc:	0c21      	lsrs	r1, r4, #16
    18ce:	4688      	mov	r8, r1
    18d0:	4661      	mov	r1, ip
    18d2:	0409      	lsls	r1, r1, #16
    18d4:	0c09      	lsrs	r1, r1, #16
    18d6:	468c      	mov	ip, r1
    18d8:	0039      	movs	r1, r7
    18da:	4359      	muls	r1, r3
    18dc:	4343      	muls	r3, r0
    18de:	4370      	muls	r0, r6
    18e0:	437e      	muls	r6, r7
    18e2:	0c0f      	lsrs	r7, r1, #16
    18e4:	18f6      	adds	r6, r6, r3
    18e6:	0424      	lsls	r4, r4, #16
    18e8:	19be      	adds	r6, r7, r6
    18ea:	4464      	add	r4, ip
    18ec:	4442      	add	r2, r8
    18ee:	468c      	mov	ip, r1
    18f0:	42b3      	cmp	r3, r6
    18f2:	d903      	bls.n	18fc <__aeabi_dmul+0x2a0>
    18f4:	2380      	movs	r3, #128	; 0x80
    18f6:	025b      	lsls	r3, r3, #9
    18f8:	4698      	mov	r8, r3
    18fa:	4440      	add	r0, r8
    18fc:	9b02      	ldr	r3, [sp, #8]
    18fe:	4661      	mov	r1, ip
    1900:	4698      	mov	r8, r3
    1902:	9b04      	ldr	r3, [sp, #16]
    1904:	0437      	lsls	r7, r6, #16
    1906:	4443      	add	r3, r8
    1908:	469b      	mov	fp, r3
    190a:	45ab      	cmp	fp, r5
    190c:	41ad      	sbcs	r5, r5
    190e:	426b      	negs	r3, r5
    1910:	040d      	lsls	r5, r1, #16
    1912:	9905      	ldr	r1, [sp, #20]
    1914:	0c2d      	lsrs	r5, r5, #16
    1916:	468c      	mov	ip, r1
    1918:	197f      	adds	r7, r7, r5
    191a:	4467      	add	r7, ip
    191c:	18fd      	adds	r5, r7, r3
    191e:	46a8      	mov	r8, r5
    1920:	465d      	mov	r5, fp
    1922:	192d      	adds	r5, r5, r4
    1924:	42a5      	cmp	r5, r4
    1926:	41a4      	sbcs	r4, r4
    1928:	4693      	mov	fp, r2
    192a:	4264      	negs	r4, r4
    192c:	46a4      	mov	ip, r4
    192e:	44c3      	add	fp, r8
    1930:	44dc      	add	ip, fp
    1932:	428f      	cmp	r7, r1
    1934:	41bf      	sbcs	r7, r7
    1936:	4598      	cmp	r8, r3
    1938:	419b      	sbcs	r3, r3
    193a:	4593      	cmp	fp, r2
    193c:	4192      	sbcs	r2, r2
    193e:	45a4      	cmp	ip, r4
    1940:	41a4      	sbcs	r4, r4
    1942:	425b      	negs	r3, r3
    1944:	427f      	negs	r7, r7
    1946:	431f      	orrs	r7, r3
    1948:	0c36      	lsrs	r6, r6, #16
    194a:	4252      	negs	r2, r2
    194c:	4264      	negs	r4, r4
    194e:	19bf      	adds	r7, r7, r6
    1950:	4322      	orrs	r2, r4
    1952:	18bf      	adds	r7, r7, r2
    1954:	4662      	mov	r2, ip
    1956:	1838      	adds	r0, r7, r0
    1958:	0243      	lsls	r3, r0, #9
    195a:	0dd2      	lsrs	r2, r2, #23
    195c:	9903      	ldr	r1, [sp, #12]
    195e:	4313      	orrs	r3, r2
    1960:	026a      	lsls	r2, r5, #9
    1962:	430a      	orrs	r2, r1
    1964:	1e50      	subs	r0, r2, #1
    1966:	4182      	sbcs	r2, r0
    1968:	4661      	mov	r1, ip
    196a:	0ded      	lsrs	r5, r5, #23
    196c:	432a      	orrs	r2, r5
    196e:	024e      	lsls	r6, r1, #9
    1970:	4332      	orrs	r2, r6
    1972:	01d9      	lsls	r1, r3, #7
    1974:	d400      	bmi.n	1978 <__aeabi_dmul+0x31c>
    1976:	e0b3      	b.n	1ae0 <__aeabi_dmul+0x484>
    1978:	2601      	movs	r6, #1
    197a:	0850      	lsrs	r0, r2, #1
    197c:	4032      	ands	r2, r6
    197e:	4302      	orrs	r2, r0
    1980:	07de      	lsls	r6, r3, #31
    1982:	4332      	orrs	r2, r6
    1984:	085b      	lsrs	r3, r3, #1
    1986:	4c22      	ldr	r4, [pc, #136]	; (1a10 <__aeabi_dmul+0x3b4>)
    1988:	4454      	add	r4, sl
    198a:	2c00      	cmp	r4, #0
    198c:	dd62      	ble.n	1a54 <__aeabi_dmul+0x3f8>
    198e:	0751      	lsls	r1, r2, #29
    1990:	d009      	beq.n	19a6 <__aeabi_dmul+0x34a>
    1992:	200f      	movs	r0, #15
    1994:	4010      	ands	r0, r2
    1996:	2804      	cmp	r0, #4
    1998:	d005      	beq.n	19a6 <__aeabi_dmul+0x34a>
    199a:	1d10      	adds	r0, r2, #4
    199c:	4290      	cmp	r0, r2
    199e:	4192      	sbcs	r2, r2
    19a0:	4252      	negs	r2, r2
    19a2:	189b      	adds	r3, r3, r2
    19a4:	0002      	movs	r2, r0
    19a6:	01d9      	lsls	r1, r3, #7
    19a8:	d504      	bpl.n	19b4 <__aeabi_dmul+0x358>
    19aa:	2480      	movs	r4, #128	; 0x80
    19ac:	4819      	ldr	r0, [pc, #100]	; (1a14 <__aeabi_dmul+0x3b8>)
    19ae:	00e4      	lsls	r4, r4, #3
    19b0:	4003      	ands	r3, r0
    19b2:	4454      	add	r4, sl
    19b4:	4818      	ldr	r0, [pc, #96]	; (1a18 <__aeabi_dmul+0x3bc>)
    19b6:	4284      	cmp	r4, r0
    19b8:	dd00      	ble.n	19bc <__aeabi_dmul+0x360>
    19ba:	e727      	b.n	180c <__aeabi_dmul+0x1b0>
    19bc:	075e      	lsls	r6, r3, #29
    19be:	025b      	lsls	r3, r3, #9
    19c0:	08d2      	lsrs	r2, r2, #3
    19c2:	0b1f      	lsrs	r7, r3, #12
    19c4:	0563      	lsls	r3, r4, #21
    19c6:	4316      	orrs	r6, r2
    19c8:	0d5b      	lsrs	r3, r3, #21
    19ca:	e6b2      	b.n	1732 <__aeabi_dmul+0xd6>
    19cc:	2300      	movs	r3, #0
    19ce:	4699      	mov	r9, r3
    19d0:	3301      	adds	r3, #1
    19d2:	2704      	movs	r7, #4
    19d4:	2600      	movs	r6, #0
    19d6:	469b      	mov	fp, r3
    19d8:	e664      	b.n	16a4 <__aeabi_dmul+0x48>
    19da:	2303      	movs	r3, #3
    19dc:	9701      	str	r7, [sp, #4]
    19de:	4681      	mov	r9, r0
    19e0:	270c      	movs	r7, #12
    19e2:	469b      	mov	fp, r3
    19e4:	e65e      	b.n	16a4 <__aeabi_dmul+0x48>
    19e6:	2201      	movs	r2, #1
    19e8:	2001      	movs	r0, #1
    19ea:	4317      	orrs	r7, r2
    19ec:	2200      	movs	r2, #0
    19ee:	e676      	b.n	16de <__aeabi_dmul+0x82>
    19f0:	2303      	movs	r3, #3
    19f2:	2003      	movs	r0, #3
    19f4:	431f      	orrs	r7, r3
    19f6:	4643      	mov	r3, r8
    19f8:	e671      	b.n	16de <__aeabi_dmul+0x82>
    19fa:	46c0      	nop			; (mov r8, r8)
    19fc:	000007ff 	.word	0x000007ff
    1a00:	fffffc01 	.word	0xfffffc01
    1a04:	00005b84 	.word	0x00005b84
    1a08:	800fffff 	.word	0x800fffff
    1a0c:	fffffc0d 	.word	0xfffffc0d
    1a10:	000003ff 	.word	0x000003ff
    1a14:	feffffff 	.word	0xfeffffff
    1a18:	000007fe 	.word	0x000007fe
    1a1c:	2300      	movs	r3, #0
    1a1e:	2780      	movs	r7, #128	; 0x80
    1a20:	9300      	str	r3, [sp, #0]
    1a22:	033f      	lsls	r7, r7, #12
    1a24:	2600      	movs	r6, #0
    1a26:	4b43      	ldr	r3, [pc, #268]	; (1b34 <__aeabi_dmul+0x4d8>)
    1a28:	e683      	b.n	1732 <__aeabi_dmul+0xd6>
    1a2a:	9b01      	ldr	r3, [sp, #4]
    1a2c:	0032      	movs	r2, r6
    1a2e:	46a4      	mov	ip, r4
    1a30:	4658      	mov	r0, fp
    1a32:	e670      	b.n	1716 <__aeabi_dmul+0xba>
    1a34:	46ac      	mov	ip, r5
    1a36:	e66e      	b.n	1716 <__aeabi_dmul+0xba>
    1a38:	2780      	movs	r7, #128	; 0x80
    1a3a:	9901      	ldr	r1, [sp, #4]
    1a3c:	033f      	lsls	r7, r7, #12
    1a3e:	4239      	tst	r1, r7
    1a40:	d02d      	beq.n	1a9e <__aeabi_dmul+0x442>
    1a42:	423b      	tst	r3, r7
    1a44:	d12b      	bne.n	1a9e <__aeabi_dmul+0x442>
    1a46:	431f      	orrs	r7, r3
    1a48:	033f      	lsls	r7, r7, #12
    1a4a:	0b3f      	lsrs	r7, r7, #12
    1a4c:	9500      	str	r5, [sp, #0]
    1a4e:	0016      	movs	r6, r2
    1a50:	4b38      	ldr	r3, [pc, #224]	; (1b34 <__aeabi_dmul+0x4d8>)
    1a52:	e66e      	b.n	1732 <__aeabi_dmul+0xd6>
    1a54:	2501      	movs	r5, #1
    1a56:	1b2d      	subs	r5, r5, r4
    1a58:	2d38      	cmp	r5, #56	; 0x38
    1a5a:	dd00      	ble.n	1a5e <__aeabi_dmul+0x402>
    1a5c:	e666      	b.n	172c <__aeabi_dmul+0xd0>
    1a5e:	2d1f      	cmp	r5, #31
    1a60:	dc40      	bgt.n	1ae4 <__aeabi_dmul+0x488>
    1a62:	4835      	ldr	r0, [pc, #212]	; (1b38 <__aeabi_dmul+0x4dc>)
    1a64:	001c      	movs	r4, r3
    1a66:	4450      	add	r0, sl
    1a68:	0016      	movs	r6, r2
    1a6a:	4082      	lsls	r2, r0
    1a6c:	4084      	lsls	r4, r0
    1a6e:	40ee      	lsrs	r6, r5
    1a70:	1e50      	subs	r0, r2, #1
    1a72:	4182      	sbcs	r2, r0
    1a74:	4334      	orrs	r4, r6
    1a76:	4314      	orrs	r4, r2
    1a78:	40eb      	lsrs	r3, r5
    1a7a:	0762      	lsls	r2, r4, #29
    1a7c:	d009      	beq.n	1a92 <__aeabi_dmul+0x436>
    1a7e:	220f      	movs	r2, #15
    1a80:	4022      	ands	r2, r4
    1a82:	2a04      	cmp	r2, #4
    1a84:	d005      	beq.n	1a92 <__aeabi_dmul+0x436>
    1a86:	0022      	movs	r2, r4
    1a88:	1d14      	adds	r4, r2, #4
    1a8a:	4294      	cmp	r4, r2
    1a8c:	4180      	sbcs	r0, r0
    1a8e:	4240      	negs	r0, r0
    1a90:	181b      	adds	r3, r3, r0
    1a92:	021a      	lsls	r2, r3, #8
    1a94:	d53e      	bpl.n	1b14 <__aeabi_dmul+0x4b8>
    1a96:	2301      	movs	r3, #1
    1a98:	2700      	movs	r7, #0
    1a9a:	2600      	movs	r6, #0
    1a9c:	e649      	b.n	1732 <__aeabi_dmul+0xd6>
    1a9e:	2780      	movs	r7, #128	; 0x80
    1aa0:	9b01      	ldr	r3, [sp, #4]
    1aa2:	033f      	lsls	r7, r7, #12
    1aa4:	431f      	orrs	r7, r3
    1aa6:	033f      	lsls	r7, r7, #12
    1aa8:	0b3f      	lsrs	r7, r7, #12
    1aaa:	9400      	str	r4, [sp, #0]
    1aac:	4b21      	ldr	r3, [pc, #132]	; (1b34 <__aeabi_dmul+0x4d8>)
    1aae:	e640      	b.n	1732 <__aeabi_dmul+0xd6>
    1ab0:	0003      	movs	r3, r0
    1ab2:	465a      	mov	r2, fp
    1ab4:	3b28      	subs	r3, #40	; 0x28
    1ab6:	409a      	lsls	r2, r3
    1ab8:	2600      	movs	r6, #0
    1aba:	9201      	str	r2, [sp, #4]
    1abc:	e66d      	b.n	179a <__aeabi_dmul+0x13e>
    1abe:	4658      	mov	r0, fp
    1ac0:	f000 fbc0 	bl	2244 <__clzsi2>
    1ac4:	3020      	adds	r0, #32
    1ac6:	e657      	b.n	1778 <__aeabi_dmul+0x11c>
    1ac8:	0003      	movs	r3, r0
    1aca:	4652      	mov	r2, sl
    1acc:	3b28      	subs	r3, #40	; 0x28
    1ace:	409a      	lsls	r2, r3
    1ad0:	0013      	movs	r3, r2
    1ad2:	2200      	movs	r2, #0
    1ad4:	e693      	b.n	17fe <__aeabi_dmul+0x1a2>
    1ad6:	4650      	mov	r0, sl
    1ad8:	f000 fbb4 	bl	2244 <__clzsi2>
    1adc:	3020      	adds	r0, #32
    1ade:	e67b      	b.n	17d8 <__aeabi_dmul+0x17c>
    1ae0:	46ca      	mov	sl, r9
    1ae2:	e750      	b.n	1986 <__aeabi_dmul+0x32a>
    1ae4:	201f      	movs	r0, #31
    1ae6:	001e      	movs	r6, r3
    1ae8:	4240      	negs	r0, r0
    1aea:	1b04      	subs	r4, r0, r4
    1aec:	40e6      	lsrs	r6, r4
    1aee:	2d20      	cmp	r5, #32
    1af0:	d003      	beq.n	1afa <__aeabi_dmul+0x49e>
    1af2:	4c12      	ldr	r4, [pc, #72]	; (1b3c <__aeabi_dmul+0x4e0>)
    1af4:	4454      	add	r4, sl
    1af6:	40a3      	lsls	r3, r4
    1af8:	431a      	orrs	r2, r3
    1afa:	1e50      	subs	r0, r2, #1
    1afc:	4182      	sbcs	r2, r0
    1afe:	4332      	orrs	r2, r6
    1b00:	2607      	movs	r6, #7
    1b02:	2700      	movs	r7, #0
    1b04:	4016      	ands	r6, r2
    1b06:	d009      	beq.n	1b1c <__aeabi_dmul+0x4c0>
    1b08:	200f      	movs	r0, #15
    1b0a:	2300      	movs	r3, #0
    1b0c:	4010      	ands	r0, r2
    1b0e:	0014      	movs	r4, r2
    1b10:	2804      	cmp	r0, #4
    1b12:	d1b9      	bne.n	1a88 <__aeabi_dmul+0x42c>
    1b14:	0022      	movs	r2, r4
    1b16:	075e      	lsls	r6, r3, #29
    1b18:	025b      	lsls	r3, r3, #9
    1b1a:	0b1f      	lsrs	r7, r3, #12
    1b1c:	08d2      	lsrs	r2, r2, #3
    1b1e:	4316      	orrs	r6, r2
    1b20:	2300      	movs	r3, #0
    1b22:	e606      	b.n	1732 <__aeabi_dmul+0xd6>
    1b24:	2780      	movs	r7, #128	; 0x80
    1b26:	033f      	lsls	r7, r7, #12
    1b28:	431f      	orrs	r7, r3
    1b2a:	033f      	lsls	r7, r7, #12
    1b2c:	0b3f      	lsrs	r7, r7, #12
    1b2e:	0016      	movs	r6, r2
    1b30:	4b00      	ldr	r3, [pc, #0]	; (1b34 <__aeabi_dmul+0x4d8>)
    1b32:	e5fe      	b.n	1732 <__aeabi_dmul+0xd6>
    1b34:	000007ff 	.word	0x000007ff
    1b38:	0000041e 	.word	0x0000041e
    1b3c:	0000043e 	.word	0x0000043e

00001b40 <__aeabi_dsub>:
__aeabi_dsub():
    1b40:	b5f8      	push	{r3, r4, r5, r6, r7, lr}
    1b42:	4657      	mov	r7, sl
    1b44:	464e      	mov	r6, r9
    1b46:	4645      	mov	r5, r8
    1b48:	46de      	mov	lr, fp
    1b4a:	000c      	movs	r4, r1
    1b4c:	0309      	lsls	r1, r1, #12
    1b4e:	b5e0      	push	{r5, r6, r7, lr}
    1b50:	0a49      	lsrs	r1, r1, #9
    1b52:	0f46      	lsrs	r6, r0, #29
    1b54:	005f      	lsls	r7, r3, #1
    1b56:	4331      	orrs	r1, r6
    1b58:	031e      	lsls	r6, r3, #12
    1b5a:	0fdb      	lsrs	r3, r3, #31
    1b5c:	0a76      	lsrs	r6, r6, #9
    1b5e:	469b      	mov	fp, r3
    1b60:	0f53      	lsrs	r3, r2, #29
    1b62:	4333      	orrs	r3, r6
    1b64:	4ec8      	ldr	r6, [pc, #800]	; (1e88 <__aeabi_dsub+0x348>)
    1b66:	0065      	lsls	r5, r4, #1
    1b68:	00c0      	lsls	r0, r0, #3
    1b6a:	0fe4      	lsrs	r4, r4, #31
    1b6c:	00d2      	lsls	r2, r2, #3
    1b6e:	0d6d      	lsrs	r5, r5, #21
    1b70:	46a2      	mov	sl, r4
    1b72:	4681      	mov	r9, r0
    1b74:	0d7f      	lsrs	r7, r7, #21
    1b76:	469c      	mov	ip, r3
    1b78:	4690      	mov	r8, r2
    1b7a:	42b7      	cmp	r7, r6
    1b7c:	d100      	bne.n	1b80 <__aeabi_dsub+0x40>
    1b7e:	e0b9      	b.n	1cf4 <__aeabi_dsub+0x1b4>
    1b80:	465b      	mov	r3, fp
    1b82:	2601      	movs	r6, #1
    1b84:	4073      	eors	r3, r6
    1b86:	469b      	mov	fp, r3
    1b88:	1bee      	subs	r6, r5, r7
    1b8a:	45a3      	cmp	fp, r4
    1b8c:	d100      	bne.n	1b90 <__aeabi_dsub+0x50>
    1b8e:	e083      	b.n	1c98 <__aeabi_dsub+0x158>
    1b90:	2e00      	cmp	r6, #0
    1b92:	dd63      	ble.n	1c5c <__aeabi_dsub+0x11c>
    1b94:	2f00      	cmp	r7, #0
    1b96:	d000      	beq.n	1b9a <__aeabi_dsub+0x5a>
    1b98:	e0b1      	b.n	1cfe <__aeabi_dsub+0x1be>
    1b9a:	4663      	mov	r3, ip
    1b9c:	4313      	orrs	r3, r2
    1b9e:	d100      	bne.n	1ba2 <__aeabi_dsub+0x62>
    1ba0:	e123      	b.n	1dea <__aeabi_dsub+0x2aa>
    1ba2:	1e73      	subs	r3, r6, #1
    1ba4:	2b00      	cmp	r3, #0
    1ba6:	d000      	beq.n	1baa <__aeabi_dsub+0x6a>
    1ba8:	e1ba      	b.n	1f20 <__aeabi_dsub+0x3e0>
    1baa:	1a86      	subs	r6, r0, r2
    1bac:	4663      	mov	r3, ip
    1bae:	42b0      	cmp	r0, r6
    1bb0:	4180      	sbcs	r0, r0
    1bb2:	2501      	movs	r5, #1
    1bb4:	1ac9      	subs	r1, r1, r3
    1bb6:	4240      	negs	r0, r0
    1bb8:	1a09      	subs	r1, r1, r0
    1bba:	020b      	lsls	r3, r1, #8
    1bbc:	d400      	bmi.n	1bc0 <__aeabi_dsub+0x80>
    1bbe:	e147      	b.n	1e50 <__aeabi_dsub+0x310>
    1bc0:	0249      	lsls	r1, r1, #9
    1bc2:	0a4b      	lsrs	r3, r1, #9
    1bc4:	4698      	mov	r8, r3
    1bc6:	4643      	mov	r3, r8
    1bc8:	2b00      	cmp	r3, #0
    1bca:	d100      	bne.n	1bce <__aeabi_dsub+0x8e>
    1bcc:	e189      	b.n	1ee2 <__aeabi_dsub+0x3a2>
    1bce:	4640      	mov	r0, r8
    1bd0:	f000 fb38 	bl	2244 <__clzsi2>
    1bd4:	0003      	movs	r3, r0
    1bd6:	3b08      	subs	r3, #8
    1bd8:	2b1f      	cmp	r3, #31
    1bda:	dd00      	ble.n	1bde <__aeabi_dsub+0x9e>
    1bdc:	e17c      	b.n	1ed8 <__aeabi_dsub+0x398>
    1bde:	2220      	movs	r2, #32
    1be0:	0030      	movs	r0, r6
    1be2:	1ad2      	subs	r2, r2, r3
    1be4:	4641      	mov	r1, r8
    1be6:	40d0      	lsrs	r0, r2
    1be8:	4099      	lsls	r1, r3
    1bea:	0002      	movs	r2, r0
    1bec:	409e      	lsls	r6, r3
    1bee:	430a      	orrs	r2, r1
    1bf0:	429d      	cmp	r5, r3
    1bf2:	dd00      	ble.n	1bf6 <__aeabi_dsub+0xb6>
    1bf4:	e16a      	b.n	1ecc <__aeabi_dsub+0x38c>
    1bf6:	1b5d      	subs	r5, r3, r5
    1bf8:	1c6b      	adds	r3, r5, #1
    1bfa:	2b1f      	cmp	r3, #31
    1bfc:	dd00      	ble.n	1c00 <__aeabi_dsub+0xc0>
    1bfe:	e194      	b.n	1f2a <__aeabi_dsub+0x3ea>
    1c00:	2120      	movs	r1, #32
    1c02:	0010      	movs	r0, r2
    1c04:	0035      	movs	r5, r6
    1c06:	1ac9      	subs	r1, r1, r3
    1c08:	408e      	lsls	r6, r1
    1c0a:	40da      	lsrs	r2, r3
    1c0c:	4088      	lsls	r0, r1
    1c0e:	40dd      	lsrs	r5, r3
    1c10:	1e71      	subs	r1, r6, #1
    1c12:	418e      	sbcs	r6, r1
    1c14:	0011      	movs	r1, r2
    1c16:	2207      	movs	r2, #7
    1c18:	4328      	orrs	r0, r5
    1c1a:	2500      	movs	r5, #0
    1c1c:	4306      	orrs	r6, r0
    1c1e:	4032      	ands	r2, r6
    1c20:	2a00      	cmp	r2, #0
    1c22:	d009      	beq.n	1c38 <__aeabi_dsub+0xf8>
    1c24:	230f      	movs	r3, #15
    1c26:	4033      	ands	r3, r6
    1c28:	2b04      	cmp	r3, #4
    1c2a:	d005      	beq.n	1c38 <__aeabi_dsub+0xf8>
    1c2c:	1d33      	adds	r3, r6, #4
    1c2e:	42b3      	cmp	r3, r6
    1c30:	41b6      	sbcs	r6, r6
    1c32:	4276      	negs	r6, r6
    1c34:	1989      	adds	r1, r1, r6
    1c36:	001e      	movs	r6, r3
    1c38:	020b      	lsls	r3, r1, #8
    1c3a:	d400      	bmi.n	1c3e <__aeabi_dsub+0xfe>
    1c3c:	e23d      	b.n	20ba <__aeabi_dsub+0x57a>
    1c3e:	1c6a      	adds	r2, r5, #1
    1c40:	4b91      	ldr	r3, [pc, #580]	; (1e88 <__aeabi_dsub+0x348>)
    1c42:	0555      	lsls	r5, r2, #21
    1c44:	0d6d      	lsrs	r5, r5, #21
    1c46:	429a      	cmp	r2, r3
    1c48:	d100      	bne.n	1c4c <__aeabi_dsub+0x10c>
    1c4a:	e119      	b.n	1e80 <__aeabi_dsub+0x340>
    1c4c:	4a8f      	ldr	r2, [pc, #572]	; (1e8c <__aeabi_dsub+0x34c>)
    1c4e:	08f6      	lsrs	r6, r6, #3
    1c50:	400a      	ands	r2, r1
    1c52:	0757      	lsls	r7, r2, #29
    1c54:	0252      	lsls	r2, r2, #9
    1c56:	4337      	orrs	r7, r6
    1c58:	0b12      	lsrs	r2, r2, #12
    1c5a:	e09b      	b.n	1d94 <__aeabi_dsub+0x254>
    1c5c:	2e00      	cmp	r6, #0
    1c5e:	d000      	beq.n	1c62 <__aeabi_dsub+0x122>
    1c60:	e0c5      	b.n	1dee <__aeabi_dsub+0x2ae>
    1c62:	1c6e      	adds	r6, r5, #1
    1c64:	0576      	lsls	r6, r6, #21
    1c66:	0d76      	lsrs	r6, r6, #21
    1c68:	2e01      	cmp	r6, #1
    1c6a:	dc00      	bgt.n	1c6e <__aeabi_dsub+0x12e>
    1c6c:	e148      	b.n	1f00 <__aeabi_dsub+0x3c0>
    1c6e:	4667      	mov	r7, ip
    1c70:	1a86      	subs	r6, r0, r2
    1c72:	1bcb      	subs	r3, r1, r7
    1c74:	42b0      	cmp	r0, r6
    1c76:	41bf      	sbcs	r7, r7
    1c78:	427f      	negs	r7, r7
    1c7a:	46b8      	mov	r8, r7
    1c7c:	001f      	movs	r7, r3
    1c7e:	4643      	mov	r3, r8
    1c80:	1aff      	subs	r7, r7, r3
    1c82:	003b      	movs	r3, r7
    1c84:	46b8      	mov	r8, r7
    1c86:	021b      	lsls	r3, r3, #8
    1c88:	d500      	bpl.n	1c8c <__aeabi_dsub+0x14c>
    1c8a:	e15f      	b.n	1f4c <__aeabi_dsub+0x40c>
    1c8c:	4337      	orrs	r7, r6
    1c8e:	d19a      	bne.n	1bc6 <__aeabi_dsub+0x86>
    1c90:	2200      	movs	r2, #0
    1c92:	2400      	movs	r4, #0
    1c94:	2500      	movs	r5, #0
    1c96:	e079      	b.n	1d8c <__aeabi_dsub+0x24c>
    1c98:	2e00      	cmp	r6, #0
    1c9a:	dc00      	bgt.n	1c9e <__aeabi_dsub+0x15e>
    1c9c:	e0fa      	b.n	1e94 <__aeabi_dsub+0x354>
    1c9e:	2f00      	cmp	r7, #0
    1ca0:	d100      	bne.n	1ca4 <__aeabi_dsub+0x164>
    1ca2:	e08d      	b.n	1dc0 <__aeabi_dsub+0x280>
    1ca4:	4b78      	ldr	r3, [pc, #480]	; (1e88 <__aeabi_dsub+0x348>)
    1ca6:	429d      	cmp	r5, r3
    1ca8:	d067      	beq.n	1d7a <__aeabi_dsub+0x23a>
    1caa:	2380      	movs	r3, #128	; 0x80
    1cac:	4667      	mov	r7, ip
    1cae:	041b      	lsls	r3, r3, #16
    1cb0:	431f      	orrs	r7, r3
    1cb2:	46bc      	mov	ip, r7
    1cb4:	2e38      	cmp	r6, #56	; 0x38
    1cb6:	dc00      	bgt.n	1cba <__aeabi_dsub+0x17a>
    1cb8:	e152      	b.n	1f60 <__aeabi_dsub+0x420>
    1cba:	4663      	mov	r3, ip
    1cbc:	4313      	orrs	r3, r2
    1cbe:	1e5a      	subs	r2, r3, #1
    1cc0:	4193      	sbcs	r3, r2
    1cc2:	181e      	adds	r6, r3, r0
    1cc4:	4286      	cmp	r6, r0
    1cc6:	4180      	sbcs	r0, r0
    1cc8:	4240      	negs	r0, r0
    1cca:	1809      	adds	r1, r1, r0
    1ccc:	020b      	lsls	r3, r1, #8
    1cce:	d400      	bmi.n	1cd2 <__aeabi_dsub+0x192>
    1cd0:	e0be      	b.n	1e50 <__aeabi_dsub+0x310>
    1cd2:	4b6d      	ldr	r3, [pc, #436]	; (1e88 <__aeabi_dsub+0x348>)
    1cd4:	3501      	adds	r5, #1
    1cd6:	429d      	cmp	r5, r3
    1cd8:	d100      	bne.n	1cdc <__aeabi_dsub+0x19c>
    1cda:	e0d2      	b.n	1e82 <__aeabi_dsub+0x342>
    1cdc:	4a6b      	ldr	r2, [pc, #428]	; (1e8c <__aeabi_dsub+0x34c>)
    1cde:	0873      	lsrs	r3, r6, #1
    1ce0:	400a      	ands	r2, r1
    1ce2:	2101      	movs	r1, #1
    1ce4:	400e      	ands	r6, r1
    1ce6:	431e      	orrs	r6, r3
    1ce8:	0851      	lsrs	r1, r2, #1
    1cea:	07d3      	lsls	r3, r2, #31
    1cec:	2207      	movs	r2, #7
    1cee:	431e      	orrs	r6, r3
    1cf0:	4032      	ands	r2, r6
    1cf2:	e795      	b.n	1c20 <__aeabi_dsub+0xe0>
    1cf4:	001e      	movs	r6, r3
    1cf6:	4316      	orrs	r6, r2
    1cf8:	d000      	beq.n	1cfc <__aeabi_dsub+0x1bc>
    1cfa:	e745      	b.n	1b88 <__aeabi_dsub+0x48>
    1cfc:	e740      	b.n	1b80 <__aeabi_dsub+0x40>
    1cfe:	4b62      	ldr	r3, [pc, #392]	; (1e88 <__aeabi_dsub+0x348>)
    1d00:	429d      	cmp	r5, r3
    1d02:	d03a      	beq.n	1d7a <__aeabi_dsub+0x23a>
    1d04:	2380      	movs	r3, #128	; 0x80
    1d06:	4667      	mov	r7, ip
    1d08:	041b      	lsls	r3, r3, #16
    1d0a:	431f      	orrs	r7, r3
    1d0c:	46bc      	mov	ip, r7
    1d0e:	2e38      	cmp	r6, #56	; 0x38
    1d10:	dd00      	ble.n	1d14 <__aeabi_dsub+0x1d4>
    1d12:	e0eb      	b.n	1eec <__aeabi_dsub+0x3ac>
    1d14:	2e1f      	cmp	r6, #31
    1d16:	dc00      	bgt.n	1d1a <__aeabi_dsub+0x1da>
    1d18:	e13a      	b.n	1f90 <__aeabi_dsub+0x450>
    1d1a:	0033      	movs	r3, r6
    1d1c:	4667      	mov	r7, ip
    1d1e:	3b20      	subs	r3, #32
    1d20:	40df      	lsrs	r7, r3
    1d22:	003b      	movs	r3, r7
    1d24:	2e20      	cmp	r6, #32
    1d26:	d005      	beq.n	1d34 <__aeabi_dsub+0x1f4>
    1d28:	2740      	movs	r7, #64	; 0x40
    1d2a:	1bbf      	subs	r7, r7, r6
    1d2c:	4666      	mov	r6, ip
    1d2e:	40be      	lsls	r6, r7
    1d30:	4332      	orrs	r2, r6
    1d32:	4690      	mov	r8, r2
    1d34:	4646      	mov	r6, r8
    1d36:	1e72      	subs	r2, r6, #1
    1d38:	4196      	sbcs	r6, r2
    1d3a:	4333      	orrs	r3, r6
    1d3c:	e0da      	b.n	1ef4 <__aeabi_dsub+0x3b4>
    1d3e:	2b00      	cmp	r3, #0
    1d40:	d100      	bne.n	1d44 <__aeabi_dsub+0x204>
    1d42:	e214      	b.n	216e <__aeabi_dsub+0x62e>
    1d44:	4663      	mov	r3, ip
    1d46:	4313      	orrs	r3, r2
    1d48:	d100      	bne.n	1d4c <__aeabi_dsub+0x20c>
    1d4a:	e168      	b.n	201e <__aeabi_dsub+0x4de>
    1d4c:	2380      	movs	r3, #128	; 0x80
    1d4e:	074e      	lsls	r6, r1, #29
    1d50:	08c0      	lsrs	r0, r0, #3
    1d52:	08c9      	lsrs	r1, r1, #3
    1d54:	031b      	lsls	r3, r3, #12
    1d56:	4306      	orrs	r6, r0
    1d58:	4219      	tst	r1, r3
    1d5a:	d008      	beq.n	1d6e <__aeabi_dsub+0x22e>
    1d5c:	4660      	mov	r0, ip
    1d5e:	08c0      	lsrs	r0, r0, #3
    1d60:	4218      	tst	r0, r3
    1d62:	d104      	bne.n	1d6e <__aeabi_dsub+0x22e>
    1d64:	4663      	mov	r3, ip
    1d66:	0001      	movs	r1, r0
    1d68:	08d2      	lsrs	r2, r2, #3
    1d6a:	075e      	lsls	r6, r3, #29
    1d6c:	4316      	orrs	r6, r2
    1d6e:	00f3      	lsls	r3, r6, #3
    1d70:	4699      	mov	r9, r3
    1d72:	00c9      	lsls	r1, r1, #3
    1d74:	0f72      	lsrs	r2, r6, #29
    1d76:	4d44      	ldr	r5, [pc, #272]	; (1e88 <__aeabi_dsub+0x348>)
    1d78:	4311      	orrs	r1, r2
    1d7a:	464b      	mov	r3, r9
    1d7c:	08de      	lsrs	r6, r3, #3
    1d7e:	4b42      	ldr	r3, [pc, #264]	; (1e88 <__aeabi_dsub+0x348>)
    1d80:	074f      	lsls	r7, r1, #29
    1d82:	4337      	orrs	r7, r6
    1d84:	08ca      	lsrs	r2, r1, #3
    1d86:	429d      	cmp	r5, r3
    1d88:	d100      	bne.n	1d8c <__aeabi_dsub+0x24c>
    1d8a:	e06e      	b.n	1e6a <__aeabi_dsub+0x32a>
    1d8c:	0312      	lsls	r2, r2, #12
    1d8e:	056d      	lsls	r5, r5, #21
    1d90:	0b12      	lsrs	r2, r2, #12
    1d92:	0d6d      	lsrs	r5, r5, #21
    1d94:	2100      	movs	r1, #0
    1d96:	0312      	lsls	r2, r2, #12
    1d98:	0b13      	lsrs	r3, r2, #12
    1d9a:	0d0a      	lsrs	r2, r1, #20
    1d9c:	0512      	lsls	r2, r2, #20
    1d9e:	431a      	orrs	r2, r3
    1da0:	4b3b      	ldr	r3, [pc, #236]	; (1e90 <__aeabi_dsub+0x350>)
    1da2:	052d      	lsls	r5, r5, #20
    1da4:	4013      	ands	r3, r2
    1da6:	432b      	orrs	r3, r5
    1da8:	005b      	lsls	r3, r3, #1
    1daa:	07e4      	lsls	r4, r4, #31
    1dac:	085b      	lsrs	r3, r3, #1
    1dae:	4323      	orrs	r3, r4
    1db0:	0038      	movs	r0, r7
    1db2:	0019      	movs	r1, r3
    1db4:	bc3c      	pop	{r2, r3, r4, r5}
    1db6:	4690      	mov	r8, r2
    1db8:	4699      	mov	r9, r3
    1dba:	46a2      	mov	sl, r4
    1dbc:	46ab      	mov	fp, r5
    1dbe:	bdf8      	pop	{r3, r4, r5, r6, r7, pc}
    1dc0:	4663      	mov	r3, ip
    1dc2:	4313      	orrs	r3, r2
    1dc4:	d011      	beq.n	1dea <__aeabi_dsub+0x2aa>
    1dc6:	1e73      	subs	r3, r6, #1
    1dc8:	2b00      	cmp	r3, #0
    1dca:	d000      	beq.n	1dce <__aeabi_dsub+0x28e>
    1dcc:	e107      	b.n	1fde <__aeabi_dsub+0x49e>
    1dce:	1886      	adds	r6, r0, r2
    1dd0:	4286      	cmp	r6, r0
    1dd2:	4180      	sbcs	r0, r0
    1dd4:	4461      	add	r1, ip
    1dd6:	4240      	negs	r0, r0
    1dd8:	1809      	adds	r1, r1, r0
    1dda:	2501      	movs	r5, #1
    1ddc:	020b      	lsls	r3, r1, #8
    1dde:	d537      	bpl.n	1e50 <__aeabi_dsub+0x310>
    1de0:	2502      	movs	r5, #2
    1de2:	e77b      	b.n	1cdc <__aeabi_dsub+0x19c>
    1de4:	003e      	movs	r6, r7
    1de6:	4661      	mov	r1, ip
    1de8:	4691      	mov	r9, r2
    1dea:	0035      	movs	r5, r6
    1dec:	e7c5      	b.n	1d7a <__aeabi_dsub+0x23a>
    1dee:	465c      	mov	r4, fp
    1df0:	2d00      	cmp	r5, #0
    1df2:	d000      	beq.n	1df6 <__aeabi_dsub+0x2b6>
    1df4:	e0e1      	b.n	1fba <__aeabi_dsub+0x47a>
    1df6:	000b      	movs	r3, r1
    1df8:	4303      	orrs	r3, r0
    1dfa:	d0f3      	beq.n	1de4 <__aeabi_dsub+0x2a4>
    1dfc:	1c73      	adds	r3, r6, #1
    1dfe:	d100      	bne.n	1e02 <__aeabi_dsub+0x2c2>
    1e00:	e1ac      	b.n	215c <__aeabi_dsub+0x61c>
    1e02:	4b21      	ldr	r3, [pc, #132]	; (1e88 <__aeabi_dsub+0x348>)
    1e04:	429f      	cmp	r7, r3
    1e06:	d100      	bne.n	1e0a <__aeabi_dsub+0x2ca>
    1e08:	e13a      	b.n	2080 <__aeabi_dsub+0x540>
    1e0a:	43f3      	mvns	r3, r6
    1e0c:	2b38      	cmp	r3, #56	; 0x38
    1e0e:	dd00      	ble.n	1e12 <__aeabi_dsub+0x2d2>
    1e10:	e16f      	b.n	20f2 <__aeabi_dsub+0x5b2>
    1e12:	2b1f      	cmp	r3, #31
    1e14:	dd00      	ble.n	1e18 <__aeabi_dsub+0x2d8>
    1e16:	e18c      	b.n	2132 <__aeabi_dsub+0x5f2>
    1e18:	2520      	movs	r5, #32
    1e1a:	000e      	movs	r6, r1
    1e1c:	1aed      	subs	r5, r5, r3
    1e1e:	40ae      	lsls	r6, r5
    1e20:	46b0      	mov	r8, r6
    1e22:	0006      	movs	r6, r0
    1e24:	46aa      	mov	sl, r5
    1e26:	40de      	lsrs	r6, r3
    1e28:	4645      	mov	r5, r8
    1e2a:	4335      	orrs	r5, r6
    1e2c:	002e      	movs	r6, r5
    1e2e:	4655      	mov	r5, sl
    1e30:	40d9      	lsrs	r1, r3
    1e32:	40a8      	lsls	r0, r5
    1e34:	4663      	mov	r3, ip
    1e36:	1e45      	subs	r5, r0, #1
    1e38:	41a8      	sbcs	r0, r5
    1e3a:	1a5b      	subs	r3, r3, r1
    1e3c:	469c      	mov	ip, r3
    1e3e:	4330      	orrs	r0, r6
    1e40:	1a16      	subs	r6, r2, r0
    1e42:	42b2      	cmp	r2, r6
    1e44:	4192      	sbcs	r2, r2
    1e46:	4663      	mov	r3, ip
    1e48:	4252      	negs	r2, r2
    1e4a:	1a99      	subs	r1, r3, r2
    1e4c:	003d      	movs	r5, r7
    1e4e:	e6b4      	b.n	1bba <__aeabi_dsub+0x7a>
    1e50:	2207      	movs	r2, #7
    1e52:	4032      	ands	r2, r6
    1e54:	2a00      	cmp	r2, #0
    1e56:	d000      	beq.n	1e5a <__aeabi_dsub+0x31a>
    1e58:	e6e4      	b.n	1c24 <__aeabi_dsub+0xe4>
    1e5a:	4b0b      	ldr	r3, [pc, #44]	; (1e88 <__aeabi_dsub+0x348>)
    1e5c:	08f6      	lsrs	r6, r6, #3
    1e5e:	074f      	lsls	r7, r1, #29
    1e60:	4337      	orrs	r7, r6
    1e62:	08ca      	lsrs	r2, r1, #3
    1e64:	429d      	cmp	r5, r3
    1e66:	d000      	beq.n	1e6a <__aeabi_dsub+0x32a>
    1e68:	e790      	b.n	1d8c <__aeabi_dsub+0x24c>
    1e6a:	003b      	movs	r3, r7
    1e6c:	4313      	orrs	r3, r2
    1e6e:	d100      	bne.n	1e72 <__aeabi_dsub+0x332>
    1e70:	e1a6      	b.n	21c0 <__aeabi_dsub+0x680>
    1e72:	2380      	movs	r3, #128	; 0x80
    1e74:	031b      	lsls	r3, r3, #12
    1e76:	431a      	orrs	r2, r3
    1e78:	0312      	lsls	r2, r2, #12
    1e7a:	0b12      	lsrs	r2, r2, #12
    1e7c:	4d02      	ldr	r5, [pc, #8]	; (1e88 <__aeabi_dsub+0x348>)
    1e7e:	e789      	b.n	1d94 <__aeabi_dsub+0x254>
    1e80:	0015      	movs	r5, r2
    1e82:	2200      	movs	r2, #0
    1e84:	2700      	movs	r7, #0
    1e86:	e785      	b.n	1d94 <__aeabi_dsub+0x254>
    1e88:	000007ff 	.word	0x000007ff
    1e8c:	ff7fffff 	.word	0xff7fffff
    1e90:	800fffff 	.word	0x800fffff
    1e94:	2e00      	cmp	r6, #0
    1e96:	d000      	beq.n	1e9a <__aeabi_dsub+0x35a>
    1e98:	e0c7      	b.n	202a <__aeabi_dsub+0x4ea>
    1e9a:	1c6b      	adds	r3, r5, #1
    1e9c:	055e      	lsls	r6, r3, #21
    1e9e:	0d76      	lsrs	r6, r6, #21
    1ea0:	2e01      	cmp	r6, #1
    1ea2:	dc00      	bgt.n	1ea6 <__aeabi_dsub+0x366>
    1ea4:	e0f0      	b.n	2088 <__aeabi_dsub+0x548>
    1ea6:	4dc8      	ldr	r5, [pc, #800]	; (21c8 <__aeabi_dsub+0x688>)
    1ea8:	42ab      	cmp	r3, r5
    1eaa:	d100      	bne.n	1eae <__aeabi_dsub+0x36e>
    1eac:	e0b9      	b.n	2022 <__aeabi_dsub+0x4e2>
    1eae:	1885      	adds	r5, r0, r2
    1eb0:	000a      	movs	r2, r1
    1eb2:	4285      	cmp	r5, r0
    1eb4:	4189      	sbcs	r1, r1
    1eb6:	4462      	add	r2, ip
    1eb8:	4249      	negs	r1, r1
    1eba:	1851      	adds	r1, r2, r1
    1ebc:	2207      	movs	r2, #7
    1ebe:	07ce      	lsls	r6, r1, #31
    1ec0:	086d      	lsrs	r5, r5, #1
    1ec2:	432e      	orrs	r6, r5
    1ec4:	0849      	lsrs	r1, r1, #1
    1ec6:	4032      	ands	r2, r6
    1ec8:	001d      	movs	r5, r3
    1eca:	e6a9      	b.n	1c20 <__aeabi_dsub+0xe0>
    1ecc:	49bf      	ldr	r1, [pc, #764]	; (21cc <__aeabi_dsub+0x68c>)
    1ece:	1aed      	subs	r5, r5, r3
    1ed0:	4011      	ands	r1, r2
    1ed2:	2207      	movs	r2, #7
    1ed4:	4032      	ands	r2, r6
    1ed6:	e6a3      	b.n	1c20 <__aeabi_dsub+0xe0>
    1ed8:	0032      	movs	r2, r6
    1eda:	3828      	subs	r0, #40	; 0x28
    1edc:	4082      	lsls	r2, r0
    1ede:	2600      	movs	r6, #0
    1ee0:	e686      	b.n	1bf0 <__aeabi_dsub+0xb0>
    1ee2:	0030      	movs	r0, r6
    1ee4:	f000 f9ae 	bl	2244 <__clzsi2>
    1ee8:	3020      	adds	r0, #32
    1eea:	e673      	b.n	1bd4 <__aeabi_dsub+0x94>
    1eec:	4663      	mov	r3, ip
    1eee:	4313      	orrs	r3, r2
    1ef0:	1e5a      	subs	r2, r3, #1
    1ef2:	4193      	sbcs	r3, r2
    1ef4:	1ac6      	subs	r6, r0, r3
    1ef6:	42b0      	cmp	r0, r6
    1ef8:	4180      	sbcs	r0, r0
    1efa:	4240      	negs	r0, r0
    1efc:	1a09      	subs	r1, r1, r0
    1efe:	e65c      	b.n	1bba <__aeabi_dsub+0x7a>
    1f00:	000e      	movs	r6, r1
    1f02:	4667      	mov	r7, ip
    1f04:	4306      	orrs	r6, r0
    1f06:	4317      	orrs	r7, r2
    1f08:	2d00      	cmp	r5, #0
    1f0a:	d15e      	bne.n	1fca <__aeabi_dsub+0x48a>
    1f0c:	2e00      	cmp	r6, #0
    1f0e:	d000      	beq.n	1f12 <__aeabi_dsub+0x3d2>
    1f10:	e0f3      	b.n	20fa <__aeabi_dsub+0x5ba>
    1f12:	2f00      	cmp	r7, #0
    1f14:	d100      	bne.n	1f18 <__aeabi_dsub+0x3d8>
    1f16:	e11e      	b.n	2156 <__aeabi_dsub+0x616>
    1f18:	465c      	mov	r4, fp
    1f1a:	4661      	mov	r1, ip
    1f1c:	4691      	mov	r9, r2
    1f1e:	e72c      	b.n	1d7a <__aeabi_dsub+0x23a>
    1f20:	4fa9      	ldr	r7, [pc, #676]	; (21c8 <__aeabi_dsub+0x688>)
    1f22:	42be      	cmp	r6, r7
    1f24:	d07b      	beq.n	201e <__aeabi_dsub+0x4de>
    1f26:	001e      	movs	r6, r3
    1f28:	e6f1      	b.n	1d0e <__aeabi_dsub+0x1ce>
    1f2a:	0010      	movs	r0, r2
    1f2c:	3d1f      	subs	r5, #31
    1f2e:	40e8      	lsrs	r0, r5
    1f30:	2b20      	cmp	r3, #32
    1f32:	d003      	beq.n	1f3c <__aeabi_dsub+0x3fc>
    1f34:	2140      	movs	r1, #64	; 0x40
    1f36:	1acb      	subs	r3, r1, r3
    1f38:	409a      	lsls	r2, r3
    1f3a:	4316      	orrs	r6, r2
    1f3c:	1e73      	subs	r3, r6, #1
    1f3e:	419e      	sbcs	r6, r3
    1f40:	2207      	movs	r2, #7
    1f42:	4306      	orrs	r6, r0
    1f44:	4032      	ands	r2, r6
    1f46:	2100      	movs	r1, #0
    1f48:	2500      	movs	r5, #0
    1f4a:	e783      	b.n	1e54 <__aeabi_dsub+0x314>
    1f4c:	1a16      	subs	r6, r2, r0
    1f4e:	4663      	mov	r3, ip
    1f50:	42b2      	cmp	r2, r6
    1f52:	4180      	sbcs	r0, r0
    1f54:	1a59      	subs	r1, r3, r1
    1f56:	4240      	negs	r0, r0
    1f58:	1a0b      	subs	r3, r1, r0
    1f5a:	4698      	mov	r8, r3
    1f5c:	465c      	mov	r4, fp
    1f5e:	e632      	b.n	1bc6 <__aeabi_dsub+0x86>
    1f60:	2e1f      	cmp	r6, #31
    1f62:	dd00      	ble.n	1f66 <__aeabi_dsub+0x426>
    1f64:	e0ab      	b.n	20be <__aeabi_dsub+0x57e>
    1f66:	2720      	movs	r7, #32
    1f68:	1bbb      	subs	r3, r7, r6
    1f6a:	469a      	mov	sl, r3
    1f6c:	4663      	mov	r3, ip
    1f6e:	4657      	mov	r7, sl
    1f70:	40bb      	lsls	r3, r7
    1f72:	4699      	mov	r9, r3
    1f74:	0013      	movs	r3, r2
    1f76:	464f      	mov	r7, r9
    1f78:	40f3      	lsrs	r3, r6
    1f7a:	431f      	orrs	r7, r3
    1f7c:	003b      	movs	r3, r7
    1f7e:	4657      	mov	r7, sl
    1f80:	40ba      	lsls	r2, r7
    1f82:	1e57      	subs	r7, r2, #1
    1f84:	41ba      	sbcs	r2, r7
    1f86:	4313      	orrs	r3, r2
    1f88:	4662      	mov	r2, ip
    1f8a:	40f2      	lsrs	r2, r6
    1f8c:	1889      	adds	r1, r1, r2
    1f8e:	e698      	b.n	1cc2 <__aeabi_dsub+0x182>
    1f90:	2720      	movs	r7, #32
    1f92:	1bbb      	subs	r3, r7, r6
    1f94:	469a      	mov	sl, r3
    1f96:	4663      	mov	r3, ip
    1f98:	4657      	mov	r7, sl
    1f9a:	40bb      	lsls	r3, r7
    1f9c:	4699      	mov	r9, r3
    1f9e:	0013      	movs	r3, r2
    1fa0:	464f      	mov	r7, r9
    1fa2:	40f3      	lsrs	r3, r6
    1fa4:	431f      	orrs	r7, r3
    1fa6:	003b      	movs	r3, r7
    1fa8:	4657      	mov	r7, sl
    1faa:	40ba      	lsls	r2, r7
    1fac:	1e57      	subs	r7, r2, #1
    1fae:	41ba      	sbcs	r2, r7
    1fb0:	4313      	orrs	r3, r2
    1fb2:	4662      	mov	r2, ip
    1fb4:	40f2      	lsrs	r2, r6
    1fb6:	1a89      	subs	r1, r1, r2
    1fb8:	e79c      	b.n	1ef4 <__aeabi_dsub+0x3b4>
    1fba:	4b83      	ldr	r3, [pc, #524]	; (21c8 <__aeabi_dsub+0x688>)
    1fbc:	429f      	cmp	r7, r3
    1fbe:	d05f      	beq.n	2080 <__aeabi_dsub+0x540>
    1fc0:	2580      	movs	r5, #128	; 0x80
    1fc2:	042d      	lsls	r5, r5, #16
    1fc4:	4273      	negs	r3, r6
    1fc6:	4329      	orrs	r1, r5
    1fc8:	e720      	b.n	1e0c <__aeabi_dsub+0x2cc>
    1fca:	2e00      	cmp	r6, #0
    1fcc:	d10c      	bne.n	1fe8 <__aeabi_dsub+0x4a8>
    1fce:	2f00      	cmp	r7, #0
    1fd0:	d100      	bne.n	1fd4 <__aeabi_dsub+0x494>
    1fd2:	e0d0      	b.n	2176 <__aeabi_dsub+0x636>
    1fd4:	465c      	mov	r4, fp
    1fd6:	4661      	mov	r1, ip
    1fd8:	4691      	mov	r9, r2
    1fda:	4d7b      	ldr	r5, [pc, #492]	; (21c8 <__aeabi_dsub+0x688>)
    1fdc:	e6cd      	b.n	1d7a <__aeabi_dsub+0x23a>
    1fde:	4f7a      	ldr	r7, [pc, #488]	; (21c8 <__aeabi_dsub+0x688>)
    1fe0:	42be      	cmp	r6, r7
    1fe2:	d01c      	beq.n	201e <__aeabi_dsub+0x4de>
    1fe4:	001e      	movs	r6, r3
    1fe6:	e665      	b.n	1cb4 <__aeabi_dsub+0x174>
    1fe8:	2f00      	cmp	r7, #0
    1fea:	d018      	beq.n	201e <__aeabi_dsub+0x4de>
    1fec:	08c0      	lsrs	r0, r0, #3
    1fee:	074e      	lsls	r6, r1, #29
    1ff0:	4306      	orrs	r6, r0
    1ff2:	2080      	movs	r0, #128	; 0x80
    1ff4:	08c9      	lsrs	r1, r1, #3
    1ff6:	0300      	lsls	r0, r0, #12
    1ff8:	4201      	tst	r1, r0
    1ffa:	d008      	beq.n	200e <__aeabi_dsub+0x4ce>
    1ffc:	4663      	mov	r3, ip
    1ffe:	08dc      	lsrs	r4, r3, #3
    2000:	4204      	tst	r4, r0
    2002:	d104      	bne.n	200e <__aeabi_dsub+0x4ce>
    2004:	0021      	movs	r1, r4
    2006:	46da      	mov	sl, fp
    2008:	08d2      	lsrs	r2, r2, #3
    200a:	075e      	lsls	r6, r3, #29
    200c:	4316      	orrs	r6, r2
    200e:	00f3      	lsls	r3, r6, #3
    2010:	4699      	mov	r9, r3
    2012:	2401      	movs	r4, #1
    2014:	4653      	mov	r3, sl
    2016:	00c9      	lsls	r1, r1, #3
    2018:	0f72      	lsrs	r2, r6, #29
    201a:	4311      	orrs	r1, r2
    201c:	401c      	ands	r4, r3
    201e:	4d6a      	ldr	r5, [pc, #424]	; (21c8 <__aeabi_dsub+0x688>)
    2020:	e6ab      	b.n	1d7a <__aeabi_dsub+0x23a>
    2022:	001d      	movs	r5, r3
    2024:	2200      	movs	r2, #0
    2026:	2700      	movs	r7, #0
    2028:	e6b4      	b.n	1d94 <__aeabi_dsub+0x254>
    202a:	2d00      	cmp	r5, #0
    202c:	d159      	bne.n	20e2 <__aeabi_dsub+0x5a2>
    202e:	000b      	movs	r3, r1
    2030:	4303      	orrs	r3, r0
    2032:	d100      	bne.n	2036 <__aeabi_dsub+0x4f6>
    2034:	e6d6      	b.n	1de4 <__aeabi_dsub+0x2a4>
    2036:	1c73      	adds	r3, r6, #1
    2038:	d100      	bne.n	203c <__aeabi_dsub+0x4fc>
    203a:	e0b2      	b.n	21a2 <__aeabi_dsub+0x662>
    203c:	4b62      	ldr	r3, [pc, #392]	; (21c8 <__aeabi_dsub+0x688>)
    203e:	429f      	cmp	r7, r3
    2040:	d01e      	beq.n	2080 <__aeabi_dsub+0x540>
    2042:	43f3      	mvns	r3, r6
    2044:	2b38      	cmp	r3, #56	; 0x38
    2046:	dc6f      	bgt.n	2128 <__aeabi_dsub+0x5e8>
    2048:	2b1f      	cmp	r3, #31
    204a:	dd00      	ble.n	204e <__aeabi_dsub+0x50e>
    204c:	e097      	b.n	217e <__aeabi_dsub+0x63e>
    204e:	2520      	movs	r5, #32
    2050:	000e      	movs	r6, r1
    2052:	1aed      	subs	r5, r5, r3
    2054:	40ae      	lsls	r6, r5
    2056:	46b0      	mov	r8, r6
    2058:	0006      	movs	r6, r0
    205a:	46aa      	mov	sl, r5
    205c:	40de      	lsrs	r6, r3
    205e:	4645      	mov	r5, r8
    2060:	4335      	orrs	r5, r6
    2062:	002e      	movs	r6, r5
    2064:	4655      	mov	r5, sl
    2066:	40a8      	lsls	r0, r5
    2068:	40d9      	lsrs	r1, r3
    206a:	1e45      	subs	r5, r0, #1
    206c:	41a8      	sbcs	r0, r5
    206e:	448c      	add	ip, r1
    2070:	4306      	orrs	r6, r0
    2072:	18b6      	adds	r6, r6, r2
    2074:	4296      	cmp	r6, r2
    2076:	4192      	sbcs	r2, r2
    2078:	4251      	negs	r1, r2
    207a:	4461      	add	r1, ip
    207c:	003d      	movs	r5, r7
    207e:	e625      	b.n	1ccc <__aeabi_dsub+0x18c>
    2080:	003d      	movs	r5, r7
    2082:	4661      	mov	r1, ip
    2084:	4691      	mov	r9, r2
    2086:	e678      	b.n	1d7a <__aeabi_dsub+0x23a>
    2088:	000b      	movs	r3, r1
    208a:	4303      	orrs	r3, r0
    208c:	2d00      	cmp	r5, #0
    208e:	d000      	beq.n	2092 <__aeabi_dsub+0x552>
    2090:	e655      	b.n	1d3e <__aeabi_dsub+0x1fe>
    2092:	2b00      	cmp	r3, #0
    2094:	d0f5      	beq.n	2082 <__aeabi_dsub+0x542>
    2096:	4663      	mov	r3, ip
    2098:	4313      	orrs	r3, r2
    209a:	d100      	bne.n	209e <__aeabi_dsub+0x55e>
    209c:	e66d      	b.n	1d7a <__aeabi_dsub+0x23a>
    209e:	1886      	adds	r6, r0, r2
    20a0:	4286      	cmp	r6, r0
    20a2:	4180      	sbcs	r0, r0
    20a4:	4461      	add	r1, ip
    20a6:	4240      	negs	r0, r0
    20a8:	1809      	adds	r1, r1, r0
    20aa:	2200      	movs	r2, #0
    20ac:	020b      	lsls	r3, r1, #8
    20ae:	d400      	bmi.n	20b2 <__aeabi_dsub+0x572>
    20b0:	e6d0      	b.n	1e54 <__aeabi_dsub+0x314>
    20b2:	4b46      	ldr	r3, [pc, #280]	; (21cc <__aeabi_dsub+0x68c>)
    20b4:	3501      	adds	r5, #1
    20b6:	4019      	ands	r1, r3
    20b8:	e5b2      	b.n	1c20 <__aeabi_dsub+0xe0>
    20ba:	46b1      	mov	r9, r6
    20bc:	e65d      	b.n	1d7a <__aeabi_dsub+0x23a>
    20be:	0033      	movs	r3, r6
    20c0:	4667      	mov	r7, ip
    20c2:	3b20      	subs	r3, #32
    20c4:	40df      	lsrs	r7, r3
    20c6:	003b      	movs	r3, r7
    20c8:	2e20      	cmp	r6, #32
    20ca:	d005      	beq.n	20d8 <__aeabi_dsub+0x598>
    20cc:	2740      	movs	r7, #64	; 0x40
    20ce:	1bbf      	subs	r7, r7, r6
    20d0:	4666      	mov	r6, ip
    20d2:	40be      	lsls	r6, r7
    20d4:	4332      	orrs	r2, r6
    20d6:	4690      	mov	r8, r2
    20d8:	4646      	mov	r6, r8
    20da:	1e72      	subs	r2, r6, #1
    20dc:	4196      	sbcs	r6, r2
    20de:	4333      	orrs	r3, r6
    20e0:	e5ef      	b.n	1cc2 <__aeabi_dsub+0x182>
    20e2:	4b39      	ldr	r3, [pc, #228]	; (21c8 <__aeabi_dsub+0x688>)
    20e4:	429f      	cmp	r7, r3
    20e6:	d0cb      	beq.n	2080 <__aeabi_dsub+0x540>
    20e8:	2580      	movs	r5, #128	; 0x80
    20ea:	042d      	lsls	r5, r5, #16
    20ec:	4273      	negs	r3, r6
    20ee:	4329      	orrs	r1, r5
    20f0:	e7a8      	b.n	2044 <__aeabi_dsub+0x504>
    20f2:	4308      	orrs	r0, r1
    20f4:	1e41      	subs	r1, r0, #1
    20f6:	4188      	sbcs	r0, r1
    20f8:	e6a2      	b.n	1e40 <__aeabi_dsub+0x300>
    20fa:	2f00      	cmp	r7, #0
    20fc:	d100      	bne.n	2100 <__aeabi_dsub+0x5c0>
    20fe:	e63c      	b.n	1d7a <__aeabi_dsub+0x23a>
    2100:	4663      	mov	r3, ip
    2102:	1a86      	subs	r6, r0, r2
    2104:	1acf      	subs	r7, r1, r3
    2106:	42b0      	cmp	r0, r6
    2108:	419b      	sbcs	r3, r3
    210a:	425b      	negs	r3, r3
    210c:	1afb      	subs	r3, r7, r3
    210e:	4698      	mov	r8, r3
    2110:	021b      	lsls	r3, r3, #8
    2112:	d54e      	bpl.n	21b2 <__aeabi_dsub+0x672>
    2114:	1a16      	subs	r6, r2, r0
    2116:	4663      	mov	r3, ip
    2118:	42b2      	cmp	r2, r6
    211a:	4192      	sbcs	r2, r2
    211c:	1a59      	subs	r1, r3, r1
    211e:	4252      	negs	r2, r2
    2120:	1a89      	subs	r1, r1, r2
    2122:	465c      	mov	r4, fp
    2124:	2200      	movs	r2, #0
    2126:	e57b      	b.n	1c20 <__aeabi_dsub+0xe0>
    2128:	4301      	orrs	r1, r0
    212a:	000e      	movs	r6, r1
    212c:	1e71      	subs	r1, r6, #1
    212e:	418e      	sbcs	r6, r1
    2130:	e79f      	b.n	2072 <__aeabi_dsub+0x532>
    2132:	001d      	movs	r5, r3
    2134:	000e      	movs	r6, r1
    2136:	3d20      	subs	r5, #32
    2138:	40ee      	lsrs	r6, r5
    213a:	46b0      	mov	r8, r6
    213c:	2b20      	cmp	r3, #32
    213e:	d004      	beq.n	214a <__aeabi_dsub+0x60a>
    2140:	2540      	movs	r5, #64	; 0x40
    2142:	1aeb      	subs	r3, r5, r3
    2144:	4099      	lsls	r1, r3
    2146:	4308      	orrs	r0, r1
    2148:	4681      	mov	r9, r0
    214a:	4648      	mov	r0, r9
    214c:	4643      	mov	r3, r8
    214e:	1e41      	subs	r1, r0, #1
    2150:	4188      	sbcs	r0, r1
    2152:	4318      	orrs	r0, r3
    2154:	e674      	b.n	1e40 <__aeabi_dsub+0x300>
    2156:	2200      	movs	r2, #0
    2158:	2400      	movs	r4, #0
    215a:	e617      	b.n	1d8c <__aeabi_dsub+0x24c>
    215c:	1a16      	subs	r6, r2, r0
    215e:	4663      	mov	r3, ip
    2160:	42b2      	cmp	r2, r6
    2162:	4192      	sbcs	r2, r2
    2164:	1a59      	subs	r1, r3, r1
    2166:	4252      	negs	r2, r2
    2168:	1a89      	subs	r1, r1, r2
    216a:	003d      	movs	r5, r7
    216c:	e525      	b.n	1bba <__aeabi_dsub+0x7a>
    216e:	4661      	mov	r1, ip
    2170:	4691      	mov	r9, r2
    2172:	4d15      	ldr	r5, [pc, #84]	; (21c8 <__aeabi_dsub+0x688>)
    2174:	e601      	b.n	1d7a <__aeabi_dsub+0x23a>
    2176:	2280      	movs	r2, #128	; 0x80
    2178:	2400      	movs	r4, #0
    217a:	0312      	lsls	r2, r2, #12
    217c:	e679      	b.n	1e72 <__aeabi_dsub+0x332>
    217e:	001d      	movs	r5, r3
    2180:	000e      	movs	r6, r1
    2182:	3d20      	subs	r5, #32
    2184:	40ee      	lsrs	r6, r5
    2186:	46b0      	mov	r8, r6
    2188:	2b20      	cmp	r3, #32
    218a:	d004      	beq.n	2196 <__aeabi_dsub+0x656>
    218c:	2540      	movs	r5, #64	; 0x40
    218e:	1aeb      	subs	r3, r5, r3
    2190:	4099      	lsls	r1, r3
    2192:	4308      	orrs	r0, r1
    2194:	4681      	mov	r9, r0
    2196:	464e      	mov	r6, r9
    2198:	4643      	mov	r3, r8
    219a:	1e71      	subs	r1, r6, #1
    219c:	418e      	sbcs	r6, r1
    219e:	431e      	orrs	r6, r3
    21a0:	e767      	b.n	2072 <__aeabi_dsub+0x532>
    21a2:	1886      	adds	r6, r0, r2
    21a4:	4296      	cmp	r6, r2
    21a6:	419b      	sbcs	r3, r3
    21a8:	4461      	add	r1, ip
    21aa:	425b      	negs	r3, r3
    21ac:	18c9      	adds	r1, r1, r3
    21ae:	003d      	movs	r5, r7
    21b0:	e58c      	b.n	1ccc <__aeabi_dsub+0x18c>
    21b2:	4647      	mov	r7, r8
    21b4:	4337      	orrs	r7, r6
    21b6:	d0ce      	beq.n	2156 <__aeabi_dsub+0x616>
    21b8:	2207      	movs	r2, #7
    21ba:	4641      	mov	r1, r8
    21bc:	4032      	ands	r2, r6
    21be:	e649      	b.n	1e54 <__aeabi_dsub+0x314>
    21c0:	2700      	movs	r7, #0
    21c2:	003a      	movs	r2, r7
    21c4:	e5e6      	b.n	1d94 <__aeabi_dsub+0x254>
    21c6:	46c0      	nop			; (mov r8, r8)
    21c8:	000007ff 	.word	0x000007ff
    21cc:	ff7fffff 	.word	0xff7fffff

000021d0 <__aeabi_i2d>:
__aeabi_i2d():
    21d0:	b570      	push	{r4, r5, r6, lr}
    21d2:	2800      	cmp	r0, #0
    21d4:	d02d      	beq.n	2232 <__aeabi_i2d+0x62>
    21d6:	17c3      	asrs	r3, r0, #31
    21d8:	18c5      	adds	r5, r0, r3
    21da:	405d      	eors	r5, r3
    21dc:	0fc4      	lsrs	r4, r0, #31
    21de:	0028      	movs	r0, r5
    21e0:	f000 f830 	bl	2244 <__clzsi2>
    21e4:	4b15      	ldr	r3, [pc, #84]	; (223c <__aeabi_i2d+0x6c>)
    21e6:	1a1b      	subs	r3, r3, r0
    21e8:	055b      	lsls	r3, r3, #21
    21ea:	0d5b      	lsrs	r3, r3, #21
    21ec:	280a      	cmp	r0, #10
    21ee:	dd15      	ble.n	221c <__aeabi_i2d+0x4c>
    21f0:	380b      	subs	r0, #11
    21f2:	4085      	lsls	r5, r0
    21f4:	2200      	movs	r2, #0
    21f6:	032d      	lsls	r5, r5, #12
    21f8:	0b2d      	lsrs	r5, r5, #12
    21fa:	2100      	movs	r1, #0
    21fc:	0010      	movs	r0, r2
    21fe:	032d      	lsls	r5, r5, #12
    2200:	0d0a      	lsrs	r2, r1, #20
    2202:	0b2d      	lsrs	r5, r5, #12
    2204:	0512      	lsls	r2, r2, #20
    2206:	432a      	orrs	r2, r5
    2208:	4d0d      	ldr	r5, [pc, #52]	; (2240 <__aeabi_i2d+0x70>)
    220a:	051b      	lsls	r3, r3, #20
    220c:	402a      	ands	r2, r5
    220e:	4313      	orrs	r3, r2
    2210:	005b      	lsls	r3, r3, #1
    2212:	07e4      	lsls	r4, r4, #31
    2214:	085b      	lsrs	r3, r3, #1
    2216:	4323      	orrs	r3, r4
    2218:	0019      	movs	r1, r3
    221a:	bd70      	pop	{r4, r5, r6, pc}
    221c:	0002      	movs	r2, r0
    221e:	0029      	movs	r1, r5
    2220:	3215      	adds	r2, #21
    2222:	4091      	lsls	r1, r2
    2224:	000a      	movs	r2, r1
    2226:	210b      	movs	r1, #11
    2228:	1a08      	subs	r0, r1, r0
    222a:	40c5      	lsrs	r5, r0
    222c:	032d      	lsls	r5, r5, #12
    222e:	0b2d      	lsrs	r5, r5, #12
    2230:	e7e3      	b.n	21fa <__aeabi_i2d+0x2a>
    2232:	2400      	movs	r4, #0
    2234:	2300      	movs	r3, #0
    2236:	2500      	movs	r5, #0
    2238:	2200      	movs	r2, #0
    223a:	e7de      	b.n	21fa <__aeabi_i2d+0x2a>
    223c:	0000041e 	.word	0x0000041e
    2240:	800fffff 	.word	0x800fffff

00002244 <__clzsi2>:
__clzsi2():
    2244:	211c      	movs	r1, #28
    2246:	2301      	movs	r3, #1
    2248:	041b      	lsls	r3, r3, #16
    224a:	4298      	cmp	r0, r3
    224c:	d301      	bcc.n	2252 <__clzsi2+0xe>
    224e:	0c00      	lsrs	r0, r0, #16
    2250:	3910      	subs	r1, #16
    2252:	0a1b      	lsrs	r3, r3, #8
    2254:	4298      	cmp	r0, r3
    2256:	d301      	bcc.n	225c <__clzsi2+0x18>
    2258:	0a00      	lsrs	r0, r0, #8
    225a:	3908      	subs	r1, #8
    225c:	091b      	lsrs	r3, r3, #4
    225e:	4298      	cmp	r0, r3
    2260:	d301      	bcc.n	2266 <__clzsi2+0x22>
    2262:	0900      	lsrs	r0, r0, #4
    2264:	3904      	subs	r1, #4
    2266:	a202      	add	r2, pc, #8	; (adr r2, 2270 <__clzsi2+0x2c>)
    2268:	5c10      	ldrb	r0, [r2, r0]
    226a:	1840      	adds	r0, r0, r1
    226c:	4770      	bx	lr
    226e:	46c0      	nop			; (mov r8, r8)
    2270:	02020304 	.word	0x02020304
    2274:	01010101 	.word	0x01010101
	...

00002280 <__clzdi2>:
__clzdi2():
    2280:	b510      	push	{r4, lr}
    2282:	2900      	cmp	r1, #0
    2284:	d103      	bne.n	228e <__clzdi2+0xe>
    2286:	f7ff ffdd 	bl	2244 <__clzsi2>
    228a:	3020      	adds	r0, #32
    228c:	e002      	b.n	2294 <__clzdi2+0x14>
    228e:	1c08      	adds	r0, r1, #0
    2290:	f7ff ffd8 	bl	2244 <__clzsi2>
    2294:	bd10      	pop	{r4, pc}
    2296:	46c0      	nop			; (mov r8, r8)

00002298 <strcmp>:
strcmp():
    2298:	7802      	ldrb	r2, [r0, #0]
    229a:	780b      	ldrb	r3, [r1, #0]
    229c:	2a00      	cmp	r2, #0
    229e:	d003      	beq.n	22a8 <strcmp+0x10>
    22a0:	3001      	adds	r0, #1
    22a2:	3101      	adds	r1, #1
    22a4:	429a      	cmp	r2, r3
    22a6:	d0f7      	beq.n	2298 <strcmp>
    22a8:	1ad0      	subs	r0, r2, r3
    22aa:	4770      	bx	lr

000022ac <strlen>:
strlen():
    22ac:	2300      	movs	r3, #0
    22ae:	5cc2      	ldrb	r2, [r0, r3]
    22b0:	3301      	adds	r3, #1
    22b2:	2a00      	cmp	r2, #0
    22b4:	d1fb      	bne.n	22ae <strlen+0x2>
    22b6:	1e58      	subs	r0, r3, #1
    22b8:	4770      	bx	lr
	...

000022bc <SysTick_Handler>:
SysTick_Handler():
E:\2017-2018\03_Graduation Project\04_Software\05_Wangshi\02_6220\06_UpdateSoftware-180714\01_UEBootloader\KL36_Bios-180714\Debug/../06_NosPrg/isr.c:18

//=======================================================

void SysTick_Handler(void)
{
	gTime++;
    22bc:	2201      	movs	r2, #1
    22be:	2300      	movs	r3, #0
    22c0:	4904      	ldr	r1, [pc, #16]	; (22d4 <SysTick_Handler+0x18>)
E:\2017-2018\03_Graduation Project\04_Software\05_Wangshi\02_6220\06_UpdateSoftware-180714\01_UEBootloader\KL36_Bios-180714\Debug/../06_NosPrg/isr.c:17
{
    22c2:	b530      	push	{r4, r5, lr}
E:\2017-2018\03_Graduation Project\04_Software\05_Wangshi\02_6220\06_UpdateSoftware-180714\01_UEBootloader\KL36_Bios-180714\Debug/../06_NosPrg/isr.c:18
	gTime++;
    22c4:	680c      	ldr	r4, [r1, #0]
    22c6:	684d      	ldr	r5, [r1, #4]
    22c8:	1912      	adds	r2, r2, r4
    22ca:	416b      	adcs	r3, r5
    22cc:	600a      	str	r2, [r1, #0]
    22ce:	604b      	str	r3, [r1, #4]
E:\2017-2018\03_Graduation Project\04_Software\05_Wangshi\02_6220\06_UpdateSoftware-180714\01_UEBootloader\KL36_Bios-180714\Debug/../06_NosPrg/isr.c:19
}
    22d0:	bd30      	pop	{r4, r5, pc}
    22d2:	46c0      	nop			; (mov r8, r8)
    22d4:	1ffffca8 	.word	0x1ffffca8

000022d8 <UART0_IRQHandler>:
UART0_IRQHandler():
E:\2017-2018\03_Graduation Project\04_Software\05_Wangshi\02_6220\06_UpdateSoftware-180714\01_UEBootloader\KL36_Bios-180714\Debug/../06_NosPrg/isr.c:28
//0
//1
//       20
//==================================================================
void UART0_IRQHandler(void)
{
    22d8:	b510      	push	{r4, lr}
    22da:	b082      	sub	sp, #8
__disable_irq():
E:\2017-2018\03_Graduation Project\04_Software\05_Wangshi\02_6220\06_UpdateSoftware-180714\01_UEBootloader\KL36_Bios-180714\02_Core/core_cmFunc.h:344
  This function disables IRQ interrupts by setting the I-bit in the CPSR.
  Can only be executed in Privileged modes.
 */
__attribute__( ( always_inline ) ) __STATIC_INLINE void __disable_irq(void)
{
  __ASM volatile ("cpsid i" : : : "memory");
    22dc:	b672      	cpsid	i
UART0_IRQHandler():
E:\2017-2018\03_Graduation Project\04_Software\05_Wangshi\02_6220\06_UpdateSoftware-180714\01_UEBootloader\KL36_Bios-180714\Debug/../06_NosPrg/isr.c:33
	uint_8 ch;
	uint_8 flag;
	DISABLE_INTERRUPTS;      //
	//-------------------------------
	if(uart_get_re_int(UART_0))
    22de:	2000      	movs	r0, #0
    22e0:	f002 fa32 	bl	4748 <uart_get_re_int>
    22e4:	2800      	cmp	r0, #0
    22e6:	d102      	bne.n	22ee <UART0_IRQHandler+0x16>
__enable_irq():
E:\2017-2018\03_Graduation Project\04_Software\05_Wangshi\02_6220\06_UpdateSoftware-180714\01_UEBootloader\KL36_Bios-180714\02_Core/core_cmFunc.h:333
  __ASM volatile ("cpsie i" : : : "memory");
    22e8:	b662      	cpsie	i
UART0_IRQHandler():
E:\2017-2018\03_Graduation Project\04_Software\05_Wangshi\02_6220\06_UpdateSoftware-180714\01_UEBootloader\KL36_Bios-180714\Debug/../06_NosPrg/isr.c:43
			uart_send1(UART_0, ch);     //
		}
	}
	//-------------------------------
	ENABLE_INTERRUPTS;       //
}
    22ea:	b002      	add	sp, #8
    22ec:	bd10      	pop	{r4, pc}
E:\2017-2018\03_Graduation Project\04_Software\05_Wangshi\02_6220\06_UpdateSoftware-180714\01_UEBootloader\KL36_Bios-180714\Debug/../06_NosPrg/isr.c:35
		ch = uart_re1 (UART_0, &flag);    //
    22ee:	466b      	mov	r3, sp
    22f0:	1ddc      	adds	r4, r3, #7
    22f2:	0021      	movs	r1, r4
    22f4:	2000      	movs	r0, #0
    22f6:	f002 f9a9 	bl	464c <uart_re1>
E:\2017-2018\03_Graduation Project\04_Software\05_Wangshi\02_6220\06_UpdateSoftware-180714\01_UEBootloader\KL36_Bios-180714\Debug/../06_NosPrg/isr.c:36
		if(flag)
    22fa:	7823      	ldrb	r3, [r4, #0]
    22fc:	2b00      	cmp	r3, #0
    22fe:	d0f3      	beq.n	22e8 <UART0_IRQHandler+0x10>
E:\2017-2018\03_Graduation Project\04_Software\05_Wangshi\02_6220\06_UpdateSoftware-180714\01_UEBootloader\KL36_Bios-180714\Debug/../06_NosPrg/isr.c:38
			uart_send1(UART_0, ch);     //
    2300:	0001      	movs	r1, r0
    2302:	2000      	movs	r0, #0
    2304:	f002 f93c 	bl	4580 <uart_send1>
    2308:	e7ee      	b.n	22e8 <UART0_IRQHandler+0x10>
    230a:	46c0      	nop			; (mov r8, r8)

0000230c <UART1_IRQHandler>:
UART1_IRQHandler():
E:\2017-2018\03_Graduation Project\04_Software\05_Wangshi\02_6220\06_UpdateSoftware-180714\01_UEBootloader\KL36_Bios-180714\Debug/../06_NosPrg/isr.c:52
//1
//1
//       2UE
//==================================================================
void UART1_IRQHandler(void)
{
    230c:	b510      	push	{r4, lr}
    230e:	b082      	sub	sp, #8
__disable_irq():
E:\2017-2018\03_Graduation Project\04_Software\05_Wangshi\02_6220\06_UpdateSoftware-180714\01_UEBootloader\KL36_Bios-180714\02_Core/core_cmFunc.h:344
  __ASM volatile ("cpsid i" : : : "memory");
    2310:	b672      	cpsid	i
UART1_IRQHandler():
E:\2017-2018\03_Graduation Project\04_Software\05_Wangshi\02_6220\06_UpdateSoftware-180714\01_UEBootloader\KL36_Bios-180714\Debug/../06_NosPrg/isr.c:57
	uint_8 ch;
	uint_8 flag;
	DISABLE_INTERRUPTS;      //
	//-------------------------------
	if(uart_get_re_int(UART_1))
    2312:	2001      	movs	r0, #1
    2314:	f002 fa18 	bl	4748 <uart_get_re_int>
    2318:	2800      	cmp	r0, #0
    231a:	d102      	bne.n	2322 <UART1_IRQHandler+0x16>
__enable_irq():
E:\2017-2018\03_Graduation Project\04_Software\05_Wangshi\02_6220\06_UpdateSoftware-180714\01_UEBootloader\KL36_Bios-180714\02_Core/core_cmFunc.h:333
  __ASM volatile ("cpsie i" : : : "memory");
    231c:	b662      	cpsie	i
UART1_IRQHandler():
E:\2017-2018\03_Graduation Project\04_Software\05_Wangshi\02_6220\06_UpdateSoftware-180714\01_UEBootloader\KL36_Bios-180714\Debug/../06_NosPrg/isr.c:67
			uart_send1(UART_1, ch);     //
		}
	}
	//-------------------------------
	ENABLE_INTERRUPTS;       //
}
    231e:	b002      	add	sp, #8
    2320:	bd10      	pop	{r4, pc}
E:\2017-2018\03_Graduation Project\04_Software\05_Wangshi\02_6220\06_UpdateSoftware-180714\01_UEBootloader\KL36_Bios-180714\Debug/../06_NosPrg/isr.c:59
		ch = uart_re1 (UART_1, &flag);    //
    2322:	466b      	mov	r3, sp
    2324:	1ddc      	adds	r4, r3, #7
    2326:	0021      	movs	r1, r4
    2328:	2001      	movs	r0, #1
    232a:	f002 f98f 	bl	464c <uart_re1>
E:\2017-2018\03_Graduation Project\04_Software\05_Wangshi\02_6220\06_UpdateSoftware-180714\01_UEBootloader\KL36_Bios-180714\Debug/../06_NosPrg/isr.c:60
		if(flag)
    232e:	7823      	ldrb	r3, [r4, #0]
    2330:	2b00      	cmp	r3, #0
    2332:	d0f3      	beq.n	231c <UART1_IRQHandler+0x10>
E:\2017-2018\03_Graduation Project\04_Software\05_Wangshi\02_6220\06_UpdateSoftware-180714\01_UEBootloader\KL36_Bios-180714\Debug/../06_NosPrg/isr.c:62
			uart_send1(UART_1, ch);     //
    2334:	0001      	movs	r1, r0
    2336:	2001      	movs	r0, #1
    2338:	f002 f922 	bl	4580 <uart_send1>
    233c:	e7ee      	b.n	231c <UART1_IRQHandler+0x10>
    233e:	46c0      	nop			; (mov r8, r8)

00002340 <CreateFrame>:
CreateFrame():
E:\2017-2018\03_Graduation Project\04_Software\05_Wangshi\02_6220\06_UpdateSoftware-180714\01_UEBootloader\KL36_Bios-180714\Debug/../06_NosPrg/isr.c:140
#define FrameHeadL    (0x50)         //     ASCIIP
#define FrameTaiH     (0x43)         //     ASCIIC
#define FrameTaiL     (0x43)         //     ASCIIC

uint_8 CreateFrame(uint_8 Data,uint_8 * buffer,uint_16 *len)
{
    2340:	b530      	push	{r4, r5, lr}
E:\2017-2018\03_Graduation Project\04_Software\05_Wangshi\02_6220\06_UpdateSoftware-180714\01_UEBootloader\KL36_Bios-180714\Debug/../06_NosPrg/isr.c:146
	static uint_16 dataLen = 0;  //
	static uint_16 frameLen = 0; //
	uint_8 frameFlag;            //

	frameFlag = 1;
	switch(dataLen)
    2342:	4c24      	ldr	r4, [pc, #144]	; (23d4 <CreateFrame+0x94>)
    2344:	8823      	ldrh	r3, [r4, #0]
    2346:	2b01      	cmp	r3, #1
    2348:	d034      	beq.n	23b4 <CreateFrame+0x74>
    234a:	2b00      	cmp	r3, #0
    234c:	d02b      	beq.n	23a6 <CreateFrame+0x66>
    234e:	2b02      	cmp	r3, #2
    2350:	d00a      	beq.n	2368 <CreateFrame+0x28>
    2352:	2b03      	cmp	r3, #3
    2354:	d110      	bne.n	2378 <CreateFrame+0x38>
E:\2017-2018\03_Graduation Project\04_Software\05_Wangshi\02_6220\06_UpdateSoftware-180714\01_UEBootloader\KL36_Bios-180714\Debug/../06_NosPrg/isr.c:171
	case 2:  //
		buffer[dataLen++] = Data;
		frameLen = Data<<8;
		break;
	case 3:  //
		buffer[dataLen++] = Data;
    2356:	2304      	movs	r3, #4
E:\2017-2018\03_Graduation Project\04_Software\05_Wangshi\02_6220\06_UpdateSoftware-180714\01_UEBootloader\KL36_Bios-180714\Debug/../06_NosPrg/isr.c:172
		frameLen += Data;
    2358:	4a1f      	ldr	r2, [pc, #124]	; (23d8 <CreateFrame+0x98>)
E:\2017-2018\03_Graduation Project\04_Software\05_Wangshi\02_6220\06_UpdateSoftware-180714\01_UEBootloader\KL36_Bios-180714\Debug/../06_NosPrg/isr.c:171
		buffer[dataLen++] = Data;
    235a:	8023      	strh	r3, [r4, #0]
E:\2017-2018\03_Graduation Project\04_Software\05_Wangshi\02_6220\06_UpdateSoftware-180714\01_UEBootloader\KL36_Bios-180714\Debug/../06_NosPrg/isr.c:172
		frameLen += Data;
    235c:	8813      	ldrh	r3, [r2, #0]
E:\2017-2018\03_Graduation Project\04_Software\05_Wangshi\02_6220\06_UpdateSoftware-180714\01_UEBootloader\KL36_Bios-180714\Debug/../06_NosPrg/isr.c:171
		buffer[dataLen++] = Data;
    235e:	70c8      	strb	r0, [r1, #3]
E:\2017-2018\03_Graduation Project\04_Software\05_Wangshi\02_6220\06_UpdateSoftware-180714\01_UEBootloader\KL36_Bios-180714\Debug/../06_NosPrg/isr.c:172
		frameLen += Data;
    2360:	1818      	adds	r0, r3, r0
    2362:	8010      	strh	r0, [r2, #0]
E:\2017-2018\03_Graduation Project\04_Software\05_Wangshi\02_6220\06_UpdateSoftware-180714\01_UEBootloader\KL36_Bios-180714\Debug/../06_NosPrg/isr.c:145
	frameFlag = 1;
    2364:	2001      	movs	r0, #1
E:\2017-2018\03_Graduation Project\04_Software\05_Wangshi\02_6220\06_UpdateSoftware-180714\01_UEBootloader\KL36_Bios-180714\Debug/../06_NosPrg/isr.c:196
		}
		break;
	}

	return frameFlag;
}
    2366:	bd30      	pop	{r4, r5, pc}
E:\2017-2018\03_Graduation Project\04_Software\05_Wangshi\02_6220\06_UpdateSoftware-180714\01_UEBootloader\KL36_Bios-180714\Debug/../06_NosPrg/isr.c:167
		buffer[dataLen++] = Data;
    2368:	2303      	movs	r3, #3
    236a:	8023      	strh	r3, [r4, #0]
E:\2017-2018\03_Graduation Project\04_Software\05_Wangshi\02_6220\06_UpdateSoftware-180714\01_UEBootloader\KL36_Bios-180714\Debug/../06_NosPrg/isr.c:168
		frameLen = Data<<8;
    236c:	4b1a      	ldr	r3, [pc, #104]	; (23d8 <CreateFrame+0x98>)
E:\2017-2018\03_Graduation Project\04_Software\05_Wangshi\02_6220\06_UpdateSoftware-180714\01_UEBootloader\KL36_Bios-180714\Debug/../06_NosPrg/isr.c:167
		buffer[dataLen++] = Data;
    236e:	7088      	strb	r0, [r1, #2]
E:\2017-2018\03_Graduation Project\04_Software\05_Wangshi\02_6220\06_UpdateSoftware-180714\01_UEBootloader\KL36_Bios-180714\Debug/../06_NosPrg/isr.c:168
		frameLen = Data<<8;
    2370:	0200      	lsls	r0, r0, #8
    2372:	8018      	strh	r0, [r3, #0]
E:\2017-2018\03_Graduation Project\04_Software\05_Wangshi\02_6220\06_UpdateSoftware-180714\01_UEBootloader\KL36_Bios-180714\Debug/../06_NosPrg/isr.c:145
	frameFlag = 1;
    2374:	2001      	movs	r0, #1
E:\2017-2018\03_Graduation Project\04_Software\05_Wangshi\02_6220\06_UpdateSoftware-180714\01_UEBootloader\KL36_Bios-180714\Debug/../06_NosPrg/isr.c:169
		break;
    2376:	e7f6      	b.n	2366 <CreateFrame+0x26>
E:\2017-2018\03_Graduation Project\04_Software\05_Wangshi\02_6220\06_UpdateSoftware-180714\01_UEBootloader\KL36_Bios-180714\Debug/../06_NosPrg/isr.c:175
		buffer[dataLen++] = Data;
    2378:	54c8      	strb	r0, [r1, r3]
E:\2017-2018\03_Graduation Project\04_Software\05_Wangshi\02_6220\06_UpdateSoftware-180714\01_UEBootloader\KL36_Bios-180714\Debug/../06_NosPrg/isr.c:176
		if(frameLen == dataLen)
    237a:	4817      	ldr	r0, [pc, #92]	; (23d8 <CreateFrame+0x98>)
E:\2017-2018\03_Graduation Project\04_Software\05_Wangshi\02_6220\06_UpdateSoftware-180714\01_UEBootloader\KL36_Bios-180714\Debug/../06_NosPrg/isr.c:175
		buffer[dataLen++] = Data;
    237c:	1c5d      	adds	r5, r3, #1
E:\2017-2018\03_Graduation Project\04_Software\05_Wangshi\02_6220\06_UpdateSoftware-180714\01_UEBootloader\KL36_Bios-180714\Debug/../06_NosPrg/isr.c:176
		if(frameLen == dataLen)
    237e:	8803      	ldrh	r3, [r0, #0]
E:\2017-2018\03_Graduation Project\04_Software\05_Wangshi\02_6220\06_UpdateSoftware-180714\01_UEBootloader\KL36_Bios-180714\Debug/../06_NosPrg/isr.c:175
		buffer[dataLen++] = Data;
    2380:	b2ad      	uxth	r5, r5
    2382:	8025      	strh	r5, [r4, #0]
E:\2017-2018\03_Graduation Project\04_Software\05_Wangshi\02_6220\06_UpdateSoftware-180714\01_UEBootloader\KL36_Bios-180714\Debug/../06_NosPrg/isr.c:176
		if(frameLen == dataLen)
    2384:	42ab      	cmp	r3, r5
    2386:	d1f5      	bne.n	2374 <CreateFrame+0x34>
E:\2017-2018\03_Graduation Project\04_Software\05_Wangshi\02_6220\06_UpdateSoftware-180714\01_UEBootloader\KL36_Bios-180714\Debug/../06_NosPrg/isr.c:178
			if(buffer[frameLen-2] == FrameTaiH && buffer[frameLen-1] == FrameTaiL)
    2388:	18c9      	adds	r1, r1, r3
    238a:	1e8d      	subs	r5, r1, #2
    238c:	782d      	ldrb	r5, [r5, #0]
    238e:	2d43      	cmp	r5, #67	; 0x43
    2390:	d11b      	bne.n	23ca <CreateFrame+0x8a>
E:\2017-2018\03_Graduation Project\04_Software\05_Wangshi\02_6220\06_UpdateSoftware-180714\01_UEBootloader\KL36_Bios-180714\Debug/../06_NosPrg/isr.c:178 (discriminator 1)
    2392:	3901      	subs	r1, #1
    2394:	7809      	ldrb	r1, [r1, #0]
    2396:	2943      	cmp	r1, #67	; 0x43
    2398:	d117      	bne.n	23ca <CreateFrame+0x8a>
E:\2017-2018\03_Graduation Project\04_Software\05_Wangshi\02_6220\06_UpdateSoftware-180714\01_UEBootloader\KL36_Bios-180714\Debug/../06_NosPrg/isr.c:181
				*len = frameLen;
    239a:	8013      	strh	r3, [r2, #0]
E:\2017-2018\03_Graduation Project\04_Software\05_Wangshi\02_6220\06_UpdateSoftware-180714\01_UEBootloader\KL36_Bios-180714\Debug/../06_NosPrg/isr.c:182
				dataLen = 0;
    239c:	2300      	movs	r3, #0
E:\2017-2018\03_Graduation Project\04_Software\05_Wangshi\02_6220\06_UpdateSoftware-180714\01_UEBootloader\KL36_Bios-180714\Debug/../06_NosPrg/isr.c:183
				frameLen = 0;
    239e:	8003      	strh	r3, [r0, #0]
E:\2017-2018\03_Graduation Project\04_Software\05_Wangshi\02_6220\06_UpdateSoftware-180714\01_UEBootloader\KL36_Bios-180714\Debug/../06_NosPrg/isr.c:182
				dataLen = 0;
    23a0:	8023      	strh	r3, [r4, #0]
E:\2017-2018\03_Graduation Project\04_Software\05_Wangshi\02_6220\06_UpdateSoftware-180714\01_UEBootloader\KL36_Bios-180714\Debug/../06_NosPrg/isr.c:180
				frameFlag = 0; //
    23a2:	2000      	movs	r0, #0
E:\2017-2018\03_Graduation Project\04_Software\05_Wangshi\02_6220\06_UpdateSoftware-180714\01_UEBootloader\KL36_Bios-180714\Debug/../06_NosPrg/isr.c:183
				frameLen = 0;
    23a4:	e7df      	b.n	2366 <CreateFrame+0x26>
E:\2017-2018\03_Graduation Project\04_Software\05_Wangshi\02_6220\06_UpdateSoftware-180714\01_UEBootloader\KL36_Bios-180714\Debug/../06_NosPrg/isr.c:149
		if(Data == FrameHeadH)
    23a6:	2850      	cmp	r0, #80	; 0x50
    23a8:	d1e4      	bne.n	2374 <CreateFrame+0x34>
E:\2017-2018\03_Graduation Project\04_Software\05_Wangshi\02_6220\06_UpdateSoftware-180714\01_UEBootloader\KL36_Bios-180714\Debug/../06_NosPrg/isr.c:151
			buffer[dataLen++] = Data;
    23aa:	2301      	movs	r3, #1
    23ac:	7008      	strb	r0, [r1, #0]
    23ae:	8023      	strh	r3, [r4, #0]
E:\2017-2018\03_Graduation Project\04_Software\05_Wangshi\02_6220\06_UpdateSoftware-180714\01_UEBootloader\KL36_Bios-180714\Debug/../06_NosPrg/isr.c:152
			frameFlag = 1;    //
    23b0:	2001      	movs	r0, #1
    23b2:	e7d8      	b.n	2366 <CreateFrame+0x26>
E:\2017-2018\03_Graduation Project\04_Software\05_Wangshi\02_6220\06_UpdateSoftware-180714\01_UEBootloader\KL36_Bios-180714\Debug/../06_NosPrg/isr.c:156
		if(Data == FrameHeadL)
    23b4:	2850      	cmp	r0, #80	; 0x50
    23b6:	d104      	bne.n	23c2 <CreateFrame+0x82>
E:\2017-2018\03_Graduation Project\04_Software\05_Wangshi\02_6220\06_UpdateSoftware-180714\01_UEBootloader\KL36_Bios-180714\Debug/../06_NosPrg/isr.c:158
			buffer[dataLen++] = Data;
    23b8:	2302      	movs	r3, #2
    23ba:	7048      	strb	r0, [r1, #1]
    23bc:	8023      	strh	r3, [r4, #0]
E:\2017-2018\03_Graduation Project\04_Software\05_Wangshi\02_6220\06_UpdateSoftware-180714\01_UEBootloader\KL36_Bios-180714\Debug/../06_NosPrg/isr.c:145
	frameFlag = 1;
    23be:	384f      	subs	r0, #79	; 0x4f
    23c0:	e7d1      	b.n	2366 <CreateFrame+0x26>
E:\2017-2018\03_Graduation Project\04_Software\05_Wangshi\02_6220\06_UpdateSoftware-180714\01_UEBootloader\KL36_Bios-180714\Debug/../06_NosPrg/isr.c:162
			dataLen = 0;
    23c2:	2300      	movs	r3, #0
E:\2017-2018\03_Graduation Project\04_Software\05_Wangshi\02_6220\06_UpdateSoftware-180714\01_UEBootloader\KL36_Bios-180714\Debug/../06_NosPrg/isr.c:163
			frameFlag = 2;    //
    23c4:	2002      	movs	r0, #2
E:\2017-2018\03_Graduation Project\04_Software\05_Wangshi\02_6220\06_UpdateSoftware-180714\01_UEBootloader\KL36_Bios-180714\Debug/../06_NosPrg/isr.c:162
			dataLen = 0;
    23c6:	8023      	strh	r3, [r4, #0]
    23c8:	e7cd      	b.n	2366 <CreateFrame+0x26>
E:\2017-2018\03_Graduation Project\04_Software\05_Wangshi\02_6220\06_UpdateSoftware-180714\01_UEBootloader\KL36_Bios-180714\Debug/../06_NosPrg/isr.c:188
				dataLen = 0;
    23ca:	2300      	movs	r3, #0
E:\2017-2018\03_Graduation Project\04_Software\05_Wangshi\02_6220\06_UpdateSoftware-180714\01_UEBootloader\KL36_Bios-180714\Debug/../06_NosPrg/isr.c:189
				frameLen = 0;
    23cc:	8003      	strh	r3, [r0, #0]
E:\2017-2018\03_Graduation Project\04_Software\05_Wangshi\02_6220\06_UpdateSoftware-180714\01_UEBootloader\KL36_Bios-180714\Debug/../06_NosPrg/isr.c:188
				dataLen = 0;
    23ce:	8023      	strh	r3, [r4, #0]
E:\2017-2018\03_Graduation Project\04_Software\05_Wangshi\02_6220\06_UpdateSoftware-180714\01_UEBootloader\KL36_Bios-180714\Debug/../06_NosPrg/isr.c:187
				frameFlag = 3; //
    23d0:	2003      	movs	r0, #3
    23d2:	e7c8      	b.n	2366 <CreateFrame+0x26>
    23d4:	1ffff9b4 	.word	0x1ffff9b4
    23d8:	1ffff9b6 	.word	0x1ffff9b6

000023dc <UART2_IRQHandler>:
UART2_IRQHandler():
E:\2017-2018\03_Graduation Project\04_Software\05_Wangshi\02_6220\06_UpdateSoftware-180714\01_UEBootloader\KL36_Bios-180714\Debug/../06_NosPrg/isr.c:76
{
    23dc:	b530      	push	{r4, r5, lr}
    23de:	b083      	sub	sp, #12
__disable_irq():
E:\2017-2018\03_Graduation Project\04_Software\05_Wangshi\02_6220\06_UpdateSoftware-180714\01_UEBootloader\KL36_Bios-180714\02_Core/core_cmFunc.h:344
  __ASM volatile ("cpsid i" : : : "memory");
    23e0:	b672      	cpsid	i
UART2_IRQHandler():
E:\2017-2018\03_Graduation Project\04_Software\05_Wangshi\02_6220\06_UpdateSoftware-180714\01_UEBootloader\KL36_Bios-180714\Debug/../06_NosPrg/isr.c:86
	if(uart_get_re_int(UART_2))
    23e2:	2002      	movs	r0, #2
    23e4:	f002 f9b0 	bl	4748 <uart_get_re_int>
    23e8:	2800      	cmp	r0, #0
    23ea:	d102      	bne.n	23f2 <UART2_IRQHandler+0x16>
__enable_irq():
E:\2017-2018\03_Graduation Project\04_Software\05_Wangshi\02_6220\06_UpdateSoftware-180714\01_UEBootloader\KL36_Bios-180714\02_Core/core_cmFunc.h:333
  __ASM volatile ("cpsie i" : : : "memory");
    23ec:	b662      	cpsie	i
UART2_IRQHandler():
E:\2017-2018\03_Graduation Project\04_Software\05_Wangshi\02_6220\06_UpdateSoftware-180714\01_UEBootloader\KL36_Bios-180714\Debug/../06_NosPrg/isr.c:121
}
    23ee:	b003      	add	sp, #12
    23f0:	bd30      	pop	{r4, r5, pc}
E:\2017-2018\03_Graduation Project\04_Software\05_Wangshi\02_6220\06_UpdateSoftware-180714\01_UEBootloader\KL36_Bios-180714\Debug/../06_NosPrg/isr.c:88
		ch = uart_re1 (UART_2, &flag);    //
    23f2:	466b      	mov	r3, sp
    23f4:	1ddc      	adds	r4, r3, #7
    23f6:	0021      	movs	r1, r4
    23f8:	2002      	movs	r0, #2
    23fa:	f002 f927 	bl	464c <uart_re1>
E:\2017-2018\03_Graduation Project\04_Software\05_Wangshi\02_6220\06_UpdateSoftware-180714\01_UEBootloader\KL36_Bios-180714\Debug/../06_NosPrg/isr.c:89
		if(flag)
    23fe:	7823      	ldrb	r3, [r4, #0]
E:\2017-2018\03_Graduation Project\04_Software\05_Wangshi\02_6220\06_UpdateSoftware-180714\01_UEBootloader\KL36_Bios-180714\Debug/../06_NosPrg/isr.c:88
		ch = uart_re1 (UART_2, &flag);    //
    2400:	0005      	movs	r5, r0
E:\2017-2018\03_Graduation Project\04_Software\05_Wangshi\02_6220\06_UpdateSoftware-180714\01_UEBootloader\KL36_Bios-180714\Debug/../06_NosPrg/isr.c:89
		if(flag)
    2402:	2b00      	cmp	r3, #0
    2404:	d0f2      	beq.n	23ec <UART2_IRQHandler+0x10>
    2406:	4c1c      	ldr	r4, [pc, #112]	; (2478 <UART2_IRQHandler+0x9c>)
    2408:	1d63      	adds	r3, r4, #5
    240a:	1e61      	subs	r1, r4, #1
E:\2017-2018\03_Graduation Project\04_Software\05_Wangshi\02_6220\06_UpdateSoftware-180714\01_UEBootloader\KL36_Bios-180714\Debug/../06_NosPrg/isr.c:94 (discriminator 3)
				buf[i] = buf[i-1];
    240c:	781a      	ldrb	r2, [r3, #0]
    240e:	3b01      	subs	r3, #1
    2410:	709a      	strb	r2, [r3, #2]
E:\2017-2018\03_Graduation Project\04_Software\05_Wangshi\02_6220\06_UpdateSoftware-180714\01_UEBootloader\KL36_Bios-180714\Debug/../06_NosPrg/isr.c:92 (discriminator 3)
			for(i = 6; i > 0;i--)
    2412:	428b      	cmp	r3, r1
    2414:	d1fa      	bne.n	240c <UART2_IRQHandler+0x30>
E:\2017-2018\03_Graduation Project\04_Software\05_Wangshi\02_6220\06_UpdateSoftware-180714\01_UEBootloader\KL36_Bios-180714\Debug/../06_NosPrg/isr.c:98
			if(strncmp(buf,"ekahs",5) == 0)
    2416:	2205      	movs	r2, #5
    2418:	4918      	ldr	r1, [pc, #96]	; (247c <UART2_IRQHandler+0xa0>)
    241a:	0020      	movs	r0, r4
E:\2017-2018\03_Graduation Project\04_Software\05_Wangshi\02_6220\06_UpdateSoftware-180714\01_UEBootloader\KL36_Bios-180714\Debug/../06_NosPrg/isr.c:96
			buf[0] = ch;
    241c:	7025      	strb	r5, [r4, #0]
E:\2017-2018\03_Graduation Project\04_Software\05_Wangshi\02_6220\06_UpdateSoftware-180714\01_UEBootloader\KL36_Bios-180714\Debug/../06_NosPrg/isr.c:98
			if(strncmp(buf,"ekahs",5) == 0)
    241e:	f003 fa1c 	bl	585a <strncmp>
    2422:	2800      	cmp	r0, #0
    2424:	d011      	beq.n	244a <UART2_IRQHandler+0x6e>
E:\2017-2018\03_Graduation Project\04_Software\05_Wangshi\02_6220\06_UpdateSoftware-180714\01_UEBootloader\KL36_Bios-180714\Debug/../06_NosPrg/isr.c:103
			else if(strncmp(buf,"etadpu",6) == 0)
    2426:	2206      	movs	r2, #6
    2428:	4915      	ldr	r1, [pc, #84]	; (2480 <UART2_IRQHandler+0xa4>)
    242a:	0020      	movs	r0, r4
    242c:	f003 fa15 	bl	585a <strncmp>
    2430:	2800      	cmp	r0, #0
    2432:	d00f      	beq.n	2454 <UART2_IRQHandler+0x78>
E:\2017-2018\03_Graduation Project\04_Software\05_Wangshi\02_6220\06_UpdateSoftware-180714\01_UEBootloader\KL36_Bios-180714\Debug/../06_NosPrg/isr.c:113
			if(CreateFrame(ch,gRecvBuf,&gRecvLen) == 0)
    2434:	4a13      	ldr	r2, [pc, #76]	; (2484 <UART2_IRQHandler+0xa8>)
    2436:	4914      	ldr	r1, [pc, #80]	; (2488 <UART2_IRQHandler+0xac>)
    2438:	0028      	movs	r0, r5
    243a:	f7ff ff81 	bl	2340 <CreateFrame>
    243e:	2800      	cmp	r0, #0
    2440:	d1d4      	bne.n	23ec <UART2_IRQHandler+0x10>
E:\2017-2018\03_Graduation Project\04_Software\05_Wangshi\02_6220\06_UpdateSoftware-180714\01_UEBootloader\KL36_Bios-180714\Debug/../06_NosPrg/isr.c:115
				gFunFlag = 2;  //
    2442:	2202      	movs	r2, #2
    2444:	4b11      	ldr	r3, [pc, #68]	; (248c <UART2_IRQHandler+0xb0>)
    2446:	701a      	strb	r2, [r3, #0]
    2448:	e7d0      	b.n	23ec <UART2_IRQHandler+0x10>
E:\2017-2018\03_Graduation Project\04_Software\05_Wangshi\02_6220\06_UpdateSoftware-180714\01_UEBootloader\KL36_Bios-180714\Debug/../06_NosPrg/isr.c:100
				uart_send_string(UART_2,"shake:GEC-6220");
    244a:	4911      	ldr	r1, [pc, #68]	; (2490 <UART2_IRQHandler+0xb4>)
    244c:	3002      	adds	r0, #2
    244e:	f002 f8e5 	bl	461c <uart_send_string>
    2452:	e7ef      	b.n	2434 <UART2_IRQHandler+0x58>
E:\2017-2018\03_Graduation Project\04_Software\05_Wangshi\02_6220\06_UpdateSoftware-180714\01_UEBootloader\KL36_Bios-180714\Debug/../06_NosPrg/isr.c:108
				memcpy(updateFlag,"update\0",7);
    2454:	4a0f      	ldr	r2, [pc, #60]	; (2494 <UART2_IRQHandler+0xb8>)
    2456:	4b10      	ldr	r3, [pc, #64]	; (2498 <UART2_IRQHandler+0xbc>)
    2458:	6811      	ldr	r1, [r2, #0]
    245a:	6019      	str	r1, [r3, #0]
    245c:	8891      	ldrh	r1, [r2, #4]
    245e:	8099      	strh	r1, [r3, #4]
    2460:	7992      	ldrb	r2, [r2, #6]
    2462:	719a      	strb	r2, [r3, #6]
__DSB():
E:\2017-2018\03_Graduation Project\04_Software\05_Wangshi\02_6220\06_UpdateSoftware-180714\01_UEBootloader\KL36_Bios-180714\02_Core/core_cmInstr.h:473
    This function acts as a special kind of Data Memory Barrier.
    It completes when all explicit memory accesses before this instruction complete.
 */
__attribute__((always_inline)) __STATIC_INLINE void __DSB(void)
{
  __ASM volatile ("dsb 0xF":::"memory");
    2464:	f3bf 8f4f 	dsb	sy
NVIC_SystemReset():
E:\2017-2018\03_Graduation Project\04_Software\05_Wangshi\02_6220\06_UpdateSoftware-180714\01_UEBootloader\KL36_Bios-180714\02_Core/core_cm0plus.h:794
 */
__STATIC_INLINE void NVIC_SystemReset(void)
{
  __DSB();                                                     /* Ensure all outstanding memory accesses included
                                                                  buffered write are completed before reset */
  SCB->AIRCR  = ((0x5FAUL << SCB_AIRCR_VECTKEY_Pos) |
    2468:	4b0c      	ldr	r3, [pc, #48]	; (249c <UART2_IRQHandler+0xc0>)
    246a:	4a0d      	ldr	r2, [pc, #52]	; (24a0 <UART2_IRQHandler+0xc4>)
    246c:	60da      	str	r2, [r3, #12]
__DSB():
E:\2017-2018\03_Graduation Project\04_Software\05_Wangshi\02_6220\06_UpdateSoftware-180714\01_UEBootloader\KL36_Bios-180714\02_Core/core_cmInstr.h:473
    246e:	f3bf 8f4f 	dsb	sy
__NOP():
E:\2017-2018\03_Graduation Project\04_Software\05_Wangshi\02_6220\06_UpdateSoftware-180714\01_UEBootloader\KL36_Bios-180714\02_Core/core_cmInstr.h:418
  __ASM volatile ("nop");
    2472:	46c0      	nop			; (mov r8, r8)
    2474:	e7fd      	b.n	2472 <UART2_IRQHandler+0x96>
    2476:	46c0      	nop			; (mov r8, r8)
    2478:	1ffff9ac 	.word	0x1ffff9ac
    247c:	00005bc4 	.word	0x00005bc4
    2480:	00005bdc 	.word	0x00005bdc
    2484:	1ffffcb0 	.word	0x1ffffcb0
    2488:	1ffffab0 	.word	0x1ffffab0
    248c:	1ffffcb2 	.word	0x1ffffcb2
    2490:	00005bcc 	.word	0x00005bcc
    2494:	000058dc 	.word	0x000058dc
    2498:	200003f8 	.word	0x200003f8
    249c:	e000ed00 	.word	0xe000ed00
    24a0:	05fa0004 	.word	0x05fa0004

000024a4 <systemTimeGet>:
systemTimeGet():
E:\2017-2018\03_Graduation Project\04_Software\05_Wangshi\02_6220\06_UpdateSoftware-180714\01_UEBootloader\KL36_Bios-180714\Debug/../06_NosPrg/main.c:100
	//======================================================
}

//uint_64 *tick
void systemTimeGet(uint_8 *date)
{
    24a4:	b510      	push	{r4, lr}
E:\2017-2018\03_Graduation Project\04_Software\05_Wangshi\02_6220\06_UpdateSoftware-180714\01_UEBootloader\KL36_Bios-180714\Debug/../06_NosPrg/main.c:101
	timeChange(gTime,date);
    24a6:	4b03      	ldr	r3, [pc, #12]	; (24b4 <systemTimeGet+0x10>)
E:\2017-2018\03_Graduation Project\04_Software\05_Wangshi\02_6220\06_UpdateSoftware-180714\01_UEBootloader\KL36_Bios-180714\Debug/../06_NosPrg/main.c:100
{
    24a8:	0002      	movs	r2, r0
E:\2017-2018\03_Graduation Project\04_Software\05_Wangshi\02_6220\06_UpdateSoftware-180714\01_UEBootloader\KL36_Bios-180714\Debug/../06_NosPrg/main.c:101
	timeChange(gTime,date);
    24aa:	6818      	ldr	r0, [r3, #0]
    24ac:	6859      	ldr	r1, [r3, #4]
    24ae:	f000 fbd9 	bl	2c64 <timeChange>
E:\2017-2018\03_Graduation Project\04_Software\05_Wangshi\02_6220\06_UpdateSoftware-180714\01_UEBootloader\KL36_Bios-180714\Debug/../06_NosPrg/main.c:102
}
    24b2:	bd10      	pop	{r4, pc}
    24b4:	1ffffca8 	.word	0x1ffffca8

000024b8 <systemTimeSet>:
systemTimeSet():
E:\2017-2018\03_Graduation Project\04_Software\05_Wangshi\02_6220\06_UpdateSoftware-180714\01_UEBootloader\KL36_Bios-180714\Debug/../06_NosPrg/main.c:106

void systemTimeSet(uint_64 tick)
{
	gTime = tick;
    24b8:	4b01      	ldr	r3, [pc, #4]	; (24c0 <systemTimeSet+0x8>)
    24ba:	6018      	str	r0, [r3, #0]
    24bc:	6059      	str	r1, [r3, #4]
E:\2017-2018\03_Graduation Project\04_Software\05_Wangshi\02_6220\06_UpdateSoftware-180714\01_UEBootloader\KL36_Bios-180714\Debug/../06_NosPrg/main.c:107
}
    24be:	4770      	bx	lr
    24c0:	1ffffca8 	.word	0x1ffffca8

000024c4 <systemInfoGet>:
systemInfoGet():
E:\2017-2018\03_Graduation Project\04_Software\05_Wangshi\02_6220\06_UpdateSoftware-180714\01_UEBootloader\KL36_Bios-180714\Debug/../06_NosPrg/main.c:110

void systemInfoGet(uint_8 *data)
{
    24c4:	b510      	push	{r4, lr}
E:\2017-2018\03_Graduation Project\04_Software\05_Wangshi\02_6220\06_UpdateSoftware-180714\01_UEBootloader\KL36_Bios-180714\Debug/../06_NosPrg/main.c:111
	flash_read_logic(data,SECTORNO,0,24);
    24c6:	2318      	movs	r3, #24
    24c8:	2200      	movs	r2, #0
    24ca:	2119      	movs	r1, #25
    24cc:	f003 f870 	bl	55b0 <flash_read_logic>
E:\2017-2018\03_Graduation Project\04_Software\05_Wangshi\02_6220\06_UpdateSoftware-180714\01_UEBootloader\KL36_Bios-180714\Debug/../06_NosPrg/main.c:112
}
    24d0:	bd10      	pop	{r4, pc}
    24d2:	46c0      	nop			; (mov r8, r8)

000024d4 <updateJudge>:
updateJudge():
E:\2017-2018\03_Graduation Project\04_Software\05_Wangshi\02_6220\06_UpdateSoftware-180714\01_UEBootloader\KL36_Bios-180714\Debug/../06_NosPrg/main.c:121
//
//
//29
//=====================================================================
void updateJudge()
{
    24d4:	b510      	push	{r4, lr}
    24d6:	b082      	sub	sp, #8
E:\2017-2018\03_Graduation Project\04_Software\05_Wangshi\02_6220\06_UpdateSoftware-180714\01_UEBootloader\KL36_Bios-180714\Debug/../06_NosPrg/main.c:127
	//1
	uint_8* str;
	uint_32 msp;

	//RAM+1
	flash_read_logic((uint_8*)&msp,SECTORNO+1,0,4);
    24d8:	2304      	movs	r3, #4
    24da:	2200      	movs	r2, #0
    24dc:	211a      	movs	r1, #26
    24de:	a801      	add	r0, sp, #4
    24e0:	f003 f866 	bl	55b0 <flash_read_logic>
E:\2017-2018\03_Graduation Project\04_Software\05_Wangshi\02_6220\06_UpdateSoftware-180714\01_UEBootloader\KL36_Bios-180714\Debug/../06_NosPrg/main.c:128
	if(msp != 0x20001800) //MKL36Z64RAM+10x20001800
    24e4:	4b0c      	ldr	r3, [pc, #48]	; (2518 <updateJudge+0x44>)
    24e6:	9a01      	ldr	r2, [sp, #4]
    24e8:	429a      	cmp	r2, r3
    24ea:	d004      	beq.n	24f6 <updateJudge+0x22>
E:\2017-2018\03_Graduation Project\04_Software\05_Wangshi\02_6220\06_UpdateSoftware-180714\01_UEBootloader\KL36_Bios-180714\Debug/../06_NosPrg/main.c:131
	{
		//
		gFunFlag = 10;//012
    24ec:	220a      	movs	r2, #10
    24ee:	4b0b      	ldr	r3, [pc, #44]	; (251c <updateJudge+0x48>)
    24f0:	701a      	strb	r2, [r3, #0]
E:\2017-2018\03_Graduation Project\04_Software\05_Wangshi\02_6220\06_UpdateSoftware-180714\01_UEBootloader\KL36_Bios-180714\Debug/../06_NosPrg/main.c:145
		{
			str[0] = 0;
			gFunFlag = 1;//
		}
	}
}
    24f2:	b002      	add	sp, #8
    24f4:	bd10      	pop	{r4, pc}
E:\2017-2018\03_Graduation Project\04_Software\05_Wangshi\02_6220\06_UpdateSoftware-180714\01_UEBootloader\KL36_Bios-180714\Debug/../06_NosPrg/main.c:137
		if(strcmp(str,"update") != 0)
    24f6:	4c0a      	ldr	r4, [pc, #40]	; (2520 <updateJudge+0x4c>)
    24f8:	490a      	ldr	r1, [pc, #40]	; (2524 <updateJudge+0x50>)
    24fa:	0020      	movs	r0, r4
    24fc:	f7ff fecc 	bl	2298 <strcmp>
    2500:	2800      	cmp	r0, #0
    2502:	d104      	bne.n	250e <updateJudge+0x3a>
E:\2017-2018\03_Graduation Project\04_Software\05_Wangshi\02_6220\06_UpdateSoftware-180714\01_UEBootloader\KL36_Bios-180714\Debug/../06_NosPrg/main.c:142
			gFunFlag = 1;//
    2504:	2201      	movs	r2, #1
    2506:	4b05      	ldr	r3, [pc, #20]	; (251c <updateJudge+0x48>)
E:\2017-2018\03_Graduation Project\04_Software\05_Wangshi\02_6220\06_UpdateSoftware-180714\01_UEBootloader\KL36_Bios-180714\Debug/../06_NosPrg/main.c:141
			str[0] = 0;
    2508:	7020      	strb	r0, [r4, #0]
E:\2017-2018\03_Graduation Project\04_Software\05_Wangshi\02_6220\06_UpdateSoftware-180714\01_UEBootloader\KL36_Bios-180714\Debug/../06_NosPrg/main.c:142
			gFunFlag = 1;//
    250a:	701a      	strb	r2, [r3, #0]
E:\2017-2018\03_Graduation Project\04_Software\05_Wangshi\02_6220\06_UpdateSoftware-180714\01_UEBootloader\KL36_Bios-180714\Debug/../06_NosPrg/main.c:145
}
    250c:	e7f1      	b.n	24f2 <updateJudge+0x1e>
E:\2017-2018\03_Graduation Project\04_Software\05_Wangshi\02_6220\06_UpdateSoftware-180714\01_UEBootloader\KL36_Bios-180714\Debug/../06_NosPrg/main.c:138
			gFunFlag = 0;//
    250e:	2200      	movs	r2, #0
    2510:	4b02      	ldr	r3, [pc, #8]	; (251c <updateJudge+0x48>)
    2512:	701a      	strb	r2, [r3, #0]
    2514:	e7ed      	b.n	24f2 <updateJudge+0x1e>
    2516:	46c0      	nop			; (mov r8, r8)
    2518:	20001800 	.word	0x20001800
    251c:	1ffffcb2 	.word	0x1ffffcb2
    2520:	200003f8 	.word	0x200003f8
    2524:	00005bf4 	.word	0x00005bf4

00002528 <main>:
main():
E:\2017-2018\03_Graduation Project\04_Software\05_Wangshi\02_6220\06_UpdateSoftware-180714\01_UEBootloader\KL36_Bios-180714\Debug/../06_NosPrg/main.c:15
{
    2528:	b5f0      	push	{r4, r5, r6, r7, lr}
    252a:	46d6      	mov	lr, sl
    252c:	464f      	mov	r7, r9
    252e:	b580      	push	{r7, lr}
    2530:	b09d      	sub	sp, #116	; 0x74
__disable_irq():
E:\2017-2018\03_Graduation Project\04_Software\05_Wangshi\02_6220\06_UpdateSoftware-180714\01_UEBootloader\KL36_Bios-180714\02_Core/core_cmFunc.h:344
  __ASM volatile ("cpsid i" : : : "memory");
    2532:	b672      	cpsid	i
main():
E:\2017-2018\03_Graduation Project\04_Software\05_Wangshi\02_6220\06_UpdateSoftware-180714\01_UEBootloader\KL36_Bios-180714\Debug/../06_NosPrg/main.c:27
	uart_init(UART_2,115200);
    2534:	21e1      	movs	r1, #225	; 0xe1
    2536:	2002      	movs	r0, #2
    2538:	0249      	lsls	r1, r1, #9
    253a:	f001 ff79 	bl	4430 <uart_init>
E:\2017-2018\03_Graduation Project\04_Software\05_Wangshi\02_6220\06_UpdateSoftware-180714\01_UEBootloader\KL36_Bios-180714\Debug/../06_NosPrg/main.c:28
	systick_init(CORE_CLOCK_DIV_16,1000);
    253e:	21fa      	movs	r1, #250	; 0xfa
    2540:	2000      	movs	r0, #0
    2542:	0089      	lsls	r1, r1, #2
    2544:	f002 fa02 	bl	494c <systick_init>
E:\2017-2018\03_Graduation Project\04_Software\05_Wangshi\02_6220\06_UpdateSoftware-180714\01_UEBootloader\KL36_Bios-180714\Debug/../06_NosPrg/main.c:29
	flash_init();
    2548:	f002 ffa4 	bl	5494 <flash_init>
E:\2017-2018\03_Graduation Project\04_Software\05_Wangshi\02_6220\06_UpdateSoftware-180714\01_UEBootloader\KL36_Bios-180714\Debug/../06_NosPrg/main.c:30
	light_init(LIGHT_GREEN,LIGHT_ON);
    254c:	2100      	movs	r1, #0
    254e:	200c      	movs	r0, #12
    2550:	f001 fee8 	bl	4324 <light_init>
E:\2017-2018\03_Graduation Project\04_Software\05_Wangshi\02_6220\06_UpdateSoftware-180714\01_UEBootloader\KL36_Bios-180714\Debug/../06_NosPrg/main.c:31
	ueupdate_init(USERBASE/1024);
    2554:	201a      	movs	r0, #26
    2556:	f000 fc23 	bl	2da0 <ueupdate_init>
E:\2017-2018\03_Graduation Project\04_Software\05_Wangshi\02_6220\06_UpdateSoftware-180714\01_UEBootloader\KL36_Bios-180714\Debug/../06_NosPrg/main.c:35
	gTime = 0;
    255a:	2100      	movs	r1, #0
    255c:	2000      	movs	r0, #0
E:\2017-2018\03_Graduation Project\04_Software\05_Wangshi\02_6220\06_UpdateSoftware-180714\01_UEBootloader\KL36_Bios-180714\Debug/../06_NosPrg/main.c:33
	gFunFlag = 0;
    255e:	2300      	movs	r3, #0
E:\2017-2018\03_Graduation Project\04_Software\05_Wangshi\02_6220\06_UpdateSoftware-180714\01_UEBootloader\KL36_Bios-180714\Debug/../06_NosPrg/main.c:35
	gTime = 0;
    2560:	4a2a      	ldr	r2, [pc, #168]	; (260c <main+0xe4>)
E:\2017-2018\03_Graduation Project\04_Software\05_Wangshi\02_6220\06_UpdateSoftware-180714\01_UEBootloader\KL36_Bios-180714\Debug/../06_NosPrg/main.c:33
	gFunFlag = 0;
    2562:	4c2b      	ldr	r4, [pc, #172]	; (2610 <main+0xe8>)
E:\2017-2018\03_Graduation Project\04_Software\05_Wangshi\02_6220\06_UpdateSoftware-180714\01_UEBootloader\KL36_Bios-180714\Debug/../06_NosPrg/main.c:34
	gRecvLen = 0;
    2564:	4f2b      	ldr	r7, [pc, #172]	; (2614 <main+0xec>)
E:\2017-2018\03_Graduation Project\04_Software\05_Wangshi\02_6220\06_UpdateSoftware-180714\01_UEBootloader\KL36_Bios-180714\Debug/../06_NosPrg/main.c:35
	gTime = 0;
    2566:	6010      	str	r0, [r2, #0]
    2568:	6051      	str	r1, [r2, #4]
E:\2017-2018\03_Graduation Project\04_Software\05_Wangshi\02_6220\06_UpdateSoftware-180714\01_UEBootloader\KL36_Bios-180714\Debug/../06_NosPrg/main.c:39
	uart_enable_re_int(UART_2);
    256a:	3002      	adds	r0, #2
E:\2017-2018\03_Graduation Project\04_Software\05_Wangshi\02_6220\06_UpdateSoftware-180714\01_UEBootloader\KL36_Bios-180714\Debug/../06_NosPrg/main.c:33
	gFunFlag = 0;
    256c:	7023      	strb	r3, [r4, #0]
E:\2017-2018\03_Graduation Project\04_Software\05_Wangshi\02_6220\06_UpdateSoftware-180714\01_UEBootloader\KL36_Bios-180714\Debug/../06_NosPrg/main.c:34
	gRecvLen = 0;
    256e:	803b      	strh	r3, [r7, #0]
E:\2017-2018\03_Graduation Project\04_Software\05_Wangshi\02_6220\06_UpdateSoftware-180714\01_UEBootloader\KL36_Bios-180714\Debug/../06_NosPrg/main.c:36
	mCount = 0;
    2570:	9302      	str	r3, [sp, #8]
E:\2017-2018\03_Graduation Project\04_Software\05_Wangshi\02_6220\06_UpdateSoftware-180714\01_UEBootloader\KL36_Bios-180714\Debug/../06_NosPrg/main.c:39
	uart_enable_re_int(UART_2);
    2572:	f002 f8a1 	bl	46b8 <uart_enable_re_int>
__enable_irq():
E:\2017-2018\03_Graduation Project\04_Software\05_Wangshi\02_6220\06_UpdateSoftware-180714\01_UEBootloader\KL36_Bios-180714\02_Core/core_cmFunc.h:333
  __ASM volatile ("cpsie i" : : : "memory");
    2576:	b662      	cpsie	i
main():
E:\2017-2018\03_Graduation Project\04_Software\05_Wangshi\02_6220\06_UpdateSoftware-180714\01_UEBootloader\KL36_Bios-180714\Debug/../06_NosPrg/main.c:43
	updateJudge();//
    2578:	f7ff ffac 	bl	24d4 <updateJudge>
    257c:	4b26      	ldr	r3, [pc, #152]	; (2618 <main+0xf0>)
E:\2017-2018\03_Graduation Project\04_Software\05_Wangshi\02_6220\06_UpdateSoftware-180714\01_UEBootloader\KL36_Bios-180714\Debug/../06_NosPrg/main.c:62
			gFunFlag = 10; //012
    257e:	250a      	movs	r5, #10
    2580:	469a      	mov	sl, r3
    2582:	4b26      	ldr	r3, [pc, #152]	; (261c <main+0xf4>)
E:\2017-2018\03_Graduation Project\04_Software\05_Wangshi\02_6220\06_UpdateSoftware-180714\01_UEBootloader\KL36_Bios-180714\Debug/../06_NosPrg/main.c:87
			if(mCount > 0x5ffff)  //Bootloader
    2584:	4e26      	ldr	r6, [pc, #152]	; (2620 <main+0xf8>)
    2586:	4699      	mov	r9, r3
E:\2017-2018\03_Graduation Project\04_Software\05_Wangshi\02_6220\06_UpdateSoftware-180714\01_UEBootloader\KL36_Bios-180714\Debug/../06_NosPrg/main.c:49
		switch(gFunFlag)
    2588:	7823      	ldrb	r3, [r4, #0]
    258a:	b2db      	uxtb	r3, r3
    258c:	2b01      	cmp	r3, #1
    258e:	d012      	beq.n	25b6 <main+0x8e>
    2590:	2b00      	cmp	r3, #0
    2592:	d022      	beq.n	25da <main+0xb2>
    2594:	2b02      	cmp	r3, #2
    2596:	d114      	bne.n	25c2 <main+0x9a>
E:\2017-2018\03_Graduation Project\04_Software\05_Wangshi\02_6220\06_UpdateSoftware-180714\01_UEBootloader\KL36_Bios-180714\Debug/../06_NosPrg/main.c:67
			flag = ueupdate_recv(gRecvBuf,gRecvLen);
    2598:	8839      	ldrh	r1, [r7, #0]
    259a:	4648      	mov	r0, r9
E:\2017-2018\03_Graduation Project\04_Software\05_Wangshi\02_6220\06_UpdateSoftware-180714\01_UEBootloader\KL36_Bios-180714\Debug/../06_NosPrg/main.c:65
			gFunFlag = 10;  //012
    259c:	7025      	strb	r5, [r4, #0]
E:\2017-2018\03_Graduation Project\04_Software\05_Wangshi\02_6220\06_UpdateSoftware-180714\01_UEBootloader\KL36_Bios-180714\Debug/../06_NosPrg/main.c:67
			flag = ueupdate_recv(gRecvBuf,gRecvLen);
    259e:	f000 fc5d 	bl	2e5c <ueupdate_recv>
E:\2017-2018\03_Graduation Project\04_Software\05_Wangshi\02_6220\06_UpdateSoftware-180714\01_UEBootloader\KL36_Bios-180714\Debug/../06_NosPrg/main.c:69
			switch(flag)
    25a2:	2800      	cmp	r0, #0
    25a4:	d024      	beq.n	25f0 <main+0xc8>
    25a6:	2803      	cmp	r0, #3
    25a8:	d1ee      	bne.n	2588 <main+0x60>
E:\2017-2018\03_Graduation Project\04_Software\05_Wangshi\02_6220\06_UpdateSoftware-180714\01_UEBootloader\KL36_Bios-180714\Debug/../06_NosPrg/main.c:79
				gFunFlag = 0;
    25aa:	2300      	movs	r3, #0
    25ac:	7023      	strb	r3, [r4, #0]
E:\2017-2018\03_Graduation Project\04_Software\05_Wangshi\02_6220\06_UpdateSoftware-180714\01_UEBootloader\KL36_Bios-180714\Debug/../06_NosPrg/main.c:49
		switch(gFunFlag)
    25ae:	7823      	ldrb	r3, [r4, #0]
    25b0:	b2db      	uxtb	r3, r3
    25b2:	2b01      	cmp	r3, #1
    25b4:	d1ec      	bne.n	2590 <main+0x68>
E:\2017-2018\03_Graduation Project\04_Software\05_Wangshi\02_6220\06_UpdateSoftware-180714\01_UEBootloader\KL36_Bios-180714\Debug/../06_NosPrg/main.c:61
			uart_send_string(UART_2,"Start Update");
    25b6:	4651      	mov	r1, sl
    25b8:	2002      	movs	r0, #2
    25ba:	f002 f82f 	bl	461c <uart_send_string>
E:\2017-2018\03_Graduation Project\04_Software\05_Wangshi\02_6220\06_UpdateSoftware-180714\01_UEBootloader\KL36_Bios-180714\Debug/../06_NosPrg/main.c:62
			gFunFlag = 10; //012
    25be:	7025      	strb	r5, [r4, #0]
E:\2017-2018\03_Graduation Project\04_Software\05_Wangshi\02_6220\06_UpdateSoftware-180714\01_UEBootloader\KL36_Bios-180714\Debug/../06_NosPrg/main.c:63
			break;
    25c0:	e7e2      	b.n	2588 <main+0x60>
E:\2017-2018\03_Graduation Project\04_Software\05_Wangshi\02_6220\06_UpdateSoftware-180714\01_UEBootloader\KL36_Bios-180714\Debug/../06_NosPrg/main.c:86
			mCount++;
    25c2:	9b02      	ldr	r3, [sp, #8]
    25c4:	3301      	adds	r3, #1
    25c6:	9302      	str	r3, [sp, #8]
E:\2017-2018\03_Graduation Project\04_Software\05_Wangshi\02_6220\06_UpdateSoftware-180714\01_UEBootloader\KL36_Bios-180714\Debug/../06_NosPrg/main.c:87
			if(mCount > 0x5ffff)  //Bootloader
    25c8:	9b02      	ldr	r3, [sp, #8]
    25ca:	42b3      	cmp	r3, r6
    25cc:	d9dc      	bls.n	2588 <main+0x60>
E:\2017-2018\03_Graduation Project\04_Software\05_Wangshi\02_6220\06_UpdateSoftware-180714\01_UEBootloader\KL36_Bios-180714\Debug/../06_NosPrg/main.c:89
				mCount = 0;
    25ce:	2300      	movs	r3, #0
E:\2017-2018\03_Graduation Project\04_Software\05_Wangshi\02_6220\06_UpdateSoftware-180714\01_UEBootloader\KL36_Bios-180714\Debug/../06_NosPrg/main.c:90
				light_change(LIGHT_GREEN);
    25d0:	200c      	movs	r0, #12
E:\2017-2018\03_Graduation Project\04_Software\05_Wangshi\02_6220\06_UpdateSoftware-180714\01_UEBootloader\KL36_Bios-180714\Debug/../06_NosPrg/main.c:89
				mCount = 0;
    25d2:	9302      	str	r3, [sp, #8]
E:\2017-2018\03_Graduation Project\04_Software\05_Wangshi\02_6220\06_UpdateSoftware-180714\01_UEBootloader\KL36_Bios-180714\Debug/../06_NosPrg/main.c:90
				light_change(LIGHT_GREEN);
    25d4:	f001 feb0 	bl	4338 <light_change>
    25d8:	e7d6      	b.n	2588 <main+0x60>
E:\2017-2018\03_Graduation Project\04_Software\05_Wangshi\02_6220\06_UpdateSoftware-180714\01_UEBootloader\KL36_Bios-180714\Debug/../06_NosPrg/main.c:53
			light_control(LIGHT_GREEN,LIGHT_OFF);
    25da:	2101      	movs	r1, #1
    25dc:	200c      	movs	r0, #12
    25de:	f001 fea7 	bl	4330 <light_control>
__disable_irq():
E:\2017-2018\03_Graduation Project\04_Software\05_Wangshi\02_6220\06_UpdateSoftware-180714\01_UEBootloader\KL36_Bios-180714\02_Core/core_cmFunc.h:344
  __ASM volatile ("cpsid i" : : : "memory");
    25e2:	b672      	cpsid	i
main():
E:\2017-2018\03_Graduation Project\04_Software\05_Wangshi\02_6220\06_UpdateSoftware-180714\01_UEBootloader\KL36_Bios-180714\Debug/../06_NosPrg/main.c:57
			bootloader_goToUserApp(USERBASE);
    25e4:	20d0      	movs	r0, #208	; 0xd0
    25e6:	01c0      	lsls	r0, r0, #7
    25e8:	f001 feaa 	bl	4340 <bootloader_goToUserApp>
__enable_irq():
E:\2017-2018\03_Graduation Project\04_Software\05_Wangshi\02_6220\06_UpdateSoftware-180714\01_UEBootloader\KL36_Bios-180714\02_Core/core_cmFunc.h:333
  __ASM volatile ("cpsie i" : : : "memory");
    25ec:	b662      	cpsie	i
    25ee:	e7cb      	b.n	2588 <main+0x60>
main():
E:\2017-2018\03_Graduation Project\04_Software\05_Wangshi\02_6220\06_UpdateSoftware-180714\01_UEBootloader\KL36_Bios-180714\Debug/../06_NosPrg/main.c:72
				if(ueupdate_back(mUpdateInfo,&mUpdateLen) == 0)
    25f0:	466b      	mov	r3, sp
    25f2:	a803      	add	r0, sp, #12
    25f4:	1d99      	adds	r1, r3, #6
    25f6:	f000 fd9d 	bl	3134 <ueupdate_back>
    25fa:	2800      	cmp	r0, #0
    25fc:	d1c4      	bne.n	2588 <main+0x60>
E:\2017-2018\03_Graduation Project\04_Software\05_Wangshi\02_6220\06_UpdateSoftware-180714\01_UEBootloader\KL36_Bios-180714\Debug/../06_NosPrg/main.c:75
					uart_sendN(UART_2,mUpdateLen,mUpdateInfo);
    25fe:	466b      	mov	r3, sp
    2600:	aa03      	add	r2, sp, #12
    2602:	88d9      	ldrh	r1, [r3, #6]
    2604:	3002      	adds	r0, #2
    2606:	f001 ffe1 	bl	45cc <uart_sendN>
    260a:	e7bd      	b.n	2588 <main+0x60>
    260c:	1ffffca8 	.word	0x1ffffca8
    2610:	1ffffcb2 	.word	0x1ffffcb2
    2614:	1ffffcb0 	.word	0x1ffffcb0
    2618:	00005be4 	.word	0x00005be4
    261c:	1ffffab0 	.word	0x1ffffab0
    2620:	0005ffff 	.word	0x0005ffff

00002624 <transformToDate>:
transformToDate():
E:\2017-2018\03_Graduation Project\04_Software\05_Wangshi\02_6220\06_UpdateSoftware-180714\01_UEBootloader\KL36_Bios-180714\Debug/../05_SoftComponent/timeStamp/timeStamp.c:54
	dateString[19] = 0;
}

//64
void transformToDate(uint_64 timeStamp ,uint_64 **dateArry)
{
    2624:	b5f0      	push	{r4, r5, r6, r7, lr}
    2626:	4645      	mov	r5, r8
    2628:	46de      	mov	lr, fp
    262a:	4657      	mov	r7, sl
    262c:	464e      	mov	r6, r9
    262e:	000c      	movs	r4, r1
    2630:	b5e0      	push	{r5, r6, r7, lr}
    2632:	0005      	movs	r5, r0
    2634:	b0b5      	sub	sp, #212	; 0xd4
E:\2017-2018\03_Graduation Project\04_Software\05_Wangshi\02_6220\06_UpdateSoftware-180714\01_UEBootloader\KL36_Bios-180714\Debug/../05_SoftComponent/timeStamp/timeStamp.c:57
    uint_64 low ,high ,mid ,t;
    uint_64 year ,month ,day ,hour ,minute ,second ,milliSecond;
    uint_64 daySum[] = {0 ,31 ,59 ,90 ,120 ,151 ,181 ,212 ,243 ,273 ,304 ,334 ,365};
    2636:	49a5      	ldr	r1, [pc, #660]	; (28cc <transformToDate+0x2a8>)
E:\2017-2018\03_Graduation Project\04_Software\05_Wangshi\02_6220\06_UpdateSoftware-180714\01_UEBootloader\KL36_Bios-180714\Debug/../05_SoftComponent/timeStamp/timeStamp.c:54
{
    2638:	4690      	mov	r8, r2
E:\2017-2018\03_Graduation Project\04_Software\05_Wangshi\02_6220\06_UpdateSoftware-180714\01_UEBootloader\KL36_Bios-180714\Debug/../05_SoftComponent/timeStamp/timeStamp.c:57
    uint_64 daySum[] = {0 ,31 ,59 ,90 ,120 ,151 ,181 ,212 ,243 ,273 ,304 ,334 ,365};
    263a:	a81a      	add	r0, sp, #104	; 0x68
    263c:	2268      	movs	r2, #104	; 0x68
    263e:	f003 f8e5 	bl	580c <memcpy>
    2642:	4ba3      	ldr	r3, [pc, #652]	; (28d0 <transformToDate+0x2ac>)
    2644:	950c      	str	r5, [sp, #48]	; 0x30
    2646:	940d      	str	r4, [sp, #52]	; 0x34
    2648:	990c      	ldr	r1, [sp, #48]	; 0x30
    264a:	9a0d      	ldr	r2, [sp, #52]	; 0x34
    264c:	4293      	cmp	r3, r2
    264e:	d200      	bcs.n	2652 <transformToDate+0x2e>
    2650:	e208      	b.n	2a64 <transformToDate+0x440>
    2652:	d100      	bne.n	2656 <transformToDate+0x32>
    2654:	e202      	b.n	2a5c <transformToDate+0x438>
E:\2017-2018\03_Graduation Project\04_Software\05_Wangshi\02_6220\06_UpdateSoftware-180714\01_UEBootloader\KL36_Bios-180714\Debug/../05_SoftComponent/timeStamp/timeStamp.c:67
    if(timeStamp > 315537897599999) {
        timeStamp = 315537897599999;
    }

    low = 1;
    high = 9999;
    2656:	2400      	movs	r4, #0
    2658:	4b9e      	ldr	r3, [pc, #632]	; (28d4 <transformToDate+0x2b0>)
    265a:	9308      	str	r3, [sp, #32]
    265c:	9409      	str	r4, [sp, #36]	; 0x24
E:\2017-2018\03_Graduation Project\04_Software\05_Wangshi\02_6220\06_UpdateSoftware-180714\01_UEBootloader\KL36_Bios-180714\Debug/../05_SoftComponent/timeStamp/timeStamp.c:66
    low = 1;
    265e:	2301      	movs	r3, #1
    2660:	2400      	movs	r4, #0
    2662:	930e      	str	r3, [sp, #56]	; 0x38
    2664:	940f      	str	r4, [sp, #60]	; 0x3c
E:\2017-2018\03_Graduation Project\04_Software\05_Wangshi\02_6220\06_UpdateSoftware-180714\01_UEBootloader\KL36_Bios-180714\Debug/../05_SoftComponent/timeStamp/timeStamp.c:71

    while(low <= high)
    {
        mid = (low+high)>>1;
    2666:	9808      	ldr	r0, [sp, #32]
    2668:	9909      	ldr	r1, [sp, #36]	; 0x24
    266a:	9a0e      	ldr	r2, [sp, #56]	; 0x38
    266c:	9b0f      	ldr	r3, [sp, #60]	; 0x3c
    266e:	1812      	adds	r2, r2, r0
    2670:	414b      	adcs	r3, r1
    2672:	07d9      	lsls	r1, r3, #31
    2674:	0856      	lsrs	r6, r2, #1
    2676:	430e      	orrs	r6, r1
E:\2017-2018\03_Graduation Project\04_Software\05_Wangshi\02_6220\06_UpdateSoftware-180714\01_UEBootloader\KL36_Bios-180714\Debug/../05_SoftComponent/timeStamp/timeStamp.c:72
        t = ((mid-1) * 365 + (mid-1)/4 - (mid-1)/100 + (mid-1)/400) * milOfDay;
    2678:	2001      	movs	r0, #1
    267a:	4240      	negs	r0, r0
    267c:	17c1      	asrs	r1, r0, #31
E:\2017-2018\03_Graduation Project\04_Software\05_Wangshi\02_6220\06_UpdateSoftware-180714\01_UEBootloader\KL36_Bios-180714\Debug/../05_SoftComponent/timeStamp/timeStamp.c:71
        mid = (low+high)>>1;
    267e:	085f      	lsrs	r7, r3, #1
E:\2017-2018\03_Graduation Project\04_Software\05_Wangshi\02_6220\06_UpdateSoftware-180714\01_UEBootloader\KL36_Bios-180714\Debug/../05_SoftComponent/timeStamp/timeStamp.c:72
        t = ((mid-1) * 365 + (mid-1)/4 - (mid-1)/100 + (mid-1)/400) * milOfDay;
    2680:	00fa      	lsls	r2, r7, #3
    2682:	0f73      	lsrs	r3, r6, #29
    2684:	431a      	orrs	r2, r3
    2686:	00f3      	lsls	r3, r6, #3
    2688:	9213      	str	r2, [sp, #76]	; 0x4c
    268a:	9312      	str	r3, [sp, #72]	; 0x48
    268c:	1980      	adds	r0, r0, r6
    268e:	4179      	adcs	r1, r7
    2690:	9a12      	ldr	r2, [sp, #72]	; 0x48
    2692:	9b13      	ldr	r3, [sp, #76]	; 0x4c
    2694:	1992      	adds	r2, r2, r6
    2696:	417b      	adcs	r3, r7
    2698:	900a      	str	r0, [sp, #40]	; 0x28
    269a:	910b      	str	r1, [sp, #44]	; 0x2c
    269c:	00dc      	lsls	r4, r3, #3
    269e:	0f51      	lsrs	r1, r2, #29
    26a0:	430c      	orrs	r4, r1
    26a2:	00d3      	lsls	r3, r2, #3
    26a4:	9314      	str	r3, [sp, #80]	; 0x50
    26a6:	9415      	str	r4, [sp, #84]	; 0x54
    26a8:	9c14      	ldr	r4, [sp, #80]	; 0x50
    26aa:	9d15      	ldr	r5, [sp, #84]	; 0x54
    26ac:	19a4      	adds	r4, r4, r6
    26ae:	417d      	adcs	r5, r7
    26b0:	980a      	ldr	r0, [sp, #40]	; 0x28
    26b2:	990b      	ldr	r1, [sp, #44]	; 0x2c
    26b4:	0fa3      	lsrs	r3, r4, #30
    26b6:	00aa      	lsls	r2, r5, #2
    26b8:	431a      	orrs	r2, r3
    26ba:	00a3      	lsls	r3, r4, #2
    26bc:	9217      	str	r2, [sp, #92]	; 0x5c
    26be:	9316      	str	r3, [sp, #88]	; 0x58
    26c0:	9a16      	ldr	r2, [sp, #88]	; 0x58
    26c2:	9b17      	ldr	r3, [sp, #92]	; 0x5c
    26c4:	18a4      	adds	r4, r4, r2
    26c6:	415d      	adcs	r5, r3
    26c8:	2301      	movs	r3, #1
    26ca:	4a83      	ldr	r2, [pc, #524]	; (28d8 <transformToDate+0x2b4>)
    26cc:	425b      	negs	r3, r3
    26ce:	18a4      	adds	r4, r4, r2
    26d0:	415d      	adcs	r5, r3
    26d2:	078b      	lsls	r3, r1, #30
    26d4:	0882      	lsrs	r2, r0, #2
    26d6:	431a      	orrs	r2, r3
    26d8:	088b      	lsrs	r3, r1, #2
    26da:	9218      	str	r2, [sp, #96]	; 0x60
    26dc:	9319      	str	r3, [sp, #100]	; 0x64
    26de:	9a18      	ldr	r2, [sp, #96]	; 0x60
    26e0:	9b19      	ldr	r3, [sp, #100]	; 0x64
    26e2:	18a4      	adds	r4, r4, r2
    26e4:	415d      	adcs	r5, r3
    26e6:	22c8      	movs	r2, #200	; 0xc8
    26e8:	2300      	movs	r3, #0
    26ea:	0052      	lsls	r2, r2, #1
    26ec:	f7fe f88c 	bl	808 <__aeabi_uldivmod>
    26f0:	2264      	movs	r2, #100	; 0x64
    26f2:	1824      	adds	r4, r4, r0
    26f4:	414d      	adcs	r5, r1
    26f6:	980a      	ldr	r0, [sp, #40]	; 0x28
    26f8:	990b      	ldr	r1, [sp, #44]	; 0x2c
    26fa:	2300      	movs	r3, #0
    26fc:	f7fe f884 	bl	808 <__aeabi_uldivmod>
    2700:	1a24      	subs	r4, r4, r0
    2702:	418d      	sbcs	r5, r1
    2704:	2300      	movs	r3, #0
    2706:	0020      	movs	r0, r4
    2708:	0029      	movs	r1, r5
    270a:	4a74      	ldr	r2, [pc, #464]	; (28dc <transformToDate+0x2b8>)
    270c:	f7fe f89c 	bl	848 <__aeabi_lmul>
E:\2017-2018\03_Graduation Project\04_Software\05_Wangshi\02_6220\06_UpdateSoftware-180714\01_UEBootloader\KL36_Bios-180714\Debug/../05_SoftComponent/timeStamp/timeStamp.c:74

        if(t == timeStamp)
    2710:	9b0c      	ldr	r3, [sp, #48]	; 0x30
    2712:	4298      	cmp	r0, r3
    2714:	d100      	bne.n	2718 <transformToDate+0xf4>
    2716:	e1db      	b.n	2ad0 <transformToDate+0x4ac>
E:\2017-2018\03_Graduation Project\04_Software\05_Wangshi\02_6220\06_UpdateSoftware-180714\01_UEBootloader\KL36_Bios-180714\Debug/../05_SoftComponent/timeStamp/timeStamp.c:79
        {
            low = mid + 1;
            break;
        }
        else if(t < timeStamp)
    2718:	9b0c      	ldr	r3, [sp, #48]	; 0x30
    271a:	9c0d      	ldr	r4, [sp, #52]	; 0x34
    271c:	428c      	cmp	r4, r1
    271e:	d900      	bls.n	2722 <transformToDate+0xfe>
    2720:	e1ad      	b.n	2a7e <transformToDate+0x45a>
    2722:	d167      	bne.n	27f4 <transformToDate+0x1d0>
    2724:	e1d9      	b.n	2ada <transformToDate+0x4b6>
E:\2017-2018\03_Graduation Project\04_Software\05_Wangshi\02_6220\06_UpdateSoftware-180714\01_UEBootloader\KL36_Bios-180714\Debug/../05_SoftComponent/timeStamp/timeStamp.c:69
    while(low <= high)
    2726:	42a2      	cmp	r2, r4
    2728:	d100      	bne.n	272c <transformToDate+0x108>
    272a:	e1cb      	b.n	2ac4 <transformToDate+0x4a0>
E:\2017-2018\03_Graduation Project\04_Software\05_Wangshi\02_6220\06_UpdateSoftware-180714\01_UEBootloader\KL36_Bios-180714\Debug/../05_SoftComponent/timeStamp/timeStamp.c:71
        mid = (low+high)>>1;
    272c:	980e      	ldr	r0, [sp, #56]	; 0x38
    272e:	990f      	ldr	r1, [sp, #60]	; 0x3c
    2730:	9a0a      	ldr	r2, [sp, #40]	; 0x28
    2732:	9b0b      	ldr	r3, [sp, #44]	; 0x2c
    2734:	1812      	adds	r2, r2, r0
    2736:	414b      	adcs	r3, r1
    2738:	07d9      	lsls	r1, r3, #31
    273a:	0856      	lsrs	r6, r2, #1
    273c:	430e      	orrs	r6, r1
E:\2017-2018\03_Graduation Project\04_Software\05_Wangshi\02_6220\06_UpdateSoftware-180714\01_UEBootloader\KL36_Bios-180714\Debug/../05_SoftComponent/timeStamp/timeStamp.c:72
        t = ((mid-1) * 365 + (mid-1)/4 - (mid-1)/100 + (mid-1)/400) * milOfDay;
    273e:	2001      	movs	r0, #1
    2740:	4240      	negs	r0, r0
    2742:	17c1      	asrs	r1, r0, #31
E:\2017-2018\03_Graduation Project\04_Software\05_Wangshi\02_6220\06_UpdateSoftware-180714\01_UEBootloader\KL36_Bios-180714\Debug/../05_SoftComponent/timeStamp/timeStamp.c:71
        mid = (low+high)>>1;
    2744:	085f      	lsrs	r7, r3, #1
E:\2017-2018\03_Graduation Project\04_Software\05_Wangshi\02_6220\06_UpdateSoftware-180714\01_UEBootloader\KL36_Bios-180714\Debug/../05_SoftComponent/timeStamp/timeStamp.c:72
        t = ((mid-1) * 365 + (mid-1)/4 - (mid-1)/100 + (mid-1)/400) * milOfDay;
    2746:	00fa      	lsls	r2, r7, #3
    2748:	0f73      	lsrs	r3, r6, #29
    274a:	431a      	orrs	r2, r3
    274c:	00f3      	lsls	r3, r6, #3
    274e:	9201      	str	r2, [sp, #4]
    2750:	9300      	str	r3, [sp, #0]
    2752:	1980      	adds	r0, r0, r6
    2754:	4179      	adcs	r1, r7
    2756:	9a00      	ldr	r2, [sp, #0]
    2758:	9b01      	ldr	r3, [sp, #4]
    275a:	1992      	adds	r2, r2, r6
    275c:	417b      	adcs	r3, r7
    275e:	9008      	str	r0, [sp, #32]
    2760:	9109      	str	r1, [sp, #36]	; 0x24
    2762:	00dc      	lsls	r4, r3, #3
    2764:	0f51      	lsrs	r1, r2, #29
    2766:	430c      	orrs	r4, r1
    2768:	00d3      	lsls	r3, r2, #3
    276a:	9302      	str	r3, [sp, #8]
    276c:	9403      	str	r4, [sp, #12]
    276e:	9c02      	ldr	r4, [sp, #8]
    2770:	9d03      	ldr	r5, [sp, #12]
    2772:	19a4      	adds	r4, r4, r6
    2774:	417d      	adcs	r5, r7
    2776:	9808      	ldr	r0, [sp, #32]
    2778:	9909      	ldr	r1, [sp, #36]	; 0x24
    277a:	0fa3      	lsrs	r3, r4, #30
    277c:	00aa      	lsls	r2, r5, #2
    277e:	431a      	orrs	r2, r3
    2780:	00a3      	lsls	r3, r4, #2
    2782:	9205      	str	r2, [sp, #20]
    2784:	9304      	str	r3, [sp, #16]
    2786:	9a04      	ldr	r2, [sp, #16]
    2788:	9b05      	ldr	r3, [sp, #20]
    278a:	18a4      	adds	r4, r4, r2
    278c:	415d      	adcs	r5, r3
    278e:	2301      	movs	r3, #1
    2790:	4a51      	ldr	r2, [pc, #324]	; (28d8 <transformToDate+0x2b4>)
    2792:	425b      	negs	r3, r3
    2794:	18a4      	adds	r4, r4, r2
    2796:	415d      	adcs	r5, r3
    2798:	078b      	lsls	r3, r1, #30
    279a:	0882      	lsrs	r2, r0, #2
    279c:	431a      	orrs	r2, r3
    279e:	088b      	lsrs	r3, r1, #2
    27a0:	9206      	str	r2, [sp, #24]
    27a2:	9307      	str	r3, [sp, #28]
    27a4:	9a06      	ldr	r2, [sp, #24]
    27a6:	9b07      	ldr	r3, [sp, #28]
    27a8:	18a4      	adds	r4, r4, r2
    27aa:	415d      	adcs	r5, r3
    27ac:	22c8      	movs	r2, #200	; 0xc8
    27ae:	2300      	movs	r3, #0
    27b0:	0052      	lsls	r2, r2, #1
    27b2:	f7fe f829 	bl	808 <__aeabi_uldivmod>
    27b6:	2264      	movs	r2, #100	; 0x64
    27b8:	1824      	adds	r4, r4, r0
    27ba:	414d      	adcs	r5, r1
    27bc:	9808      	ldr	r0, [sp, #32]
    27be:	9909      	ldr	r1, [sp, #36]	; 0x24
    27c0:	2300      	movs	r3, #0
    27c2:	f7fe f821 	bl	808 <__aeabi_uldivmod>
    27c6:	1a24      	subs	r4, r4, r0
    27c8:	418d      	sbcs	r5, r1
    27ca:	2300      	movs	r3, #0
    27cc:	0020      	movs	r0, r4
    27ce:	0029      	movs	r1, r5
    27d0:	4a42      	ldr	r2, [pc, #264]	; (28dc <transformToDate+0x2b8>)
    27d2:	f7fe f839 	bl	848 <__aeabi_lmul>
E:\2017-2018\03_Graduation Project\04_Software\05_Wangshi\02_6220\06_UpdateSoftware-180714\01_UEBootloader\KL36_Bios-180714\Debug/../05_SoftComponent/timeStamp/timeStamp.c:74
        if(t == timeStamp)
    27d6:	9b0c      	ldr	r3, [sp, #48]	; 0x30
    27d8:	4298      	cmp	r0, r3
    27da:	d100      	bne.n	27de <transformToDate+0x1ba>
    27dc:	e167      	b.n	2aae <transformToDate+0x48a>
E:\2017-2018\03_Graduation Project\04_Software\05_Wangshi\02_6220\06_UpdateSoftware-180714\01_UEBootloader\KL36_Bios-180714\Debug/../05_SoftComponent/timeStamp/timeStamp.c:79
        else if(t < timeStamp)
    27de:	9b0c      	ldr	r3, [sp, #48]	; 0x30
    27e0:	9c0d      	ldr	r4, [sp, #52]	; 0x34
    27e2:	428c      	cmp	r4, r1
    27e4:	d900      	bls.n	27e8 <transformToDate+0x1c4>
    27e6:	e146      	b.n	2a76 <transformToDate+0x452>
    27e8:	d100      	bne.n	27ec <transformToDate+0x1c8>
    27ea:	e140      	b.n	2a6e <transformToDate+0x44a>
E:\2017-2018\03_Graduation Project\04_Software\05_Wangshi\02_6220\06_UpdateSoftware-180714\01_UEBootloader\KL36_Bios-180714\Debug/../05_SoftComponent/timeStamp/timeStamp.c:72
        t = ((mid-1) * 365 + (mid-1)/4 - (mid-1)/100 + (mid-1)/400) * milOfDay;
    27ec:	9b08      	ldr	r3, [sp, #32]
    27ee:	9c09      	ldr	r4, [sp, #36]	; 0x24
    27f0:	930a      	str	r3, [sp, #40]	; 0x28
    27f2:	940b      	str	r4, [sp, #44]	; 0x2c
E:\2017-2018\03_Graduation Project\04_Software\05_Wangshi\02_6220\06_UpdateSoftware-180714\01_UEBootloader\KL36_Bios-180714\Debug/../05_SoftComponent/timeStamp/timeStamp.c:69
    while(low <= high)
    27f4:	990e      	ldr	r1, [sp, #56]	; 0x38
    27f6:	9a0f      	ldr	r2, [sp, #60]	; 0x3c
    27f8:	9b0a      	ldr	r3, [sp, #40]	; 0x28
    27fa:	9c0b      	ldr	r4, [sp, #44]	; 0x2c
    27fc:	42a2      	cmp	r2, r4
    27fe:	d992      	bls.n	2726 <transformToDate+0x102>
E:\2017-2018\03_Graduation Project\04_Software\05_Wangshi\02_6220\06_UpdateSoftware-180714\01_UEBootloader\KL36_Bios-180714\Debug/../05_SoftComponent/timeStamp/timeStamp.c:84
            low = mid + 1;
        else
            high = mid - 1;
    }
    year = low-1;
    2800:	2201      	movs	r2, #1
    2802:	4252      	negs	r2, r2
    2804:	17d3      	asrs	r3, r2, #31
    2806:	980e      	ldr	r0, [sp, #56]	; 0x38
    2808:	990f      	ldr	r1, [sp, #60]	; 0x3c
E:\2017-2018\03_Graduation Project\04_Software\05_Wangshi\02_6220\06_UpdateSoftware-180714\01_UEBootloader\KL36_Bios-180714\Debug/../05_SoftComponent/timeStamp/timeStamp.c:88
    uint_64 cc;
    uint_64 aa,bb;
    cc = (year-1) * 365;
    cc += (year-1)/4;
    280a:	2602      	movs	r6, #2
    280c:	4276      	negs	r6, r6
    280e:	17f7      	asrs	r7, r6, #31
E:\2017-2018\03_Graduation Project\04_Software\05_Wangshi\02_6220\06_UpdateSoftware-180714\01_UEBootloader\KL36_Bios-180714\Debug/../05_SoftComponent/timeStamp/timeStamp.c:84
    year = low-1;
    2810:	0004      	movs	r4, r0
    2812:	000d      	movs	r5, r1
E:\2017-2018\03_Graduation Project\04_Software\05_Wangshi\02_6220\06_UpdateSoftware-180714\01_UEBootloader\KL36_Bios-180714\Debug/../05_SoftComponent/timeStamp/timeStamp.c:88
    cc += (year-1)/4;
    2814:	1980      	adds	r0, r0, r6
    2816:	4179      	adcs	r1, r7
E:\2017-2018\03_Graduation Project\04_Software\05_Wangshi\02_6220\06_UpdateSoftware-180714\01_UEBootloader\KL36_Bios-180714\Debug/../05_SoftComponent/timeStamp/timeStamp.c:84
    year = low-1;
    2818:	18a4      	adds	r4, r4, r2
    281a:	415d      	adcs	r5, r3
E:\2017-2018\03_Graduation Project\04_Software\05_Wangshi\02_6220\06_UpdateSoftware-180714\01_UEBootloader\KL36_Bios-180714\Debug/../05_SoftComponent/timeStamp/timeStamp.c:88
    cc += (year-1)/4;
    281c:	000f      	movs	r7, r1
E:\2017-2018\03_Graduation Project\04_Software\05_Wangshi\02_6220\06_UpdateSoftware-180714\01_UEBootloader\KL36_Bios-180714\Debug/../05_SoftComponent/timeStamp/timeStamp.c:87
    cc = (year-1) * 365;
    281e:	00eb      	lsls	r3, r5, #3
    2820:	0f61      	lsrs	r1, r4, #29
    2822:	430b      	orrs	r3, r1
    2824:	00e2      	lsls	r2, r4, #3
    2826:	1912      	adds	r2, r2, r4
    2828:	416b      	adcs	r3, r5
    282a:	9402      	str	r4, [sp, #8]
    282c:	9503      	str	r5, [sp, #12]
    282e:	0f51      	lsrs	r1, r2, #29
    2830:	00dd      	lsls	r5, r3, #3
    2832:	430d      	orrs	r5, r1
    2834:	00d4      	lsls	r4, r2, #3
    2836:	9a02      	ldr	r2, [sp, #8]
    2838:	9b03      	ldr	r3, [sp, #12]
    283a:	18a4      	adds	r4, r4, r2
    283c:	415d      	adcs	r5, r3
E:\2017-2018\03_Graduation Project\04_Software\05_Wangshi\02_6220\06_UpdateSoftware-180714\01_UEBootloader\KL36_Bios-180714\Debug/../05_SoftComponent/timeStamp/timeStamp.c:88
    cc += (year-1)/4;
    283e:	0006      	movs	r6, r0
E:\2017-2018\03_Graduation Project\04_Software\05_Wangshi\02_6220\06_UpdateSoftware-180714\01_UEBootloader\KL36_Bios-180714\Debug/../05_SoftComponent/timeStamp/timeStamp.c:87
    cc = (year-1) * 365;
    2840:	0fa3      	lsrs	r3, r4, #30
    2842:	00a9      	lsls	r1, r5, #2
    2844:	4319      	orrs	r1, r3
    2846:	00a0      	lsls	r0, r4, #2
    2848:	1824      	adds	r4, r4, r0
    284a:	414d      	adcs	r5, r1
E:\2017-2018\03_Graduation Project\04_Software\05_Wangshi\02_6220\06_UpdateSoftware-180714\01_UEBootloader\KL36_Bios-180714\Debug/../05_SoftComponent/timeStamp/timeStamp.c:88
    cc += (year-1)/4;
    284c:	07bb      	lsls	r3, r7, #30
    284e:	08b0      	lsrs	r0, r6, #2
    2850:	4318      	orrs	r0, r3
    2852:	08b9      	lsrs	r1, r7, #2
E:\2017-2018\03_Graduation Project\04_Software\05_Wangshi\02_6220\06_UpdateSoftware-180714\01_UEBootloader\KL36_Bios-180714\Debug/../05_SoftComponent/timeStamp/timeStamp.c:93
    aa = (year-1)/100;
    bb = (year-1)/400 ;

    cc -= aa;
    cc += bb;
    2854:	1824      	adds	r4, r4, r0
    2856:	414d      	adcs	r5, r1
    2858:	2101      	movs	r1, #1
E:\2017-2018\03_Graduation Project\04_Software\05_Wangshi\02_6220\06_UpdateSoftware-180714\01_UEBootloader\KL36_Bios-180714\Debug/../05_SoftComponent/timeStamp/timeStamp.c:90
    bb = (year-1)/400 ;
    285a:	22c8      	movs	r2, #200	; 0xc8
E:\2017-2018\03_Graduation Project\04_Software\05_Wangshi\02_6220\06_UpdateSoftware-180714\01_UEBootloader\KL36_Bios-180714\Debug/../05_SoftComponent/timeStamp/timeStamp.c:93
    cc += bb;
    285c:	481e      	ldr	r0, [pc, #120]	; (28d8 <transformToDate+0x2b4>)
    285e:	4249      	negs	r1, r1
    2860:	1824      	adds	r4, r4, r0
    2862:	414d      	adcs	r5, r1
E:\2017-2018\03_Graduation Project\04_Software\05_Wangshi\02_6220\06_UpdateSoftware-180714\01_UEBootloader\KL36_Bios-180714\Debug/../05_SoftComponent/timeStamp/timeStamp.c:90
    bb = (year-1)/400 ;
    2864:	0052      	lsls	r2, r2, #1
    2866:	2300      	movs	r3, #0
    2868:	0030      	movs	r0, r6
    286a:	0039      	movs	r1, r7
    286c:	f7fd ffcc 	bl	808 <__aeabi_uldivmod>
E:\2017-2018\03_Graduation Project\04_Software\05_Wangshi\02_6220\06_UpdateSoftware-180714\01_UEBootloader\KL36_Bios-180714\Debug/../05_SoftComponent/timeStamp/timeStamp.c:89
    aa = (year-1)/100;
    2870:	2264      	movs	r2, #100	; 0x64
E:\2017-2018\03_Graduation Project\04_Software\05_Wangshi\02_6220\06_UpdateSoftware-180714\01_UEBootloader\KL36_Bios-180714\Debug/../05_SoftComponent/timeStamp/timeStamp.c:93
    cc += bb;
    2872:	1824      	adds	r4, r4, r0
    2874:	414d      	adcs	r5, r1
E:\2017-2018\03_Graduation Project\04_Software\05_Wangshi\02_6220\06_UpdateSoftware-180714\01_UEBootloader\KL36_Bios-180714\Debug/../05_SoftComponent/timeStamp/timeStamp.c:89
    aa = (year-1)/100;
    2876:	2300      	movs	r3, #0
    2878:	0030      	movs	r0, r6
    287a:	0039      	movs	r1, r7
    287c:	f7fd ffc4 	bl	808 <__aeabi_uldivmod>
E:\2017-2018\03_Graduation Project\04_Software\05_Wangshi\02_6220\06_UpdateSoftware-180714\01_UEBootloader\KL36_Bios-180714\Debug/../05_SoftComponent/timeStamp/timeStamp.c:93
    cc += bb;
    2880:	1a24      	subs	r4, r4, r0
    2882:	418d      	sbcs	r5, r1
E:\2017-2018\03_Graduation Project\04_Software\05_Wangshi\02_6220\06_UpdateSoftware-180714\01_UEBootloader\KL36_Bios-180714\Debug/../05_SoftComponent/timeStamp/timeStamp.c:95

    timeStamp -= cc* milOfDay;
    2884:	2300      	movs	r3, #0
E:\2017-2018\03_Graduation Project\04_Software\05_Wangshi\02_6220\06_UpdateSoftware-180714\01_UEBootloader\KL36_Bios-180714\Debug/../05_SoftComponent/timeStamp/timeStamp.c:93
    cc += bb;
    2886:	0020      	movs	r0, r4
    2888:	0029      	movs	r1, r5
E:\2017-2018\03_Graduation Project\04_Software\05_Wangshi\02_6220\06_UpdateSoftware-180714\01_UEBootloader\KL36_Bios-180714\Debug/../05_SoftComponent/timeStamp/timeStamp.c:95
    timeStamp -= cc* milOfDay;
    288a:	4a14      	ldr	r2, [pc, #80]	; (28dc <transformToDate+0x2b8>)
    288c:	f7fd ffdc 	bl	848 <__aeabi_lmul>
    2890:	9b0c      	ldr	r3, [sp, #48]	; 0x30
    2892:	9c0d      	ldr	r4, [sp, #52]	; 0x34
    2894:	1a1b      	subs	r3, r3, r0
    2896:	418c      	sbcs	r4, r1
E:\2017-2018\03_Graduation Project\04_Software\05_Wangshi\02_6220\06_UpdateSoftware-180714\01_UEBootloader\KL36_Bios-180714\Debug/../05_SoftComponent/timeStamp/timeStamp.c:97

    int isLeapYear = ((year&3) == 0 && year%100!=0) || year%400 == 0;
    2898:	9802      	ldr	r0, [sp, #8]
    289a:	9903      	ldr	r1, [sp, #12]
E:\2017-2018\03_Graduation Project\04_Software\05_Wangshi\02_6220\06_UpdateSoftware-180714\01_UEBootloader\KL36_Bios-180714\Debug/../05_SoftComponent/timeStamp/timeStamp.c:95
    timeStamp -= cc* milOfDay;
    289c:	9300      	str	r3, [sp, #0]
    289e:	9401      	str	r4, [sp, #4]
E:\2017-2018\03_Graduation Project\04_Software\05_Wangshi\02_6220\06_UpdateSoftware-180714\01_UEBootloader\KL36_Bios-180714\Debug/../05_SoftComponent/timeStamp/timeStamp.c:97
    int isLeapYear = ((year&3) == 0 && year%100!=0) || year%400 == 0;
    28a0:	2303      	movs	r3, #3
    28a2:	4203      	tst	r3, r0
    28a4:	d000      	beq.n	28a8 <transformToDate+0x284>
    28a6:	e0c9      	b.n	2a3c <transformToDate+0x418>
E:\2017-2018\03_Graduation Project\04_Software\05_Wangshi\02_6220\06_UpdateSoftware-180714\01_UEBootloader\KL36_Bios-180714\Debug/../05_SoftComponent/timeStamp/timeStamp.c:97 (discriminator 1)
    28a8:	2264      	movs	r2, #100	; 0x64
    28aa:	2300      	movs	r3, #0
    28ac:	f7fd ffac 	bl	808 <__aeabi_uldivmod>
    28b0:	431a      	orrs	r2, r3
    28b2:	2301      	movs	r3, #1
    28b4:	469a      	mov	sl, r3
    28b6:	2a00      	cmp	r2, #0
    28b8:	d100      	bne.n	28bc <transformToDate+0x298>
    28ba:	e0bf      	b.n	2a3c <transformToDate+0x418>
    28bc:	ab1c      	add	r3, sp, #112	; 0x70
    28be:	4699      	mov	r9, r3
E:\2017-2018\03_Graduation Project\04_Software\05_Wangshi\02_6220\06_UpdateSoftware-180714\01_UEBootloader\KL36_Bios-180714\Debug/../05_SoftComponent/timeStamp/timeStamp.c:99 (discriminator 8)

    for(month = 1 ;(daySum[month] + ((isLeapYear && month > 1) ? 1 : 0)) * milOfDay <= timeStamp && month < 13 ;month ++) {
    28c0:	2301      	movs	r3, #1
    28c2:	2601      	movs	r6, #1
    28c4:	2700      	movs	r7, #0
    28c6:	469b      	mov	fp, r3
    28c8:	e033      	b.n	2932 <transformToDate+0x30e>
    28ca:	46c0      	nop			; (mov r8, r8)
    28cc:	000058e8 	.word	0x000058e8
    28d0:	00011efa 	.word	0x00011efa
    28d4:	0000270f 	.word	0x0000270f
    28d8:	fffffe93 	.word	0xfffffe93
    28dc:	05265c00 	.word	0x05265c00
E:\2017-2018\03_Graduation Project\04_Software\05_Wangshi\02_6220\06_UpdateSoftware-180714\01_UEBootloader\KL36_Bios-180714\Debug/../05_SoftComponent/timeStamp/timeStamp.c:99 (discriminator 3)
    28e0:	465b      	mov	r3, fp
    28e2:	4073      	eors	r3, r6
    28e4:	433b      	orrs	r3, r7
    28e6:	001a      	movs	r2, r3
    28e8:	1e53      	subs	r3, r2, #1
    28ea:	419a      	sbcs	r2, r3
    28ec:	2300      	movs	r3, #0
    28ee:	9210      	str	r2, [sp, #64]	; 0x40
    28f0:	9311      	str	r3, [sp, #68]	; 0x44
    28f2:	4a7c      	ldr	r2, [pc, #496]	; (2ae4 <transformToDate+0x4c0>)
    28f4:	2300      	movs	r3, #0
    28f6:	9810      	ldr	r0, [sp, #64]	; 0x40
    28f8:	9911      	ldr	r1, [sp, #68]	; 0x44
    28fa:	1900      	adds	r0, r0, r4
    28fc:	4169      	adcs	r1, r5
    28fe:	f7fd ffa3 	bl	848 <__aeabi_lmul>
    2902:	9a00      	ldr	r2, [sp, #0]
    2904:	9b01      	ldr	r3, [sp, #4]
    2906:	4684      	mov	ip, r0
    2908:	4299      	cmp	r1, r3
    290a:	d826      	bhi.n	295a <transformToDate+0x336>
    290c:	d100      	bne.n	2910 <transformToDate+0x2ec>
    290e:	e0c9      	b.n	2aa4 <transformToDate+0x480>
E:\2017-2018\03_Graduation Project\04_Software\05_Wangshi\02_6220\06_UpdateSoftware-180714\01_UEBootloader\KL36_Bios-180714\Debug/../05_SoftComponent/timeStamp/timeStamp.c:100 (discriminator 1)
        if(isLeapYear && month > 1)
    2910:	2e01      	cmp	r6, #1
    2912:	d100      	bne.n	2916 <transformToDate+0x2f2>
    2914:	e09e      	b.n	2a54 <transformToDate+0x430>
E:\2017-2018\03_Graduation Project\04_Software\05_Wangshi\02_6220\06_UpdateSoftware-180714\01_UEBootloader\KL36_Bios-180714\Debug/../05_SoftComponent/timeStamp/timeStamp.c:101
            ++daySum[month];
    2916:	2300      	movs	r3, #0
    2918:	2201      	movs	r2, #1
    291a:	18a4      	adds	r4, r4, r2
    291c:	415d      	adcs	r5, r3
    291e:	464b      	mov	r3, r9
    2920:	601c      	str	r4, [r3, #0]
    2922:	605d      	str	r5, [r3, #4]
E:\2017-2018\03_Graduation Project\04_Software\05_Wangshi\02_6220\06_UpdateSoftware-180714\01_UEBootloader\KL36_Bios-180714\Debug/../05_SoftComponent/timeStamp/timeStamp.c:99 (discriminator 2)
    for(month = 1 ;(daySum[month] + ((isLeapYear && month > 1) ? 1 : 0)) * milOfDay <= timeStamp && month < 13 ;month ++) {
    2924:	2301      	movs	r3, #1
    2926:	2400      	movs	r4, #0
    2928:	18f6      	adds	r6, r6, r3
    292a:	4167      	adcs	r7, r4
    292c:	3307      	adds	r3, #7
    292e:	469c      	mov	ip, r3
    2930:	44e1      	add	r9, ip
E:\2017-2018\03_Graduation Project\04_Software\05_Wangshi\02_6220\06_UpdateSoftware-180714\01_UEBootloader\KL36_Bios-180714\Debug/../05_SoftComponent/timeStamp/timeStamp.c:99 (discriminator 1)
    2932:	464b      	mov	r3, r9
    2934:	681c      	ldr	r4, [r3, #0]
    2936:	685d      	ldr	r5, [r3, #4]
    2938:	4653      	mov	r3, sl
    293a:	2b00      	cmp	r3, #0
    293c:	d1d0      	bne.n	28e0 <transformToDate+0x2bc>
E:\2017-2018\03_Graduation Project\04_Software\05_Wangshi\02_6220\06_UpdateSoftware-180714\01_UEBootloader\KL36_Bios-180714\Debug/../05_SoftComponent/timeStamp/timeStamp.c:99
    293e:	2300      	movs	r3, #0
    2940:	0020      	movs	r0, r4
    2942:	4a68      	ldr	r2, [pc, #416]	; (2ae4 <transformToDate+0x4c0>)
    2944:	0029      	movs	r1, r5
    2946:	f7fd ff7f 	bl	848 <__aeabi_lmul>
    294a:	9b00      	ldr	r3, [sp, #0]
    294c:	9c01      	ldr	r4, [sp, #4]
    294e:	42a1      	cmp	r1, r4
    2950:	d803      	bhi.n	295a <transformToDate+0x336>
    2952:	d1e7      	bne.n	2924 <transformToDate+0x300>
    2954:	9b00      	ldr	r3, [sp, #0]
    2956:	4298      	cmp	r0, r3
    2958:	d9e4      	bls.n	2924 <transformToDate+0x300>
E:\2017-2018\03_Graduation Project\04_Software\05_Wangshi\02_6220\06_UpdateSoftware-180714\01_UEBootloader\KL36_Bios-180714\Debug/../05_SoftComponent/timeStamp/timeStamp.c:103
    }
    timeStamp -= daySum[month-1] * milOfDay;
    295a:	ab1a      	add	r3, sp, #104	; 0x68
    295c:	469c      	mov	ip, r3
    295e:	00f1      	lsls	r1, r6, #3
    2960:	3908      	subs	r1, #8
    2962:	4461      	add	r1, ip
    2964:	4a5f      	ldr	r2, [pc, #380]	; (2ae4 <transformToDate+0x4c0>)
    2966:	2300      	movs	r3, #0
    2968:	6808      	ldr	r0, [r1, #0]
    296a:	6849      	ldr	r1, [r1, #4]
    296c:	f7fd ff6c 	bl	848 <__aeabi_lmul>
    2970:	9b00      	ldr	r3, [sp, #0]
    2972:	9c01      	ldr	r4, [sp, #4]
    2974:	1a1b      	subs	r3, r3, r0
    2976:	418c      	sbcs	r4, r1
    2978:	0018      	movs	r0, r3
    297a:	0021      	movs	r1, r4
    297c:	4a59      	ldr	r2, [pc, #356]	; (2ae4 <transformToDate+0x4c0>)
    297e:	2300      	movs	r3, #0
    2980:	9000      	str	r0, [sp, #0]
    2982:	9101      	str	r1, [sp, #4]
    2984:	f7fd ff40 	bl	808 <__aeabi_uldivmod>
    2988:	0014      	movs	r4, r2
    298a:	001d      	movs	r5, r3
    298c:	0020      	movs	r0, r4
    298e:	0029      	movs	r1, r5
    2990:	4a55      	ldr	r2, [pc, #340]	; (2ae8 <transformToDate+0x4c4>)
    2992:	2300      	movs	r3, #0
    2994:	9404      	str	r4, [sp, #16]
    2996:	9505      	str	r5, [sp, #20]
    2998:	f7fd ff36 	bl	808 <__aeabi_uldivmod>
    299c:	0014      	movs	r4, r2
    299e:	001d      	movs	r5, r3
    29a0:	0020      	movs	r0, r4
    29a2:	0029      	movs	r1, r5
    29a4:	4a51      	ldr	r2, [pc, #324]	; (2aec <transformToDate+0x4c8>)
    29a6:	2300      	movs	r3, #0
    29a8:	9406      	str	r4, [sp, #24]
    29aa:	9507      	str	r5, [sp, #28]
    29ac:	f7fd ff2c 	bl	808 <__aeabi_uldivmod>
    29b0:	0014      	movs	r4, r2
E:\2017-2018\03_Graduation Project\04_Software\05_Wangshi\02_6220\06_UpdateSoftware-180714\01_UEBootloader\KL36_Bios-180714\Debug/../05_SoftComponent/timeStamp/timeStamp.c:117
    timeStamp -= minute * 60000;

    second = timeStamp / 1000;
    milliSecond = timeStamp % 1000;

    *dateArry[0] = year;
    29b2:	4642      	mov	r2, r8
    29b4:	001d      	movs	r5, r3
    29b6:	6813      	ldr	r3, [r2, #0]
    29b8:	9902      	ldr	r1, [sp, #8]
    29ba:	9a03      	ldr	r2, [sp, #12]
    29bc:	6019      	str	r1, [r3, #0]
    29be:	605a      	str	r2, [r3, #4]
E:\2017-2018\03_Graduation Project\04_Software\05_Wangshi\02_6220\06_UpdateSoftware-180714\01_UEBootloader\KL36_Bios-180714\Debug/../05_SoftComponent/timeStamp/timeStamp.c:105
    day = timeStamp / milOfDay;
    29c0:	9800      	ldr	r0, [sp, #0]
    29c2:	9901      	ldr	r1, [sp, #4]
E:\2017-2018\03_Graduation Project\04_Software\05_Wangshi\02_6220\06_UpdateSoftware-180714\01_UEBootloader\KL36_Bios-180714\Debug/../05_SoftComponent/timeStamp/timeStamp.c:118
    *dateArry[1] = month;
    29c4:	4642      	mov	r2, r8
    29c6:	6853      	ldr	r3, [r2, #4]
    29c8:	601e      	str	r6, [r3, #0]
    29ca:	605f      	str	r7, [r3, #4]
E:\2017-2018\03_Graduation Project\04_Software\05_Wangshi\02_6220\06_UpdateSoftware-180714\01_UEBootloader\KL36_Bios-180714\Debug/../05_SoftComponent/timeStamp/timeStamp.c:119
    *dateArry[2] = day;
    29cc:	6896      	ldr	r6, [r2, #8]
E:\2017-2018\03_Graduation Project\04_Software\05_Wangshi\02_6220\06_UpdateSoftware-180714\01_UEBootloader\KL36_Bios-180714\Debug/../05_SoftComponent/timeStamp/timeStamp.c:105
    day = timeStamp / milOfDay;
    29ce:	2300      	movs	r3, #0
    29d0:	4a44      	ldr	r2, [pc, #272]	; (2ae4 <transformToDate+0x4c0>)
    29d2:	f7fd ff19 	bl	808 <__aeabi_uldivmod>
E:\2017-2018\03_Graduation Project\04_Software\05_Wangshi\02_6220\06_UpdateSoftware-180714\01_UEBootloader\KL36_Bios-180714\Debug/../05_SoftComponent/timeStamp/timeStamp.c:120
    *dateArry[3] = hour;
    29d6:	4643      	mov	r3, r8
E:\2017-2018\03_Graduation Project\04_Software\05_Wangshi\02_6220\06_UpdateSoftware-180714\01_UEBootloader\KL36_Bios-180714\Debug/../05_SoftComponent/timeStamp/timeStamp.c:119
    *dateArry[2] = day;
    29d8:	6030      	str	r0, [r6, #0]
    29da:	6071      	str	r1, [r6, #4]
E:\2017-2018\03_Graduation Project\04_Software\05_Wangshi\02_6220\06_UpdateSoftware-180714\01_UEBootloader\KL36_Bios-180714\Debug/../05_SoftComponent/timeStamp/timeStamp.c:108
    hour = timeStamp / milOfHour;
    29dc:	9804      	ldr	r0, [sp, #16]
    29de:	9905      	ldr	r1, [sp, #20]
E:\2017-2018\03_Graduation Project\04_Software\05_Wangshi\02_6220\06_UpdateSoftware-180714\01_UEBootloader\KL36_Bios-180714\Debug/../05_SoftComponent/timeStamp/timeStamp.c:120
    *dateArry[3] = hour;
    29e0:	68de      	ldr	r6, [r3, #12]
E:\2017-2018\03_Graduation Project\04_Software\05_Wangshi\02_6220\06_UpdateSoftware-180714\01_UEBootloader\KL36_Bios-180714\Debug/../05_SoftComponent/timeStamp/timeStamp.c:108
    hour = timeStamp / milOfHour;
    29e2:	4a41      	ldr	r2, [pc, #260]	; (2ae8 <transformToDate+0x4c4>)
    29e4:	2300      	movs	r3, #0
    29e6:	f7fd ff0f 	bl	808 <__aeabi_uldivmod>
E:\2017-2018\03_Graduation Project\04_Software\05_Wangshi\02_6220\06_UpdateSoftware-180714\01_UEBootloader\KL36_Bios-180714\Debug/../05_SoftComponent/timeStamp/timeStamp.c:121
    *dateArry[4] = minute;
    29ea:	4643      	mov	r3, r8
E:\2017-2018\03_Graduation Project\04_Software\05_Wangshi\02_6220\06_UpdateSoftware-180714\01_UEBootloader\KL36_Bios-180714\Debug/../05_SoftComponent/timeStamp/timeStamp.c:120
    *dateArry[3] = hour;
    29ec:	6030      	str	r0, [r6, #0]
    29ee:	6071      	str	r1, [r6, #4]
E:\2017-2018\03_Graduation Project\04_Software\05_Wangshi\02_6220\06_UpdateSoftware-180714\01_UEBootloader\KL36_Bios-180714\Debug/../05_SoftComponent/timeStamp/timeStamp.c:111
    minute = timeStamp / 60000;
    29f0:	9806      	ldr	r0, [sp, #24]
    29f2:	9907      	ldr	r1, [sp, #28]
E:\2017-2018\03_Graduation Project\04_Software\05_Wangshi\02_6220\06_UpdateSoftware-180714\01_UEBootloader\KL36_Bios-180714\Debug/../05_SoftComponent/timeStamp/timeStamp.c:121
    *dateArry[4] = minute;
    29f4:	691e      	ldr	r6, [r3, #16]
E:\2017-2018\03_Graduation Project\04_Software\05_Wangshi\02_6220\06_UpdateSoftware-180714\01_UEBootloader\KL36_Bios-180714\Debug/../05_SoftComponent/timeStamp/timeStamp.c:111
    minute = timeStamp / 60000;
    29f6:	4a3d      	ldr	r2, [pc, #244]	; (2aec <transformToDate+0x4c8>)
    29f8:	2300      	movs	r3, #0
    29fa:	f7fd ff05 	bl	808 <__aeabi_uldivmod>
E:\2017-2018\03_Graduation Project\04_Software\05_Wangshi\02_6220\06_UpdateSoftware-180714\01_UEBootloader\KL36_Bios-180714\Debug/../05_SoftComponent/timeStamp/timeStamp.c:122
    *dateArry[5] = second;
    29fe:	4643      	mov	r3, r8
E:\2017-2018\03_Graduation Project\04_Software\05_Wangshi\02_6220\06_UpdateSoftware-180714\01_UEBootloader\KL36_Bios-180714\Debug/../05_SoftComponent/timeStamp/timeStamp.c:114
    second = timeStamp / 1000;
    2a00:	22fa      	movs	r2, #250	; 0xfa
E:\2017-2018\03_Graduation Project\04_Software\05_Wangshi\02_6220\06_UpdateSoftware-180714\01_UEBootloader\KL36_Bios-180714\Debug/../05_SoftComponent/timeStamp/timeStamp.c:121
    *dateArry[4] = minute;
    2a02:	6030      	str	r0, [r6, #0]
    2a04:	6071      	str	r1, [r6, #4]
E:\2017-2018\03_Graduation Project\04_Software\05_Wangshi\02_6220\06_UpdateSoftware-180714\01_UEBootloader\KL36_Bios-180714\Debug/../05_SoftComponent/timeStamp/timeStamp.c:114
    second = timeStamp / 1000;
    2a06:	0092      	lsls	r2, r2, #2
E:\2017-2018\03_Graduation Project\04_Software\05_Wangshi\02_6220\06_UpdateSoftware-180714\01_UEBootloader\KL36_Bios-180714\Debug/../05_SoftComponent/timeStamp/timeStamp.c:122
    *dateArry[5] = second;
    2a08:	695e      	ldr	r6, [r3, #20]
E:\2017-2018\03_Graduation Project\04_Software\05_Wangshi\02_6220\06_UpdateSoftware-180714\01_UEBootloader\KL36_Bios-180714\Debug/../05_SoftComponent/timeStamp/timeStamp.c:114
    second = timeStamp / 1000;
    2a0a:	0020      	movs	r0, r4
    2a0c:	2300      	movs	r3, #0
    2a0e:	0029      	movs	r1, r5
    2a10:	f7fd fefa 	bl	808 <__aeabi_uldivmod>
E:\2017-2018\03_Graduation Project\04_Software\05_Wangshi\02_6220\06_UpdateSoftware-180714\01_UEBootloader\KL36_Bios-180714\Debug/../05_SoftComponent/timeStamp/timeStamp.c:123
    *dateArry[6] = milliSecond;
    2a14:	4643      	mov	r3, r8
E:\2017-2018\03_Graduation Project\04_Software\05_Wangshi\02_6220\06_UpdateSoftware-180714\01_UEBootloader\KL36_Bios-180714\Debug/../05_SoftComponent/timeStamp/timeStamp.c:115
    milliSecond = timeStamp % 1000;
    2a16:	22fa      	movs	r2, #250	; 0xfa
E:\2017-2018\03_Graduation Project\04_Software\05_Wangshi\02_6220\06_UpdateSoftware-180714\01_UEBootloader\KL36_Bios-180714\Debug/../05_SoftComponent/timeStamp/timeStamp.c:122
    *dateArry[5] = second;
    2a18:	6030      	str	r0, [r6, #0]
    2a1a:	6071      	str	r1, [r6, #4]
E:\2017-2018\03_Graduation Project\04_Software\05_Wangshi\02_6220\06_UpdateSoftware-180714\01_UEBootloader\KL36_Bios-180714\Debug/../05_SoftComponent/timeStamp/timeStamp.c:115
    milliSecond = timeStamp % 1000;
    2a1c:	0092      	lsls	r2, r2, #2
E:\2017-2018\03_Graduation Project\04_Software\05_Wangshi\02_6220\06_UpdateSoftware-180714\01_UEBootloader\KL36_Bios-180714\Debug/../05_SoftComponent/timeStamp/timeStamp.c:123
    *dateArry[6] = milliSecond;
    2a1e:	699e      	ldr	r6, [r3, #24]
E:\2017-2018\03_Graduation Project\04_Software\05_Wangshi\02_6220\06_UpdateSoftware-180714\01_UEBootloader\KL36_Bios-180714\Debug/../05_SoftComponent/timeStamp/timeStamp.c:115
    milliSecond = timeStamp % 1000;
    2a20:	0020      	movs	r0, r4
    2a22:	0029      	movs	r1, r5
    2a24:	2300      	movs	r3, #0
    2a26:	f7fd feef 	bl	808 <__aeabi_uldivmod>
E:\2017-2018\03_Graduation Project\04_Software\05_Wangshi\02_6220\06_UpdateSoftware-180714\01_UEBootloader\KL36_Bios-180714\Debug/../05_SoftComponent/timeStamp/timeStamp.c:123
    *dateArry[6] = milliSecond;
    2a2a:	6032      	str	r2, [r6, #0]
    2a2c:	6073      	str	r3, [r6, #4]
E:\2017-2018\03_Graduation Project\04_Software\05_Wangshi\02_6220\06_UpdateSoftware-180714\01_UEBootloader\KL36_Bios-180714\Debug/../05_SoftComponent/timeStamp/timeStamp.c:124
}
    2a2e:	b035      	add	sp, #212	; 0xd4
    2a30:	bc3c      	pop	{r2, r3, r4, r5}
    2a32:	4690      	mov	r8, r2
    2a34:	4699      	mov	r9, r3
    2a36:	46a2      	mov	sl, r4
    2a38:	46ab      	mov	fp, r5
    2a3a:	bdf0      	pop	{r4, r5, r6, r7, pc}
E:\2017-2018\03_Graduation Project\04_Software\05_Wangshi\02_6220\06_UpdateSoftware-180714\01_UEBootloader\KL36_Bios-180714\Debug/../05_SoftComponent/timeStamp/timeStamp.c:97 (discriminator 4)
    int isLeapYear = ((year&3) == 0 && year%100!=0) || year%400 == 0;
    2a3c:	22c8      	movs	r2, #200	; 0xc8
    2a3e:	9802      	ldr	r0, [sp, #8]
    2a40:	9903      	ldr	r1, [sp, #12]
    2a42:	0052      	lsls	r2, r2, #1
    2a44:	2300      	movs	r3, #0
    2a46:	f7fd fedf 	bl	808 <__aeabi_uldivmod>
    2a4a:	431a      	orrs	r2, r3
    2a4c:	4253      	negs	r3, r2
    2a4e:	4153      	adcs	r3, r2
    2a50:	469a      	mov	sl, r3
    2a52:	e733      	b.n	28bc <transformToDate+0x298>
E:\2017-2018\03_Graduation Project\04_Software\05_Wangshi\02_6220\06_UpdateSoftware-180714\01_UEBootloader\KL36_Bios-180714\Debug/../05_SoftComponent/timeStamp/timeStamp.c:100 (discriminator 1)
        if(isLeapYear && month > 1)
    2a54:	2f00      	cmp	r7, #0
    2a56:	d000      	beq.n	2a5a <transformToDate+0x436>
    2a58:	e75d      	b.n	2916 <transformToDate+0x2f2>
    2a5a:	e763      	b.n	2924 <transformToDate+0x300>
    2a5c:	4b24      	ldr	r3, [pc, #144]	; (2af0 <transformToDate+0x4cc>)
    2a5e:	42ab      	cmp	r3, r5
    2a60:	d300      	bcc.n	2a64 <transformToDate+0x440>
    2a62:	e5f8      	b.n	2656 <transformToDate+0x32>
    2a64:	4b22      	ldr	r3, [pc, #136]	; (2af0 <transformToDate+0x4cc>)
    2a66:	4c23      	ldr	r4, [pc, #140]	; (2af4 <transformToDate+0x4d0>)
    2a68:	930c      	str	r3, [sp, #48]	; 0x30
    2a6a:	940d      	str	r4, [sp, #52]	; 0x34
    2a6c:	e5f3      	b.n	2656 <transformToDate+0x32>
E:\2017-2018\03_Graduation Project\04_Software\05_Wangshi\02_6220\06_UpdateSoftware-180714\01_UEBootloader\KL36_Bios-180714\Debug/../05_SoftComponent/timeStamp/timeStamp.c:79
        else if(t < timeStamp)
    2a6e:	9b0c      	ldr	r3, [sp, #48]	; 0x30
    2a70:	4283      	cmp	r3, r0
    2a72:	d800      	bhi.n	2a76 <transformToDate+0x452>
    2a74:	e6ba      	b.n	27ec <transformToDate+0x1c8>
    2a76:	9b0a      	ldr	r3, [sp, #40]	; 0x28
    2a78:	9c0b      	ldr	r4, [sp, #44]	; 0x2c
    2a7a:	9308      	str	r3, [sp, #32]
    2a7c:	9409      	str	r4, [sp, #36]	; 0x24
E:\2017-2018\03_Graduation Project\04_Software\05_Wangshi\02_6220\06_UpdateSoftware-180714\01_UEBootloader\KL36_Bios-180714\Debug/../05_SoftComponent/timeStamp/timeStamp.c:69
    while(low <= high)
    2a7e:	9908      	ldr	r1, [sp, #32]
    2a80:	9a09      	ldr	r2, [sp, #36]	; 0x24
E:\2017-2018\03_Graduation Project\04_Software\05_Wangshi\02_6220\06_UpdateSoftware-180714\01_UEBootloader\KL36_Bios-180714\Debug/../05_SoftComponent/timeStamp/timeStamp.c:80
            low = mid + 1;
    2a82:	2301      	movs	r3, #1
    2a84:	2400      	movs	r4, #0
    2a86:	199b      	adds	r3, r3, r6
    2a88:	417c      	adcs	r4, r7
    2a8a:	930e      	str	r3, [sp, #56]	; 0x38
    2a8c:	940f      	str	r4, [sp, #60]	; 0x3c
E:\2017-2018\03_Graduation Project\04_Software\05_Wangshi\02_6220\06_UpdateSoftware-180714\01_UEBootloader\KL36_Bios-180714\Debug/../05_SoftComponent/timeStamp/timeStamp.c:69
    while(low <= high)
    2a8e:	4294      	cmp	r4, r2
    2a90:	d900      	bls.n	2a94 <transformToDate+0x470>
    2a92:	e6b5      	b.n	2800 <transformToDate+0x1dc>
    2a94:	d000      	beq.n	2a98 <transformToDate+0x474>
    2a96:	e5e6      	b.n	2666 <transformToDate+0x42>
    2a98:	9b0e      	ldr	r3, [sp, #56]	; 0x38
    2a9a:	9a08      	ldr	r2, [sp, #32]
    2a9c:	4293      	cmp	r3, r2
    2a9e:	d800      	bhi.n	2aa2 <transformToDate+0x47e>
    2aa0:	e5e1      	b.n	2666 <transformToDate+0x42>
    2aa2:	e6ad      	b.n	2800 <transformToDate+0x1dc>
E:\2017-2018\03_Graduation Project\04_Software\05_Wangshi\02_6220\06_UpdateSoftware-180714\01_UEBootloader\KL36_Bios-180714\Debug/../05_SoftComponent/timeStamp/timeStamp.c:99 (discriminator 3)
    for(month = 1 ;(daySum[month] + ((isLeapYear && month > 1) ? 1 : 0)) * milOfDay <= timeStamp && month < 13 ;month ++) {
    2aa4:	9b00      	ldr	r3, [sp, #0]
    2aa6:	459c      	cmp	ip, r3
    2aa8:	d800      	bhi.n	2aac <transformToDate+0x488>
    2aaa:	e731      	b.n	2910 <transformToDate+0x2ec>
    2aac:	e755      	b.n	295a <transformToDate+0x336>
E:\2017-2018\03_Graduation Project\04_Software\05_Wangshi\02_6220\06_UpdateSoftware-180714\01_UEBootloader\KL36_Bios-180714\Debug/../05_SoftComponent/timeStamp/timeStamp.c:74
        if(t == timeStamp)
    2aae:	9b0d      	ldr	r3, [sp, #52]	; 0x34
    2ab0:	4299      	cmp	r1, r3
    2ab2:	d000      	beq.n	2ab6 <transformToDate+0x492>
    2ab4:	e693      	b.n	27de <transformToDate+0x1ba>
E:\2017-2018\03_Graduation Project\04_Software\05_Wangshi\02_6220\06_UpdateSoftware-180714\01_UEBootloader\KL36_Bios-180714\Debug/../05_SoftComponent/timeStamp/timeStamp.c:76
            low = mid + 1;
    2ab6:	2201      	movs	r2, #1
    2ab8:	2300      	movs	r3, #0
    2aba:	18b6      	adds	r6, r6, r2
    2abc:	415f      	adcs	r7, r3
    2abe:	960e      	str	r6, [sp, #56]	; 0x38
    2ac0:	970f      	str	r7, [sp, #60]	; 0x3c
E:\2017-2018\03_Graduation Project\04_Software\05_Wangshi\02_6220\06_UpdateSoftware-180714\01_UEBootloader\KL36_Bios-180714\Debug/../05_SoftComponent/timeStamp/timeStamp.c:77
            break;
    2ac2:	e69d      	b.n	2800 <transformToDate+0x1dc>
E:\2017-2018\03_Graduation Project\04_Software\05_Wangshi\02_6220\06_UpdateSoftware-180714\01_UEBootloader\KL36_Bios-180714\Debug/../05_SoftComponent/timeStamp/timeStamp.c:69
    while(low <= high)
    2ac4:	9b0e      	ldr	r3, [sp, #56]	; 0x38
    2ac6:	9a0a      	ldr	r2, [sp, #40]	; 0x28
    2ac8:	4293      	cmp	r3, r2
    2aca:	d800      	bhi.n	2ace <transformToDate+0x4aa>
    2acc:	e62e      	b.n	272c <transformToDate+0x108>
    2ace:	e697      	b.n	2800 <transformToDate+0x1dc>
E:\2017-2018\03_Graduation Project\04_Software\05_Wangshi\02_6220\06_UpdateSoftware-180714\01_UEBootloader\KL36_Bios-180714\Debug/../05_SoftComponent/timeStamp/timeStamp.c:74
        if(t == timeStamp)
    2ad0:	9b0d      	ldr	r3, [sp, #52]	; 0x34
    2ad2:	4299      	cmp	r1, r3
    2ad4:	d000      	beq.n	2ad8 <transformToDate+0x4b4>
    2ad6:	e61f      	b.n	2718 <transformToDate+0xf4>
    2ad8:	e7ed      	b.n	2ab6 <transformToDate+0x492>
E:\2017-2018\03_Graduation Project\04_Software\05_Wangshi\02_6220\06_UpdateSoftware-180714\01_UEBootloader\KL36_Bios-180714\Debug/../05_SoftComponent/timeStamp/timeStamp.c:79
        else if(t < timeStamp)
    2ada:	9b0c      	ldr	r3, [sp, #48]	; 0x30
    2adc:	4283      	cmp	r3, r0
    2ade:	d800      	bhi.n	2ae2 <transformToDate+0x4be>
    2ae0:	e688      	b.n	27f4 <transformToDate+0x1d0>
    2ae2:	e7cc      	b.n	2a7e <transformToDate+0x45a>
    2ae4:	05265c00 	.word	0x05265c00
    2ae8:	0036ee80 	.word	0x0036ee80
    2aec:	0000ea60 	.word	0x0000ea60
    2af0:	e44cb3ff 	.word	0xe44cb3ff
    2af4:	00011efa 	.word	0x00011efa

00002af8 <transformToDateString>:
transformToDateString():
E:\2017-2018\03_Graduation Project\04_Software\05_Wangshi\02_6220\06_UpdateSoftware-180714\01_UEBootloader\KL36_Bios-180714\Debug/../05_SoftComponent/timeStamp/timeStamp.c:23
{
    2af8:	b5f0      	push	{r4, r5, r6, r7, lr}
    2afa:	46ce      	mov	lr, r9
    2afc:	4647      	mov	r7, r8
    2afe:	b580      	push	{r7, lr}
    2b00:	b097      	sub	sp, #92	; 0x5c
E:\2017-2018\03_Graduation Project\04_Software\05_Wangshi\02_6220\06_UpdateSoftware-180714\01_UEBootloader\KL36_Bios-180714\Debug/../05_SoftComponent/timeStamp/timeStamp.c:25
    uint_64 *intp[] = {&year ,&month ,&day ,&hour ,&minute ,&second ,&milliSecond };
    2b02:	466b      	mov	r3, sp
E:\2017-2018\03_Graduation Project\04_Software\05_Wangshi\02_6220\06_UpdateSoftware-180714\01_UEBootloader\KL36_Bios-180714\Debug/../05_SoftComponent/timeStamp/timeStamp.c:23
{
    2b04:	0015      	movs	r5, r2
E:\2017-2018\03_Graduation Project\04_Software\05_Wangshi\02_6220\06_UpdateSoftware-180714\01_UEBootloader\KL36_Bios-180714\Debug/../05_SoftComponent/timeStamp/timeStamp.c:25
    uint_64 *intp[] = {&year ,&month ,&day ,&hour ,&minute ,&second ,&milliSecond };
    2b06:	930f      	str	r3, [sp, #60]	; 0x3c
    2b08:	ab02      	add	r3, sp, #8
    2b0a:	9310      	str	r3, [sp, #64]	; 0x40
    2b0c:	ab04      	add	r3, sp, #16
    2b0e:	9311      	str	r3, [sp, #68]	; 0x44
    2b10:	ab06      	add	r3, sp, #24
    2b12:	9312      	str	r3, [sp, #72]	; 0x48
    2b14:	ab08      	add	r3, sp, #32
    2b16:	9313      	str	r3, [sp, #76]	; 0x4c
    2b18:	ab0a      	add	r3, sp, #40	; 0x28
    2b1a:	9314      	str	r3, [sp, #80]	; 0x50
E:\2017-2018\03_Graduation Project\04_Software\05_Wangshi\02_6220\06_UpdateSoftware-180714\01_UEBootloader\KL36_Bios-180714\Debug/../05_SoftComponent/timeStamp/timeStamp.c:27
    transformToDate(timeStamp ,intp);
    2b1c:	aa0f      	add	r2, sp, #60	; 0x3c
E:\2017-2018\03_Graduation Project\04_Software\05_Wangshi\02_6220\06_UpdateSoftware-180714\01_UEBootloader\KL36_Bios-180714\Debug/../05_SoftComponent/timeStamp/timeStamp.c:25
    uint_64 *intp[] = {&year ,&month ,&day ,&hour ,&minute ,&second ,&milliSecond };
    2b1e:	ab0c      	add	r3, sp, #48	; 0x30
    2b20:	9315      	str	r3, [sp, #84]	; 0x54
E:\2017-2018\03_Graduation Project\04_Software\05_Wangshi\02_6220\06_UpdateSoftware-180714\01_UEBootloader\KL36_Bios-180714\Debug/../05_SoftComponent/timeStamp/timeStamp.c:27
    transformToDate(timeStamp ,intp);
    2b22:	f7ff fd7f 	bl	2624 <transformToDate>
E:\2017-2018\03_Graduation Project\04_Software\05_Wangshi\02_6220\06_UpdateSoftware-180714\01_UEBootloader\KL36_Bios-180714\Debug/../05_SoftComponent/timeStamp/timeStamp.c:38
	intToString(year,dateString,4);
    2b26:	9e00      	ldr	r6, [sp, #0]
    2b28:	9f01      	ldr	r7, [sp, #4]
    2b2a:	1ceb      	adds	r3, r5, #3
    2b2c:	4698      	mov	r8, r3
    2b2e:	1e6b      	subs	r3, r5, #1
    2b30:	4699      	mov	r9, r3
intToString():
E:\2017-2018\03_Graduation Project\04_Software\05_Wangshi\02_6220\06_UpdateSoftware-180714\01_UEBootloader\KL36_Bios-180714\Debug/../05_SoftComponent/timeStamp/timeStamp.c:136
	uint_64 divisor;//

	divisor = num;
	for(i = 0;i < len;i++)
	{
		remainder = divisor % 10;
    2b32:	0030      	movs	r0, r6
    2b34:	0039      	movs	r1, r7
    2b36:	220a      	movs	r2, #10
    2b38:	2300      	movs	r3, #0
    2b3a:	f7fd fe65 	bl	808 <__aeabi_uldivmod>
E:\2017-2018\03_Graduation Project\04_Software\05_Wangshi\02_6220\06_UpdateSoftware-180714\01_UEBootloader\KL36_Bios-180714\Debug/../05_SoftComponent/timeStamp/timeStamp.c:137
		divisor = divisor / 10;
    2b3e:	2300      	movs	r3, #0
E:\2017-2018\03_Graduation Project\04_Software\05_Wangshi\02_6220\06_UpdateSoftware-180714\01_UEBootloader\KL36_Bios-180714\Debug/../05_SoftComponent/timeStamp/timeStamp.c:136
		remainder = divisor % 10;
    2b40:	b2d4      	uxtb	r4, r2
E:\2017-2018\03_Graduation Project\04_Software\05_Wangshi\02_6220\06_UpdateSoftware-180714\01_UEBootloader\KL36_Bios-180714\Debug/../05_SoftComponent/timeStamp/timeStamp.c:137
		divisor = divisor / 10;
    2b42:	0030      	movs	r0, r6
    2b44:	0039      	movs	r1, r7
    2b46:	220a      	movs	r2, #10
    2b48:	f7fd fe5e 	bl	808 <__aeabi_uldivmod>
E:\2017-2018\03_Graduation Project\04_Software\05_Wangshi\02_6220\06_UpdateSoftware-180714\01_UEBootloader\KL36_Bios-180714\Debug/../05_SoftComponent/timeStamp/timeStamp.c:138
		str[len-i-1] = remainder + '0';
    2b4c:	4643      	mov	r3, r8
    2b4e:	3430      	adds	r4, #48	; 0x30
    2b50:	701c      	strb	r4, [r3, #0]
    2b52:	2301      	movs	r3, #1
    2b54:	425b      	negs	r3, r3
    2b56:	469c      	mov	ip, r3
    2b58:	44e0      	add	r8, ip
E:\2017-2018\03_Graduation Project\04_Software\05_Wangshi\02_6220\06_UpdateSoftware-180714\01_UEBootloader\KL36_Bios-180714\Debug/../05_SoftComponent/timeStamp/timeStamp.c:137
		divisor = divisor / 10;
    2b5a:	0006      	movs	r6, r0
    2b5c:	000f      	movs	r7, r1
E:\2017-2018\03_Graduation Project\04_Software\05_Wangshi\02_6220\06_UpdateSoftware-180714\01_UEBootloader\KL36_Bios-180714\Debug/../05_SoftComponent/timeStamp/timeStamp.c:134
	for(i = 0;i < len;i++)
    2b5e:	45c8      	cmp	r8, r9
    2b60:	d1e7      	bne.n	2b32 <transformToDateString+0x3a>
transformToDateString():
E:\2017-2018\03_Graduation Project\04_Software\05_Wangshi\02_6220\06_UpdateSoftware-180714\01_UEBootloader\KL36_Bios-180714\Debug/../05_SoftComponent/timeStamp/timeStamp.c:40
	intToString(month,dateString+5,2);
    2b62:	9e02      	ldr	r6, [sp, #8]
    2b64:	9f03      	ldr	r7, [sp, #12]
E:\2017-2018\03_Graduation Project\04_Software\05_Wangshi\02_6220\06_UpdateSoftware-180714\01_UEBootloader\KL36_Bios-180714\Debug/../05_SoftComponent/timeStamp/timeStamp.c:39
	dateString[4] = '-';
    2b66:	242d      	movs	r4, #45	; 0x2d
intToString():
E:\2017-2018\03_Graduation Project\04_Software\05_Wangshi\02_6220\06_UpdateSoftware-180714\01_UEBootloader\KL36_Bios-180714\Debug/../05_SoftComponent/timeStamp/timeStamp.c:136
		remainder = divisor % 10;
    2b68:	0030      	movs	r0, r6
transformToDateString():
E:\2017-2018\03_Graduation Project\04_Software\05_Wangshi\02_6220\06_UpdateSoftware-180714\01_UEBootloader\KL36_Bios-180714\Debug/../05_SoftComponent/timeStamp/timeStamp.c:39
	dateString[4] = '-';
    2b6a:	712c      	strb	r4, [r5, #4]
intToString():
E:\2017-2018\03_Graduation Project\04_Software\05_Wangshi\02_6220\06_UpdateSoftware-180714\01_UEBootloader\KL36_Bios-180714\Debug/../05_SoftComponent/timeStamp/timeStamp.c:136
		remainder = divisor % 10;
    2b6c:	0039      	movs	r1, r7
    2b6e:	220a      	movs	r2, #10
    2b70:	2300      	movs	r3, #0
    2b72:	f7fd fe49 	bl	808 <__aeabi_uldivmod>
E:\2017-2018\03_Graduation Project\04_Software\05_Wangshi\02_6220\06_UpdateSoftware-180714\01_UEBootloader\KL36_Bios-180714\Debug/../05_SoftComponent/timeStamp/timeStamp.c:137
		divisor = divisor / 10;
    2b76:	0030      	movs	r0, r6
    2b78:	0039      	movs	r1, r7
transformToDateString():
E:\2017-2018\03_Graduation Project\04_Software\05_Wangshi\02_6220\06_UpdateSoftware-180714\01_UEBootloader\KL36_Bios-180714\Debug/../05_SoftComponent/timeStamp/timeStamp.c:42
	intToString(day+1,dateString+8,2);
    2b7a:	2601      	movs	r6, #1
    2b7c:	2700      	movs	r7, #0
intToString():
E:\2017-2018\03_Graduation Project\04_Software\05_Wangshi\02_6220\06_UpdateSoftware-180714\01_UEBootloader\KL36_Bios-180714\Debug/../05_SoftComponent/timeStamp/timeStamp.c:138
		str[len-i-1] = remainder + '0';
    2b7e:	3230      	adds	r2, #48	; 0x30
    2b80:	71aa      	strb	r2, [r5, #6]
E:\2017-2018\03_Graduation Project\04_Software\05_Wangshi\02_6220\06_UpdateSoftware-180714\01_UEBootloader\KL36_Bios-180714\Debug/../05_SoftComponent/timeStamp/timeStamp.c:137
		divisor = divisor / 10;
    2b82:	2300      	movs	r3, #0
    2b84:	220a      	movs	r2, #10
    2b86:	f7fd fe3f 	bl	808 <__aeabi_uldivmod>
E:\2017-2018\03_Graduation Project\04_Software\05_Wangshi\02_6220\06_UpdateSoftware-180714\01_UEBootloader\KL36_Bios-180714\Debug/../05_SoftComponent/timeStamp/timeStamp.c:136
		remainder = divisor % 10;
    2b8a:	220a      	movs	r2, #10
    2b8c:	2300      	movs	r3, #0
    2b8e:	f7fd fe3b 	bl	808 <__aeabi_uldivmod>
transformToDateString():
E:\2017-2018\03_Graduation Project\04_Software\05_Wangshi\02_6220\06_UpdateSoftware-180714\01_UEBootloader\KL36_Bios-180714\Debug/../05_SoftComponent/timeStamp/timeStamp.c:41
	dateString[7] = '-';
    2b92:	71ec      	strb	r4, [r5, #7]
E:\2017-2018\03_Graduation Project\04_Software\05_Wangshi\02_6220\06_UpdateSoftware-180714\01_UEBootloader\KL36_Bios-180714\Debug/../05_SoftComponent/timeStamp/timeStamp.c:42
	intToString(day+1,dateString+8,2);
    2b94:	9b04      	ldr	r3, [sp, #16]
    2b96:	9c05      	ldr	r4, [sp, #20]
    2b98:	18f6      	adds	r6, r6, r3
    2b9a:	4167      	adcs	r7, r4
intToString():
E:\2017-2018\03_Graduation Project\04_Software\05_Wangshi\02_6220\06_UpdateSoftware-180714\01_UEBootloader\KL36_Bios-180714\Debug/../05_SoftComponent/timeStamp/timeStamp.c:138
		str[len-i-1] = remainder + '0';
    2b9c:	3230      	adds	r2, #48	; 0x30
    2b9e:	716a      	strb	r2, [r5, #5]
E:\2017-2018\03_Graduation Project\04_Software\05_Wangshi\02_6220\06_UpdateSoftware-180714\01_UEBootloader\KL36_Bios-180714\Debug/../05_SoftComponent/timeStamp/timeStamp.c:136
		remainder = divisor % 10;
    2ba0:	0030      	movs	r0, r6
    2ba2:	0039      	movs	r1, r7
    2ba4:	220a      	movs	r2, #10
    2ba6:	2300      	movs	r3, #0
    2ba8:	f7fd fe2e 	bl	808 <__aeabi_uldivmod>
E:\2017-2018\03_Graduation Project\04_Software\05_Wangshi\02_6220\06_UpdateSoftware-180714\01_UEBootloader\KL36_Bios-180714\Debug/../05_SoftComponent/timeStamp/timeStamp.c:138
		str[len-i-1] = remainder + '0';
    2bac:	3230      	adds	r2, #48	; 0x30
    2bae:	726a      	strb	r2, [r5, #9]
E:\2017-2018\03_Graduation Project\04_Software\05_Wangshi\02_6220\06_UpdateSoftware-180714\01_UEBootloader\KL36_Bios-180714\Debug/../05_SoftComponent/timeStamp/timeStamp.c:137
		divisor = divisor / 10;
    2bb0:	2300      	movs	r3, #0
    2bb2:	220a      	movs	r2, #10
    2bb4:	0030      	movs	r0, r6
    2bb6:	0039      	movs	r1, r7
    2bb8:	f7fd fe26 	bl	808 <__aeabi_uldivmod>
E:\2017-2018\03_Graduation Project\04_Software\05_Wangshi\02_6220\06_UpdateSoftware-180714\01_UEBootloader\KL36_Bios-180714\Debug/../05_SoftComponent/timeStamp/timeStamp.c:136
		remainder = divisor % 10;
    2bbc:	220a      	movs	r2, #10
    2bbe:	2300      	movs	r3, #0
    2bc0:	f7fd fe22 	bl	808 <__aeabi_uldivmod>
transformToDateString():
E:\2017-2018\03_Graduation Project\04_Software\05_Wangshi\02_6220\06_UpdateSoftware-180714\01_UEBootloader\KL36_Bios-180714\Debug/../05_SoftComponent/timeStamp/timeStamp.c:44
	intToString(hour,dateString+11,2);
    2bc4:	9e06      	ldr	r6, [sp, #24]
    2bc6:	9f07      	ldr	r7, [sp, #28]
E:\2017-2018\03_Graduation Project\04_Software\05_Wangshi\02_6220\06_UpdateSoftware-180714\01_UEBootloader\KL36_Bios-180714\Debug/../05_SoftComponent/timeStamp/timeStamp.c:43
	dateString[10] = ' ';
    2bc8:	2320      	movs	r3, #32
intToString():
E:\2017-2018\03_Graduation Project\04_Software\05_Wangshi\02_6220\06_UpdateSoftware-180714\01_UEBootloader\KL36_Bios-180714\Debug/../05_SoftComponent/timeStamp/timeStamp.c:138
		str[len-i-1] = remainder + '0';
    2bca:	3230      	adds	r2, #48	; 0x30
    2bcc:	722a      	strb	r2, [r5, #8]
transformToDateString():
E:\2017-2018\03_Graduation Project\04_Software\05_Wangshi\02_6220\06_UpdateSoftware-180714\01_UEBootloader\KL36_Bios-180714\Debug/../05_SoftComponent/timeStamp/timeStamp.c:43
	dateString[10] = ' ';
    2bce:	72ab      	strb	r3, [r5, #10]
intToString():
E:\2017-2018\03_Graduation Project\04_Software\05_Wangshi\02_6220\06_UpdateSoftware-180714\01_UEBootloader\KL36_Bios-180714\Debug/../05_SoftComponent/timeStamp/timeStamp.c:136
		remainder = divisor % 10;
    2bd0:	0030      	movs	r0, r6
    2bd2:	0039      	movs	r1, r7
    2bd4:	220a      	movs	r2, #10
    2bd6:	2300      	movs	r3, #0
    2bd8:	f7fd fe16 	bl	808 <__aeabi_uldivmod>
E:\2017-2018\03_Graduation Project\04_Software\05_Wangshi\02_6220\06_UpdateSoftware-180714\01_UEBootloader\KL36_Bios-180714\Debug/../05_SoftComponent/timeStamp/timeStamp.c:138
		str[len-i-1] = remainder + '0';
    2bdc:	3230      	adds	r2, #48	; 0x30
    2bde:	732a      	strb	r2, [r5, #12]
E:\2017-2018\03_Graduation Project\04_Software\05_Wangshi\02_6220\06_UpdateSoftware-180714\01_UEBootloader\KL36_Bios-180714\Debug/../05_SoftComponent/timeStamp/timeStamp.c:137
		divisor = divisor / 10;
    2be0:	2300      	movs	r3, #0
    2be2:	220a      	movs	r2, #10
    2be4:	0030      	movs	r0, r6
    2be6:	0039      	movs	r1, r7
    2be8:	f7fd fe0e 	bl	808 <__aeabi_uldivmod>
E:\2017-2018\03_Graduation Project\04_Software\05_Wangshi\02_6220\06_UpdateSoftware-180714\01_UEBootloader\KL36_Bios-180714\Debug/../05_SoftComponent/timeStamp/timeStamp.c:136
		remainder = divisor % 10;
    2bec:	220a      	movs	r2, #10
    2bee:	2300      	movs	r3, #0
    2bf0:	f7fd fe0a 	bl	808 <__aeabi_uldivmod>
transformToDateString():
E:\2017-2018\03_Graduation Project\04_Software\05_Wangshi\02_6220\06_UpdateSoftware-180714\01_UEBootloader\KL36_Bios-180714\Debug/../05_SoftComponent/timeStamp/timeStamp.c:46
	intToString(minute,dateString+14,2);
    2bf4:	9e08      	ldr	r6, [sp, #32]
    2bf6:	9f09      	ldr	r7, [sp, #36]	; 0x24
E:\2017-2018\03_Graduation Project\04_Software\05_Wangshi\02_6220\06_UpdateSoftware-180714\01_UEBootloader\KL36_Bios-180714\Debug/../05_SoftComponent/timeStamp/timeStamp.c:45
	dateString[13] = ':';
    2bf8:	243a      	movs	r4, #58	; 0x3a
intToString():
E:\2017-2018\03_Graduation Project\04_Software\05_Wangshi\02_6220\06_UpdateSoftware-180714\01_UEBootloader\KL36_Bios-180714\Debug/../05_SoftComponent/timeStamp/timeStamp.c:138
		str[len-i-1] = remainder + '0';
    2bfa:	3230      	adds	r2, #48	; 0x30
    2bfc:	72ea      	strb	r2, [r5, #11]
transformToDateString():
E:\2017-2018\03_Graduation Project\04_Software\05_Wangshi\02_6220\06_UpdateSoftware-180714\01_UEBootloader\KL36_Bios-180714\Debug/../05_SoftComponent/timeStamp/timeStamp.c:45
	dateString[13] = ':';
    2bfe:	736c      	strb	r4, [r5, #13]
intToString():
E:\2017-2018\03_Graduation Project\04_Software\05_Wangshi\02_6220\06_UpdateSoftware-180714\01_UEBootloader\KL36_Bios-180714\Debug/../05_SoftComponent/timeStamp/timeStamp.c:136
		remainder = divisor % 10;
    2c00:	0030      	movs	r0, r6
    2c02:	0039      	movs	r1, r7
    2c04:	220a      	movs	r2, #10
    2c06:	2300      	movs	r3, #0
    2c08:	f7fd fdfe 	bl	808 <__aeabi_uldivmod>
E:\2017-2018\03_Graduation Project\04_Software\05_Wangshi\02_6220\06_UpdateSoftware-180714\01_UEBootloader\KL36_Bios-180714\Debug/../05_SoftComponent/timeStamp/timeStamp.c:138
		str[len-i-1] = remainder + '0';
    2c0c:	3230      	adds	r2, #48	; 0x30
    2c0e:	73ea      	strb	r2, [r5, #15]
E:\2017-2018\03_Graduation Project\04_Software\05_Wangshi\02_6220\06_UpdateSoftware-180714\01_UEBootloader\KL36_Bios-180714\Debug/../05_SoftComponent/timeStamp/timeStamp.c:137
		divisor = divisor / 10;
    2c10:	2300      	movs	r3, #0
    2c12:	220a      	movs	r2, #10
    2c14:	0030      	movs	r0, r6
    2c16:	0039      	movs	r1, r7
    2c18:	f7fd fdf6 	bl	808 <__aeabi_uldivmod>
E:\2017-2018\03_Graduation Project\04_Software\05_Wangshi\02_6220\06_UpdateSoftware-180714\01_UEBootloader\KL36_Bios-180714\Debug/../05_SoftComponent/timeStamp/timeStamp.c:136
		remainder = divisor % 10;
    2c1c:	220a      	movs	r2, #10
    2c1e:	2300      	movs	r3, #0
    2c20:	f7fd fdf2 	bl	808 <__aeabi_uldivmod>
transformToDateString():
E:\2017-2018\03_Graduation Project\04_Software\05_Wangshi\02_6220\06_UpdateSoftware-180714\01_UEBootloader\KL36_Bios-180714\Debug/../05_SoftComponent/timeStamp/timeStamp.c:48
	intToString(second,dateString+17,2);
    2c24:	9e0a      	ldr	r6, [sp, #40]	; 0x28
    2c26:	9f0b      	ldr	r7, [sp, #44]	; 0x2c
intToString():
E:\2017-2018\03_Graduation Project\04_Software\05_Wangshi\02_6220\06_UpdateSoftware-180714\01_UEBootloader\KL36_Bios-180714\Debug/../05_SoftComponent/timeStamp/timeStamp.c:138
		str[len-i-1] = remainder + '0';
    2c28:	3230      	adds	r2, #48	; 0x30
    2c2a:	73aa      	strb	r2, [r5, #14]
transformToDateString():
E:\2017-2018\03_Graduation Project\04_Software\05_Wangshi\02_6220\06_UpdateSoftware-180714\01_UEBootloader\KL36_Bios-180714\Debug/../05_SoftComponent/timeStamp/timeStamp.c:47
	dateString[16] = ':';
    2c2c:	742c      	strb	r4, [r5, #16]
intToString():
E:\2017-2018\03_Graduation Project\04_Software\05_Wangshi\02_6220\06_UpdateSoftware-180714\01_UEBootloader\KL36_Bios-180714\Debug/../05_SoftComponent/timeStamp/timeStamp.c:136
		remainder = divisor % 10;
    2c2e:	0030      	movs	r0, r6
    2c30:	0039      	movs	r1, r7
    2c32:	220a      	movs	r2, #10
    2c34:	2300      	movs	r3, #0
    2c36:	f7fd fde7 	bl	808 <__aeabi_uldivmod>
E:\2017-2018\03_Graduation Project\04_Software\05_Wangshi\02_6220\06_UpdateSoftware-180714\01_UEBootloader\KL36_Bios-180714\Debug/../05_SoftComponent/timeStamp/timeStamp.c:138
		str[len-i-1] = remainder + '0';
    2c3a:	3230      	adds	r2, #48	; 0x30
    2c3c:	74aa      	strb	r2, [r5, #18]
E:\2017-2018\03_Graduation Project\04_Software\05_Wangshi\02_6220\06_UpdateSoftware-180714\01_UEBootloader\KL36_Bios-180714\Debug/../05_SoftComponent/timeStamp/timeStamp.c:137
		divisor = divisor / 10;
    2c3e:	2300      	movs	r3, #0
    2c40:	220a      	movs	r2, #10
    2c42:	0030      	movs	r0, r6
    2c44:	0039      	movs	r1, r7
    2c46:	f7fd fddf 	bl	808 <__aeabi_uldivmod>
E:\2017-2018\03_Graduation Project\04_Software\05_Wangshi\02_6220\06_UpdateSoftware-180714\01_UEBootloader\KL36_Bios-180714\Debug/../05_SoftComponent/timeStamp/timeStamp.c:136
		remainder = divisor % 10;
    2c4a:	220a      	movs	r2, #10
    2c4c:	2300      	movs	r3, #0
    2c4e:	f7fd fddb 	bl	808 <__aeabi_uldivmod>
transformToDateString():
E:\2017-2018\03_Graduation Project\04_Software\05_Wangshi\02_6220\06_UpdateSoftware-180714\01_UEBootloader\KL36_Bios-180714\Debug/../05_SoftComponent/timeStamp/timeStamp.c:49
	dateString[19] = 0;
    2c52:	2300      	movs	r3, #0
intToString():
E:\2017-2018\03_Graduation Project\04_Software\05_Wangshi\02_6220\06_UpdateSoftware-180714\01_UEBootloader\KL36_Bios-180714\Debug/../05_SoftComponent/timeStamp/timeStamp.c:138
		str[len-i-1] = remainder + '0';
    2c54:	3230      	adds	r2, #48	; 0x30
    2c56:	746a      	strb	r2, [r5, #17]
transformToDateString():
E:\2017-2018\03_Graduation Project\04_Software\05_Wangshi\02_6220\06_UpdateSoftware-180714\01_UEBootloader\KL36_Bios-180714\Debug/../05_SoftComponent/timeStamp/timeStamp.c:49
	dateString[19] = 0;
    2c58:	74eb      	strb	r3, [r5, #19]
E:\2017-2018\03_Graduation Project\04_Software\05_Wangshi\02_6220\06_UpdateSoftware-180714\01_UEBootloader\KL36_Bios-180714\Debug/../05_SoftComponent/timeStamp/timeStamp.c:50
}
    2c5a:	b017      	add	sp, #92	; 0x5c
    2c5c:	bc0c      	pop	{r2, r3}
    2c5e:	4690      	mov	r8, r2
    2c60:	4699      	mov	r9, r3
    2c62:	bdf0      	pop	{r4, r5, r6, r7, pc}

00002c64 <timeChange>:
timeChange():
E:\2017-2018\03_Graduation Project\04_Software\05_Wangshi\02_6220\06_UpdateSoftware-180714\01_UEBootloader\KL36_Bios-180714\Debug/../05_SoftComponent/timeStamp/timeStamp.c:16
{
    2c64:	b510      	push	{r4, lr}
    2c66:	0014      	movs	r4, r2
E:\2017-2018\03_Graduation Project\04_Software\05_Wangshi\02_6220\06_UpdateSoftware-180714\01_UEBootloader\KL36_Bios-180714\Debug/../05_SoftComponent/timeStamp/timeStamp.c:18
	transformToDateString(ticks*1000+62135625600000-28800*1000,curtime);
    2c68:	22fa      	movs	r2, #250	; 0xfa
    2c6a:	2300      	movs	r3, #0
    2c6c:	0092      	lsls	r2, r2, #2
    2c6e:	f7fd fdeb 	bl	848 <__aeabi_lmul>
    2c72:	4b04      	ldr	r3, [pc, #16]	; (2c84 <timeChange+0x20>)
    2c74:	4a04      	ldr	r2, [pc, #16]	; (2c88 <timeChange+0x24>)
    2c76:	1880      	adds	r0, r0, r2
    2c78:	4159      	adcs	r1, r3
    2c7a:	0022      	movs	r2, r4
    2c7c:	f7ff ff3c 	bl	2af8 <transformToDateString>
E:\2017-2018\03_Graduation Project\04_Software\05_Wangshi\02_6220\06_UpdateSoftware-180714\01_UEBootloader\KL36_Bios-180714\Debug/../05_SoftComponent/timeStamp/timeStamp.c:19
}
    2c80:	bd10      	pop	{r4, pc}
    2c82:	46c0      	nop			; (mov r8, r8)
    2c84:	00003883 	.word	0x00003883
    2c88:	122cd800 	.word	0x122cd800

00002c8c <enable_irq>:
NVIC_EnableIRQ():
E:\2017-2018\03_Graduation Project\04_Software\05_Wangshi\02_6220\06_UpdateSoftware-180714\01_UEBootloader\KL36_Bios-180714\02_Core/core_cm0plus.h:685
  NVIC->ISER[0] = (uint32_t)(1UL << (((uint32_t)(int32_t)IRQn) & 0x1FUL));
    2c8c:	1c03      	adds	r3, r0, #0
    2c8e:	2820      	cmp	r0, #32
    2c90:	dd00      	ble.n	2c94 <enable_irq+0x8>
    2c92:	2320      	movs	r3, #32
    2c94:	221f      	movs	r2, #31
    2c96:	401a      	ands	r2, r3
    2c98:	2301      	movs	r3, #1
    2c9a:	4093      	lsls	r3, r2
    2c9c:	4a01      	ldr	r2, [pc, #4]	; (2ca4 <enable_irq+0x18>)
    2c9e:	6013      	str	r3, [r2, #0]
enable_irq():
E:\2017-2018\03_Graduation Project\04_Software\05_Wangshi\02_6220\06_UpdateSoftware-180714\01_UEBootloader\KL36_Bios-180714\Debug/../05_SoftComponent/common/common.c:71
	//irqirq
	if (irq > 32)    irq=32;

	NVIC_EnableIRQ(irq);

}
    2ca0:	4770      	bx	lr
    2ca2:	46c0      	nop			; (mov r8, r8)
    2ca4:	e000e100 	.word	0xe000e100

00002ca8 <disable_irq>:
NVIC_DisableIRQ():
E:\2017-2018\03_Graduation Project\04_Software\05_Wangshi\02_6220\06_UpdateSoftware-180714\01_UEBootloader\KL36_Bios-180714\02_Core/core_cm0plus.h:697
  NVIC->ICER[0] = (uint32_t)(1UL << (((uint32_t)(int32_t)IRQn) & 0x1FUL));
    2ca8:	1c03      	adds	r3, r0, #0
    2caa:	2820      	cmp	r0, #32
    2cac:	dd00      	ble.n	2cb0 <disable_irq+0x8>
    2cae:	2320      	movs	r3, #32
    2cb0:	221f      	movs	r2, #31
    2cb2:	401a      	ands	r2, r3
    2cb4:	2301      	movs	r3, #1
    2cb6:	4093      	lsls	r3, r2
    2cb8:	2280      	movs	r2, #128	; 0x80
    2cba:	4901      	ldr	r1, [pc, #4]	; (2cc0 <disable_irq+0x18>)
    2cbc:	508b      	str	r3, [r1, r2]
disable_irq():
E:\2017-2018\03_Graduation Project\04_Software\05_Wangshi\02_6220\06_UpdateSoftware-180714\01_UEBootloader\KL36_Bios-180714\Debug/../05_SoftComponent/common/common.c:86

	//irqirq
	if (irq > 32)    irq=32;

	NVIC_DisableIRQ(irq);
}
    2cbe:	4770      	bx	lr
    2cc0:	e000e100 	.word	0xe000e100

00002cc4 <Delay_ms>:
Delay_ms():
E:\2017-2018\03_Graduation Project\04_Software\05_Wangshi\02_6220\06_UpdateSoftware-180714\01_UEBootloader\KL36_Bios-180714\Debug/../05_SoftComponent/common/common.c:134
//
//
// - 
//======================================================================
void Delay_ms(uint16_t u16ms)
{
    2cc4:	0003      	movs	r3, r0
E:\2017-2018\03_Graduation Project\04_Software\05_Wangshi\02_6220\06_UpdateSoftware-180714\01_UEBootloader\KL36_Bios-180714\Debug/../05_SoftComponent/common/common.c:142

	uint_16 i;
	uint_32 j;

	uint32_t u32ctr;
	for(u32ctr = 0; u32ctr < ((48000 / 10)*u16ms); u32ctr++)
    2cc6:	0080      	lsls	r0, r0, #2
    2cc8:	18c0      	adds	r0, r0, r3
    2cca:	0103      	lsls	r3, r0, #4
    2ccc:	1a18      	subs	r0, r3, r0
    2cce:	0180      	lsls	r0, r0, #6
    2cd0:	d004      	beq.n	2cdc <Delay_ms+0x18>
    2cd2:	2300      	movs	r3, #0
E:\2017-2018\03_Graduation Project\04_Software\05_Wangshi\02_6220\06_UpdateSoftware-180714\01_UEBootloader\KL36_Bios-180714\Debug/../05_SoftComponent/common/common.c:144 (discriminator 3)
	{
		__asm ("NOP");
    2cd4:	46c0      	nop			; (mov r8, r8)
E:\2017-2018\03_Graduation Project\04_Software\05_Wangshi\02_6220\06_UpdateSoftware-180714\01_UEBootloader\KL36_Bios-180714\Debug/../05_SoftComponent/common/common.c:142 (discriminator 3)
	for(u32ctr = 0; u32ctr < ((48000 / 10)*u16ms); u32ctr++)
    2cd6:	3301      	adds	r3, #1
    2cd8:	4283      	cmp	r3, r0
    2cda:	d1fb      	bne.n	2cd4 <Delay_ms+0x10>
E:\2017-2018\03_Graduation Project\04_Software\05_Wangshi\02_6220\06_UpdateSoftware-180714\01_UEBootloader\KL36_Bios-180714\Debug/../05_SoftComponent/common/common.c:150
	}
	//  for(u32ctr = 0; u32ctr < ((4000 / 10)*u16ms); u32ctr++)
	//  {
	//	  __asm ("NOP");
	//  }
}
    2cdc:	4770      	bx	lr
    2cde:	46c0      	nop			; (mov r8, r8)

00002ce0 <updateDecode.part.0>:
updateDecode():
E:\2017-2018\03_Graduation Project\04_Software\05_Wangshi\02_6220\06_UpdateSoftware-180714\01_UEBootloader\KL36_Bios-180714\Debug/../04_UserBoard/ueupdate/ueupdate.c:304
//
//       
//              + +  +  +  + 
//             2B  2B   1B   nB   2B   2B
//======================================================================
uint_8 updateDecode(uint_8 *frame,uint_8 *order,uint_8 *data,uint_16 *len)
    2ce0:	b5f0      	push	{r4, r5, r6, r7, lr}
    2ce2:	46d6      	mov	lr, sl
    2ce4:	464f      	mov	r7, r9
    2ce6:	4646      	mov	r6, r8
    2ce8:	b5c0      	push	{r6, r7, lr}
    2cea:	469a      	mov	sl, r3
E:\2017-2018\03_Graduation Project\04_Software\05_Wangshi\02_6220\06_UpdateSoftware-180714\01_UEBootloader\KL36_Bios-180714\Debug/../04_UserBoard/ueupdate/ueupdate.c:320
	{
		rv = 1;
		goto updateDecode_EXIT;
	}
	//3
	frameLen = (frame[2]<<8) | frame[3];
    2cec:	7883      	ldrb	r3, [r0, #2]
E:\2017-2018\03_Graduation Project\04_Software\05_Wangshi\02_6220\06_UpdateSoftware-180714\01_UEBootloader\KL36_Bios-180714\Debug/../04_UserBoard/ueupdate/ueupdate.c:304
uint_8 updateDecode(uint_8 *frame,uint_8 *order,uint_8 *data,uint_16 *len)
    2cee:	4690      	mov	r8, r2
E:\2017-2018\03_Graduation Project\04_Software\05_Wangshi\02_6220\06_UpdateSoftware-180714\01_UEBootloader\KL36_Bios-180714\Debug/../04_UserBoard/ueupdate/ueupdate.c:320
	frameLen = (frame[2]<<8) | frame[3];
    2cf0:	78c2      	ldrb	r2, [r0, #3]
    2cf2:	021b      	lsls	r3, r3, #8
    2cf4:	431a      	orrs	r2, r3
E:\2017-2018\03_Graduation Project\04_Software\05_Wangshi\02_6220\06_UpdateSoftware-180714\01_UEBootloader\KL36_Bios-180714\Debug/../04_UserBoard/ueupdate/ueupdate.c:322
	//4
	*order = frame[4];
    2cf6:	7903      	ldrb	r3, [r0, #4]
E:\2017-2018\03_Graduation Project\04_Software\05_Wangshi\02_6220\06_UpdateSoftware-180714\01_UEBootloader\KL36_Bios-180714\Debug/../04_UserBoard/ueupdate/ueupdate.c:320
	frameLen = (frame[2]<<8) | frame[3];
    2cf8:	4694      	mov	ip, r2
E:\2017-2018\03_Graduation Project\04_Software\05_Wangshi\02_6220\06_UpdateSoftware-180714\01_UEBootloader\KL36_Bios-180714\Debug/../04_UserBoard/ueupdate/ueupdate.c:324
	//5CRC
	*len = frameLen-9;  //
    2cfa:	3a09      	subs	r2, #9
E:\2017-2018\03_Graduation Project\04_Software\05_Wangshi\02_6220\06_UpdateSoftware-180714\01_UEBootloader\KL36_Bios-180714\Debug/../04_UserBoard/ueupdate/ueupdate.c:322
	*order = frame[4];
    2cfc:	700b      	strb	r3, [r1, #0]
E:\2017-2018\03_Graduation Project\04_Software\05_Wangshi\02_6220\06_UpdateSoftware-180714\01_UEBootloader\KL36_Bios-180714\Debug/../04_UserBoard/ueupdate/ueupdate.c:324
	*len = frameLen-9;  //
    2cfe:	b293      	uxth	r3, r2
    2d00:	4699      	mov	r9, r3
    2d02:	4653      	mov	r3, sl
    2d04:	464a      	mov	r2, r9
    2d06:	801a      	strh	r2, [r3, #0]
updatecrc16():
E:\2017-2018\03_Graduation Project\04_Software\05_Wangshi\02_6220\06_UpdateSoftware-180714\01_UEBootloader\KL36_Bios-180714\Debug/../04_UserBoard/ueupdate/ueupdate.c:358
uint_16 updatecrc16(uint_8 *ptr,uint_16 len)
{
	uint_16 i,j,tmp,crc16;

	crc16 = 0xffff;
	for(i = 0;i < len;i++)
    2d08:	464b      	mov	r3, r9
    2d0a:	2b00      	cmp	r3, #0
    2d0c:	d040      	beq.n	2d90 <updateDecode.part.0+0xb0>
    2d0e:	4663      	mov	r3, ip
E:\2017-2018\03_Graduation Project\04_Software\05_Wangshi\02_6220\06_UpdateSoftware-180714\01_UEBootloader\KL36_Bios-180714\Debug/../04_UserBoard/ueupdate/ueupdate.c:363
	{
		crc16 = ptr[i]^crc16;
		for(j = 0;j < 8;j++)
		{
			tmp = crc16 & 0x0001;
    2d10:	2601      	movs	r6, #1
    2d12:	3b0a      	subs	r3, #10
    2d14:	b29b      	uxth	r3, r3
    2d16:	1d87      	adds	r7, r0, #6
    2d18:	19df      	adds	r7, r3, r7
E:\2017-2018\03_Graduation Project\04_Software\05_Wangshi\02_6220\06_UpdateSoftware-180714\01_UEBootloader\KL36_Bios-180714\Debug/../04_UserBoard/ueupdate/ueupdate.c:366
			crc16 = crc16>>1;
			if(tmp)
				crc16 = crc16^0xa001;
    2d1a:	491f      	ldr	r1, [pc, #124]	; (2d98 <updateDecode.part.0+0xb8>)
E:\2017-2018\03_Graduation Project\04_Software\05_Wangshi\02_6220\06_UpdateSoftware-180714\01_UEBootloader\KL36_Bios-180714\Debug/../04_UserBoard/ueupdate/ueupdate.c:357
	crc16 = 0xffff;
    2d1c:	4b1f      	ldr	r3, [pc, #124]	; (2d9c <updateDecode.part.0+0xbc>)
    2d1e:	1d42      	adds	r2, r0, #5
E:\2017-2018\03_Graduation Project\04_Software\05_Wangshi\02_6220\06_UpdateSoftware-180714\01_UEBootloader\KL36_Bios-180714\Debug/../04_UserBoard/ueupdate/ueupdate.c:360
		crc16 = ptr[i]^crc16;
    2d20:	7814      	ldrb	r4, [r2, #0]
    2d22:	4063      	eors	r3, r4
    2d24:	2408      	movs	r4, #8
E:\2017-2018\03_Graduation Project\04_Software\05_Wangshi\02_6220\06_UpdateSoftware-180714\01_UEBootloader\KL36_Bios-180714\Debug/../04_UserBoard/ueupdate/ueupdate.c:363
			tmp = crc16 & 0x0001;
    2d26:	0035      	movs	r5, r6
    2d28:	401d      	ands	r5, r3
E:\2017-2018\03_Graduation Project\04_Software\05_Wangshi\02_6220\06_UpdateSoftware-180714\01_UEBootloader\KL36_Bios-180714\Debug/../04_UserBoard/ueupdate/ueupdate.c:364
			crc16 = crc16>>1;
    2d2a:	085b      	lsrs	r3, r3, #1
E:\2017-2018\03_Graduation Project\04_Software\05_Wangshi\02_6220\06_UpdateSoftware-180714\01_UEBootloader\KL36_Bios-180714\Debug/../04_UserBoard/ueupdate/ueupdate.c:365
			if(tmp)
    2d2c:	2d00      	cmp	r5, #0
    2d2e:	d001      	beq.n	2d34 <updateDecode.part.0+0x54>
E:\2017-2018\03_Graduation Project\04_Software\05_Wangshi\02_6220\06_UpdateSoftware-180714\01_UEBootloader\KL36_Bios-180714\Debug/../04_UserBoard/ueupdate/ueupdate.c:366
				crc16 = crc16^0xa001;
    2d30:	404b      	eors	r3, r1
    2d32:	b29b      	uxth	r3, r3
    2d34:	3c01      	subs	r4, #1
    2d36:	b2a4      	uxth	r4, r4
E:\2017-2018\03_Graduation Project\04_Software\05_Wangshi\02_6220\06_UpdateSoftware-180714\01_UEBootloader\KL36_Bios-180714\Debug/../04_UserBoard/ueupdate/ueupdate.c:361
		for(j = 0;j < 8;j++)
    2d38:	2c00      	cmp	r4, #0
    2d3a:	d1f4      	bne.n	2d26 <updateDecode.part.0+0x46>
    2d3c:	3201      	adds	r2, #1
E:\2017-2018\03_Graduation Project\04_Software\05_Wangshi\02_6220\06_UpdateSoftware-180714\01_UEBootloader\KL36_Bios-180714\Debug/../04_UserBoard/ueupdate/ueupdate.c:358
	for(i = 0;i < len;i++)
    2d3e:	42ba      	cmp	r2, r7
    2d40:	d1ee      	bne.n	2d20 <updateDecode.part.0+0x40>
    2d42:	0a1d      	lsrs	r5, r3, #8
    2d44:	b2db      	uxtb	r3, r3
updateDecode():
E:\2017-2018\03_Graduation Project\04_Software\05_Wangshi\02_6220\06_UpdateSoftware-180714\01_UEBootloader\KL36_Bios-180714\Debug/../04_UserBoard/ueupdate/ueupdate.c:328
	if(CRC[0] != frame[frameLen-4] || CRC[1] != frame[frameLen-3])//CRC
    2d46:	4662      	mov	r2, ip
    2d48:	1882      	adds	r2, r0, r2
    2d4a:	1f11      	subs	r1, r2, #4
    2d4c:	780c      	ldrb	r4, [r1, #0]
E:\2017-2018\03_Graduation Project\04_Software\05_Wangshi\02_6220\06_UpdateSoftware-180714\01_UEBootloader\KL36_Bios-180714\Debug/../04_UserBoard/ueupdate/ueupdate.c:330
		rv = 2;
    2d4e:	2102      	movs	r1, #2
E:\2017-2018\03_Graduation Project\04_Software\05_Wangshi\02_6220\06_UpdateSoftware-180714\01_UEBootloader\KL36_Bios-180714\Debug/../04_UserBoard/ueupdate/ueupdate.c:328
	if(CRC[0] != frame[frameLen-4] || CRC[1] != frame[frameLen-3])//CRC
    2d50:	42ac      	cmp	r4, r5
    2d52:	d117      	bne.n	2d84 <updateDecode.part.0+0xa4>
    2d54:	1ed4      	subs	r4, r2, #3
    2d56:	7824      	ldrb	r4, [r4, #0]
    2d58:	429c      	cmp	r4, r3
    2d5a:	d113      	bne.n	2d84 <updateDecode.part.0+0xa4>
E:\2017-2018\03_Graduation Project\04_Software\05_Wangshi\02_6220\06_UpdateSoftware-180714\01_UEBootloader\KL36_Bios-180714\Debug/../04_UserBoard/ueupdate/ueupdate.c:334
	if(frame[frameLen-2] != FrameTaiH || frame[frameLen-1] != FrameTaiL)//
    2d5c:	1e93      	subs	r3, r2, #2
    2d5e:	781b      	ldrb	r3, [r3, #0]
E:\2017-2018\03_Graduation Project\04_Software\05_Wangshi\02_6220\06_UpdateSoftware-180714\01_UEBootloader\KL36_Bios-180714\Debug/../04_UserBoard/ueupdate/ueupdate.c:336
		rv = 3;
    2d60:	3101      	adds	r1, #1
E:\2017-2018\03_Graduation Project\04_Software\05_Wangshi\02_6220\06_UpdateSoftware-180714\01_UEBootloader\KL36_Bios-180714\Debug/../04_UserBoard/ueupdate/ueupdate.c:334
	if(frame[frameLen-2] != FrameTaiH || frame[frameLen-1] != FrameTaiL)//
    2d62:	2b43      	cmp	r3, #67	; 0x43
    2d64:	d10e      	bne.n	2d84 <updateDecode.part.0+0xa4>
    2d66:	3a01      	subs	r2, #1
    2d68:	7813      	ldrb	r3, [r2, #0]
    2d6a:	2b43      	cmp	r3, #67	; 0x43
    2d6c:	d10a      	bne.n	2d84 <updateDecode.part.0+0xa4>
E:\2017-2018\03_Graduation Project\04_Software\05_Wangshi\02_6220\06_UpdateSoftware-180714\01_UEBootloader\KL36_Bios-180714\Debug/../04_UserBoard/ueupdate/ueupdate.c:325
	crc = updatecrc16(frame+5,*len);
    2d6e:	1d41      	adds	r1, r0, #5
E:\2017-2018\03_Graduation Project\04_Software\05_Wangshi\02_6220\06_UpdateSoftware-180714\01_UEBootloader\KL36_Bios-180714\Debug/../04_UserBoard/ueupdate/ueupdate.c:340
	memcpy(data,frame+5,*len);
    2d70:	464a      	mov	r2, r9
    2d72:	4640      	mov	r0, r8
    2d74:	f002 fd4a 	bl	580c <memcpy>
E:\2017-2018\03_Graduation Project\04_Software\05_Wangshi\02_6220\06_UpdateSoftware-180714\01_UEBootloader\KL36_Bios-180714\Debug/../04_UserBoard/ueupdate/ueupdate.c:341
	data[*len] = 0;
    2d78:	4653      	mov	r3, sl
    2d7a:	4641      	mov	r1, r8
    2d7c:	2200      	movs	r2, #0
    2d7e:	881b      	ldrh	r3, [r3, #0]
    2d80:	54ca      	strb	r2, [r1, r3]
E:\2017-2018\03_Graduation Project\04_Software\05_Wangshi\02_6220\06_UpdateSoftware-180714\01_UEBootloader\KL36_Bios-180714\Debug/../04_UserBoard/ueupdate/ueupdate.c:312
	rv = 0;  //0
    2d82:	2100      	movs	r1, #0
E:\2017-2018\03_Graduation Project\04_Software\05_Wangshi\02_6220\06_UpdateSoftware-180714\01_UEBootloader\KL36_Bios-180714\Debug/../04_UserBoard/ueupdate/ueupdate.c:345
}
    2d84:	0008      	movs	r0, r1
    2d86:	bc1c      	pop	{r2, r3, r4}
    2d88:	4690      	mov	r8, r2
    2d8a:	4699      	mov	r9, r3
    2d8c:	46a2      	mov	sl, r4
    2d8e:	bdf0      	pop	{r4, r5, r6, r7, pc}
updatecrc16():
E:\2017-2018\03_Graduation Project\04_Software\05_Wangshi\02_6220\06_UpdateSoftware-180714\01_UEBootloader\KL36_Bios-180714\Debug/../04_UserBoard/ueupdate/ueupdate.c:358
	for(i = 0;i < len;i++)
    2d90:	23ff      	movs	r3, #255	; 0xff
    2d92:	25ff      	movs	r5, #255	; 0xff
    2d94:	e7d7      	b.n	2d46 <updateDecode.part.0+0x66>
    2d96:	46c0      	nop			; (mov r8, r8)
    2d98:	ffffa001 	.word	0xffffa001
    2d9c:	0000ffff 	.word	0x0000ffff

00002da0 <ueupdate_init>:
ueupdate_init():
E:\2017-2018\03_Graduation Project\04_Software\05_Wangshi\02_6220\06_UpdateSoftware-180714\01_UEBootloader\KL36_Bios-180714\Debug/../04_UserBoard/ueupdate/ueupdate.c:44
	uSectNo = userSector;  //
    2da0:	4b09      	ldr	r3, [pc, #36]	; (2dc8 <ueupdate_init+0x28>)
E:\2017-2018\03_Graduation Project\04_Software\05_Wangshi\02_6220\06_UpdateSoftware-180714\01_UEBootloader\KL36_Bios-180714\Debug/../04_UserBoard/ueupdate/ueupdate.c:45
	uFrameNum = 0;         //0
    2da2:	4a0a      	ldr	r2, [pc, #40]	; (2dcc <ueupdate_init+0x2c>)
E:\2017-2018\03_Graduation Project\04_Software\05_Wangshi\02_6220\06_UpdateSoftware-180714\01_UEBootloader\KL36_Bios-180714\Debug/../04_UserBoard/ueupdate/ueupdate.c:44
	uSectNo = userSector;  //
    2da4:	7018      	strb	r0, [r3, #0]
E:\2017-2018\03_Graduation Project\04_Software\05_Wangshi\02_6220\06_UpdateSoftware-180714\01_UEBootloader\KL36_Bios-180714\Debug/../04_UserBoard/ueupdate/ueupdate.c:45
	uFrameNum = 0;         //0
    2da6:	2300      	movs	r3, #0
    2da8:	8013      	strh	r3, [r2, #0]
E:\2017-2018\03_Graduation Project\04_Software\05_Wangshi\02_6220\06_UpdateSoftware-180714\01_UEBootloader\KL36_Bios-180714\Debug/../04_UserBoard/ueupdate/ueupdate.c:46
	uCurFrame = 0;         //0
    2daa:	4a09      	ldr	r2, [pc, #36]	; (2dd0 <ueupdate_init+0x30>)
    2dac:	8013      	strh	r3, [r2, #0]
E:\2017-2018\03_Graduation Project\04_Software\05_Wangshi\02_6220\06_UpdateSoftware-180714\01_UEBootloader\KL36_Bios-180714\Debug/../04_UserBoard/ueupdate/ueupdate.c:47
	uBackOrder = 0;        //0
    2dae:	2200      	movs	r2, #0
    2db0:	4b08      	ldr	r3, [pc, #32]	; (2dd4 <ueupdate_init+0x34>)
    2db2:	701a      	strb	r2, [r3, #0]
    2db4:	4b08      	ldr	r3, [pc, #32]	; (2dd8 <ueupdate_init+0x38>)
E:\2017-2018\03_Graduation Project\04_Software\05_Wangshi\02_6220\06_UpdateSoftware-180714\01_UEBootloader\KL36_Bios-180714\Debug/../04_UserBoard/ueupdate/ueupdate.c:49
		uCheck[i] = 0;     //0
    2db6:	2200      	movs	r2, #0
    2db8:	0019      	movs	r1, r3
    2dba:	3114      	adds	r1, #20
E:\2017-2018\03_Graduation Project\04_Software\05_Wangshi\02_6220\06_UpdateSoftware-180714\01_UEBootloader\KL36_Bios-180714\Debug/../04_UserBoard/ueupdate/ueupdate.c:49 (discriminator 3)
    2dbc:	701a      	strb	r2, [r3, #0]
    2dbe:	3301      	adds	r3, #1
E:\2017-2018\03_Graduation Project\04_Software\05_Wangshi\02_6220\06_UpdateSoftware-180714\01_UEBootloader\KL36_Bios-180714\Debug/../04_UserBoard/ueupdate/ueupdate.c:48 (discriminator 3)
	for(i = 0;i < sizeof(uCheck);i++)
    2dc0:	428b      	cmp	r3, r1
    2dc2:	d1fb      	bne.n	2dbc <ueupdate_init+0x1c>
E:\2017-2018\03_Graduation Project\04_Software\05_Wangshi\02_6220\06_UpdateSoftware-180714\01_UEBootloader\KL36_Bios-180714\Debug/../04_UserBoard/ueupdate/ueupdate.c:50
}
    2dc4:	4770      	bx	lr
    2dc6:	46c0      	nop			; (mov r8, r8)
    2dc8:	1ffffcb8 	.word	0x1ffffcb8
    2dcc:	1ffffcb4 	.word	0x1ffffcb4
    2dd0:	1ffffcb6 	.word	0x1ffffcb6
    2dd4:	1ffffcd4 	.word	0x1ffffcd4
    2dd8:	1ffffcc0 	.word	0x1ffffcc0

00002ddc <ueupdate_check>:
ueupdate_check():
E:\2017-2018\03_Graduation Project\04_Software\05_Wangshi\02_6220\06_UpdateSoftware-180714\01_UEBootloader\KL36_Bios-180714\Debug/../04_UserBoard/ueupdate/ueupdate.c:236
{
    2ddc:	b5f0      	push	{r4, r5, r6, r7, lr}
    2dde:	464f      	mov	r7, r9
    2de0:	46d6      	mov	lr, sl
    2de2:	4646      	mov	r6, r8
E:\2017-2018\03_Graduation Project\04_Software\05_Wangshi\02_6220\06_UpdateSoftware-180714\01_UEBootloader\KL36_Bios-180714\Debug/../04_UserBoard/ueupdate/ueupdate.c:243
	for(i = 0;i < uFrameNum - 1;i++)
    2de4:	4b1b      	ldr	r3, [pc, #108]	; (2e54 <ueupdate_check+0x78>)
E:\2017-2018\03_Graduation Project\04_Software\05_Wangshi\02_6220\06_UpdateSoftware-180714\01_UEBootloader\KL36_Bios-180714\Debug/../04_UserBoard/ueupdate/ueupdate.c:236
{
    2de6:	b5c0      	push	{r6, r7, lr}
E:\2017-2018\03_Graduation Project\04_Software\05_Wangshi\02_6220\06_UpdateSoftware-180714\01_UEBootloader\KL36_Bios-180714\Debug/../04_UserBoard/ueupdate/ueupdate.c:243
	for(i = 0;i < uFrameNum - 1;i++)
    2de8:	881d      	ldrh	r5, [r3, #0]
E:\2017-2018\03_Graduation Project\04_Software\05_Wangshi\02_6220\06_UpdateSoftware-180714\01_UEBootloader\KL36_Bios-180714\Debug/../04_UserBoard/ueupdate/ueupdate.c:236
{
    2dea:	b096      	sub	sp, #88	; 0x58
E:\2017-2018\03_Graduation Project\04_Software\05_Wangshi\02_6220\06_UpdateSoftware-180714\01_UEBootloader\KL36_Bios-180714\Debug/../04_UserBoard/ueupdate/ueupdate.c:243
	for(i = 0;i < uFrameNum - 1;i++)
    2dec:	3d01      	subs	r5, #1
E:\2017-2018\03_Graduation Project\04_Software\05_Wangshi\02_6220\06_UpdateSoftware-180714\01_UEBootloader\KL36_Bios-180714\Debug/../04_UserBoard/ueupdate/ueupdate.c:236
{
    2dee:	4681      	mov	r9, r0
E:\2017-2018\03_Graduation Project\04_Software\05_Wangshi\02_6220\06_UpdateSoftware-180714\01_UEBootloader\KL36_Bios-180714\Debug/../04_UserBoard/ueupdate/ueupdate.c:243
	for(i = 0;i < uFrameNum - 1;i++)
    2df0:	2d00      	cmp	r5, #0
    2df2:	dd2b      	ble.n	2e4c <ueupdate_check+0x70>
    2df4:	4a18      	ldr	r2, [pc, #96]	; (2e58 <ueupdate_check+0x7c>)
    2df6:	2300      	movs	r3, #0
    2df8:	4692      	mov	sl, r2
flagGet():
E:\2017-2018\03_Graduation Project\04_Software\05_Wangshi\02_6220\06_UpdateSoftware-180714\01_UEBootloader\KL36_Bios-180714\Debug/../04_UserBoard/ueupdate/ueupdate.c:405
	uint_8 j;

	i = flag/8;  //
	j = flag%8;  //

	return flagBuf[i] & (1 << j);
    2dfa:	2201      	movs	r2, #1
ueupdate_check():
E:\2017-2018\03_Graduation Project\04_Software\05_Wangshi\02_6220\06_UpdateSoftware-180714\01_UEBootloader\KL36_Bios-180714\Debug/../04_UserBoard/ueupdate/ueupdate.c:242
	cdata.loseNum = 0;
    2dfc:	2000      	movs	r0, #0
flagGet():
E:\2017-2018\03_Graduation Project\04_Software\05_Wangshi\02_6220\06_UpdateSoftware-180714\01_UEBootloader\KL36_Bios-180714\Debug/../04_UserBoard/ueupdate/ueupdate.c:403
	j = flag%8;  //
    2dfe:	2707      	movs	r7, #7
E:\2017-2018\03_Graduation Project\04_Software\05_Wangshi\02_6220\06_UpdateSoftware-180714\01_UEBootloader\KL36_Bios-180714\Debug/../04_UserBoard/ueupdate/ueupdate.c:405
	return flagBuf[i] & (1 << j);
    2e00:	4694      	mov	ip, r2
    2e02:	a901      	add	r1, sp, #4
    2e04:	003c      	movs	r4, r7
    2e06:	401c      	ands	r4, r3
    2e08:	46a0      	mov	r8, r4
    2e0a:	4664      	mov	r4, ip
    2e0c:	4646      	mov	r6, r8
    2e0e:	40b4      	lsls	r4, r6
    2e10:	46a0      	mov	r8, r4
    2e12:	4654      	mov	r4, sl
    2e14:	08da      	lsrs	r2, r3, #3
    2e16:	5ca2      	ldrb	r2, [r4, r2]
ueupdate_check():
E:\2017-2018\03_Graduation Project\04_Software\05_Wangshi\02_6220\06_UpdateSoftware-180714\01_UEBootloader\KL36_Bios-180714\Debug/../04_UserBoard/ueupdate/ueupdate.c:245
		if(flagGet(uCheck,i) == 0)  //
    2e18:	4644      	mov	r4, r8
    2e1a:	4214      	tst	r4, r2
    2e1c:	d106      	bne.n	2e2c <ueupdate_check+0x50>
E:\2017-2018\03_Graduation Project\04_Software\05_Wangshi\02_6220\06_UpdateSoftware-180714\01_UEBootloader\KL36_Bios-180714\Debug/../04_UserBoard/ueupdate/ueupdate.c:247
			cdata.loseFrame[cdata.loseNum] = i;
    2e1e:	0042      	lsls	r2, r0, #1
    2e20:	188a      	adds	r2, r1, r2
    2e22:	0a1c      	lsrs	r4, r3, #8
E:\2017-2018\03_Graduation Project\04_Software\05_Wangshi\02_6220\06_UpdateSoftware-180714\01_UEBootloader\KL36_Bios-180714\Debug/../04_UserBoard/ueupdate/ueupdate.c:248
			cdata.loseNum++;
    2e24:	3001      	adds	r0, #1
E:\2017-2018\03_Graduation Project\04_Software\05_Wangshi\02_6220\06_UpdateSoftware-180714\01_UEBootloader\KL36_Bios-180714\Debug/../04_UserBoard/ueupdate/ueupdate.c:247
			cdata.loseFrame[cdata.loseNum] = i;
    2e26:	70d3      	strb	r3, [r2, #3]
    2e28:	7114      	strb	r4, [r2, #4]
E:\2017-2018\03_Graduation Project\04_Software\05_Wangshi\02_6220\06_UpdateSoftware-180714\01_UEBootloader\KL36_Bios-180714\Debug/../04_UserBoard/ueupdate/ueupdate.c:248
			cdata.loseNum++;
    2e2a:	b2c0      	uxtb	r0, r0
E:\2017-2018\03_Graduation Project\04_Software\05_Wangshi\02_6220\06_UpdateSoftware-180714\01_UEBootloader\KL36_Bios-180714\Debug/../04_UserBoard/ueupdate/ueupdate.c:243 (discriminator 2)
	for(i = 0;i < uFrameNum - 1;i++)
    2e2c:	3301      	adds	r3, #1
    2e2e:	b29b      	uxth	r3, r3
    2e30:	42ab      	cmp	r3, r5
    2e32:	dbe7      	blt.n	2e04 <ueupdate_check+0x28>
E:\2017-2018\03_Graduation Project\04_Software\05_Wangshi\02_6220\06_UpdateSoftware-180714\01_UEBootloader\KL36_Bios-180714\Debug/../04_UserBoard/ueupdate/ueupdate.c:252
	return cdata;
    2e34:	7088      	strb	r0, [r1, #2]
    2e36:	2253      	movs	r2, #83	; 0x53
    2e38:	4648      	mov	r0, r9
    2e3a:	f002 fce7 	bl	580c <memcpy>
E:\2017-2018\03_Graduation Project\04_Software\05_Wangshi\02_6220\06_UpdateSoftware-180714\01_UEBootloader\KL36_Bios-180714\Debug/../04_UserBoard/ueupdate/ueupdate.c:253
}
    2e3e:	4648      	mov	r0, r9
    2e40:	b016      	add	sp, #88	; 0x58
    2e42:	bc1c      	pop	{r2, r3, r4}
    2e44:	4690      	mov	r8, r2
    2e46:	4699      	mov	r9, r3
    2e48:	46a2      	mov	sl, r4
    2e4a:	bdf0      	pop	{r4, r5, r6, r7, pc}
E:\2017-2018\03_Graduation Project\04_Software\05_Wangshi\02_6220\06_UpdateSoftware-180714\01_UEBootloader\KL36_Bios-180714\Debug/../04_UserBoard/ueupdate/ueupdate.c:242
	cdata.loseNum = 0;
    2e4c:	2000      	movs	r0, #0
    2e4e:	a901      	add	r1, sp, #4
    2e50:	e7f0      	b.n	2e34 <ueupdate_check+0x58>
    2e52:	46c0      	nop			; (mov r8, r8)
    2e54:	1ffffcb4 	.word	0x1ffffcb4
    2e58:	1ffffcc0 	.word	0x1ffffcc0

00002e5c <ueupdate_recv>:
ueupdate_recv():
E:\2017-2018\03_Graduation Project\04_Software\05_Wangshi\02_6220\06_UpdateSoftware-180714\01_UEBootloader\KL36_Bios-180714\Debug/../04_UserBoard/ueupdate/ueupdate.c:115
{
    2e5c:	b5f0      	push	{r4, r5, r6, r7, lr}
    2e5e:	4645      	mov	r5, r8
    2e60:	46de      	mov	lr, fp
    2e62:	4657      	mov	r7, sl
    2e64:	464e      	mov	r6, r9
E:\2017-2018\03_Graduation Project\04_Software\05_Wangshi\02_6220\06_UpdateSoftware-180714\01_UEBootloader\KL36_Bios-180714\Debug/../04_UserBoard/ueupdate/ueupdate.c:130
	uBackOrder = 0;  //
    2e66:	2300      	movs	r3, #0
E:\2017-2018\03_Graduation Project\04_Software\05_Wangshi\02_6220\06_UpdateSoftware-180714\01_UEBootloader\KL36_Bios-180714\Debug/../04_UserBoard/ueupdate/ueupdate.c:115
{
    2e68:	b5e0      	push	{r5, r6, r7, lr}
E:\2017-2018\03_Graduation Project\04_Software\05_Wangshi\02_6220\06_UpdateSoftware-180714\01_UEBootloader\KL36_Bios-180714\Debug/../04_UserBoard/ueupdate/ueupdate.c:130
	uBackOrder = 0;  //
    2e6a:	4d7f      	ldr	r5, [pc, #508]	; (3068 <ueupdate_recv+0x20c>)
E:\2017-2018\03_Graduation Project\04_Software\05_Wangshi\02_6220\06_UpdateSoftware-180714\01_UEBootloader\KL36_Bios-180714\Debug/../04_UserBoard/ueupdate/ueupdate.c:115
{
    2e6c:	4c7f      	ldr	r4, [pc, #508]	; (306c <ueupdate_recv+0x210>)
E:\2017-2018\03_Graduation Project\04_Software\05_Wangshi\02_6220\06_UpdateSoftware-180714\01_UEBootloader\KL36_Bios-180714\Debug/../04_UserBoard/ueupdate/ueupdate.c:130
	uBackOrder = 0;  //
    2e6e:	702b      	strb	r3, [r5, #0]
updateDecode():
E:\2017-2018\03_Graduation Project\04_Software\05_Wangshi\02_6220\06_UpdateSoftware-180714\01_UEBootloader\KL36_Bios-180714\Debug/../04_UserBoard/ueupdate/ueupdate.c:314
	if(frame[0] != FrameHeadH || frame[1] != FrameHeadL)//
    2e70:	7803      	ldrb	r3, [r0, #0]
ueupdate_recv():
E:\2017-2018\03_Graduation Project\04_Software\05_Wangshi\02_6220\06_UpdateSoftware-180714\01_UEBootloader\KL36_Bios-180714\Debug/../04_UserBoard/ueupdate/ueupdate.c:115
{
    2e72:	44a5      	add	sp, r4
updateDecode():
E:\2017-2018\03_Graduation Project\04_Software\05_Wangshi\02_6220\06_UpdateSoftware-180714\01_UEBootloader\KL36_Bios-180714\Debug/../04_UserBoard/ueupdate/ueupdate.c:314
	if(frame[0] != FrameHeadH || frame[1] != FrameHeadL)//
    2e74:	2b50      	cmp	r3, #80	; 0x50
    2e76:	d009      	beq.n	2e8c <ueupdate_recv+0x30>
ueupdate_recv():
E:\2017-2018\03_Graduation Project\04_Software\05_Wangshi\02_6220\06_UpdateSoftware-180714\01_UEBootloader\KL36_Bios-180714\Debug/../04_UserBoard/ueupdate/ueupdate.c:134
		rv = 1;                   //
    2e78:	2401      	movs	r4, #1
E:\2017-2018\03_Graduation Project\04_Software\05_Wangshi\02_6220\06_UpdateSoftware-180714\01_UEBootloader\KL36_Bios-180714\Debug/../04_UserBoard/ueupdate/ueupdate.c:226
}
    2e7a:	0020      	movs	r0, r4
    2e7c:	4b7c      	ldr	r3, [pc, #496]	; (3070 <ueupdate_recv+0x214>)
    2e7e:	449d      	add	sp, r3
    2e80:	bc3c      	pop	{r2, r3, r4, r5}
    2e82:	4690      	mov	r8, r2
    2e84:	4699      	mov	r9, r3
    2e86:	46a2      	mov	sl, r4
    2e88:	46ab      	mov	fp, r5
    2e8a:	bdf0      	pop	{r4, r5, r6, r7, pc}
updateDecode():
E:\2017-2018\03_Graduation Project\04_Software\05_Wangshi\02_6220\06_UpdateSoftware-180714\01_UEBootloader\KL36_Bios-180714\Debug/../04_UserBoard/ueupdate/ueupdate.c:314
	if(frame[0] != FrameHeadH || frame[1] != FrameHeadL)//
    2e8c:	7843      	ldrb	r3, [r0, #1]
    2e8e:	2b50      	cmp	r3, #80	; 0x50
    2e90:	d1f2      	bne.n	2e78 <ueupdate_recv+0x1c>
    2e92:	2159      	movs	r1, #89	; 0x59
    2e94:	330a      	adds	r3, #10
    2e96:	446b      	add	r3, sp
    2e98:	aa91      	add	r2, sp, #580	; 0x244
    2e9a:	4469      	add	r1, sp
    2e9c:	f7ff ff20 	bl	2ce0 <updateDecode.part.0>
    2ea0:	1e04      	subs	r4, r0, #0
ueupdate_recv():
E:\2017-2018\03_Graduation Project\04_Software\05_Wangshi\02_6220\06_UpdateSoftware-180714\01_UEBootloader\KL36_Bios-180714\Debug/../04_UserBoard/ueupdate/ueupdate.c:132
	if(updateDecode(buf,&order,opeData,&dlen))
    2ea2:	d1e9      	bne.n	2e78 <ueupdate_recv+0x1c>
E:\2017-2018\03_Graduation Project\04_Software\05_Wangshi\02_6220\06_UpdateSoftware-180714\01_UEBootloader\KL36_Bios-180714\Debug/../04_UserBoard/ueupdate/ueupdate.c:138
	switch(order)
    2ea4:	466b      	mov	r3, sp
    2ea6:	2259      	movs	r2, #89	; 0x59
    2ea8:	189b      	adds	r3, r3, r2
    2eaa:	781e      	ldrb	r6, [r3, #0]
    2eac:	2e01      	cmp	r6, #1
    2eae:	d013      	beq.n	2ed8 <ueupdate_recv+0x7c>
    2eb0:	2e00      	cmp	r6, #0
    2eb2:	d100      	bne.n	2eb6 <ueupdate_recv+0x5a>
    2eb4:	e088      	b.n	2fc8 <ueupdate_recv+0x16c>
    2eb6:	2e02      	cmp	r6, #2
    2eb8:	d063      	beq.n	2f82 <ueupdate_recv+0x126>
    2eba:	2e03      	cmp	r6, #3
    2ebc:	d15f      	bne.n	2f7e <ueupdate_recv+0x122>
E:\2017-2018\03_Graduation Project\04_Software\05_Wangshi\02_6220\06_UpdateSoftware-180714\01_UEBootloader\KL36_Bios-180714\Debug/../04_UserBoard/ueupdate/ueupdate.c:213
		if(ckdata.loseNum == 0)
    2ebe:	4b6d      	ldr	r3, [pc, #436]	; (3074 <ueupdate_recv+0x218>)
    2ec0:	789b      	ldrb	r3, [r3, #2]
    2ec2:	2b00      	cmp	r3, #0
    2ec4:	d1d9      	bne.n	2e7a <ueupdate_recv+0x1e>
E:\2017-2018\03_Graduation Project\04_Software\05_Wangshi\02_6220\06_UpdateSoftware-180714\01_UEBootloader\KL36_Bios-180714\Debug/../04_UserBoard/ueupdate/ueupdate.c:215
			flash_write(uSectNo,0,4,uMSP);
    2ec6:	4b6c      	ldr	r3, [pc, #432]	; (3078 <ueupdate_recv+0x21c>)
    2ec8:	2204      	movs	r2, #4
    2eca:	7818      	ldrb	r0, [r3, #0]
    2ecc:	2100      	movs	r1, #0
    2ece:	4b6b      	ldr	r3, [pc, #428]	; (307c <ueupdate_recv+0x220>)
    2ed0:	f002 fb32 	bl	5538 <flash_write>
E:\2017-2018\03_Graduation Project\04_Software\05_Wangshi\02_6220\06_UpdateSoftware-180714\01_UEBootloader\KL36_Bios-180714\Debug/../04_UserBoard/ueupdate/ueupdate.c:216
			rv = 3;  //
    2ed4:	2403      	movs	r4, #3
    2ed6:	e7d0      	b.n	2e7a <ueupdate_recv+0x1e>
E:\2017-2018\03_Graduation Project\04_Software\05_Wangshi\02_6220\06_UpdateSoftware-180714\01_UEBootloader\KL36_Bios-180714\Debug/../04_UserBoard/ueupdate/ueupdate.c:161
		if(dlen == sizeof(struct insertData))  //insertData
    2ed8:	466a      	mov	r2, sp
    2eda:	215a      	movs	r1, #90	; 0x5a
    2edc:	23f3      	movs	r3, #243	; 0xf3
    2ede:	1852      	adds	r2, r2, r1
    2ee0:	8812      	ldrh	r2, [r2, #0]
    2ee2:	005b      	lsls	r3, r3, #1
    2ee4:	429a      	cmp	r2, r3
    2ee6:	d1c8      	bne.n	2e7a <ueupdate_recv+0x1e>
E:\2017-2018\03_Graduation Project\04_Software\05_Wangshi\02_6220\06_UpdateSoftware-180714\01_UEBootloader\KL36_Bios-180714\Debug/../04_UserBoard/ueupdate/ueupdate.c:163
			memcpy(&insdata,opeData,dlen);//insertData
    2ee8:	ae17      	add	r6, sp, #92	; 0x5c
    2eea:	a991      	add	r1, sp, #580	; 0x244
    2eec:	0030      	movs	r0, r6
    2eee:	f002 fc8d 	bl	580c <memcpy>
E:\2017-2018\03_Graduation Project\04_Software\05_Wangshi\02_6220\06_UpdateSoftware-180714\01_UEBootloader\KL36_Bios-180714\Debug/../04_UserBoard/ueupdate/ueupdate.c:165
			if(insdata.frameNum != uFrameNum)
    2ef2:	4b63      	ldr	r3, [pc, #396]	; (3080 <ueupdate_recv+0x224>)
    2ef4:	8832      	ldrh	r2, [r6, #0]
    2ef6:	881b      	ldrh	r3, [r3, #0]
    2ef8:	429a      	cmp	r2, r3
    2efa:	d000      	beq.n	2efe <ueupdate_recv+0xa2>
    2efc:	e0a0      	b.n	3040 <ueupdate_recv+0x1e4>
E:\2017-2018\03_Graduation Project\04_Software\05_Wangshi\02_6220\06_UpdateSoftware-180714\01_UEBootloader\KL36_Bios-180714\Debug/../04_UserBoard/ueupdate/ueupdate.c:171
			if(insdata.operate == 1)  //
    2efe:	7933      	ldrb	r3, [r6, #4]
    2f00:	2b01      	cmp	r3, #1
    2f02:	d1ba      	bne.n	2e7a <ueupdate_recv+0x1e>
E:\2017-2018\03_Graduation Project\04_Software\05_Wangshi\02_6220\06_UpdateSoftware-180714\01_UEBootloader\KL36_Bios-180714\Debug/../04_UserBoard/ueupdate/ueupdate.c:174
				for(i = 0;i < insdata.insertNum;i++)
    2f04:	7973      	ldrb	r3, [r6, #5]
    2f06:	2b00      	cmp	r3, #0
    2f08:	d100      	bne.n	2f0c <ueupdate_recv+0xb0>
    2f0a:	e09b      	b.n	3044 <ueupdate_recv+0x1e8>
E:\2017-2018\03_Graduation Project\04_Software\05_Wangshi\02_6220\06_UpdateSoftware-180714\01_UEBootloader\KL36_Bios-180714\Debug/../04_UserBoard/ueupdate/ueupdate.c:178
						memcpy(uMSP,insdata.data,4);
    2f0c:	4b5b      	ldr	r3, [pc, #364]	; (307c <ueupdate_recv+0x220>)
E:\2017-2018\03_Graduation Project\04_Software\05_Wangshi\02_6220\06_UpdateSoftware-180714\01_UEBootloader\KL36_Bios-180714\Debug/../04_UserBoard/ueupdate/ueupdate.c:174
				for(i = 0;i < insdata.insertNum;i++)
    2f0e:	2700      	movs	r7, #0
E:\2017-2018\03_Graduation Project\04_Software\05_Wangshi\02_6220\06_UpdateSoftware-180714\01_UEBootloader\KL36_Bios-180714\Debug/../04_UserBoard/ueupdate/ueupdate.c:178
						memcpy(uMSP,insdata.data,4);
    2f10:	469a      	mov	sl, r3
    2f12:	2304      	movs	r3, #4
E:\2017-2018\03_Graduation Project\04_Software\05_Wangshi\02_6220\06_UpdateSoftware-180714\01_UEBootloader\KL36_Bios-180714\Debug/../04_UserBoard/ueupdate/ueupdate.c:173
				opeSumLen = 0;  //
    2f14:	46bb      	mov	fp, r7
E:\2017-2018\03_Graduation Project\04_Software\05_Wangshi\02_6220\06_UpdateSoftware-180714\01_UEBootloader\KL36_Bios-180714\Debug/../04_UserBoard/ueupdate/ueupdate.c:178
						memcpy(uMSP,insdata.data,4);
    2f16:	4699      	mov	r9, r3
    2f18:	e019      	b.n	2f4e <ueupdate_recv+0xf2>
E:\2017-2018\03_Graduation Project\04_Software\05_Wangshi\02_6220\06_UpdateSoftware-180714\01_UEBootloader\KL36_Bios-180714\Debug/../04_UserBoard/ueupdate/ueupdate.c:185
						opeTo = insdata.insertInfo[i*2];
    2f1a:	00bb      	lsls	r3, r7, #2
    2f1c:	18f3      	adds	r3, r6, r3
    2f1e:	88d8      	ldrh	r0, [r3, #6]
E:\2017-2018\03_Graduation Project\04_Software\05_Wangshi\02_6220\06_UpdateSoftware-180714\01_UEBootloader\KL36_Bios-180714\Debug/../04_UserBoard/ueupdate/ueupdate.c:186
						opeLen = insdata.insertInfo[i*2+1];
    2f20:	00bb      	lsls	r3, r7, #2
    2f22:	18f3      	adds	r3, r6, r3
    2f24:	891b      	ldrh	r3, [r3, #8]
    2f26:	4698      	mov	r8, r3
E:\2017-2018\03_Graduation Project\04_Software\05_Wangshi\02_6220\06_UpdateSoftware-180714\01_UEBootloader\KL36_Bios-180714\Debug/../04_UserBoard/ueupdate/ueupdate.c:191 (discriminator 2)
					flash_write(sect,offset,opeLen,insdata.data+opeSumLen);
    2f28:	23b2      	movs	r3, #178	; 0xb2
E:\2017-2018\03_Graduation Project\04_Software\05_Wangshi\02_6220\06_UpdateSoftware-180714\01_UEBootloader\KL36_Bios-180714\Debug/../04_UserBoard/ueupdate/ueupdate.c:190 (discriminator 2)
					offset = opeTo%1024;  //
    2f2a:	0581      	lsls	r1, r0, #22
E:\2017-2018\03_Graduation Project\04_Software\05_Wangshi\02_6220\06_UpdateSoftware-180714\01_UEBootloader\KL36_Bios-180714\Debug/../04_UserBoard/ueupdate/ueupdate.c:191 (discriminator 2)
					flash_write(sect,offset,opeLen,insdata.data+opeSumLen);
    2f2c:	446b      	add	r3, sp
    2f2e:	445b      	add	r3, fp
    2f30:	0d89      	lsrs	r1, r1, #22
    2f32:	0a80      	lsrs	r0, r0, #10
    2f34:	4642      	mov	r2, r8
    2f36:	f002 faff 	bl	5538 <flash_write>
E:\2017-2018\03_Graduation Project\04_Software\05_Wangshi\02_6220\06_UpdateSoftware-180714\01_UEBootloader\KL36_Bios-180714\Debug/../04_UserBoard/ueupdate/ueupdate.c:192 (discriminator 2)
					opeSumLen += opeLen;
    2f3a:	4643      	mov	r3, r8
    2f3c:	445b      	add	r3, fp
    2f3e:	b29b      	uxth	r3, r3
    2f40:	469b      	mov	fp, r3
E:\2017-2018\03_Graduation Project\04_Software\05_Wangshi\02_6220\06_UpdateSoftware-180714\01_UEBootloader\KL36_Bios-180714\Debug/../04_UserBoard/ueupdate/ueupdate.c:174 (discriminator 2)
				for(i = 0;i < insdata.insertNum;i++)
    2f42:	3701      	adds	r7, #1
    2f44:	7973      	ldrb	r3, [r6, #5]
    2f46:	b2ff      	uxtb	r7, r7
    2f48:	42bb      	cmp	r3, r7
    2f4a:	d800      	bhi.n	2f4e <ueupdate_recv+0xf2>
    2f4c:	e07a      	b.n	3044 <ueupdate_recv+0x1e8>
E:\2017-2018\03_Graduation Project\04_Software\05_Wangshi\02_6220\06_UpdateSoftware-180714\01_UEBootloader\KL36_Bios-180714\Debug/../04_UserBoard/ueupdate/ueupdate.c:176
					if(insdata.curFrame == 1 && i == 0)  //mspFlash
    2f4e:	8873      	ldrh	r3, [r6, #2]
    2f50:	2b01      	cmp	r3, #1
    2f52:	d1e2      	bne.n	2f1a <ueupdate_recv+0xbe>
E:\2017-2018\03_Graduation Project\04_Software\05_Wangshi\02_6220\06_UpdateSoftware-180714\01_UEBootloader\KL36_Bios-180714\Debug/../04_UserBoard/ueupdate/ueupdate.c:176 (discriminator 1)
    2f54:	2f00      	cmp	r7, #0
    2f56:	d1e0      	bne.n	2f1a <ueupdate_recv+0xbe>
E:\2017-2018\03_Graduation Project\04_Software\05_Wangshi\02_6220\06_UpdateSoftware-180714\01_UEBootloader\KL36_Bios-180714\Debug/../04_UserBoard/ueupdate/ueupdate.c:178
						memcpy(uMSP,insdata.data,4);
    2f58:	33b1      	adds	r3, #177	; 0xb1
    2f5a:	446b      	add	r3, sp
    2f5c:	0019      	movs	r1, r3
    2f5e:	464a      	mov	r2, r9
    2f60:	4650      	mov	r0, sl
    2f62:	f002 fc53 	bl	580c <memcpy>
E:\2017-2018\03_Graduation Project\04_Software\05_Wangshi\02_6220\06_UpdateSoftware-180714\01_UEBootloader\KL36_Bios-180714\Debug/../04_UserBoard/ueupdate/ueupdate.c:180
						opeLen = insdata.insertInfo[i*2+1] - 4;
    2f66:	8933      	ldrh	r3, [r6, #8]
E:\2017-2018\03_Graduation Project\04_Software\05_Wangshi\02_6220\06_UpdateSoftware-180714\01_UEBootloader\KL36_Bios-180714\Debug/../04_UserBoard/ueupdate/ueupdate.c:179
						opeTo = insdata.insertInfo[i*2] + 4;
    2f68:	88f0      	ldrh	r0, [r6, #6]
E:\2017-2018\03_Graduation Project\04_Software\05_Wangshi\02_6220\06_UpdateSoftware-180714\01_UEBootloader\KL36_Bios-180714\Debug/../04_UserBoard/ueupdate/ueupdate.c:180
						opeLen = insdata.insertInfo[i*2+1] - 4;
    2f6a:	3b04      	subs	r3, #4
    2f6c:	b29b      	uxth	r3, r3
    2f6e:	4698      	mov	r8, r3
E:\2017-2018\03_Graduation Project\04_Software\05_Wangshi\02_6220\06_UpdateSoftware-180714\01_UEBootloader\KL36_Bios-180714\Debug/../04_UserBoard/ueupdate/ueupdate.c:181
						opeSumLen += 4;
    2f70:	465b      	mov	r3, fp
    2f72:	3304      	adds	r3, #4
E:\2017-2018\03_Graduation Project\04_Software\05_Wangshi\02_6220\06_UpdateSoftware-180714\01_UEBootloader\KL36_Bios-180714\Debug/../04_UserBoard/ueupdate/ueupdate.c:179
						opeTo = insdata.insertInfo[i*2] + 4;
    2f74:	3004      	adds	r0, #4
E:\2017-2018\03_Graduation Project\04_Software\05_Wangshi\02_6220\06_UpdateSoftware-180714\01_UEBootloader\KL36_Bios-180714\Debug/../04_UserBoard/ueupdate/ueupdate.c:181
						opeSumLen += 4;
    2f76:	b29b      	uxth	r3, r3
E:\2017-2018\03_Graduation Project\04_Software\05_Wangshi\02_6220\06_UpdateSoftware-180714\01_UEBootloader\KL36_Bios-180714\Debug/../04_UserBoard/ueupdate/ueupdate.c:179
						opeTo = insdata.insertInfo[i*2] + 4;
    2f78:	b280      	uxth	r0, r0
E:\2017-2018\03_Graduation Project\04_Software\05_Wangshi\02_6220\06_UpdateSoftware-180714\01_UEBootloader\KL36_Bios-180714\Debug/../04_UserBoard/ueupdate/ueupdate.c:181
						opeSumLen += 4;
    2f7a:	469b      	mov	fp, r3
    2f7c:	e7d4      	b.n	2f28 <ueupdate_recv+0xcc>
E:\2017-2018\03_Graduation Project\04_Software\05_Wangshi\02_6220\06_UpdateSoftware-180714\01_UEBootloader\KL36_Bios-180714\Debug/../04_UserBoard/ueupdate/ueupdate.c:220
		rv = 4;  //
    2f7e:	2404      	movs	r4, #4
    2f80:	e77b      	b.n	2e7a <ueupdate_recv+0x1e>
E:\2017-2018\03_Graduation Project\04_Software\05_Wangshi\02_6220\06_UpdateSoftware-180714\01_UEBootloader\KL36_Bios-180714\Debug/../04_UserBoard/ueupdate/ueupdate.c:203
		if(dlen == sizeof(struct insertData))
    2f82:	466a      	mov	r2, sp
    2f84:	215a      	movs	r1, #90	; 0x5a
    2f86:	23f3      	movs	r3, #243	; 0xf3
    2f88:	1852      	adds	r2, r2, r1
    2f8a:	8812      	ldrh	r2, [r2, #0]
    2f8c:	005b      	lsls	r3, r3, #1
    2f8e:	429a      	cmp	r2, r3
    2f90:	d000      	beq.n	2f94 <ueupdate_recv+0x138>
    2f92:	e772      	b.n	2e7a <ueupdate_recv+0x1e>
E:\2017-2018\03_Graduation Project\04_Software\05_Wangshi\02_6220\06_UpdateSoftware-180714\01_UEBootloader\KL36_Bios-180714\Debug/../04_UserBoard/ueupdate/ueupdate.c:205
			memcpy(&insdata,opeData,dlen);//insertData
    2f94:	af17      	add	r7, sp, #92	; 0x5c
    2f96:	a991      	add	r1, sp, #580	; 0x244
    2f98:	0038      	movs	r0, r7
    2f9a:	f002 fc37 	bl	580c <memcpy>
E:\2017-2018\03_Graduation Project\04_Software\05_Wangshi\02_6220\06_UpdateSoftware-180714\01_UEBootloader\KL36_Bios-180714\Debug/../04_UserBoard/ueupdate/ueupdate.c:206
			flagSet(uCheck,insdata.curFrame);
    2f9e:	887b      	ldrh	r3, [r7, #2]
flagSet():
E:\2017-2018\03_Graduation Project\04_Software\05_Wangshi\02_6220\06_UpdateSoftware-180714\01_UEBootloader\KL36_Bios-180714\Debug/../04_UserBoard/ueupdate/ueupdate.c:388
	flagBuf[i] |= (1 << j);  //
    2fa0:	4938      	ldr	r1, [pc, #224]	; (3084 <ueupdate_recv+0x228>)
    2fa2:	08da      	lsrs	r2, r3, #3
    2fa4:	1852      	adds	r2, r2, r1
    2fa6:	2107      	movs	r1, #7
    2fa8:	4019      	ands	r1, r3
    2faa:	2301      	movs	r3, #1
    2fac:	408b      	lsls	r3, r1
    2fae:	7811      	ldrb	r1, [r2, #0]
ueupdate_recv():
E:\2017-2018\03_Graduation Project\04_Software\05_Wangshi\02_6220\06_UpdateSoftware-180714\01_UEBootloader\KL36_Bios-180714\Debug/../04_UserBoard/ueupdate/ueupdate.c:207
			ckdata = ueupdate_check();
    2fb0:	4668      	mov	r0, sp
flagSet():
E:\2017-2018\03_Graduation Project\04_Software\05_Wangshi\02_6220\06_UpdateSoftware-180714\01_UEBootloader\KL36_Bios-180714\Debug/../04_UserBoard/ueupdate/ueupdate.c:388
	flagBuf[i] |= (1 << j);  //
    2fb2:	430b      	orrs	r3, r1
    2fb4:	7013      	strb	r3, [r2, #0]
ueupdate_recv():
E:\2017-2018\03_Graduation Project\04_Software\05_Wangshi\02_6220\06_UpdateSoftware-180714\01_UEBootloader\KL36_Bios-180714\Debug/../04_UserBoard/ueupdate/ueupdate.c:207
			ckdata = ueupdate_check();
    2fb6:	f7ff ff11 	bl	2ddc <ueupdate_check>
    2fba:	2253      	movs	r2, #83	; 0x53
    2fbc:	4669      	mov	r1, sp
    2fbe:	482d      	ldr	r0, [pc, #180]	; (3074 <ueupdate_recv+0x218>)
    2fc0:	f002 fc24 	bl	580c <memcpy>
E:\2017-2018\03_Graduation Project\04_Software\05_Wangshi\02_6220\06_UpdateSoftware-180714\01_UEBootloader\KL36_Bios-180714\Debug/../04_UserBoard/ueupdate/ueupdate.c:209
			uBackOrder = 2;  //
    2fc4:	702e      	strb	r6, [r5, #0]
    2fc6:	e758      	b.n	2e7a <ueupdate_recv+0x1e>
E:\2017-2018\03_Graduation Project\04_Software\05_Wangshi\02_6220\06_UpdateSoftware-180714\01_UEBootloader\KL36_Bios-180714\Debug/../04_UserBoard/ueupdate/ueupdate.c:142
		for(i = uSectNo;i < 64;i++) flash_erase(i);
    2fc8:	4b2b      	ldr	r3, [pc, #172]	; (3078 <ueupdate_recv+0x21c>)
    2fca:	781e      	ldrb	r6, [r3, #0]
    2fcc:	2e3f      	cmp	r6, #63	; 0x3f
    2fce:	d808      	bhi.n	2fe2 <ueupdate_recv+0x186>
    2fd0:	b2b6      	uxth	r6, r6
E:\2017-2018\03_Graduation Project\04_Software\05_Wangshi\02_6220\06_UpdateSoftware-180714\01_UEBootloader\KL36_Bios-180714\Debug/../04_UserBoard/ueupdate/ueupdate.c:142 (discriminator 3)
    2fd2:	0030      	movs	r0, r6
    2fd4:	3601      	adds	r6, #1
    2fd6:	b2b6      	uxth	r6, r6
    2fd8:	f002 fa6e 	bl	54b8 <flash_erase>
    2fdc:	b2f3      	uxtb	r3, r6
    2fde:	2b3f      	cmp	r3, #63	; 0x3f
    2fe0:	d9f7      	bls.n	2fd2 <ueupdate_recv+0x176>
    2fe2:	4e28      	ldr	r6, [pc, #160]	; (3084 <ueupdate_recv+0x228>)
E:\2017-2018\03_Graduation Project\04_Software\05_Wangshi\02_6220\06_UpdateSoftware-180714\01_UEBootloader\KL36_Bios-180714\Debug/../04_UserBoard/ueupdate/ueupdate.c:144
		for(i = 0;i < sizeof(uCheck);i++) uCheck[i] = 0;
    2fe4:	2200      	movs	r2, #0
    2fe6:	0031      	movs	r1, r6
    2fe8:	0033      	movs	r3, r6
    2fea:	3114      	adds	r1, #20
E:\2017-2018\03_Graduation Project\04_Software\05_Wangshi\02_6220\06_UpdateSoftware-180714\01_UEBootloader\KL36_Bios-180714\Debug/../04_UserBoard/ueupdate/ueupdate.c:144 (discriminator 3)
    2fec:	701a      	strb	r2, [r3, #0]
    2fee:	3301      	adds	r3, #1
    2ff0:	4299      	cmp	r1, r3
    2ff2:	d1fb      	bne.n	2fec <ueupdate_recv+0x190>
E:\2017-2018\03_Graduation Project\04_Software\05_Wangshi\02_6220\06_UpdateSoftware-180714\01_UEBootloader\KL36_Bios-180714\Debug/../04_UserBoard/ueupdate/ueupdate.c:146
		if(dlen == sizeof(struct insertData))
    2ff4:	466a      	mov	r2, sp
    2ff6:	215a      	movs	r1, #90	; 0x5a
    2ff8:	23f3      	movs	r3, #243	; 0xf3
    2ffa:	1852      	adds	r2, r2, r1
    2ffc:	8812      	ldrh	r2, [r2, #0]
    2ffe:	005b      	lsls	r3, r3, #1
    3000:	429a      	cmp	r2, r3
    3002:	d000      	beq.n	3006 <ueupdate_recv+0x1aa>
    3004:	e739      	b.n	2e7a <ueupdate_recv+0x1e>
E:\2017-2018\03_Graduation Project\04_Software\05_Wangshi\02_6220\06_UpdateSoftware-180714\01_UEBootloader\KL36_Bios-180714\Debug/../04_UserBoard/ueupdate/ueupdate.c:149
			memcpy(&insdata,opeData,dlen);//insertData
    3006:	a991      	add	r1, sp, #580	; 0x244
    3008:	a817      	add	r0, sp, #92	; 0x5c
    300a:	f002 fbff 	bl	580c <memcpy>
E:\2017-2018\03_Graduation Project\04_Software\05_Wangshi\02_6220\06_UpdateSoftware-180714\01_UEBootloader\KL36_Bios-180714\Debug/../04_UserBoard/ueupdate/ueupdate.c:151
			uFrameNum = insdata.frameNum;
    300e:	225c      	movs	r2, #92	; 0x5c
    3010:	466b      	mov	r3, sp
    3012:	189b      	adds	r3, r3, r2
    3014:	881a      	ldrh	r2, [r3, #0]
    3016:	4b1a      	ldr	r3, [pc, #104]	; (3080 <ueupdate_recv+0x224>)
    3018:	801a      	strh	r2, [r3, #0]
E:\2017-2018\03_Graduation Project\04_Software\05_Wangshi\02_6220\06_UpdateSoftware-180714\01_UEBootloader\KL36_Bios-180714\Debug/../04_UserBoard/ueupdate/ueupdate.c:153
			uCurFrame = insdata.curFrame;
    301a:	225e      	movs	r2, #94	; 0x5e
    301c:	466b      	mov	r3, sp
    301e:	189b      	adds	r3, r3, r2
    3020:	881a      	ldrh	r2, [r3, #0]
    3022:	4b19      	ldr	r3, [pc, #100]	; (3088 <ueupdate_recv+0x22c>)
    3024:	801a      	strh	r2, [r3, #0]
flagSet():
E:\2017-2018\03_Graduation Project\04_Software\05_Wangshi\02_6220\06_UpdateSoftware-180714\01_UEBootloader\KL36_Bios-180714\Debug/../04_UserBoard/ueupdate/ueupdate.c:388
	flagBuf[i] |= (1 << j);  //
    3026:	08d3      	lsrs	r3, r2, #3
    3028:	18f6      	adds	r6, r6, r3
    302a:	2307      	movs	r3, #7
    302c:	4013      	ands	r3, r2
    302e:	2201      	movs	r2, #1
    3030:	0011      	movs	r1, r2
    3032:	4099      	lsls	r1, r3
    3034:	000b      	movs	r3, r1
    3036:	7831      	ldrb	r1, [r6, #0]
ueupdate_recv():
E:\2017-2018\03_Graduation Project\04_Software\05_Wangshi\02_6220\06_UpdateSoftware-180714\01_UEBootloader\KL36_Bios-180714\Debug/../04_UserBoard/ueupdate/ueupdate.c:156
			uBackOrder = 1;
    3038:	702a      	strb	r2, [r5, #0]
flagSet():
E:\2017-2018\03_Graduation Project\04_Software\05_Wangshi\02_6220\06_UpdateSoftware-180714\01_UEBootloader\KL36_Bios-180714\Debug/../04_UserBoard/ueupdate/ueupdate.c:388
	flagBuf[i] |= (1 << j);  //
    303a:	430b      	orrs	r3, r1
    303c:	7033      	strb	r3, [r6, #0]
    303e:	e71c      	b.n	2e7a <ueupdate_recv+0x1e>
ueupdate_recv():
E:\2017-2018\03_Graduation Project\04_Software\05_Wangshi\02_6220\06_UpdateSoftware-180714\01_UEBootloader\KL36_Bios-180714\Debug/../04_UserBoard/ueupdate/ueupdate.c:167
				rv = 2;                   //
    3040:	2402      	movs	r4, #2
    3042:	e71a      	b.n	2e7a <ueupdate_recv+0x1e>
E:\2017-2018\03_Graduation Project\04_Software\05_Wangshi\02_6220\06_UpdateSoftware-180714\01_UEBootloader\KL36_Bios-180714\Debug/../04_UserBoard/ueupdate/ueupdate.c:195
				uCurFrame = insdata.curFrame;
    3044:	8873      	ldrh	r3, [r6, #2]
    3046:	4a10      	ldr	r2, [pc, #64]	; (3088 <ueupdate_recv+0x22c>)
flagSet():
E:\2017-2018\03_Graduation Project\04_Software\05_Wangshi\02_6220\06_UpdateSoftware-180714\01_UEBootloader\KL36_Bios-180714\Debug/../04_UserBoard/ueupdate/ueupdate.c:388
	flagBuf[i] |= (1 << j);  //
    3048:	490e      	ldr	r1, [pc, #56]	; (3084 <ueupdate_recv+0x228>)
ueupdate_recv():
E:\2017-2018\03_Graduation Project\04_Software\05_Wangshi\02_6220\06_UpdateSoftware-180714\01_UEBootloader\KL36_Bios-180714\Debug/../04_UserBoard/ueupdate/ueupdate.c:195
				uCurFrame = insdata.curFrame;
    304a:	8013      	strh	r3, [r2, #0]
flagSet():
E:\2017-2018\03_Graduation Project\04_Software\05_Wangshi\02_6220\06_UpdateSoftware-180714\01_UEBootloader\KL36_Bios-180714\Debug/../04_UserBoard/ueupdate/ueupdate.c:388
	flagBuf[i] |= (1 << j);  //
    304c:	08da      	lsrs	r2, r3, #3
    304e:	1852      	adds	r2, r2, r1
    3050:	2107      	movs	r1, #7
    3052:	400b      	ands	r3, r1
    3054:	3906      	subs	r1, #6
    3056:	0008      	movs	r0, r1
    3058:	4098      	lsls	r0, r3
    305a:	0003      	movs	r3, r0
    305c:	7810      	ldrb	r0, [r2, #0]
ueupdate_recv():
E:\2017-2018\03_Graduation Project\04_Software\05_Wangshi\02_6220\06_UpdateSoftware-180714\01_UEBootloader\KL36_Bios-180714\Debug/../04_UserBoard/ueupdate/ueupdate.c:198
				uBackOrder = 1;
    305e:	7029      	strb	r1, [r5, #0]
flagSet():
E:\2017-2018\03_Graduation Project\04_Software\05_Wangshi\02_6220\06_UpdateSoftware-180714\01_UEBootloader\KL36_Bios-180714\Debug/../04_UserBoard/ueupdate/ueupdate.c:388
	flagBuf[i] |= (1 << j);  //
    3060:	4303      	orrs	r3, r0
    3062:	7013      	strb	r3, [r2, #0]
    3064:	e709      	b.n	2e7a <ueupdate_recv+0x1e>
    3066:	46c0      	nop			; (mov r8, r8)
    3068:	1ffffcd4 	.word	0x1ffffcd4
    306c:	fffffbc4 	.word	0xfffffbc4
    3070:	0000043c 	.word	0x0000043c
    3074:	1ffffcd8 	.word	0x1ffffcd8
    3078:	1ffffcb8 	.word	0x1ffffcb8
    307c:	1ffffcbc 	.word	0x1ffffcbc
    3080:	1ffffcb4 	.word	0x1ffffcb4
    3084:	1ffffcc0 	.word	0x1ffffcc0
    3088:	1ffffcb6 	.word	0x1ffffcb6

0000308c <updateEncode>:
updateEncode():
E:\2017-2018\03_Graduation Project\04_Software\05_Wangshi\02_6220\06_UpdateSoftware-180714\01_UEBootloader\KL36_Bios-180714\Debug/../04_UserBoard/ueupdate/ueupdate.c:266
{
    308c:	b5f0      	push	{r4, r5, r6, r7, lr}
    308e:	001d      	movs	r5, r3
E:\2017-2018\03_Graduation Project\04_Software\05_Wangshi\02_6220\06_UpdateSoftware-180714\01_UEBootloader\KL36_Bios-180714\Debug/../04_UserBoard/ueupdate/ueupdate.c:273
	frame[len++] = FrameHeadH;
    3090:	2350      	movs	r3, #80	; 0x50
    3092:	702b      	strb	r3, [r5, #0]
E:\2017-2018\03_Graduation Project\04_Software\05_Wangshi\02_6220\06_UpdateSoftware-180714\01_UEBootloader\KL36_Bios-180714\Debug/../04_UserBoard/ueupdate/ueupdate.c:274
	frame[len++] = FrameHeadL;
    3094:	706b      	strb	r3, [r5, #1]
E:\2017-2018\03_Graduation Project\04_Software\05_Wangshi\02_6220\06_UpdateSoftware-180714\01_UEBootloader\KL36_Bios-180714\Debug/../04_UserBoard/ueupdate/ueupdate.c:276
	frame[len++] = (dlen + 9)>>8;
    3096:	3b47      	subs	r3, #71	; 0x47
E:\2017-2018\03_Graduation Project\04_Software\05_Wangshi\02_6220\06_UpdateSoftware-180714\01_UEBootloader\KL36_Bios-180714\Debug/../04_UserBoard/ueupdate/ueupdate.c:266
{
    3098:	46d6      	mov	lr, sl
E:\2017-2018\03_Graduation Project\04_Software\05_Wangshi\02_6220\06_UpdateSoftware-180714\01_UEBootloader\KL36_Bios-180714\Debug/../04_UserBoard/ueupdate/ueupdate.c:276
	frame[len++] = (dlen + 9)>>8;
    309a:	469a      	mov	sl, r3
    309c:	4492      	add	sl, r2
    309e:	4653      	mov	r3, sl
    30a0:	121b      	asrs	r3, r3, #8
E:\2017-2018\03_Graduation Project\04_Software\05_Wangshi\02_6220\06_UpdateSoftware-180714\01_UEBootloader\KL36_Bios-180714\Debug/../04_UserBoard/ueupdate/ueupdate.c:266
{
    30a2:	464f      	mov	r7, r9
    30a4:	4646      	mov	r6, r8
E:\2017-2018\03_Graduation Project\04_Software\05_Wangshi\02_6220\06_UpdateSoftware-180714\01_UEBootloader\KL36_Bios-180714\Debug/../04_UserBoard/ueupdate/ueupdate.c:276
	frame[len++] = (dlen + 9)>>8;
    30a6:	70ab      	strb	r3, [r5, #2]
E:\2017-2018\03_Graduation Project\04_Software\05_Wangshi\02_6220\06_UpdateSoftware-180714\01_UEBootloader\KL36_Bios-180714\Debug/../04_UserBoard/ueupdate/ueupdate.c:277
	frame[len++] = dlen + 9;
    30a8:	4653      	mov	r3, sl
E:\2017-2018\03_Graduation Project\04_Software\05_Wangshi\02_6220\06_UpdateSoftware-180714\01_UEBootloader\KL36_Bios-180714\Debug/../04_UserBoard/ueupdate/ueupdate.c:266
{
    30aa:	0014      	movs	r4, r2
    30ac:	b5c0      	push	{r6, r7, lr}
E:\2017-2018\03_Graduation Project\04_Software\05_Wangshi\02_6220\06_UpdateSoftware-180714\01_UEBootloader\KL36_Bios-180714\Debug/../04_UserBoard/ueupdate/ueupdate.c:277
	frame[len++] = dlen + 9;
    30ae:	70eb      	strb	r3, [r5, #3]
E:\2017-2018\03_Graduation Project\04_Software\05_Wangshi\02_6220\06_UpdateSoftware-180714\01_UEBootloader\KL36_Bios-180714\Debug/../04_UserBoard/ueupdate/ueupdate.c:279
	frame[len++] = order;
    30b0:	7128      	strb	r0, [r5, #4]
E:\2017-2018\03_Graduation Project\04_Software\05_Wangshi\02_6220\06_UpdateSoftware-180714\01_UEBootloader\KL36_Bios-180714\Debug/../04_UserBoard/ueupdate/ueupdate.c:281
	memcpy(frame+len,data,dlen);
    30b2:	1d68      	adds	r0, r5, #5
E:\2017-2018\03_Graduation Project\04_Software\05_Wangshi\02_6220\06_UpdateSoftware-180714\01_UEBootloader\KL36_Bios-180714\Debug/../04_UserBoard/ueupdate/ueupdate.c:266
{
    30b4:	000f      	movs	r7, r1
E:\2017-2018\03_Graduation Project\04_Software\05_Wangshi\02_6220\06_UpdateSoftware-180714\01_UEBootloader\KL36_Bios-180714\Debug/../04_UserBoard/ueupdate/ueupdate.c:281
	memcpy(frame+len,data,dlen);
    30b6:	f002 fba9 	bl	580c <memcpy>
E:\2017-2018\03_Graduation Project\04_Software\05_Wangshi\02_6220\06_UpdateSoftware-180714\01_UEBootloader\KL36_Bios-180714\Debug/../04_UserBoard/ueupdate/ueupdate.c:282
	len += dlen;
    30ba:	1d63      	adds	r3, r4, #5
    30bc:	b29b      	uxth	r3, r3
    30be:	4698      	mov	r8, r3
updatecrc16():
E:\2017-2018\03_Graduation Project\04_Software\05_Wangshi\02_6220\06_UpdateSoftware-180714\01_UEBootloader\KL36_Bios-180714\Debug/../04_UserBoard/ueupdate/ueupdate.c:358
	for(i = 0;i < len;i++)
    30c0:	2c00      	cmp	r4, #0
    30c2:	d02f      	beq.n	3124 <updateEncode+0x98>
    30c4:	1e63      	subs	r3, r4, #1
    30c6:	b29b      	uxth	r3, r3
    30c8:	4699      	mov	r9, r3
    30ca:	1c7a      	adds	r2, r7, #1
    30cc:	0039      	movs	r1, r7
E:\2017-2018\03_Graduation Project\04_Software\05_Wangshi\02_6220\06_UpdateSoftware-180714\01_UEBootloader\KL36_Bios-180714\Debug/../04_UserBoard/ueupdate/ueupdate.c:363
			tmp = crc16 & 0x0001;
    30ce:	2701      	movs	r7, #1
E:\2017-2018\03_Graduation Project\04_Software\05_Wangshi\02_6220\06_UpdateSoftware-180714\01_UEBootloader\KL36_Bios-180714\Debug/../04_UserBoard/ueupdate/ueupdate.c:357
	crc16 = 0xffff;
    30d0:	4b16      	ldr	r3, [pc, #88]	; (312c <updateEncode+0xa0>)
E:\2017-2018\03_Graduation Project\04_Software\05_Wangshi\02_6220\06_UpdateSoftware-180714\01_UEBootloader\KL36_Bios-180714\Debug/../04_UserBoard/ueupdate/ueupdate.c:366
				crc16 = crc16^0xa001;
    30d2:	4e17      	ldr	r6, [pc, #92]	; (3130 <updateEncode+0xa4>)
    30d4:	4491      	add	r9, r2
E:\2017-2018\03_Graduation Project\04_Software\05_Wangshi\02_6220\06_UpdateSoftware-180714\01_UEBootloader\KL36_Bios-180714\Debug/../04_UserBoard/ueupdate/ueupdate.c:360
		crc16 = ptr[i]^crc16;
    30d6:	780a      	ldrb	r2, [r1, #0]
    30d8:	4053      	eors	r3, r2
    30da:	2208      	movs	r2, #8
E:\2017-2018\03_Graduation Project\04_Software\05_Wangshi\02_6220\06_UpdateSoftware-180714\01_UEBootloader\KL36_Bios-180714\Debug/../04_UserBoard/ueupdate/ueupdate.c:363
			tmp = crc16 & 0x0001;
    30dc:	0038      	movs	r0, r7
    30de:	4018      	ands	r0, r3
E:\2017-2018\03_Graduation Project\04_Software\05_Wangshi\02_6220\06_UpdateSoftware-180714\01_UEBootloader\KL36_Bios-180714\Debug/../04_UserBoard/ueupdate/ueupdate.c:364
			crc16 = crc16>>1;
    30e0:	085b      	lsrs	r3, r3, #1
E:\2017-2018\03_Graduation Project\04_Software\05_Wangshi\02_6220\06_UpdateSoftware-180714\01_UEBootloader\KL36_Bios-180714\Debug/../04_UserBoard/ueupdate/ueupdate.c:365
			if(tmp)
    30e2:	2800      	cmp	r0, #0
    30e4:	d001      	beq.n	30ea <updateEncode+0x5e>
E:\2017-2018\03_Graduation Project\04_Software\05_Wangshi\02_6220\06_UpdateSoftware-180714\01_UEBootloader\KL36_Bios-180714\Debug/../04_UserBoard/ueupdate/ueupdate.c:366
				crc16 = crc16^0xa001;
    30e6:	4073      	eors	r3, r6
    30e8:	b29b      	uxth	r3, r3
    30ea:	3a01      	subs	r2, #1
    30ec:	b292      	uxth	r2, r2
E:\2017-2018\03_Graduation Project\04_Software\05_Wangshi\02_6220\06_UpdateSoftware-180714\01_UEBootloader\KL36_Bios-180714\Debug/../04_UserBoard/ueupdate/ueupdate.c:361
		for(j = 0;j < 8;j++)
    30ee:	2a00      	cmp	r2, #0
    30f0:	d1f4      	bne.n	30dc <updateEncode+0x50>
    30f2:	3101      	adds	r1, #1
E:\2017-2018\03_Graduation Project\04_Software\05_Wangshi\02_6220\06_UpdateSoftware-180714\01_UEBootloader\KL36_Bios-180714\Debug/../04_UserBoard/ueupdate/ueupdate.c:358
	for(i = 0;i < len;i++)
    30f4:	4549      	cmp	r1, r9
    30f6:	d1ee      	bne.n	30d6 <updateEncode+0x4a>
    30f8:	0a1a      	lsrs	r2, r3, #8
    30fa:	b2db      	uxtb	r3, r3
updateEncode():
E:\2017-2018\03_Graduation Project\04_Software\05_Wangshi\02_6220\06_UpdateSoftware-180714\01_UEBootloader\KL36_Bios-180714\Debug/../04_UserBoard/ueupdate/ueupdate.c:285
	frame[len++] = crc>>8;
    30fc:	4641      	mov	r1, r8
    30fe:	546a      	strb	r2, [r5, r1]
    3100:	1da2      	adds	r2, r4, #6
E:\2017-2018\03_Graduation Project\04_Software\05_Wangshi\02_6220\06_UpdateSoftware-180714\01_UEBootloader\KL36_Bios-180714\Debug/../04_UserBoard/ueupdate/ueupdate.c:286
	frame[len++] = crc;
    3102:	b292      	uxth	r2, r2
    3104:	54ab      	strb	r3, [r5, r2]
E:\2017-2018\03_Graduation Project\04_Software\05_Wangshi\02_6220\06_UpdateSoftware-180714\01_UEBootloader\KL36_Bios-180714\Debug/../04_UserBoard/ueupdate/ueupdate.c:288
	frame[len++] = FrameTaiH;
    3106:	2243      	movs	r2, #67	; 0x43
E:\2017-2018\03_Graduation Project\04_Software\05_Wangshi\02_6220\06_UpdateSoftware-180714\01_UEBootloader\KL36_Bios-180714\Debug/../04_UserBoard/ueupdate/ueupdate.c:286
	frame[len++] = crc;
    3108:	1de3      	adds	r3, r4, #7
E:\2017-2018\03_Graduation Project\04_Software\05_Wangshi\02_6220\06_UpdateSoftware-180714\01_UEBootloader\KL36_Bios-180714\Debug/../04_UserBoard/ueupdate/ueupdate.c:288
	frame[len++] = FrameTaiH;
    310a:	3408      	adds	r4, #8
    310c:	b29b      	uxth	r3, r3
E:\2017-2018\03_Graduation Project\04_Software\05_Wangshi\02_6220\06_UpdateSoftware-180714\01_UEBootloader\KL36_Bios-180714\Debug/../04_UserBoard/ueupdate/ueupdate.c:289
	frame[len++] = FrameTaiL;
    310e:	b2a4      	uxth	r4, r4
E:\2017-2018\03_Graduation Project\04_Software\05_Wangshi\02_6220\06_UpdateSoftware-180714\01_UEBootloader\KL36_Bios-180714\Debug/../04_UserBoard/ueupdate/ueupdate.c:288
	frame[len++] = FrameTaiH;
    3110:	54ea      	strb	r2, [r5, r3]
E:\2017-2018\03_Graduation Project\04_Software\05_Wangshi\02_6220\06_UpdateSoftware-180714\01_UEBootloader\KL36_Bios-180714\Debug/../04_UserBoard/ueupdate/ueupdate.c:289
	frame[len++] = FrameTaiL;
    3112:	552a      	strb	r2, [r5, r4]
E:\2017-2018\03_Graduation Project\04_Software\05_Wangshi\02_6220\06_UpdateSoftware-180714\01_UEBootloader\KL36_Bios-180714\Debug/../04_UserBoard/ueupdate/ueupdate.c:291
	*flen = len;
    3114:	4652      	mov	r2, sl
    3116:	9b08      	ldr	r3, [sp, #32]
    3118:	801a      	strh	r2, [r3, #0]
E:\2017-2018\03_Graduation Project\04_Software\05_Wangshi\02_6220\06_UpdateSoftware-180714\01_UEBootloader\KL36_Bios-180714\Debug/../04_UserBoard/ueupdate/ueupdate.c:292
}
    311a:	bc1c      	pop	{r2, r3, r4}
    311c:	4690      	mov	r8, r2
    311e:	4699      	mov	r9, r3
    3120:	46a2      	mov	sl, r4
    3122:	bdf0      	pop	{r4, r5, r6, r7, pc}
updatecrc16():
E:\2017-2018\03_Graduation Project\04_Software\05_Wangshi\02_6220\06_UpdateSoftware-180714\01_UEBootloader\KL36_Bios-180714\Debug/../04_UserBoard/ueupdate/ueupdate.c:358
	for(i = 0;i < len;i++)
    3124:	23ff      	movs	r3, #255	; 0xff
    3126:	22ff      	movs	r2, #255	; 0xff
    3128:	e7e8      	b.n	30fc <updateEncode+0x70>
    312a:	46c0      	nop			; (mov r8, r8)
    312c:	0000ffff 	.word	0x0000ffff
    3130:	ffffa001 	.word	0xffffa001

00003134 <ueupdate_back>:
ueupdate_back():
E:\2017-2018\03_Graduation Project\04_Software\05_Wangshi\02_6220\06_UpdateSoftware-180714\01_UEBootloader\KL36_Bios-180714\Debug/../04_UserBoard/ueupdate/ueupdate.c:68
{
    3134:	b530      	push	{r4, r5, lr}
E:\2017-2018\03_Graduation Project\04_Software\05_Wangshi\02_6220\06_UpdateSoftware-180714\01_UEBootloader\KL36_Bios-180714\Debug/../04_UserBoard/ueupdate/ueupdate.c:76
	switch(uBackOrder)
    3136:	4b0b      	ldr	r3, [pc, #44]	; (3164 <ueupdate_back+0x30>)
E:\2017-2018\03_Graduation Project\04_Software\05_Wangshi\02_6220\06_UpdateSoftware-180714\01_UEBootloader\KL36_Bios-180714\Debug/../04_UserBoard/ueupdate/ueupdate.c:68
{
    3138:	0004      	movs	r4, r0
E:\2017-2018\03_Graduation Project\04_Software\05_Wangshi\02_6220\06_UpdateSoftware-180714\01_UEBootloader\KL36_Bios-180714\Debug/../04_UserBoard/ueupdate/ueupdate.c:76
	switch(uBackOrder)
    313a:	781b      	ldrb	r3, [r3, #0]
E:\2017-2018\03_Graduation Project\04_Software\05_Wangshi\02_6220\06_UpdateSoftware-180714\01_UEBootloader\KL36_Bios-180714\Debug/../04_UserBoard/ueupdate/ueupdate.c:68
{
    313c:	b09d      	sub	sp, #116	; 0x74
    313e:	000d      	movs	r5, r1
E:\2017-2018\03_Graduation Project\04_Software\05_Wangshi\02_6220\06_UpdateSoftware-180714\01_UEBootloader\KL36_Bios-180714\Debug/../04_UserBoard/ueupdate/ueupdate.c:88
		rv = 1;
    3140:	2001      	movs	r0, #1
E:\2017-2018\03_Graduation Project\04_Software\05_Wangshi\02_6220\06_UpdateSoftware-180714\01_UEBootloader\KL36_Bios-180714\Debug/../04_UserBoard/ueupdate/ueupdate.c:76
	switch(uBackOrder)
    3142:	2b02      	cmp	r3, #2
    3144:	d10c      	bne.n	3160 <ueupdate_back+0x2c>
E:\2017-2018\03_Graduation Project\04_Software\05_Wangshi\02_6220\06_UpdateSoftware-180714\01_UEBootloader\KL36_Bios-180714\Debug/../04_UserBoard/ueupdate/ueupdate.c:85
		memcpy(data,&ckdata,dlen);
    3146:	2253      	movs	r2, #83	; 0x53
    3148:	4907      	ldr	r1, [pc, #28]	; (3168 <ueupdate_back+0x34>)
    314a:	a803      	add	r0, sp, #12
    314c:	f002 fb5e 	bl	580c <memcpy>
E:\2017-2018\03_Graduation Project\04_Software\05_Wangshi\02_6220\06_UpdateSoftware-180714\01_UEBootloader\KL36_Bios-180714\Debug/../04_UserBoard/ueupdate/ueupdate.c:92
	updateEncode(uBackOrder,data,dlen,buf,len);//
    3150:	2002      	movs	r0, #2
    3152:	9500      	str	r5, [sp, #0]
    3154:	0023      	movs	r3, r4
    3156:	2253      	movs	r2, #83	; 0x53
    3158:	a903      	add	r1, sp, #12
    315a:	f7ff ff97 	bl	308c <updateEncode>
E:\2017-2018\03_Graduation Project\04_Software\05_Wangshi\02_6220\06_UpdateSoftware-180714\01_UEBootloader\KL36_Bios-180714\Debug/../04_UserBoard/ueupdate/ueupdate.c:74
	rv = 0;
    315e:	2000      	movs	r0, #0
E:\2017-2018\03_Graduation Project\04_Software\05_Wangshi\02_6220\06_UpdateSoftware-180714\01_UEBootloader\KL36_Bios-180714\Debug/../04_UserBoard/ueupdate/ueupdate.c:96
}
    3160:	b01d      	add	sp, #116	; 0x74
    3162:	bd30      	pop	{r4, r5, pc}
    3164:	1ffffcd4 	.word	0x1ffffcd4
    3168:	1ffffcd8 	.word	0x1ffffcd8

0000316c <uecom_power.part.0>:
uecom_power():
E:\2017-2018\03_Graduation Project\04_Software\05_Wangshi\02_6220\06_UpdateSoftware-180714\01_UEBootloader\KL36_Bios-180714\Debug/../04_UserBoard/uecom/uecom.c:78
//         UECOM_ON
//         UECOM_REBOOT
//
//20180610
//=====================================================================
void uecom_power(uint_8 state)
    316c:	b510      	push	{r4, lr}
E:\2017-2018\03_Graduation Project\04_Software\05_Wangshi\02_6220\06_UpdateSoftware-180714\01_UEBootloader\KL36_Bios-180714\Debug/../04_UserBoard/uecom/uecom.c:87
	case UECOM_OFF:
		gpio_init(POWER_CONTROL,1,0);break;
	case UECOM_ON:
		gpio_init(POWER_CONTROL,1,1);break;
	case UECOM_REBOOT:
		gpio_init(POWER_CONTROL,1,0);
    316e:	4c08      	ldr	r4, [pc, #32]	; (3190 <uecom_power.part.0+0x24>)
    3170:	2200      	movs	r2, #0
    3172:	2101      	movs	r1, #1
    3174:	0020      	movs	r0, r4
    3176:	f002 f881 	bl	527c <gpio_init>
E:\2017-2018\03_Graduation Project\04_Software\05_Wangshi\02_6220\06_UpdateSoftware-180714\01_UEBootloader\KL36_Bios-180714\Debug/../04_UserBoard/uecom/uecom.c:88
		uecom_delay_ms(2000);
    317a:	20fa      	movs	r0, #250	; 0xfa
    317c:	00c0      	lsls	r0, r0, #3
    317e:	f7ff fda1 	bl	2cc4 <Delay_ms>
E:\2017-2018\03_Graduation Project\04_Software\05_Wangshi\02_6220\06_UpdateSoftware-180714\01_UEBootloader\KL36_Bios-180714\Debug/../04_UserBoard/uecom/uecom.c:89
		gpio_init(POWER_CONTROL,1,1);break;
    3182:	2201      	movs	r2, #1
    3184:	2101      	movs	r1, #1
    3186:	0020      	movs	r0, r4
    3188:	f002 f878 	bl	527c <gpio_init>
E:\2017-2018\03_Graduation Project\04_Software\05_Wangshi\02_6220\06_UpdateSoftware-180714\01_UEBootloader\KL36_Bios-180714\Debug/../04_UserBoard/uecom/uecom.c:91
	}
}
    318c:	bd10      	pop	{r4, pc}
    318e:	46c0      	nop			; (mov r8, r8)
    3190:	00000416 	.word	0x00000416

00003194 <uecom_power>:
E:\2017-2018\03_Graduation Project\04_Software\05_Wangshi\02_6220\06_UpdateSoftware-180714\01_UEBootloader\KL36_Bios-180714\Debug/../04_UserBoard/uecom/uecom.c:79
{
    3194:	b510      	push	{r4, lr}
E:\2017-2018\03_Graduation Project\04_Software\05_Wangshi\02_6220\06_UpdateSoftware-180714\01_UEBootloader\KL36_Bios-180714\Debug/../04_UserBoard/uecom/uecom.c:80
	switch(state)
    3196:	2801      	cmp	r0, #1
    3198:	d00c      	beq.n	31b4 <uecom_power+0x20>
    319a:	2800      	cmp	r0, #0
    319c:	d004      	beq.n	31a8 <uecom_power+0x14>
    319e:	2802      	cmp	r0, #2
    31a0:	d101      	bne.n	31a6 <uecom_power+0x12>
    31a2:	f7ff ffe3 	bl	316c <uecom_power.part.0>
E:\2017-2018\03_Graduation Project\04_Software\05_Wangshi\02_6220\06_UpdateSoftware-180714\01_UEBootloader\KL36_Bios-180714\Debug/../04_UserBoard/uecom/uecom.c:91
}
    31a6:	bd10      	pop	{r4, pc}
E:\2017-2018\03_Graduation Project\04_Software\05_Wangshi\02_6220\06_UpdateSoftware-180714\01_UEBootloader\KL36_Bios-180714\Debug/../04_UserBoard/uecom/uecom.c:83
		gpio_init(POWER_CONTROL,1,0);break;
    31a8:	2200      	movs	r2, #0
    31aa:	2101      	movs	r1, #1
    31ac:	4804      	ldr	r0, [pc, #16]	; (31c0 <uecom_power+0x2c>)
    31ae:	f002 f865 	bl	527c <gpio_init>
    31b2:	e7f8      	b.n	31a6 <uecom_power+0x12>
E:\2017-2018\03_Graduation Project\04_Software\05_Wangshi\02_6220\06_UpdateSoftware-180714\01_UEBootloader\KL36_Bios-180714\Debug/../04_UserBoard/uecom/uecom.c:85
		gpio_init(POWER_CONTROL,1,1);break;
    31b4:	2201      	movs	r2, #1
    31b6:	2101      	movs	r1, #1
    31b8:	4801      	ldr	r0, [pc, #4]	; (31c0 <uecom_power+0x2c>)
    31ba:	f002 f85f 	bl	527c <gpio_init>
    31be:	e7f2      	b.n	31a6 <uecom_power+0x12>
    31c0:	00000416 	.word	0x00000416

000031c4 <uecom_modelInfo>:
uecom_modelInfo():
E:\2017-2018\03_Graduation Project\04_Software\05_Wangshi\02_6220\06_UpdateSoftware-180714\01_UEBootloader\KL36_Bios-180714\Debug/../04_UserBoard/uecom/uecom.c:364
//=====================================================================
uint_8 uecom_modelInfo (uint_8 retData[40])
{
	int i;
	//1IMEI
	for(i=0;i<15;i++)
    31c4:	2300      	movs	r3, #0
    31c6:	490a      	ldr	r1, [pc, #40]	; (31f0 <uecom_modelInfo+0x2c>)
E:\2017-2018\03_Graduation Project\04_Software\05_Wangshi\02_6220\06_UpdateSoftware-180714\01_UEBootloader\KL36_Bios-180714\Debug/../04_UserBoard/uecom/uecom.c:365 (discriminator 3)
		retData[i]=IMEI[i];
    31c8:	5cca      	ldrb	r2, [r1, r3]
    31ca:	54c2      	strb	r2, [r0, r3]
E:\2017-2018\03_Graduation Project\04_Software\05_Wangshi\02_6220\06_UpdateSoftware-180714\01_UEBootloader\KL36_Bios-180714\Debug/../04_UserBoard/uecom/uecom.c:364 (discriminator 3)
	for(i=0;i<15;i++)
    31cc:	3301      	adds	r3, #1
    31ce:	2b0f      	cmp	r3, #15
    31d0:	d1fa      	bne.n	31c8 <uecom_modelInfo+0x4>
E:\2017-2018\03_Graduation Project\04_Software\05_Wangshi\02_6220\06_UpdateSoftware-180714\01_UEBootloader\KL36_Bios-180714\Debug/../04_UserBoard/uecom/uecom.c:366
	retData[i] = 0;    //
    31d2:	2300      	movs	r3, #0
    31d4:	4907      	ldr	r1, [pc, #28]	; (31f4 <uecom_modelInfo+0x30>)
    31d6:	73c3      	strb	r3, [r0, #15]
E:\2017-2018\03_Graduation Project\04_Software\05_Wangshi\02_6220\06_UpdateSoftware-180714\01_UEBootloader\KL36_Bios-180714\Debug/../04_UserBoard/uecom/uecom.c:368
	//2IMSI
	for(i=20;i<35;i++)
    31d8:	3314      	adds	r3, #20
E:\2017-2018\03_Graduation Project\04_Software\05_Wangshi\02_6220\06_UpdateSoftware-180714\01_UEBootloader\KL36_Bios-180714\Debug/../04_UserBoard/uecom/uecom.c:369 (discriminator 3)
		retData[i]=IMSI[i-20];
    31da:	001a      	movs	r2, r3
    31dc:	3a14      	subs	r2, #20
    31de:	5c8a      	ldrb	r2, [r1, r2]
    31e0:	54c2      	strb	r2, [r0, r3]
E:\2017-2018\03_Graduation Project\04_Software\05_Wangshi\02_6220\06_UpdateSoftware-180714\01_UEBootloader\KL36_Bios-180714\Debug/../04_UserBoard/uecom/uecom.c:368 (discriminator 3)
	for(i=20;i<35;i++)
    31e2:	3301      	adds	r3, #1
    31e4:	2b23      	cmp	r3, #35	; 0x23
    31e6:	d1f8      	bne.n	31da <uecom_modelInfo+0x16>
E:\2017-2018\03_Graduation Project\04_Software\05_Wangshi\02_6220\06_UpdateSoftware-180714\01_UEBootloader\KL36_Bios-180714\Debug/../04_UserBoard/uecom/uecom.c:370
	retData[i] = 0;   //
    31e8:	2200      	movs	r2, #0
    31ea:	54c2      	strb	r2, [r0, r3]
E:\2017-2018\03_Graduation Project\04_Software\05_Wangshi\02_6220\06_UpdateSoftware-180714\01_UEBootloader\KL36_Bios-180714\Debug/../04_UserBoard/uecom/uecom.c:372
	return 0;
}
    31ec:	2000      	movs	r0, #0
    31ee:	4770      	bx	lr
    31f0:	1ffffa88 	.word	0x1ffffa88
    31f4:	1ffffa98 	.word	0x1ffffa98

000031f8 <uecom_sendCmd>:
uecom_sendCmd():
E:\2017-2018\03_Graduation Project\04_Software\05_Wangshi\02_6220\06_UpdateSoftware-180714\01_UEBootloader\KL36_Bios-180714\Debug/../04_UserBoard/uecom/uecom.c:644
//AT3
//strTrim
//2017.06.30WYH2017.08.11,QHJ,CC2017.09.25WB
//=====================================================================
uint_8 uecom_sendCmd(uint_8 *cmd,uint_16 maxDelayMs,uint_16 maxTimes)
{
    31f8:	b5f0      	push	{r4, r5, r6, r7, lr}
    31fa:	46de      	mov	lr, fp
    31fc:	4657      	mov	r7, sl
    31fe:	464e      	mov	r6, r9
    3200:	4645      	mov	r5, r8
    3202:	b5e0      	push	{r5, r6, r7, lr}
E:\2017-2018\03_Graduation Project\04_Software\05_Wangshi\02_6220\06_UpdateSoftware-180714\01_UEBootloader\KL36_Bios-180714\Debug/../04_UserBoard/uecom/uecom.c:649
	//
    //1
	uint_8 ret;
	uint_16 i,j,k,count;
	uint_8 wait[30]="OK";
    3204:	4b4c      	ldr	r3, [pc, #304]	; (3338 <uecom_sendCmd+0x140>)
E:\2017-2018\03_Graduation Project\04_Software\05_Wangshi\02_6220\06_UpdateSoftware-180714\01_UEBootloader\KL36_Bios-180714\Debug/../04_UserBoard/uecom/uecom.c:644
{
    3206:	b08b      	sub	sp, #44	; 0x2c
    3208:	4682      	mov	sl, r0
    320a:	9201      	str	r2, [sp, #4]
    320c:	000c      	movs	r4, r1
E:\2017-2018\03_Graduation Project\04_Software\05_Wangshi\02_6220\06_UpdateSoftware-180714\01_UEBootloader\KL36_Bios-180714\Debug/../04_UserBoard/uecom/uecom.c:649
	uint_8 wait[30]="OK";
    320e:	221a      	movs	r2, #26
    3210:	2100      	movs	r1, #0
    3212:	a803      	add	r0, sp, #12
    3214:	9302      	str	r3, [sp, #8]
    3216:	f002 fb02 	bl	581e <memset>
E:\2017-2018\03_Graduation Project\04_Software\05_Wangshi\02_6220\06_UpdateSoftware-180714\01_UEBootloader\KL36_Bios-180714\Debug/../04_UserBoard/uecom/uecom.c:650
	AT_haveCommand=1;  //AT
    321a:	2301      	movs	r3, #1
    321c:	4a47      	ldr	r2, [pc, #284]	; (333c <uecom_sendCmd+0x144>)
E:\2017-2018\03_Graduation Project\04_Software\05_Wangshi\02_6220\06_UpdateSoftware-180714\01_UEBootloader\KL36_Bios-180714\Debug/../04_UserBoard/uecom/uecom.c:651
	uart_enable_re_int(UART_UE);//
    321e:	2001      	movs	r0, #1
E:\2017-2018\03_Graduation Project\04_Software\05_Wangshi\02_6220\06_UpdateSoftware-180714\01_UEBootloader\KL36_Bios-180714\Debug/../04_UserBoard/uecom/uecom.c:650
	AT_haveCommand=1;  //AT
    3220:	7013      	strb	r3, [r2, #0]
E:\2017-2018\03_Graduation Project\04_Software\05_Wangshi\02_6220\06_UpdateSoftware-180714\01_UEBootloader\KL36_Bios-180714\Debug/../04_UserBoard/uecom/uecom.c:651
	uart_enable_re_int(UART_UE);//
    3222:	f001 fa49 	bl	46b8 <uart_enable_re_int>
E:\2017-2018\03_Graduation Project\04_Software\05_Wangshi\02_6220\06_UpdateSoftware-180714\01_UEBootloader\KL36_Bios-180714\Debug/../04_UserBoard/uecom/uecom.c:653
	//"OK"
	if(!strcmp(cmd,"SEND"))
    3226:	4b46      	ldr	r3, [pc, #280]	; (3340 <uecom_sendCmd+0x148>)
    3228:	4650      	mov	r0, sl
    322a:	0019      	movs	r1, r3
E:\2017-2018\03_Graduation Project\04_Software\05_Wangshi\02_6220\06_UpdateSoftware-180714\01_UEBootloader\KL36_Bios-180714\Debug/../04_UserBoard/uecom/uecom.c:649
	uint_8 wait[30]="OK";
    322c:	af02      	add	r7, sp, #8
E:\2017-2018\03_Graduation Project\04_Software\05_Wangshi\02_6220\06_UpdateSoftware-180714\01_UEBootloader\KL36_Bios-180714\Debug/../04_UserBoard/uecom/uecom.c:653
	if(!strcmp(cmd,"SEND"))
    322e:	469b      	mov	fp, r3
    3230:	f7ff f832 	bl	2298 <strcmp>
    3234:	2800      	cmp	r0, #0
    3236:	d100      	bne.n	323a <uecom_sendCmd+0x42>
    3238:	e076      	b.n	3328 <uecom_sendCmd+0x130>
E:\2017-2018\03_Graduation Project\04_Software\05_Wangshi\02_6220\06_UpdateSoftware-180714\01_UEBootloader\KL36_Bios-180714\Debug/../04_UserBoard/uecom/uecom.c:655
		strcpy(wait,"SEND");
	else if(strstr(cmd,"AT+CIPSTART")!=NULL)
    323a:	4942      	ldr	r1, [pc, #264]	; (3344 <uecom_sendCmd+0x14c>)
    323c:	4650      	mov	r0, sl
    323e:	f002 fb31 	bl	58a4 <strstr>
    3242:	2800      	cmp	r0, #0
    3244:	d045      	beq.n	32d2 <uecom_sendCmd+0xda>
E:\2017-2018\03_Graduation Project\04_Software\05_Wangshi\02_6220\06_UpdateSoftware-180714\01_UEBootloader\KL36_Bios-180714\Debug/../04_UserBoard/uecom/uecom.c:656
		strcpy(wait,"CONNECT OK");
    3246:	003a      	movs	r2, r7
    3248:	4b3f      	ldr	r3, [pc, #252]	; (3348 <uecom_sendCmd+0x150>)
    324a:	cb03      	ldmia	r3!, {r0, r1}
    324c:	c203      	stmia	r2!, {r0, r1}
    324e:	8819      	ldrh	r1, [r3, #0]
    3250:	8011      	strh	r1, [r2, #0]
    3252:	789b      	ldrb	r3, [r3, #2]
    3254:	7093      	strb	r3, [r2, #2]
E:\2017-2018\03_Graduation Project\04_Software\05_Wangshi\02_6220\06_UpdateSoftware-180714\01_UEBootloader\KL36_Bios-180714\Debug/../04_UserBoard/uecom/uecom.c:659
	else if(strstr(cmd,"wait")!=NULL)
		strcpy(wait,">");
	uecom_delay_ms(10);//AT
    3256:	200a      	movs	r0, #10
    3258:	f7ff fd34 	bl	2cc4 <Delay_ms>
E:\2017-2018\03_Graduation Project\04_Software\05_Wangshi\02_6220\06_UpdateSoftware-180714\01_UEBootloader\KL36_Bios-180714\Debug/../04_UserBoard/uecom/uecom.c:660
	j = maxDelayMs/10;
    325c:	210a      	movs	r1, #10
    325e:	0020      	movs	r0, r4
    3260:	f7fd f95c 	bl	51c <__udivsi3>
E:\2017-2018\03_Graduation Project\04_Software\05_Wangshi\02_6220\06_UpdateSoftware-180714\01_UEBootloader\KL36_Bios-180714\Debug/../04_UserBoard/uecom/uecom.c:661
	for(count=0;count<maxTimes;count++)
    3264:	9b01      	ldr	r3, [sp, #4]
E:\2017-2018\03_Graduation Project\04_Software\05_Wangshi\02_6220\06_UpdateSoftware-180714\01_UEBootloader\KL36_Bios-180714\Debug/../04_UserBoard/uecom/uecom.c:660
	j = maxDelayMs/10;
    3266:	b286      	uxth	r6, r0
E:\2017-2018\03_Graduation Project\04_Software\05_Wangshi\02_6220\06_UpdateSoftware-180714\01_UEBootloader\KL36_Bios-180714\Debug/../04_UserBoard/uecom/uecom.c:661
	for(count=0;count<maxTimes;count++)
    3268:	2b00      	cmp	r3, #0
    326a:	d052      	beq.n	3312 <uecom_sendCmd+0x11a>
    326c:	2300      	movs	r3, #0
    326e:	4699      	mov	r9, r3
E:\2017-2018\03_Graduation Project\04_Software\05_Wangshi\02_6220\06_UpdateSoftware-180714\01_UEBootloader\KL36_Bios-180714\Debug/../04_UserBoard/uecom/uecom.c:679
	        if(strstr(AT_reBuf,wait))
	        {
	        	ret = 0;
	        	goto uecom_sendCmd_exit;
	        }
	        if(strstr(AT_reBuf,ERROR))
    3270:	4b36      	ldr	r3, [pc, #216]	; (334c <uecom_sendCmd+0x154>)
    3272:	4d37      	ldr	r5, [pc, #220]	; (3350 <uecom_sendCmd+0x158>)
    3274:	4698      	mov	r8, r3
E:\2017-2018\03_Graduation Project\04_Software\05_Wangshi\02_6220\06_UpdateSoftware-180714\01_UEBootloader\KL36_Bios-180714\Debug/../04_UserBoard/uecom/uecom.c:663
		if(strcmp(cmd,"SEND") && strcmp(cmd,"wait") )//SEND
    3276:	4659      	mov	r1, fp
    3278:	4650      	mov	r0, sl
    327a:	f7ff f80d 	bl	2298 <strcmp>
    327e:	2800      	cmp	r0, #0
    3280:	d005      	beq.n	328e <uecom_sendCmd+0x96>
E:\2017-2018\03_Graduation Project\04_Software\05_Wangshi\02_6220\06_UpdateSoftware-180714\01_UEBootloader\KL36_Bios-180714\Debug/../04_UserBoard/uecom/uecom.c:663 (discriminator 1)
    3282:	4934      	ldr	r1, [pc, #208]	; (3354 <uecom_sendCmd+0x15c>)
    3284:	4650      	mov	r0, sl
    3286:	f7ff f807 	bl	2298 <strcmp>
    328a:	2800      	cmp	r0, #0
    328c:	d143      	bne.n	3316 <uecom_sendCmd+0x11e>
E:\2017-2018\03_Graduation Project\04_Software\05_Wangshi\02_6220\06_UpdateSoftware-180714\01_UEBootloader\KL36_Bios-180714\Debug/../04_UserBoard/uecom/uecom.c:671 (discriminator 1)
		for(i=0; i<j;i++)
    328e:	2e00      	cmp	r6, #0
    3290:	d032      	beq.n	32f8 <uecom_sendCmd+0x100>
E:\2017-2018\03_Graduation Project\04_Software\05_Wangshi\02_6220\06_UpdateSoftware-180714\01_UEBootloader\KL36_Bios-180714\Debug/../04_UserBoard/uecom/uecom.c:671
    3292:	2400      	movs	r4, #0
    3294:	e009      	b.n	32aa <uecom_sendCmd+0xb2>
E:\2017-2018\03_Graduation Project\04_Software\05_Wangshi\02_6220\06_UpdateSoftware-180714\01_UEBootloader\KL36_Bios-180714\Debug/../04_UserBoard/uecom/uecom.c:679
	        if(strstr(AT_reBuf,ERROR))
    3296:	4641      	mov	r1, r8
    3298:	0028      	movs	r0, r5
    329a:	f002 fb03 	bl	58a4 <strstr>
    329e:	2800      	cmp	r0, #0
    32a0:	d120      	bne.n	32e4 <uecom_sendCmd+0xec>
E:\2017-2018\03_Graduation Project\04_Software\05_Wangshi\02_6220\06_UpdateSoftware-180714\01_UEBootloader\KL36_Bios-180714\Debug/../04_UserBoard/uecom/uecom.c:671 (discriminator 2)
		for(i=0; i<j;i++)
    32a2:	3401      	adds	r4, #1
    32a4:	b2a4      	uxth	r4, r4
    32a6:	42b4      	cmp	r4, r6
    32a8:	d026      	beq.n	32f8 <uecom_sendCmd+0x100>
E:\2017-2018\03_Graduation Project\04_Software\05_Wangshi\02_6220\06_UpdateSoftware-180714\01_UEBootloader\KL36_Bios-180714\Debug/../04_UserBoard/uecom/uecom.c:673
	        uecom_delay_ms(10);
    32aa:	200a      	movs	r0, #10
    32ac:	f7ff fd0a 	bl	2cc4 <Delay_ms>
E:\2017-2018\03_Graduation Project\04_Software\05_Wangshi\02_6220\06_UpdateSoftware-180714\01_UEBootloader\KL36_Bios-180714\Debug/../04_UserBoard/uecom/uecom.c:674
	        if(strstr(AT_reBuf,wait))
    32b0:	0039      	movs	r1, r7
    32b2:	0028      	movs	r0, r5
    32b4:	f002 faf6 	bl	58a4 <strstr>
    32b8:	2800      	cmp	r0, #0
    32ba:	d0ec      	beq.n	3296 <uecom_sendCmd+0x9e>
E:\2017-2018\03_Graduation Project\04_Software\05_Wangshi\02_6220\06_UpdateSoftware-180714\01_UEBootloader\KL36_Bios-180714\Debug/../04_UserBoard/uecom/uecom.c:676
	        	ret = 0;
    32bc:	2000      	movs	r0, #0
E:\2017-2018\03_Graduation Project\04_Software\05_Wangshi\02_6220\06_UpdateSoftware-180714\01_UEBootloader\KL36_Bios-180714\Debug/../04_UserBoard/uecom/uecom.c:696
	    AT_reLength = 0;
		AT_reBuf[0]=0;
	}
	ret = 1;
	uecom_sendCmd_exit:
	AT_haveCommand=0;
    32be:	2300      	movs	r3, #0
    32c0:	4a1e      	ldr	r2, [pc, #120]	; (333c <uecom_sendCmd+0x144>)
    32c2:	7013      	strb	r3, [r2, #0]
E:\2017-2018\03_Graduation Project\04_Software\05_Wangshi\02_6220\06_UpdateSoftware-180714\01_UEBootloader\KL36_Bios-180714\Debug/../04_UserBoard/uecom/uecom.c:698
	return ret;
}
    32c4:	b00b      	add	sp, #44	; 0x2c
    32c6:	bc3c      	pop	{r2, r3, r4, r5}
    32c8:	4690      	mov	r8, r2
    32ca:	4699      	mov	r9, r3
    32cc:	46a2      	mov	sl, r4
    32ce:	46ab      	mov	fp, r5
    32d0:	bdf0      	pop	{r4, r5, r6, r7, pc}
E:\2017-2018\03_Graduation Project\04_Software\05_Wangshi\02_6220\06_UpdateSoftware-180714\01_UEBootloader\KL36_Bios-180714\Debug/../04_UserBoard/uecom/uecom.c:657
	else if(strstr(cmd,"wait")!=NULL)
    32d2:	4920      	ldr	r1, [pc, #128]	; (3354 <uecom_sendCmd+0x15c>)
    32d4:	4650      	mov	r0, sl
    32d6:	f002 fae5 	bl	58a4 <strstr>
    32da:	2800      	cmp	r0, #0
    32dc:	d0bb      	beq.n	3256 <uecom_sendCmd+0x5e>
E:\2017-2018\03_Graduation Project\04_Software\05_Wangshi\02_6220\06_UpdateSoftware-180714\01_UEBootloader\KL36_Bios-180714\Debug/../04_UserBoard/uecom/uecom.c:658
		strcpy(wait,">");
    32de:	233e      	movs	r3, #62	; 0x3e
    32e0:	803b      	strh	r3, [r7, #0]
    32e2:	e7b8      	b.n	3256 <uecom_sendCmd+0x5e>
E:\2017-2018\03_Graduation Project\04_Software\05_Wangshi\02_6220\06_UpdateSoftware-180714\01_UEBootloader\KL36_Bios-180714\Debug/../04_UserBoard/uecom/uecom.c:681
	        	uecom_delay_ms(100);//100
    32e4:	2064      	movs	r0, #100	; 0x64
    32e6:	f7ff fced 	bl	2cc4 <Delay_ms>
E:\2017-2018\03_Graduation Project\04_Software\05_Wangshi\02_6220\06_UpdateSoftware-180714\01_UEBootloader\KL36_Bios-180714\Debug/../04_UserBoard/uecom/uecom.c:682
	        	uart_send_string(UART_UE,AT); //AT
    32ea:	491b      	ldr	r1, [pc, #108]	; (3358 <uecom_sendCmd+0x160>)
    32ec:	2001      	movs	r0, #1
    32ee:	f001 f995 	bl	461c <uart_send_string>
E:\2017-2018\03_Graduation Project\04_Software\05_Wangshi\02_6220\06_UpdateSoftware-180714\01_UEBootloader\KL36_Bios-180714\Debug/../04_UserBoard/uecom/uecom.c:683
	        	uecom_delay_ms(100);//100
    32f2:	2064      	movs	r0, #100	; 0x64
    32f4:	f7ff fce6 	bl	2cc4 <Delay_ms>
E:\2017-2018\03_Graduation Project\04_Software\05_Wangshi\02_6220\06_UpdateSoftware-180714\01_UEBootloader\KL36_Bios-180714\Debug/../04_UserBoard/uecom/uecom.c:691 (discriminator 2)
	    AT_reLength = 0;
    32f8:	2300      	movs	r3, #0
    32fa:	4a18      	ldr	r2, [pc, #96]	; (335c <uecom_sendCmd+0x164>)
E:\2017-2018\03_Graduation Project\04_Software\05_Wangshi\02_6220\06_UpdateSoftware-180714\01_UEBootloader\KL36_Bios-180714\Debug/../04_UserBoard/uecom/uecom.c:692 (discriminator 2)
		AT_reBuf[0]=0;
    32fc:	702b      	strb	r3, [r5, #0]
E:\2017-2018\03_Graduation Project\04_Software\05_Wangshi\02_6220\06_UpdateSoftware-180714\01_UEBootloader\KL36_Bios-180714\Debug/../04_UserBoard/uecom/uecom.c:691 (discriminator 2)
	    AT_reLength = 0;
    32fe:	7013      	strb	r3, [r2, #0]
E:\2017-2018\03_Graduation Project\04_Software\05_Wangshi\02_6220\06_UpdateSoftware-180714\01_UEBootloader\KL36_Bios-180714\Debug/../04_UserBoard/uecom/uecom.c:661 (discriminator 2)
	for(count=0;count<maxTimes;count++)
    3300:	464b      	mov	r3, r9
    3302:	3301      	adds	r3, #1
    3304:	b29b      	uxth	r3, r3
    3306:	4699      	mov	r9, r3
    3308:	9b01      	ldr	r3, [sp, #4]
E:\2017-2018\03_Graduation Project\04_Software\05_Wangshi\02_6220\06_UpdateSoftware-180714\01_UEBootloader\KL36_Bios-180714\Debug/../04_UserBoard/uecom/uecom.c:690 (discriminator 2)
    	j*=2;//
    330a:	0076      	lsls	r6, r6, #1
    330c:	b2b6      	uxth	r6, r6
E:\2017-2018\03_Graduation Project\04_Software\05_Wangshi\02_6220\06_UpdateSoftware-180714\01_UEBootloader\KL36_Bios-180714\Debug/../04_UserBoard/uecom/uecom.c:661 (discriminator 2)
	for(count=0;count<maxTimes;count++)
    330e:	454b      	cmp	r3, r9
    3310:	d1b1      	bne.n	3276 <uecom_sendCmd+0x7e>
E:\2017-2018\03_Graduation Project\04_Software\05_Wangshi\02_6220\06_UpdateSoftware-180714\01_UEBootloader\KL36_Bios-180714\Debug/../04_UserBoard/uecom/uecom.c:694
	ret = 1;
    3312:	2001      	movs	r0, #1
    3314:	e7d3      	b.n	32be <uecom_sendCmd+0xc6>
E:\2017-2018\03_Graduation Project\04_Software\05_Wangshi\02_6220\06_UpdateSoftware-180714\01_UEBootloader\KL36_Bios-180714\Debug/../04_UserBoard/uecom/uecom.c:665
			AT_reLength = 0;   //
    3316:	2300      	movs	r3, #0
    3318:	4a10      	ldr	r2, [pc, #64]	; (335c <uecom_sendCmd+0x164>)
E:\2017-2018\03_Graduation Project\04_Software\05_Wangshi\02_6220\06_UpdateSoftware-180714\01_UEBootloader\KL36_Bios-180714\Debug/../04_UserBoard/uecom/uecom.c:668
			uart_send_string(UART_UE,cmd); //AT
    331a:	4651      	mov	r1, sl
    331c:	2001      	movs	r0, #1
E:\2017-2018\03_Graduation Project\04_Software\05_Wangshi\02_6220\06_UpdateSoftware-180714\01_UEBootloader\KL36_Bios-180714\Debug/../04_UserBoard/uecom/uecom.c:665
			AT_reLength = 0;   //
    331e:	7013      	strb	r3, [r2, #0]
E:\2017-2018\03_Graduation Project\04_Software\05_Wangshi\02_6220\06_UpdateSoftware-180714\01_UEBootloader\KL36_Bios-180714\Debug/../04_UserBoard/uecom/uecom.c:666
			AT_reBuf[0]=0;
    3320:	702b      	strb	r3, [r5, #0]
E:\2017-2018\03_Graduation Project\04_Software\05_Wangshi\02_6220\06_UpdateSoftware-180714\01_UEBootloader\KL36_Bios-180714\Debug/../04_UserBoard/uecom/uecom.c:668
			uart_send_string(UART_UE,cmd); //AT
    3322:	f001 f97b 	bl	461c <uart_send_string>
    3326:	e7b2      	b.n	328e <uecom_sendCmd+0x96>
E:\2017-2018\03_Graduation Project\04_Software\05_Wangshi\02_6220\06_UpdateSoftware-180714\01_UEBootloader\KL36_Bios-180714\Debug/../04_UserBoard/uecom/uecom.c:654
		strcpy(wait,"SEND");
    3328:	465b      	mov	r3, fp
    332a:	681b      	ldr	r3, [r3, #0]
    332c:	9302      	str	r3, [sp, #8]
    332e:	465b      	mov	r3, fp
    3330:	791b      	ldrb	r3, [r3, #4]
    3332:	713b      	strb	r3, [r7, #4]
    3334:	e78f      	b.n	3256 <uecom_sendCmd+0x5e>
    3336:	46c0      	nop			; (mov r8, r8)
    3338:	00004b4f 	.word	0x00004b4f
    333c:	1ffff9b8 	.word	0x1ffff9b8
    3340:	00005c9c 	.word	0x00005c9c
    3344:	00005ca4 	.word	0x00005ca4
    3348:	00005cb0 	.word	0x00005cb0
    334c:	1ffff884 	.word	0x1ffff884
    3350:	1ffff9bc 	.word	0x1ffff9bc
    3354:	00005cbc 	.word	0x00005cbc
    3358:	1ffff800 	.word	0x1ffff800
    335c:	1ffffa84 	.word	0x1ffffa84

00003360 <uecom_linkBase>:
uecom_linkBase():
E:\2017-2018\03_Graduation Project\04_Software\05_Wangshi\02_6220\06_UpdateSoftware-180714\01_UEBootloader\KL36_Bios-180714\Debug/../04_UserBoard/uecom/uecom.c:149
{
    3360:	b510      	push	{r4, lr}
E:\2017-2018\03_Graduation Project\04_Software\05_Wangshi\02_6220\06_UpdateSoftware-180714\01_UEBootloader\KL36_Bios-180714\Debug/../04_UserBoard/uecom/uecom.c:153
    if(uecom_sendCmd(CGDCONT,3000,2))
    3362:	2202      	movs	r2, #2
    3364:	4908      	ldr	r1, [pc, #32]	; (3388 <uecom_linkBase+0x28>)
    3366:	4809      	ldr	r0, [pc, #36]	; (338c <uecom_linkBase+0x2c>)
    3368:	f7ff ff46 	bl	31f8 <uecom_sendCmd>
    336c:	0003      	movs	r3, r0
E:\2017-2018\03_Graduation Project\04_Software\05_Wangshi\02_6220\06_UpdateSoftware-180714\01_UEBootloader\KL36_Bios-180714\Debug/../04_UserBoard/uecom/uecom.c:151
	uint_8 ret = 1;
    336e:	2001      	movs	r0, #1
E:\2017-2018\03_Graduation Project\04_Software\05_Wangshi\02_6220\06_UpdateSoftware-180714\01_UEBootloader\KL36_Bios-180714\Debug/../04_UserBoard/uecom/uecom.c:153
    if(uecom_sendCmd(CGDCONT,3000,2))
    3370:	2b00      	cmp	r3, #0
    3372:	d107      	bne.n	3384 <uecom_linkBase+0x24>
E:\2017-2018\03_Graduation Project\04_Software\05_Wangshi\02_6220\06_UpdateSoftware-180714\01_UEBootloader\KL36_Bios-180714\Debug/../04_UserBoard/uecom/uecom.c:156
    if(uecom_sendCmd(CGACT_1,3000,2))
    3374:	2202      	movs	r2, #2
    3376:	4904      	ldr	r1, [pc, #16]	; (3388 <uecom_linkBase+0x28>)
    3378:	4805      	ldr	r0, [pc, #20]	; (3390 <uecom_linkBase+0x30>)
    337a:	f7ff ff3d 	bl	31f8 <uecom_sendCmd>
    337e:	1e43      	subs	r3, r0, #1
    3380:	4198      	sbcs	r0, r3
E:\2017-2018\03_Graduation Project\04_Software\05_Wangshi\02_6220\06_UpdateSoftware-180714\01_UEBootloader\KL36_Bios-180714\Debug/../04_UserBoard/uecom/uecom.c:151
	uint_8 ret = 1;
    3382:	b2c0      	uxtb	r0, r0
E:\2017-2018\03_Graduation Project\04_Software\05_Wangshi\02_6220\06_UpdateSoftware-180714\01_UEBootloader\KL36_Bios-180714\Debug/../04_UserBoard/uecom/uecom.c:162
}
    3384:	bd10      	pop	{r4, pc}
    3386:	46c0      	nop			; (mov r8, r8)
    3388:	00000bb8 	.word	0x00000bb8
    338c:	1ffff830 	.word	0x1ffff830
    3390:	1ffff820 	.word	0x1ffff820

00003394 <uecom_linkCS>:
uecom_linkCS():
E:\2017-2018\03_Graduation Project\04_Software\05_Wangshi\02_6220\06_UpdateSoftware-180714\01_UEBootloader\KL36_Bios-180714\Debug/../04_UserBoard/uecom/uecom.c:172
{
    3394:	b5f0      	push	{r4, r5, r6, r7, lr}
    3396:	b08f      	sub	sp, #60	; 0x3c
E:\2017-2018\03_Graduation Project\04_Software\05_Wangshi\02_6220\06_UpdateSoftware-180714\01_UEBootloader\KL36_Bios-180714\Debug/../04_UserBoard/uecom/uecom.c:177
	uint_8 CIPSTART[50] = "";				//TCP
    3398:	222e      	movs	r2, #46	; 0x2e
E:\2017-2018\03_Graduation Project\04_Software\05_Wangshi\02_6220\06_UpdateSoftware-180714\01_UEBootloader\KL36_Bios-180714\Debug/../04_UserBoard/uecom/uecom.c:172
{
    339a:	0006      	movs	r6, r0
    339c:	000d      	movs	r5, r1
E:\2017-2018\03_Graduation Project\04_Software\05_Wangshi\02_6220\06_UpdateSoftware-180714\01_UEBootloader\KL36_Bios-180714\Debug/../04_UserBoard/uecom/uecom.c:177
	uint_8 CIPSTART[50] = "";				//TCP
    339e:	ac01      	add	r4, sp, #4
    33a0:	2100      	movs	r1, #0
    33a2:	a802      	add	r0, sp, #8
    33a4:	f002 fa3b 	bl	581e <memset>
E:\2017-2018\03_Graduation Project\04_Software\05_Wangshi\02_6220\06_UpdateSoftware-180714\01_UEBootloader\KL36_Bios-180714\Debug/../04_UserBoard/uecom/uecom.c:180
	strcat((char *)CIPSTART,"AT+CIPSTART=\"TCP\",\"");
    33a8:	0022      	movs	r2, r4
    33aa:	4b26      	ldr	r3, [pc, #152]	; (3444 <uecom_linkCS+0xb0>)
    33ac:	cb83      	ldmia	r3!, {r0, r1, r7}
    33ae:	c283      	stmia	r2!, {r0, r1, r7}
    33b0:	cb03      	ldmia	r3!, {r0, r1}
    33b2:	c203      	stmia	r2!, {r0, r1}
    33b4:	2300      	movs	r3, #0
    33b6:	e004      	b.n	33c2 <uecom_linkCS+0x2e>
E:\2017-2018\03_Graduation Project\04_Software\05_Wangshi\02_6220\06_UpdateSoftware-180714\01_UEBootloader\KL36_Bios-180714\Debug/../04_UserBoard/uecom/uecom.c:188 (discriminator 2)
		CIPSTART[loc+i] = ip[i];
    33b8:	18e1      	adds	r1, r4, r3
    33ba:	3301      	adds	r3, #1
    33bc:	74ca      	strb	r2, [r1, #19]
E:\2017-2018\03_Graduation Project\04_Software\05_Wangshi\02_6220\06_UpdateSoftware-180714\01_UEBootloader\KL36_Bios-180714\Debug/../04_UserBoard/uecom/uecom.c:182 (discriminator 2)
	for(i=0; i<15; i++)
    33be:	2b0f      	cmp	r3, #15
    33c0:	d002      	beq.n	33c8 <uecom_linkCS+0x34>
E:\2017-2018\03_Graduation Project\04_Software\05_Wangshi\02_6220\06_UpdateSoftware-180714\01_UEBootloader\KL36_Bios-180714\Debug/../04_UserBoard/uecom/uecom.c:184
		if(ip[i] == 0)
    33c2:	5cf2      	ldrb	r2, [r6, r3]
    33c4:	2a00      	cmp	r2, #0
    33c6:	d1f7      	bne.n	33b8 <uecom_linkCS+0x24>
E:\2017-2018\03_Graduation Project\04_Software\05_Wangshi\02_6220\06_UpdateSoftware-180714\01_UEBootloader\KL36_Bios-180714\Debug/../04_UserBoard/uecom/uecom.c:190
	strcat((char *)CIPSTART,"\",");
    33c8:	0020      	movs	r0, r4
    33ca:	f7fe ff6f 	bl	22ac <strlen>
    33ce:	2203      	movs	r2, #3
    33d0:	0006      	movs	r6, r0
    33d2:	491d      	ldr	r1, [pc, #116]	; (3448 <uecom_linkCS+0xb4>)
    33d4:	1820      	adds	r0, r4, r0
    33d6:	f002 fa19 	bl	580c <memcpy>
E:\2017-2018\03_Graduation Project\04_Software\05_Wangshi\02_6220\06_UpdateSoftware-180714\01_UEBootloader\KL36_Bios-180714\Debug/../04_UserBoard/uecom/uecom.c:198
		CIPSTART[loc+i] = port[i];
    33da:	20ff      	movs	r0, #255	; 0xff
E:\2017-2018\03_Graduation Project\04_Software\05_Wangshi\02_6220\06_UpdateSoftware-180714\01_UEBootloader\KL36_Bios-180714\Debug/../04_UserBoard/uecom/uecom.c:191
	loc = strlen(CIPSTART);
    33dc:	2300      	movs	r3, #0
    33de:	3602      	adds	r6, #2
E:\2017-2018\03_Graduation Project\04_Software\05_Wangshi\02_6220\06_UpdateSoftware-180714\01_UEBootloader\KL36_Bios-180714\Debug/../04_UserBoard/uecom/uecom.c:198
		CIPSTART[loc+i] = port[i];
    33e0:	4030      	ands	r0, r6
    33e2:	1820      	adds	r0, r4, r0
E:\2017-2018\03_Graduation Project\04_Software\05_Wangshi\02_6220\06_UpdateSoftware-180714\01_UEBootloader\KL36_Bios-180714\Debug/../04_UserBoard/uecom/uecom.c:194
		if(port[i] == 0)
    33e4:	5cea      	ldrb	r2, [r5, r3]
    33e6:	2a00      	cmp	r2, #0
    33e8:	d003      	beq.n	33f2 <uecom_linkCS+0x5e>
E:\2017-2018\03_Graduation Project\04_Software\05_Wangshi\02_6220\06_UpdateSoftware-180714\01_UEBootloader\KL36_Bios-180714\Debug/../04_UserBoard/uecom/uecom.c:198 (discriminator 2)
		CIPSTART[loc+i] = port[i];
    33ea:	54c2      	strb	r2, [r0, r3]
    33ec:	3301      	adds	r3, #1
E:\2017-2018\03_Graduation Project\04_Software\05_Wangshi\02_6220\06_UpdateSoftware-180714\01_UEBootloader\KL36_Bios-180714\Debug/../04_UserBoard/uecom/uecom.c:192 (discriminator 2)
	for(i=0; i<5; i++)
    33ee:	2b05      	cmp	r3, #5
    33f0:	d1f8      	bne.n	33e4 <uecom_linkCS+0x50>
E:\2017-2018\03_Graduation Project\04_Software\05_Wangshi\02_6220\06_UpdateSoftware-180714\01_UEBootloader\KL36_Bios-180714\Debug/../04_UserBoard/uecom/uecom.c:200
	strcat((char *)CIPSTART,"\r\n");
    33f2:	0020      	movs	r0, r4
    33f4:	f7fe ff5a 	bl	22ac <strlen>
    33f8:	2203      	movs	r2, #3
    33fa:	4914      	ldr	r1, [pc, #80]	; (344c <uecom_linkCS+0xb8>)
    33fc:	1820      	adds	r0, r4, r0
    33fe:	f002 fa05 	bl	580c <memcpy>
E:\2017-2018\03_Graduation Project\04_Software\05_Wangshi\02_6220\06_UpdateSoftware-180714\01_UEBootloader\KL36_Bios-180714\Debug/../04_UserBoard/uecom/uecom.c:202
	uecom_sendCmd(CIPCLOSE,2000,1);//TCP
    3402:	21fa      	movs	r1, #250	; 0xfa
    3404:	4d12      	ldr	r5, [pc, #72]	; (3450 <uecom_linkCS+0xbc>)
    3406:	2201      	movs	r2, #1
    3408:	00c9      	lsls	r1, r1, #3
    340a:	0028      	movs	r0, r5
    340c:	f7ff fef4 	bl	31f8 <uecom_sendCmd>
E:\2017-2018\03_Graduation Project\04_Software\05_Wangshi\02_6220\06_UpdateSoftware-180714\01_UEBootloader\KL36_Bios-180714\Debug/../04_UserBoard/uecom/uecom.c:203
	if(uecom_sendCmd(CIPSTART,6000,2))
    3410:	2202      	movs	r2, #2
    3412:	4910      	ldr	r1, [pc, #64]	; (3454 <uecom_linkCS+0xc0>)
    3414:	0020      	movs	r0, r4
    3416:	f7ff feef 	bl	31f8 <uecom_sendCmd>
    341a:	2800      	cmp	r0, #0
    341c:	d102      	bne.n	3424 <uecom_linkCS+0x90>
E:\2017-2018\03_Graduation Project\04_Software\05_Wangshi\02_6220\06_UpdateSoftware-180714\01_UEBootloader\KL36_Bios-180714\Debug/../04_UserBoard/uecom/uecom.c:213
	ret_val = 0;
    341e:	2000      	movs	r0, #0
E:\2017-2018\03_Graduation Project\04_Software\05_Wangshi\02_6220\06_UpdateSoftware-180714\01_UEBootloader\KL36_Bios-180714\Debug/../04_UserBoard/uecom/uecom.c:216
}
    3420:	b00f      	add	sp, #60	; 0x3c
    3422:	bdf0      	pop	{r4, r5, r6, r7, pc}
E:\2017-2018\03_Graduation Project\04_Software\05_Wangshi\02_6220\06_UpdateSoftware-180714\01_UEBootloader\KL36_Bios-180714\Debug/../04_UserBoard/uecom/uecom.c:205
		uecom_sendCmd(CIPCLOSE,2000,1);
    3424:	21fa      	movs	r1, #250	; 0xfa
    3426:	2201      	movs	r2, #1
    3428:	00c9      	lsls	r1, r1, #3
    342a:	0028      	movs	r0, r5
    342c:	f7ff fee4 	bl	31f8 <uecom_sendCmd>
E:\2017-2018\03_Graduation Project\04_Software\05_Wangshi\02_6220\06_UpdateSoftware-180714\01_UEBootloader\KL36_Bios-180714\Debug/../04_UserBoard/uecom/uecom.c:206
		if(uecom_sendCmd(CIPSTART,6000,1))
    3430:	2201      	movs	r2, #1
    3432:	4908      	ldr	r1, [pc, #32]	; (3454 <uecom_linkCS+0xc0>)
    3434:	0020      	movs	r0, r4
    3436:	f7ff fedf 	bl	31f8 <uecom_sendCmd>
    343a:	2800      	cmp	r0, #0
    343c:	d0ef      	beq.n	341e <uecom_linkCS+0x8a>
E:\2017-2018\03_Graduation Project\04_Software\05_Wangshi\02_6220\06_UpdateSoftware-180714\01_UEBootloader\KL36_Bios-180714\Debug/../04_UserBoard/uecom/uecom.c:208
			ret_val = 2;
    343e:	2002      	movs	r0, #2
    3440:	e7ee      	b.n	3420 <uecom_linkCS+0x8c>
    3442:	46c0      	nop			; (mov r8, r8)
    3444:	00005c74 	.word	0x00005c74
    3448:	00005c88 	.word	0x00005c88
    344c:	00005c8c 	.word	0x00005c8c
    3450:	1ffff868 	.word	0x1ffff868
    3454:	00001770 	.word	0x00001770

00003458 <uecom_baseInfo>:
uecom_baseInfo():
E:\2017-2018\03_Graduation Project\04_Software\05_Wangshi\02_6220\06_UpdateSoftware-180714\01_UEBootloader\KL36_Bios-180714\Debug/../04_UserBoard/uecom/uecom.c:296
{
    3458:	b5f8      	push	{r3, r4, r5, r6, r7, lr}
    345a:	464e      	mov	r6, r9
    345c:	4645      	mov	r5, r8
    345e:	4657      	mov	r7, sl
    3460:	46de      	mov	lr, fp
    3462:	4b3e      	ldr	r3, [pc, #248]	; (355c <uecom_baseInfo+0x104>)
    3464:	b5e0      	push	{r5, r6, r7, lr}
E:\2017-2018\03_Graduation Project\04_Software\05_Wangshi\02_6220\06_UpdateSoftware-180714\01_UEBootloader\KL36_Bios-180714\Debug/../04_UserBoard/uecom/uecom.c:307
		i = strstr(AT_reBuf,"+CSQ: ")-(char*)AT_reBuf;
    3466:	4f3e      	ldr	r7, [pc, #248]	; (3560 <uecom_baseInfo+0x108>)
    3468:	4698      	mov	r8, r3
    346a:	1c7b      	adds	r3, r7, #1
E:\2017-2018\03_Graduation Project\04_Software\05_Wangshi\02_6220\06_UpdateSoftware-180714\01_UEBootloader\KL36_Bios-180714\Debug/../04_UserBoard/uecom/uecom.c:296
{
    346c:	0005      	movs	r5, r0
    346e:	2603      	movs	r6, #3
    3470:	4699      	mov	r9, r3
E:\2017-2018\03_Graduation Project\04_Software\05_Wangshi\02_6220\06_UpdateSoftware-180714\01_UEBootloader\KL36_Bios-180714\Debug/../04_UserBoard/uecom/uecom.c:304
		if( uecom_sendCmd((uint_8 *)CSQ,500,3))
    3472:	21fa      	movs	r1, #250	; 0xfa
    3474:	2203      	movs	r2, #3
    3476:	0049      	lsls	r1, r1, #1
    3478:	4640      	mov	r0, r8
    347a:	f7ff febd 	bl	31f8 <uecom_sendCmd>
    347e:	1e04      	subs	r4, r0, #0
    3480:	d137      	bne.n	34f2 <uecom_baseInfo+0x9a>
E:\2017-2018\03_Graduation Project\04_Software\05_Wangshi\02_6220\06_UpdateSoftware-180714\01_UEBootloader\KL36_Bios-180714\Debug/../04_UserBoard/uecom/uecom.c:307
		i = strstr(AT_reBuf,"+CSQ: ")-(char*)AT_reBuf;
    3482:	4938      	ldr	r1, [pc, #224]	; (3564 <uecom_baseInfo+0x10c>)
    3484:	0038      	movs	r0, r7
    3486:	f002 fa0d 	bl	58a4 <strstr>
    348a:	1bc0      	subs	r0, r0, r7
    348c:	b2c3      	uxtb	r3, r0
E:\2017-2018\03_Graduation Project\04_Software\05_Wangshi\02_6220\06_UpdateSoftware-180714\01_UEBootloader\KL36_Bios-180714\Debug/../04_UserBoard/uecom/uecom.c:308
		i+=5;
    348e:	1d5a      	adds	r2, r3, #5
    3490:	b2d2      	uxtb	r2, r2
E:\2017-2018\03_Graduation Project\04_Software\05_Wangshi\02_6220\06_UpdateSoftware-180714\01_UEBootloader\KL36_Bios-180714\Debug/../04_UserBoard/uecom/uecom.c:309
		retData[0]= 0;
    3492:	702c      	strb	r4, [r5, #0]
E:\2017-2018\03_Graduation Project\04_Software\05_Wangshi\02_6220\06_UpdateSoftware-180714\01_UEBootloader\KL36_Bios-180714\Debug/../04_UserBoard/uecom/uecom.c:307
		i = strstr(AT_reBuf,"+CSQ: ")-(char*)AT_reBuf;
    3494:	469c      	mov	ip, r3
E:\2017-2018\03_Graduation Project\04_Software\05_Wangshi\02_6220\06_UpdateSoftware-180714\01_UEBootloader\KL36_Bios-180714\Debug/../04_UserBoard/uecom/uecom.c:310
		while(AT_reBuf[i]!=','&&i<AT_reLength)
    3496:	5cbb      	ldrb	r3, [r7, r2]
    3498:	2b2c      	cmp	r3, #44	; 0x2c
    349a:	d022      	beq.n	34e2 <uecom_baseInfo+0x8a>
    349c:	4932      	ldr	r1, [pc, #200]	; (3568 <uecom_baseInfo+0x110>)
    349e:	7808      	ldrb	r0, [r1, #0]
    34a0:	4290      	cmp	r0, r2
    34a2:	d91e      	bls.n	34e2 <uecom_baseInfo+0x8a>
    34a4:	4662      	mov	r2, ip
    34a6:	1d91      	adds	r1, r2, #6
    34a8:	b2c9      	uxtb	r1, r1
    34aa:	187a      	adds	r2, r7, r1
    34ac:	4449      	add	r1, r9
    34ae:	468b      	mov	fp, r1
    34b0:	4661      	mov	r1, ip
    34b2:	3806      	subs	r0, #6
    34b4:	1a40      	subs	r0, r0, r1
    34b6:	b2c0      	uxtb	r0, r0
    34b8:	0001      	movs	r1, r0
    34ba:	4459      	add	r1, fp
    34bc:	e002      	b.n	34c4 <uecom_baseInfo+0x6c>
    34be:	3201      	adds	r2, #1
E:\2017-2018\03_Graduation Project\04_Software\05_Wangshi\02_6220\06_UpdateSoftware-180714\01_UEBootloader\KL36_Bios-180714\Debug/../04_UserBoard/uecom/uecom.c:310 (discriminator 1)
    34c0:	4291      	cmp	r1, r2
    34c2:	d00c      	beq.n	34de <uecom_baseInfo+0x86>
E:\2017-2018\03_Graduation Project\04_Software\05_Wangshi\02_6220\06_UpdateSoftware-180714\01_UEBootloader\KL36_Bios-180714\Debug/../04_UserBoard/uecom/uecom.c:312
			if(AT_reBuf[i]>='0' && AT_reBuf[i]<='9')
    34c4:	3b30      	subs	r3, #48	; 0x30
    34c6:	b2db      	uxtb	r3, r3
    34c8:	2b09      	cmp	r3, #9
    34ca:	d805      	bhi.n	34d8 <uecom_baseInfo+0x80>
E:\2017-2018\03_Graduation Project\04_Software\05_Wangshi\02_6220\06_UpdateSoftware-180714\01_UEBootloader\KL36_Bios-180714\Debug/../04_UserBoard/uecom/uecom.c:313
				retData[0] = retData[0]*10 + (AT_reBuf[i]-'0');
    34cc:	00a0      	lsls	r0, r4, #2
    34ce:	1824      	adds	r4, r4, r0
    34d0:	0064      	lsls	r4, r4, #1
    34d2:	191c      	adds	r4, r3, r4
    34d4:	b2e4      	uxtb	r4, r4
    34d6:	702c      	strb	r4, [r5, #0]
E:\2017-2018\03_Graduation Project\04_Software\05_Wangshi\02_6220\06_UpdateSoftware-180714\01_UEBootloader\KL36_Bios-180714\Debug/../04_UserBoard/uecom/uecom.c:310
		while(AT_reBuf[i]!=','&&i<AT_reLength)
    34d8:	7813      	ldrb	r3, [r2, #0]
    34da:	2b2c      	cmp	r3, #44	; 0x2c
    34dc:	d1ef      	bne.n	34be <uecom_baseInfo+0x66>
E:\2017-2018\03_Graduation Project\04_Software\05_Wangshi\02_6220\06_UpdateSoftware-180714\01_UEBootloader\KL36_Bios-180714\Debug/../04_UserBoard/uecom/uecom.c:316
		if(retData[0]!=0)
    34de:	2c00      	cmp	r4, #0
    34e0:	d10e      	bne.n	3500 <uecom_baseInfo+0xa8>
E:\2017-2018\03_Graduation Project\04_Software\05_Wangshi\02_6220\06_UpdateSoftware-180714\01_UEBootloader\KL36_Bios-180714\Debug/../04_UserBoard/uecom/uecom.c:321
		uecom_delay_ms(1000);
    34e2:	20fa      	movs	r0, #250	; 0xfa
    34e4:	3e01      	subs	r6, #1
    34e6:	0080      	lsls	r0, r0, #2
    34e8:	b2f6      	uxtb	r6, r6
    34ea:	f7ff fbeb 	bl	2cc4 <Delay_ms>
E:\2017-2018\03_Graduation Project\04_Software\05_Wangshi\02_6220\06_UpdateSoftware-180714\01_UEBootloader\KL36_Bios-180714\Debug/../04_UserBoard/uecom/uecom.c:301
	for(j=0;j<3;j++)
    34ee:	2e00      	cmp	r6, #0
    34f0:	d1bf      	bne.n	3472 <uecom_baseInfo+0x1a>
E:\2017-2018\03_Graduation Project\04_Software\05_Wangshi\02_6220\06_UpdateSoftware-180714\01_UEBootloader\KL36_Bios-180714\Debug/../04_UserBoard/uecom/uecom.c:350
}
    34f2:	4650      	mov	r0, sl
    34f4:	bc3c      	pop	{r2, r3, r4, r5}
    34f6:	4690      	mov	r8, r2
    34f8:	4699      	mov	r9, r3
    34fa:	46a2      	mov	sl, r4
    34fc:	46ab      	mov	fp, r5
    34fe:	bdf8      	pop	{r3, r4, r5, r6, r7, pc}
E:\2017-2018\03_Graduation Project\04_Software\05_Wangshi\02_6220\06_UpdateSoftware-180714\01_UEBootloader\KL36_Bios-180714\Debug/../04_UserBoard/uecom/uecom.c:318
			retData[0] = (uint_16)100*(retData[0])/31;
    3500:	2064      	movs	r0, #100	; 0x64
    3502:	211f      	movs	r1, #31
    3504:	4360      	muls	r0, r4
    3506:	f7fd f893 	bl	630 <__divsi3>
E:\2017-2018\03_Graduation Project\04_Software\05_Wangshi\02_6220\06_UpdateSoftware-180714\01_UEBootloader\KL36_Bios-180714\Debug/../04_UserBoard/uecom/uecom.c:327
	if(uecom_sendCmd(CCED_1,500,3))
    350a:	21fa      	movs	r1, #250	; 0xfa
E:\2017-2018\03_Graduation Project\04_Software\05_Wangshi\02_6220\06_UpdateSoftware-180714\01_UEBootloader\KL36_Bios-180714\Debug/../04_UserBoard/uecom/uecom.c:318
			retData[0] = (uint_16)100*(retData[0])/31;
    350c:	7028      	strb	r0, [r5, #0]
E:\2017-2018\03_Graduation Project\04_Software\05_Wangshi\02_6220\06_UpdateSoftware-180714\01_UEBootloader\KL36_Bios-180714\Debug/../04_UserBoard/uecom/uecom.c:327
	if(uecom_sendCmd(CCED_1,500,3))
    350e:	2203      	movs	r2, #3
    3510:	0049      	lsls	r1, r1, #1
    3512:	4816      	ldr	r0, [pc, #88]	; (356c <uecom_baseInfo+0x114>)
    3514:	f7ff fe70 	bl	31f8 <uecom_sendCmd>
    3518:	4682      	mov	sl, r0
    351a:	2800      	cmp	r0, #0
    351c:	d11a      	bne.n	3554 <uecom_baseInfo+0xfc>
E:\2017-2018\03_Graduation Project\04_Software\05_Wangshi\02_6220\06_UpdateSoftware-180714\01_UEBootloader\KL36_Bios-180714\Debug/../04_UserBoard/uecom/uecom.c:330
    p = strstr(AT_reBuf,"+CCED:");   //':'
    351e:	4914      	ldr	r1, [pc, #80]	; (3570 <uecom_baseInfo+0x118>)
    3520:	0038      	movs	r0, r7
    3522:	f002 f9bf 	bl	58a4 <strstr>
E:\2017-2018\03_Graduation Project\04_Software\05_Wangshi\02_6220\06_UpdateSoftware-180714\01_UEBootloader\KL36_Bios-180714\Debug/../04_UserBoard/uecom/uecom.c:333
    i = 0;
    3526:	2400      	movs	r4, #0
E:\2017-2018\03_Graduation Project\04_Software\05_Wangshi\02_6220\06_UpdateSoftware-180714\01_UEBootloader\KL36_Bios-180714\Debug/../04_UserBoard/uecom/uecom.c:331
    p += 6;
    3528:	3006      	adds	r0, #6
E:\2017-2018\03_Graduation Project\04_Software\05_Wangshi\02_6220\06_UpdateSoftware-180714\01_UEBootloader\KL36_Bios-180714\Debug/../04_UserBoard/uecom/uecom.c:332
    j = 1;
    352a:	2201      	movs	r2, #1
    352c:	e000      	b.n	3530 <uecom_baseInfo+0xd8>
E:\2017-2018\03_Graduation Project\04_Software\05_Wangshi\02_6220\06_UpdateSoftware-180714\01_UEBootloader\KL36_Bios-180714\Debug/../04_UserBoard/uecom/uecom.c:339
        retData[j++] = *p;
    352e:	001a      	movs	r2, r3
E:\2017-2018\03_Graduation Project\04_Software\05_Wangshi\02_6220\06_UpdateSoftware-180714\01_UEBootloader\KL36_Bios-180714\Debug/../04_UserBoard/uecom/uecom.c:337
        if(*p == ',')
    3530:	7801      	ldrb	r1, [r0, #0]
    3532:	292c      	cmp	r1, #44	; 0x2c
    3534:	d101      	bne.n	353a <uecom_baseInfo+0xe2>
E:\2017-2018\03_Graduation Project\04_Software\05_Wangshi\02_6220\06_UpdateSoftware-180714\01_UEBootloader\KL36_Bios-180714\Debug/../04_UserBoard/uecom/uecom.c:338
            i++;
    3536:	3401      	adds	r4, #1
    3538:	b2e4      	uxtb	r4, r4
E:\2017-2018\03_Graduation Project\04_Software\05_Wangshi\02_6220\06_UpdateSoftware-180714\01_UEBootloader\KL36_Bios-180714\Debug/../04_UserBoard/uecom/uecom.c:339
        retData[j++] = *p;
    353a:	1c53      	adds	r3, r2, #1
    353c:	b2db      	uxtb	r3, r3
    353e:	54a9      	strb	r1, [r5, r2]
E:\2017-2018\03_Graduation Project\04_Software\05_Wangshi\02_6220\06_UpdateSoftware-180714\01_UEBootloader\KL36_Bios-180714\Debug/../04_UserBoard/uecom/uecom.c:340
        p++;
    3540:	3001      	adds	r0, #1
E:\2017-2018\03_Graduation Project\04_Software\05_Wangshi\02_6220\06_UpdateSoftware-180714\01_UEBootloader\KL36_Bios-180714\Debug/../04_UserBoard/uecom/uecom.c:335
    while(i<5)
    3542:	2c05      	cmp	r4, #5
    3544:	d1f3      	bne.n	352e <uecom_baseInfo+0xd6>
E:\2017-2018\03_Graduation Project\04_Software\05_Wangshi\02_6220\06_UpdateSoftware-180714\01_UEBootloader\KL36_Bios-180714\Debug/../04_UserBoard/uecom/uecom.c:342
    if(j<=0)  //
    3546:	2b00      	cmp	r3, #0
    3548:	d004      	beq.n	3554 <uecom_baseInfo+0xfc>
E:\2017-2018\03_Graduation Project\04_Software\05_Wangshi\02_6220\06_UpdateSoftware-180714\01_UEBootloader\KL36_Bios-180714\Debug/../04_UserBoard/uecom/uecom.c:345
    retData[j-1]=0;
    354a:	18ed      	adds	r5, r5, r3
    354c:	2300      	movs	r3, #0
    354e:	3d01      	subs	r5, #1
    3550:	702b      	strb	r3, [r5, #0]
    3552:	e7ce      	b.n	34f2 <uecom_baseInfo+0x9a>
E:\2017-2018\03_Graduation Project\04_Software\05_Wangshi\02_6220\06_UpdateSoftware-180714\01_UEBootloader\KL36_Bios-180714\Debug/../04_UserBoard/uecom/uecom.c:325
	ret = 2;           //2
    3554:	2302      	movs	r3, #2
    3556:	469a      	mov	sl, r3
    3558:	e7cb      	b.n	34f2 <uecom_baseInfo+0x9a>
    355a:	46c0      	nop			; (mov r8, r8)
    355c:	1ffff878 	.word	0x1ffff878
    3560:	1ffff9bc 	.word	0x1ffff9bc
    3564:	00005c28 	.word	0x00005c28
    3568:	1ffffa84 	.word	0x1ffffa84
    356c:	1ffff810 	.word	0x1ffff810
    3570:	00005c30 	.word	0x00005c30

00003574 <uecom_gnssSwitch>:
uecom_gnssSwitch():
E:\2017-2018\03_Graduation Project\04_Software\05_Wangshi\02_6220\06_UpdateSoftware-180714\01_UEBootloader\KL36_Bios-180714\Debug/../04_UserBoard/uecom/uecom.c:390
	    uecom_sendCmd(GPSACT_1,1000,2);
    3574:	21fa      	movs	r1, #250	; 0xfa
E:\2017-2018\03_Graduation Project\04_Software\05_Wangshi\02_6220\06_UpdateSoftware-180714\01_UEBootloader\KL36_Bios-180714\Debug/../04_UserBoard/uecom/uecom.c:383
{
    3576:	b510      	push	{r4, lr}
E:\2017-2018\03_Graduation Project\04_Software\05_Wangshi\02_6220\06_UpdateSoftware-180714\01_UEBootloader\KL36_Bios-180714\Debug/../04_UserBoard/uecom/uecom.c:390
	    uecom_sendCmd(GPSACT_1,1000,2);
    3578:	2202      	movs	r2, #2
E:\2017-2018\03_Graduation Project\04_Software\05_Wangshi\02_6220\06_UpdateSoftware-180714\01_UEBootloader\KL36_Bios-180714\Debug/../04_UserBoard/uecom/uecom.c:383
{
    357a:	0004      	movs	r4, r0
E:\2017-2018\03_Graduation Project\04_Software\05_Wangshi\02_6220\06_UpdateSoftware-180714\01_UEBootloader\KL36_Bios-180714\Debug/../04_UserBoard/uecom/uecom.c:390
	    uecom_sendCmd(GPSACT_1,1000,2);
    357c:	0089      	lsls	r1, r1, #2
E:\2017-2018\03_Graduation Project\04_Software\05_Wangshi\02_6220\06_UpdateSoftware-180714\01_UEBootloader\KL36_Bios-180714\Debug/../04_UserBoard/uecom/uecom.c:388
    if(state != 0)
    357e:	2800      	cmp	r0, #0
    3580:	d106      	bne.n	3590 <uecom_gnssSwitch+0x1c>
E:\2017-2018\03_Graduation Project\04_Software\05_Wangshi\02_6220\06_UpdateSoftware-180714\01_UEBootloader\KL36_Bios-180714\Debug/../04_UserBoard/uecom/uecom.c:397
    	if(uecom_sendCmd(GPSACT_0,1000,2))
    3582:	4819      	ldr	r0, [pc, #100]	; (35e8 <uecom_gnssSwitch+0x74>)
    3584:	f7ff fe38 	bl	31f8 <uecom_sendCmd>
    3588:	1e43      	subs	r3, r0, #1
    358a:	4198      	sbcs	r0, r3
E:\2017-2018\03_Graduation Project\04_Software\05_Wangshi\02_6220\06_UpdateSoftware-180714\01_UEBootloader\KL36_Bios-180714\Debug/../04_UserBoard/uecom/uecom.c:386
	ret = 1;    //
    358c:	b2c0      	uxtb	r0, r0
E:\2017-2018\03_Graduation Project\04_Software\05_Wangshi\02_6220\06_UpdateSoftware-180714\01_UEBootloader\KL36_Bios-180714\Debug/../04_UserBoard/uecom/uecom.c:415
}
    358e:	bd10      	pop	{r4, pc}
E:\2017-2018\03_Graduation Project\04_Software\05_Wangshi\02_6220\06_UpdateSoftware-180714\01_UEBootloader\KL36_Bios-180714\Debug/../04_UserBoard/uecom/uecom.c:390
	    uecom_sendCmd(GPSACT_1,1000,2);
    3590:	4816      	ldr	r0, [pc, #88]	; (35ec <uecom_gnssSwitch+0x78>)
    3592:	f7ff fe31 	bl	31f8 <uecom_sendCmd>
E:\2017-2018\03_Graduation Project\04_Software\05_Wangshi\02_6220\06_UpdateSoftware-180714\01_UEBootloader\KL36_Bios-180714\Debug/../04_UserBoard/uecom/uecom.c:391
		uecom_delay_ms(500);    //500msGNSS
    3596:	20fa      	movs	r0, #250	; 0xfa
    3598:	0040      	lsls	r0, r0, #1
    359a:	f7ff fb93 	bl	2cc4 <Delay_ms>
E:\2017-2018\03_Graduation Project\04_Software\05_Wangshi\02_6220\06_UpdateSoftware-180714\01_UEBootloader\KL36_Bios-180714\Debug/../04_UserBoard/uecom/uecom.c:394
	switch(state)
    359e:	2c02      	cmp	r4, #2
    35a0:	d018      	beq.n	35d4 <uecom_gnssSwitch+0x60>
    35a2:	2c03      	cmp	r4, #3
    35a4:	d00c      	beq.n	35c0 <uecom_gnssSwitch+0x4c>
E:\2017-2018\03_Graduation Project\04_Software\05_Wangshi\02_6220\06_UpdateSoftware-180714\01_UEBootloader\KL36_Bios-180714\Debug/../04_UserBoard/uecom/uecom.c:412
	ret = 0;
    35a6:	2000      	movs	r0, #0
E:\2017-2018\03_Graduation Project\04_Software\05_Wangshi\02_6220\06_UpdateSoftware-180714\01_UEBootloader\KL36_Bios-180714\Debug/../04_UserBoard/uecom/uecom.c:394
	switch(state)
    35a8:	2c01      	cmp	r4, #1
    35aa:	d1f0      	bne.n	358e <uecom_gnssSwitch+0x1a>
E:\2017-2018\03_Graduation Project\04_Software\05_Wangshi\02_6220\06_UpdateSoftware-180714\01_UEBootloader\KL36_Bios-180714\Debug/../04_UserBoard/uecom/uecom.c:400
    	if(uecom_sendCmd(GPSRESTART_1,1000,2))
    35ac:	21fa      	movs	r1, #250	; 0xfa
    35ae:	2202      	movs	r2, #2
    35b0:	0089      	lsls	r1, r1, #2
    35b2:	480f      	ldr	r0, [pc, #60]	; (35f0 <uecom_gnssSwitch+0x7c>)
    35b4:	f7ff fe20 	bl	31f8 <uecom_sendCmd>
    35b8:	1e43      	subs	r3, r0, #1
    35ba:	4198      	sbcs	r0, r3
E:\2017-2018\03_Graduation Project\04_Software\05_Wangshi\02_6220\06_UpdateSoftware-180714\01_UEBootloader\KL36_Bios-180714\Debug/../04_UserBoard/uecom/uecom.c:386
	ret = 1;    //
    35bc:	b2c0      	uxtb	r0, r0
E:\2017-2018\03_Graduation Project\04_Software\05_Wangshi\02_6220\06_UpdateSoftware-180714\01_UEBootloader\KL36_Bios-180714\Debug/../04_UserBoard/uecom/uecom.c:413
	uecom_gnssSwitch_exit:
    35be:	e7e6      	b.n	358e <uecom_gnssSwitch+0x1a>
E:\2017-2018\03_Graduation Project\04_Software\05_Wangshi\02_6220\06_UpdateSoftware-180714\01_UEBootloader\KL36_Bios-180714\Debug/../04_UserBoard/uecom/uecom.c:406
    	if(uecom_sendCmd(GPSRESTART_3,1000,2))
    35c0:	21fa      	movs	r1, #250	; 0xfa
    35c2:	2202      	movs	r2, #2
    35c4:	0089      	lsls	r1, r1, #2
    35c6:	480b      	ldr	r0, [pc, #44]	; (35f4 <uecom_gnssSwitch+0x80>)
    35c8:	f7ff fe16 	bl	31f8 <uecom_sendCmd>
    35cc:	1e43      	subs	r3, r0, #1
    35ce:	4198      	sbcs	r0, r3
E:\2017-2018\03_Graduation Project\04_Software\05_Wangshi\02_6220\06_UpdateSoftware-180714\01_UEBootloader\KL36_Bios-180714\Debug/../04_UserBoard/uecom/uecom.c:386
	ret = 1;    //
    35d0:	b2c0      	uxtb	r0, r0
E:\2017-2018\03_Graduation Project\04_Software\05_Wangshi\02_6220\06_UpdateSoftware-180714\01_UEBootloader\KL36_Bios-180714\Debug/../04_UserBoard/uecom/uecom.c:413
	uecom_gnssSwitch_exit:
    35d2:	e7dc      	b.n	358e <uecom_gnssSwitch+0x1a>
E:\2017-2018\03_Graduation Project\04_Software\05_Wangshi\02_6220\06_UpdateSoftware-180714\01_UEBootloader\KL36_Bios-180714\Debug/../04_UserBoard/uecom/uecom.c:403
    	if(uecom_sendCmd(GPSRESTART_2,1000,2))
    35d4:	21fa      	movs	r1, #250	; 0xfa
    35d6:	2202      	movs	r2, #2
    35d8:	0089      	lsls	r1, r1, #2
    35da:	4807      	ldr	r0, [pc, #28]	; (35f8 <uecom_gnssSwitch+0x84>)
    35dc:	f7ff fe0c 	bl	31f8 <uecom_sendCmd>
    35e0:	1e43      	subs	r3, r0, #1
    35e2:	4198      	sbcs	r0, r3
E:\2017-2018\03_Graduation Project\04_Software\05_Wangshi\02_6220\06_UpdateSoftware-180714\01_UEBootloader\KL36_Bios-180714\Debug/../04_UserBoard/uecom/uecom.c:386
	ret = 1;    //
    35e4:	b2c0      	uxtb	r0, r0
E:\2017-2018\03_Graduation Project\04_Software\05_Wangshi\02_6220\06_UpdateSoftware-180714\01_UEBootloader\KL36_Bios-180714\Debug/../04_UserBoard/uecom/uecom.c:413
	uecom_gnssSwitch_exit:
    35e6:	e7d2      	b.n	358e <uecom_gnssSwitch+0x1a>
    35e8:	1ffff88c 	.word	0x1ffff88c
    35ec:	1ffff89c 	.word	0x1ffff89c
    35f0:	1ffff8ac 	.word	0x1ffff8ac
    35f4:	1ffff8d4 	.word	0x1ffff8d4
    35f8:	1ffff8c0 	.word	0x1ffff8c0

000035fc <uecom_gnssGetInfo>:
uecom_gnssGetInfo():
E:\2017-2018\03_Graduation Project\04_Software\05_Wangshi\02_6220\06_UpdateSoftware-180714\01_UEBootloader\KL36_Bios-180714\Debug/../04_UserBoard/uecom/uecom.c:429
{
    35fc:	b5f0      	push	{r4, r5, r6, r7, lr}
    35fe:	46de      	mov	lr, fp
    3600:	464e      	mov	r6, r9
    3602:	4657      	mov	r7, sl
    3604:	4645      	mov	r5, r8
E:\2017-2018\03_Graduation Project\04_Software\05_Wangshi\02_6220\06_UpdateSoftware-180714\01_UEBootloader\KL36_Bios-180714\Debug/../04_UserBoard/uecom/uecom.c:435
	if(uecom_sendCmd(GPSRMC,500,3))
    3606:	21fa      	movs	r1, #250	; 0xfa
E:\2017-2018\03_Graduation Project\04_Software\05_Wangshi\02_6220\06_UpdateSoftware-180714\01_UEBootloader\KL36_Bios-180714\Debug/../04_UserBoard/uecom/uecom.c:429
{
    3608:	b5e0      	push	{r5, r6, r7, lr}
    360a:	4681      	mov	r9, r0
    360c:	b085      	sub	sp, #20
E:\2017-2018\03_Graduation Project\04_Software\05_Wangshi\02_6220\06_UpdateSoftware-180714\01_UEBootloader\KL36_Bios-180714\Debug/../04_UserBoard/uecom/uecom.c:435
	if(uecom_sendCmd(GPSRMC,500,3))
    360e:	2203      	movs	r2, #3
    3610:	0049      	lsls	r1, r1, #1
    3612:	488e      	ldr	r0, [pc, #568]	; (384c <uecom_gnssGetInfo+0x250>)
    3614:	f7ff fdf0 	bl	31f8 <uecom_sendCmd>
    3618:	9001      	str	r0, [sp, #4]
    361a:	2800      	cmp	r0, #0
    361c:	d000      	beq.n	3620 <uecom_gnssGetInfo+0x24>
    361e:	e288      	b.n	3b32 <uecom_gnssGetInfo+0x536>
E:\2017-2018\03_Graduation Project\04_Software\05_Wangshi\02_6220\06_UpdateSoftware-180714\01_UEBootloader\KL36_Bios-180714\Debug/../04_UserBoard/uecom/uecom.c:440
    if(strstr((char*)AT_reBuf,"20000101000000"))
    3620:	4b8b      	ldr	r3, [pc, #556]	; (3850 <uecom_gnssGetInfo+0x254>)
    3622:	498c      	ldr	r1, [pc, #560]	; (3854 <uecom_gnssGetInfo+0x258>)
    3624:	0018      	movs	r0, r3
    3626:	4698      	mov	r8, r3
    3628:	f002 f93c 	bl	58a4 <strstr>
    362c:	2800      	cmp	r0, #0
    362e:	d009      	beq.n	3644 <uecom_gnssGetInfo+0x48>
E:\2017-2018\03_Graduation Project\04_Software\05_Wangshi\02_6220\06_UpdateSoftware-180714\01_UEBootloader\KL36_Bios-180714\Debug/../04_UserBoard/uecom/uecom.c:438
	ret = 2;      //2
    3630:	2302      	movs	r3, #2
    3632:	9301      	str	r3, [sp, #4]
E:\2017-2018\03_Graduation Project\04_Software\05_Wangshi\02_6220\06_UpdateSoftware-180714\01_UEBootloader\KL36_Bios-180714\Debug/../04_UserBoard/uecom/uecom.c:551
}
    3634:	9801      	ldr	r0, [sp, #4]
    3636:	b005      	add	sp, #20
    3638:	bc3c      	pop	{r2, r3, r4, r5}
    363a:	4690      	mov	r8, r2
    363c:	4699      	mov	r9, r3
    363e:	46a2      	mov	sl, r4
    3640:	46ab      	mov	fp, r5
    3642:	bdf0      	pop	{r4, r5, r6, r7, pc}
    3644:	4645      	mov	r5, r8
    3646:	4642      	mov	r2, r8
    3648:	351e      	adds	r5, #30
E:\2017-2018\03_Graduation Project\04_Software\05_Wangshi\02_6220\06_UpdateSoftware-180714\01_UEBootloader\KL36_Bios-180714\Debug/../04_UserBoard/uecom/uecom.c:443
    i=0;    j=0;
    364a:	2300      	movs	r3, #0
    364c:	464e      	mov	r6, r9
    364e:	e002      	b.n	3656 <uecom_gnssGetInfo+0x5a>
    3650:	3201      	adds	r2, #1
E:\2017-2018\03_Graduation Project\04_Software\05_Wangshi\02_6220\06_UpdateSoftware-180714\01_UEBootloader\KL36_Bios-180714\Debug/../04_UserBoard/uecom/uecom.c:444 (discriminator 1)
    while(i<14 && j<30)
    3652:	4295      	cmp	r5, r2
    3654:	d00a      	beq.n	366c <uecom_gnssGetInfo+0x70>
E:\2017-2018\03_Graduation Project\04_Software\05_Wangshi\02_6220\06_UpdateSoftware-180714\01_UEBootloader\KL36_Bios-180714\Debug/../04_UserBoard/uecom/uecom.c:446
    	if(AT_reBuf[j]>='0' &&  AT_reBuf[j] <= '9')
    3656:	7811      	ldrb	r1, [r2, #0]
    3658:	001c      	movs	r4, r3
    365a:	0008      	movs	r0, r1
    365c:	3830      	subs	r0, #48	; 0x30
    365e:	2809      	cmp	r0, #9
    3660:	d802      	bhi.n	3668 <uecom_gnssGetInfo+0x6c>
E:\2017-2018\03_Graduation Project\04_Software\05_Wangshi\02_6220\06_UpdateSoftware-180714\01_UEBootloader\KL36_Bios-180714\Debug/../04_UserBoard/uecom/uecom.c:447
    		data->time[i++] = AT_reBuf[j];
    3662:	3301      	adds	r3, #1
    3664:	b2db      	uxtb	r3, r3
    3666:	5531      	strb	r1, [r6, r4]
E:\2017-2018\03_Graduation Project\04_Software\05_Wangshi\02_6220\06_UpdateSoftware-180714\01_UEBootloader\KL36_Bios-180714\Debug/../04_UserBoard/uecom/uecom.c:444
    while(i<14 && j<30)
    3668:	2b0e      	cmp	r3, #14
    366a:	d1f1      	bne.n	3650 <uecom_gnssGetInfo+0x54>
E:\2017-2018\03_Graduation Project\04_Software\05_Wangshi\02_6220\06_UpdateSoftware-180714\01_UEBootloader\KL36_Bios-180714\Debug/../04_UserBoard/uecom/uecom.c:450
    data->time[i]=0;
    366c:	2200      	movs	r2, #0
E:\2017-2018\03_Graduation Project\04_Software\05_Wangshi\02_6220\06_UpdateSoftware-180714\01_UEBootloader\KL36_Bios-180714\Debug/../04_UserBoard/uecom/uecom.c:455
	i = strstr(AT_reBuf,"+GPSRMC:")-(char*)AT_reBuf;
    366e:	497a      	ldr	r1, [pc, #488]	; (3858 <uecom_gnssGetInfo+0x25c>)
E:\2017-2018\03_Graduation Project\04_Software\05_Wangshi\02_6220\06_UpdateSoftware-180714\01_UEBootloader\KL36_Bios-180714\Debug/../04_UserBoard/uecom/uecom.c:450
    data->time[i]=0;
    3670:	54f2      	strb	r2, [r6, r3]
E:\2017-2018\03_Graduation Project\04_Software\05_Wangshi\02_6220\06_UpdateSoftware-180714\01_UEBootloader\KL36_Bios-180714\Debug/../04_UserBoard/uecom/uecom.c:455
	i = strstr(AT_reBuf,"+GPSRMC:")-(char*)AT_reBuf;
    3672:	4640      	mov	r0, r8
    3674:	f002 f916 	bl	58a4 <strstr>
    3678:	4643      	mov	r3, r8
    367a:	1ac7      	subs	r7, r0, r3
    367c:	b2ff      	uxtb	r7, r7
E:\2017-2018\03_Graduation Project\04_Software\05_Wangshi\02_6220\06_UpdateSoftware-180714\01_UEBootloader\KL36_Bios-180714\Debug/../04_UserBoard/uecom/uecom.c:456
	i+=24;
    367e:	003b      	movs	r3, r7
E:\2017-2018\03_Graduation Project\04_Software\05_Wangshi\02_6220\06_UpdateSoftware-180714\01_UEBootloader\KL36_Bios-180714\Debug/../04_UserBoard/uecom/uecom.c:457
    if(AT_reBuf[i]!='A')
    3680:	4642      	mov	r2, r8
E:\2017-2018\03_Graduation Project\04_Software\05_Wangshi\02_6220\06_UpdateSoftware-180714\01_UEBootloader\KL36_Bios-180714\Debug/../04_UserBoard/uecom/uecom.c:456
	i+=24;
    3682:	3318      	adds	r3, #24
E:\2017-2018\03_Graduation Project\04_Software\05_Wangshi\02_6220\06_UpdateSoftware-180714\01_UEBootloader\KL36_Bios-180714\Debug/../04_UserBoard/uecom/uecom.c:457
    if(AT_reBuf[i]!='A')
    3684:	b2db      	uxtb	r3, r3
    3686:	5cd3      	ldrb	r3, [r2, r3]
    3688:	46b1      	mov	r9, r6
    368a:	2b41      	cmp	r3, #65	; 0x41
    368c:	d000      	beq.n	3690 <uecom_gnssGetInfo+0x94>
    368e:	e253      	b.n	3b38 <uecom_gnssGetInfo+0x53c>
E:\2017-2018\03_Graduation Project\04_Software\05_Wangshi\02_6220\06_UpdateSoftware-180714\01_UEBootloader\KL36_Bios-180714\Debug/../04_UserBoard/uecom/uecom.c:462
    i += 2;
    3690:	003b      	movs	r3, r7
    3692:	331a      	adds	r3, #26
E:\2017-2018\03_Graduation Project\04_Software\05_Wangshi\02_6220\06_UpdateSoftware-180714\01_UEBootloader\KL36_Bios-180714\Debug/../04_UserBoard/uecom/uecom.c:463
    a = AT_reBuf[i++] - '0';
    3694:	b2db      	uxtb	r3, r3
    3696:	5cd0      	ldrb	r0, [r2, r3]
E:\2017-2018\03_Graduation Project\04_Software\05_Wangshi\02_6220\06_UpdateSoftware-180714\01_UEBootloader\KL36_Bios-180714\Debug/../04_UserBoard/uecom/uecom.c:465
	b = AT_reBuf[i++] - '0';
    3698:	003e      	movs	r6, r7
E:\2017-2018\03_Graduation Project\04_Software\05_Wangshi\02_6220\06_UpdateSoftware-180714\01_UEBootloader\KL36_Bios-180714\Debug/../04_UserBoard/uecom/uecom.c:463
    a = AT_reBuf[i++] - '0';
    369a:	3830      	subs	r0, #48	; 0x30
    369c:	f7fe fd98 	bl	21d0 <__aeabi_i2d>
E:\2017-2018\03_Graduation Project\04_Software\05_Wangshi\02_6220\06_UpdateSoftware-180714\01_UEBootloader\KL36_Bios-180714\Debug/../04_UserBoard/uecom/uecom.c:464
    a  = a*10 + AT_reBuf[i++] - '0';
    36a0:	2200      	movs	r2, #0
    36a2:	4b6e      	ldr	r3, [pc, #440]	; (385c <uecom_gnssGetInfo+0x260>)
    36a4:	f7fd ffda 	bl	165c <__aeabi_dmul>
E:\2017-2018\03_Graduation Project\04_Software\05_Wangshi\02_6220\06_UpdateSoftware-180714\01_UEBootloader\KL36_Bios-180714\Debug/../04_UserBoard/uecom/uecom.c:463
    a = AT_reBuf[i++] - '0';
    36a8:	003b      	movs	r3, r7
E:\2017-2018\03_Graduation Project\04_Software\05_Wangshi\02_6220\06_UpdateSoftware-180714\01_UEBootloader\KL36_Bios-180714\Debug/../04_UserBoard/uecom/uecom.c:464
    a  = a*10 + AT_reBuf[i++] - '0';
    36aa:	4642      	mov	r2, r8
E:\2017-2018\03_Graduation Project\04_Software\05_Wangshi\02_6220\06_UpdateSoftware-180714\01_UEBootloader\KL36_Bios-180714\Debug/../04_UserBoard/uecom/uecom.c:463
    a = AT_reBuf[i++] - '0';
    36ac:	331b      	adds	r3, #27
E:\2017-2018\03_Graduation Project\04_Software\05_Wangshi\02_6220\06_UpdateSoftware-180714\01_UEBootloader\KL36_Bios-180714\Debug/../04_UserBoard/uecom/uecom.c:464
    a  = a*10 + AT_reBuf[i++] - '0';
    36ae:	b2db      	uxtb	r3, r3
    36b0:	0004      	movs	r4, r0
    36b2:	5cd0      	ldrb	r0, [r2, r3]
    36b4:	000d      	movs	r5, r1
    36b6:	f7fe fd8b 	bl	21d0 <__aeabi_i2d>
    36ba:	0002      	movs	r2, r0
    36bc:	000b      	movs	r3, r1
    36be:	0020      	movs	r0, r4
    36c0:	0029      	movs	r1, r5
    36c2:	f7fd f9ad 	bl	a20 <__aeabi_dadd>
    36c6:	2200      	movs	r2, #0
    36c8:	4b65      	ldr	r3, [pc, #404]	; (3860 <uecom_gnssGetInfo+0x264>)
    36ca:	f7fe fa39 	bl	1b40 <__aeabi_dsub>
E:\2017-2018\03_Graduation Project\04_Software\05_Wangshi\02_6220\06_UpdateSoftware-180714\01_UEBootloader\KL36_Bios-180714\Debug/../04_UserBoard/uecom/uecom.c:465
	b = AT_reBuf[i++] - '0';
    36ce:	4643      	mov	r3, r8
E:\2017-2018\03_Graduation Project\04_Software\05_Wangshi\02_6220\06_UpdateSoftware-180714\01_UEBootloader\KL36_Bios-180714\Debug/../04_UserBoard/uecom/uecom.c:464
    a  = a*10 + AT_reBuf[i++] - '0';
    36d0:	371c      	adds	r7, #28
E:\2017-2018\03_Graduation Project\04_Software\05_Wangshi\02_6220\06_UpdateSoftware-180714\01_UEBootloader\KL36_Bios-180714\Debug/../04_UserBoard/uecom/uecom.c:465
	b = AT_reBuf[i++] - '0';
    36d2:	b2ff      	uxtb	r7, r7
E:\2017-2018\03_Graduation Project\04_Software\05_Wangshi\02_6220\06_UpdateSoftware-180714\01_UEBootloader\KL36_Bios-180714\Debug/../04_UserBoard/uecom/uecom.c:464
    a  = a*10 + AT_reBuf[i++] - '0';
    36d4:	9002      	str	r0, [sp, #8]
    36d6:	9103      	str	r1, [sp, #12]
E:\2017-2018\03_Graduation Project\04_Software\05_Wangshi\02_6220\06_UpdateSoftware-180714\01_UEBootloader\KL36_Bios-180714\Debug/../04_UserBoard/uecom/uecom.c:465
	b = AT_reBuf[i++] - '0';
    36d8:	5dd8      	ldrb	r0, [r3, r7]
    36da:	361d      	adds	r6, #29
    36dc:	3830      	subs	r0, #48	; 0x30
    36de:	b2f6      	uxtb	r6, r6
    36e0:	f7fe fd76 	bl	21d0 <__aeabi_i2d>
    36e4:	e014      	b.n	3710 <uecom_gnssGetInfo+0x114>
E:\2017-2018\03_Graduation Project\04_Software\05_Wangshi\02_6220\06_UpdateSoftware-180714\01_UEBootloader\KL36_Bios-180714\Debug/../04_UserBoard/uecom/uecom.c:468
		b = b*10 + AT_reBuf[i++] - '0';
    36e6:	2200      	movs	r2, #0
    36e8:	4b5c      	ldr	r3, [pc, #368]	; (385c <uecom_gnssGetInfo+0x260>)
    36ea:	f7fd ffb7 	bl	165c <__aeabi_dmul>
    36ee:	0004      	movs	r4, r0
    36f0:	0038      	movs	r0, r7
    36f2:	000d      	movs	r5, r1
    36f4:	f7fe fd6c 	bl	21d0 <__aeabi_i2d>
    36f8:	0002      	movs	r2, r0
    36fa:	000b      	movs	r3, r1
    36fc:	0020      	movs	r0, r4
    36fe:	0029      	movs	r1, r5
    3700:	f7fd f98e 	bl	a20 <__aeabi_dadd>
    3704:	3601      	adds	r6, #1
    3706:	2200      	movs	r2, #0
    3708:	4b55      	ldr	r3, [pc, #340]	; (3860 <uecom_gnssGetInfo+0x264>)
    370a:	b2f6      	uxtb	r6, r6
    370c:	f7fe fa18 	bl	1b40 <__aeabi_dsub>
E:\2017-2018\03_Graduation Project\04_Software\05_Wangshi\02_6220\06_UpdateSoftware-180714\01_UEBootloader\KL36_Bios-180714\Debug/../04_UserBoard/uecom/uecom.c:466
	while(AT_reBuf[i]!='.')
    3710:	4643      	mov	r3, r8
    3712:	5d9f      	ldrb	r7, [r3, r6]
E:\2017-2018\03_Graduation Project\04_Software\05_Wangshi\02_6220\06_UpdateSoftware-180714\01_UEBootloader\KL36_Bios-180714\Debug/../04_UserBoard/uecom/uecom.c:465
	b = AT_reBuf[i++] - '0';
    3714:	0004      	movs	r4, r0
    3716:	000d      	movs	r5, r1
E:\2017-2018\03_Graduation Project\04_Software\05_Wangshi\02_6220\06_UpdateSoftware-180714\01_UEBootloader\KL36_Bios-180714\Debug/../04_UserBoard/uecom/uecom.c:466
	while(AT_reBuf[i]!='.')
    3718:	2f2e      	cmp	r7, #46	; 0x2e
    371a:	d1e4      	bne.n	36e6 <uecom_gnssGetInfo+0xea>
E:\2017-2018\03_Graduation Project\04_Software\05_Wangshi\02_6220\06_UpdateSoftware-180714\01_UEBootloader\KL36_Bios-180714\Debug/../04_UserBoard/uecom/uecom.c:472
	b = b + (AT_reBuf[i++] - '0')*c;
    371c:	1cb7      	adds	r7, r6, #2
E:\2017-2018\03_Graduation Project\04_Software\05_Wangshi\02_6220\06_UpdateSoftware-180714\01_UEBootloader\KL36_Bios-180714\Debug/../04_UserBoard/uecom/uecom.c:470
	i ++;
    371e:	3601      	adds	r6, #1
E:\2017-2018\03_Graduation Project\04_Software\05_Wangshi\02_6220\06_UpdateSoftware-180714\01_UEBootloader\KL36_Bios-180714\Debug/../04_UserBoard/uecom/uecom.c:472
	b = b + (AT_reBuf[i++] - '0')*c;
    3720:	b2f6      	uxtb	r6, r6
    3722:	5d98      	ldrb	r0, [r3, r6]
    3724:	b2ff      	uxtb	r7, r7
    3726:	3830      	subs	r0, #48	; 0x30
    3728:	f7fe fd52 	bl	21d0 <__aeabi_i2d>
    372c:	4a4d      	ldr	r2, [pc, #308]	; (3864 <uecom_gnssGetInfo+0x268>)
    372e:	4b4e      	ldr	r3, [pc, #312]	; (3868 <uecom_gnssGetInfo+0x26c>)
    3730:	f7fd ff94 	bl	165c <__aeabi_dmul>
    3734:	002b      	movs	r3, r5
    3736:	0022      	movs	r2, r4
    3738:	f7fd f972 	bl	a20 <__aeabi_dadd>
E:\2017-2018\03_Graduation Project\04_Software\05_Wangshi\02_6220\06_UpdateSoftware-180714\01_UEBootloader\KL36_Bios-180714\Debug/../04_UserBoard/uecom/uecom.c:473
	while(AT_reBuf[i]!=',')
    373c:	4643      	mov	r3, r8
    373e:	5dde      	ldrb	r6, [r3, r7]
    3740:	2e2c      	cmp	r6, #44	; 0x2c
    3742:	d028      	beq.n	3796 <uecom_gnssGetInfo+0x19a>
E:\2017-2018\03_Graduation Project\04_Software\05_Wangshi\02_6220\06_UpdateSoftware-180714\01_UEBootloader\KL36_Bios-180714\Debug/../04_UserBoard/uecom/uecom.c:471
	c = 0.1;
    3744:	46b2      	mov	sl, r6
    3746:	46bb      	mov	fp, r7
    3748:	0006      	movs	r6, r0
    374a:	000f      	movs	r7, r1
    374c:	4c45      	ldr	r4, [pc, #276]	; (3864 <uecom_gnssGetInfo+0x268>)
    374e:	4d46      	ldr	r5, [pc, #280]	; (3868 <uecom_gnssGetInfo+0x26c>)
E:\2017-2018\03_Graduation Project\04_Software\05_Wangshi\02_6220\06_UpdateSoftware-180714\01_UEBootloader\KL36_Bios-180714\Debug/../04_UserBoard/uecom/uecom.c:475
		c *= 0.1;
    3750:	4a44      	ldr	r2, [pc, #272]	; (3864 <uecom_gnssGetInfo+0x268>)
    3752:	4b45      	ldr	r3, [pc, #276]	; (3868 <uecom_gnssGetInfo+0x26c>)
    3754:	0020      	movs	r0, r4
    3756:	0029      	movs	r1, r5
    3758:	f7fd ff80 	bl	165c <__aeabi_dmul>
E:\2017-2018\03_Graduation Project\04_Software\05_Wangshi\02_6220\06_UpdateSoftware-180714\01_UEBootloader\KL36_Bios-180714\Debug/../04_UserBoard/uecom/uecom.c:476
		b = b + (AT_reBuf[i++] - '0')*c;
    375c:	465b      	mov	r3, fp
E:\2017-2018\03_Graduation Project\04_Software\05_Wangshi\02_6220\06_UpdateSoftware-180714\01_UEBootloader\KL36_Bios-180714\Debug/../04_UserBoard/uecom/uecom.c:475
		c *= 0.1;
    375e:	0004      	movs	r4, r0
E:\2017-2018\03_Graduation Project\04_Software\05_Wangshi\02_6220\06_UpdateSoftware-180714\01_UEBootloader\KL36_Bios-180714\Debug/../04_UserBoard/uecom/uecom.c:476
		b = b + (AT_reBuf[i++] - '0')*c;
    3760:	4650      	mov	r0, sl
E:\2017-2018\03_Graduation Project\04_Software\05_Wangshi\02_6220\06_UpdateSoftware-180714\01_UEBootloader\KL36_Bios-180714\Debug/../04_UserBoard/uecom/uecom.c:475
		c *= 0.1;
    3762:	000d      	movs	r5, r1
E:\2017-2018\03_Graduation Project\04_Software\05_Wangshi\02_6220\06_UpdateSoftware-180714\01_UEBootloader\KL36_Bios-180714\Debug/../04_UserBoard/uecom/uecom.c:476
		b = b + (AT_reBuf[i++] - '0')*c;
    3764:	3301      	adds	r3, #1
    3766:	b2db      	uxtb	r3, r3
    3768:	3830      	subs	r0, #48	; 0x30
    376a:	469b      	mov	fp, r3
    376c:	f7fe fd30 	bl	21d0 <__aeabi_i2d>
    3770:	0022      	movs	r2, r4
    3772:	002b      	movs	r3, r5
    3774:	f7fd ff72 	bl	165c <__aeabi_dmul>
    3778:	0002      	movs	r2, r0
    377a:	000b      	movs	r3, r1
    377c:	0030      	movs	r0, r6
    377e:	0039      	movs	r1, r7
    3780:	f7fd f94e 	bl	a20 <__aeabi_dadd>
E:\2017-2018\03_Graduation Project\04_Software\05_Wangshi\02_6220\06_UpdateSoftware-180714\01_UEBootloader\KL36_Bios-180714\Debug/../04_UserBoard/uecom/uecom.c:473
	while(AT_reBuf[i]!=',')
    3784:	4643      	mov	r3, r8
    3786:	465a      	mov	r2, fp
    3788:	5c9b      	ldrb	r3, [r3, r2]
E:\2017-2018\03_Graduation Project\04_Software\05_Wangshi\02_6220\06_UpdateSoftware-180714\01_UEBootloader\KL36_Bios-180714\Debug/../04_UserBoard/uecom/uecom.c:476
		b = b + (AT_reBuf[i++] - '0')*c;
    378a:	0006      	movs	r6, r0
    378c:	000f      	movs	r7, r1
E:\2017-2018\03_Graduation Project\04_Software\05_Wangshi\02_6220\06_UpdateSoftware-180714\01_UEBootloader\KL36_Bios-180714\Debug/../04_UserBoard/uecom/uecom.c:473
	while(AT_reBuf[i]!=',')
    378e:	469a      	mov	sl, r3
    3790:	2b2c      	cmp	r3, #44	; 0x2c
    3792:	d1dd      	bne.n	3750 <uecom_gnssGetInfo+0x154>
    3794:	465f      	mov	r7, fp
E:\2017-2018\03_Graduation Project\04_Software\05_Wangshi\02_6220\06_UpdateSoftware-180714\01_UEBootloader\KL36_Bios-180714\Debug/../04_UserBoard/uecom/uecom.c:479
	if(AT_reBuf[i] == 'N')
    3796:	4642      	mov	r2, r8
E:\2017-2018\03_Graduation Project\04_Software\05_Wangshi\02_6220\06_UpdateSoftware-180714\01_UEBootloader\KL36_Bios-180714\Debug/../04_UserBoard/uecom/uecom.c:478
	i++;
    3798:	1c7b      	adds	r3, r7, #1
E:\2017-2018\03_Graduation Project\04_Software\05_Wangshi\02_6220\06_UpdateSoftware-180714\01_UEBootloader\KL36_Bios-180714\Debug/../04_UserBoard/uecom/uecom.c:479
	if(AT_reBuf[i] == 'N')
    379a:	b2db      	uxtb	r3, r3
    379c:	5cd3      	ldrb	r3, [r2, r3]
E:\2017-2018\03_Graduation Project\04_Software\05_Wangshi\02_6220\06_UpdateSoftware-180714\01_UEBootloader\KL36_Bios-180714\Debug/../04_UserBoard/uecom/uecom.c:480
		d = 1;
    379e:	2400      	movs	r4, #0
E:\2017-2018\03_Graduation Project\04_Software\05_Wangshi\02_6220\06_UpdateSoftware-180714\01_UEBootloader\KL36_Bios-180714\Debug/../04_UserBoard/uecom/uecom.c:479
	if(AT_reBuf[i] == 'N')
    37a0:	2b4e      	cmp	r3, #78	; 0x4e
    37a2:	d100      	bne.n	37a6 <uecom_gnssGetInfo+0x1aa>
    37a4:	e1cb      	b.n	3b3e <uecom_gnssGetInfo+0x542>
E:\2017-2018\03_Graduation Project\04_Software\05_Wangshi\02_6220\06_UpdateSoftware-180714\01_UEBootloader\KL36_Bios-180714\Debug/../04_UserBoard/uecom/uecom.c:482
		d = -1;
    37a6:	4d31      	ldr	r5, [pc, #196]	; (386c <uecom_gnssGetInfo+0x270>)
E:\2017-2018\03_Graduation Project\04_Software\05_Wangshi\02_6220\06_UpdateSoftware-180714\01_UEBootloader\KL36_Bios-180714\Debug/../04_UserBoard/uecom/uecom.c:483
	data->latitude = (a + b/60)*d;
    37a8:	2200      	movs	r2, #0
    37aa:	4b31      	ldr	r3, [pc, #196]	; (3870 <uecom_gnssGetInfo+0x274>)
    37ac:	f7fd fc54 	bl	1058 <__aeabi_ddiv>
    37b0:	9a02      	ldr	r2, [sp, #8]
    37b2:	9b03      	ldr	r3, [sp, #12]
    37b4:	f7fd f934 	bl	a20 <__aeabi_dadd>
    37b8:	0022      	movs	r2, r4
    37ba:	002b      	movs	r3, r5
    37bc:	f7fd ff4e 	bl	165c <__aeabi_dmul>
    37c0:	464b      	mov	r3, r9
E:\2017-2018\03_Graduation Project\04_Software\05_Wangshi\02_6220\06_UpdateSoftware-180714\01_UEBootloader\KL36_Bios-180714\Debug/../04_UserBoard/uecom/uecom.c:486
    a = AT_reBuf[i++] - '0';
    37c2:	4642      	mov	r2, r8
E:\2017-2018\03_Graduation Project\04_Software\05_Wangshi\02_6220\06_UpdateSoftware-180714\01_UEBootloader\KL36_Bios-180714\Debug/../04_UserBoard/uecom/uecom.c:483
	data->latitude = (a + b/60)*d;
    37c4:	6118      	str	r0, [r3, #16]
    37c6:	6159      	str	r1, [r3, #20]
E:\2017-2018\03_Graduation Project\04_Software\05_Wangshi\02_6220\06_UpdateSoftware-180714\01_UEBootloader\KL36_Bios-180714\Debug/../04_UserBoard/uecom/uecom.c:485
	i += 2;
    37c8:	1cfb      	adds	r3, r7, #3
E:\2017-2018\03_Graduation Project\04_Software\05_Wangshi\02_6220\06_UpdateSoftware-180714\01_UEBootloader\KL36_Bios-180714\Debug/../04_UserBoard/uecom/uecom.c:486
    a = AT_reBuf[i++] - '0';
    37ca:	b2db      	uxtb	r3, r3
    37cc:	5cd0      	ldrb	r0, [r2, r3]
E:\2017-2018\03_Graduation Project\04_Software\05_Wangshi\02_6220\06_UpdateSoftware-180714\01_UEBootloader\KL36_Bios-180714\Debug/../04_UserBoard/uecom/uecom.c:489
	b = AT_reBuf[i++] - '0';
    37ce:	1dfe      	adds	r6, r7, #7
E:\2017-2018\03_Graduation Project\04_Software\05_Wangshi\02_6220\06_UpdateSoftware-180714\01_UEBootloader\KL36_Bios-180714\Debug/../04_UserBoard/uecom/uecom.c:486
    a = AT_reBuf[i++] - '0';
    37d0:	3830      	subs	r0, #48	; 0x30
    37d2:	f7fe fcfd 	bl	21d0 <__aeabi_i2d>
E:\2017-2018\03_Graduation Project\04_Software\05_Wangshi\02_6220\06_UpdateSoftware-180714\01_UEBootloader\KL36_Bios-180714\Debug/../04_UserBoard/uecom/uecom.c:487
    a  = a*10 + AT_reBuf[i++] - '0';
    37d6:	2200      	movs	r2, #0
    37d8:	4b20      	ldr	r3, [pc, #128]	; (385c <uecom_gnssGetInfo+0x260>)
    37da:	f7fd ff3f 	bl	165c <__aeabi_dmul>
    37de:	4642      	mov	r2, r8
E:\2017-2018\03_Graduation Project\04_Software\05_Wangshi\02_6220\06_UpdateSoftware-180714\01_UEBootloader\KL36_Bios-180714\Debug/../04_UserBoard/uecom/uecom.c:486
    a = AT_reBuf[i++] - '0';
    37e0:	1d3b      	adds	r3, r7, #4
E:\2017-2018\03_Graduation Project\04_Software\05_Wangshi\02_6220\06_UpdateSoftware-180714\01_UEBootloader\KL36_Bios-180714\Debug/../04_UserBoard/uecom/uecom.c:487
    a  = a*10 + AT_reBuf[i++] - '0';
    37e2:	b2db      	uxtb	r3, r3
    37e4:	0004      	movs	r4, r0
    37e6:	5cd0      	ldrb	r0, [r2, r3]
    37e8:	000d      	movs	r5, r1
    37ea:	f7fe fcf1 	bl	21d0 <__aeabi_i2d>
    37ee:	0002      	movs	r2, r0
    37f0:	000b      	movs	r3, r1
    37f2:	0020      	movs	r0, r4
    37f4:	0029      	movs	r1, r5
    37f6:	f7fd f913 	bl	a20 <__aeabi_dadd>
E:\2017-2018\03_Graduation Project\04_Software\05_Wangshi\02_6220\06_UpdateSoftware-180714\01_UEBootloader\KL36_Bios-180714\Debug/../04_UserBoard/uecom/uecom.c:488
    a  = a*10 + AT_reBuf[i++] - '0';
    37fa:	4642      	mov	r2, r8
E:\2017-2018\03_Graduation Project\04_Software\05_Wangshi\02_6220\06_UpdateSoftware-180714\01_UEBootloader\KL36_Bios-180714\Debug/../04_UserBoard/uecom/uecom.c:487
    a  = a*10 + AT_reBuf[i++] - '0';
    37fc:	1d7b      	adds	r3, r7, #5
E:\2017-2018\03_Graduation Project\04_Software\05_Wangshi\02_6220\06_UpdateSoftware-180714\01_UEBootloader\KL36_Bios-180714\Debug/../04_UserBoard/uecom/uecom.c:488
    a  = a*10 + AT_reBuf[i++] - '0';
    37fe:	b2db      	uxtb	r3, r3
E:\2017-2018\03_Graduation Project\04_Software\05_Wangshi\02_6220\06_UpdateSoftware-180714\01_UEBootloader\KL36_Bios-180714\Debug/../04_UserBoard/uecom/uecom.c:487
    a  = a*10 + AT_reBuf[i++] - '0';
    3800:	0004      	movs	r4, r0
E:\2017-2018\03_Graduation Project\04_Software\05_Wangshi\02_6220\06_UpdateSoftware-180714\01_UEBootloader\KL36_Bios-180714\Debug/../04_UserBoard/uecom/uecom.c:488
    a  = a*10 + AT_reBuf[i++] - '0';
    3802:	5cd0      	ldrb	r0, [r2, r3]
E:\2017-2018\03_Graduation Project\04_Software\05_Wangshi\02_6220\06_UpdateSoftware-180714\01_UEBootloader\KL36_Bios-180714\Debug/../04_UserBoard/uecom/uecom.c:487
    a  = a*10 + AT_reBuf[i++] - '0';
    3804:	000d      	movs	r5, r1
E:\2017-2018\03_Graduation Project\04_Software\05_Wangshi\02_6220\06_UpdateSoftware-180714\01_UEBootloader\KL36_Bios-180714\Debug/../04_UserBoard/uecom/uecom.c:488
    a  = a*10 + AT_reBuf[i++] - '0';
    3806:	f7fe fce3 	bl	21d0 <__aeabi_i2d>
E:\2017-2018\03_Graduation Project\04_Software\05_Wangshi\02_6220\06_UpdateSoftware-180714\01_UEBootloader\KL36_Bios-180714\Debug/../04_UserBoard/uecom/uecom.c:487
    a  = a*10 + AT_reBuf[i++] - '0';
    380a:	2200      	movs	r2, #0
E:\2017-2018\03_Graduation Project\04_Software\05_Wangshi\02_6220\06_UpdateSoftware-180714\01_UEBootloader\KL36_Bios-180714\Debug/../04_UserBoard/uecom/uecom.c:488
    a  = a*10 + AT_reBuf[i++] - '0';
    380c:	9002      	str	r0, [sp, #8]
    380e:	9103      	str	r1, [sp, #12]
E:\2017-2018\03_Graduation Project\04_Software\05_Wangshi\02_6220\06_UpdateSoftware-180714\01_UEBootloader\KL36_Bios-180714\Debug/../04_UserBoard/uecom/uecom.c:487
    a  = a*10 + AT_reBuf[i++] - '0';
    3810:	4b13      	ldr	r3, [pc, #76]	; (3860 <uecom_gnssGetInfo+0x264>)
    3812:	0020      	movs	r0, r4
    3814:	0029      	movs	r1, r5
    3816:	f7fe f993 	bl	1b40 <__aeabi_dsub>
E:\2017-2018\03_Graduation Project\04_Software\05_Wangshi\02_6220\06_UpdateSoftware-180714\01_UEBootloader\KL36_Bios-180714\Debug/../04_UserBoard/uecom/uecom.c:488
    a  = a*10 + AT_reBuf[i++] - '0';
    381a:	2200      	movs	r2, #0
    381c:	4b0f      	ldr	r3, [pc, #60]	; (385c <uecom_gnssGetInfo+0x260>)
    381e:	f7fd ff1d 	bl	165c <__aeabi_dmul>
    3822:	0002      	movs	r2, r0
    3824:	000b      	movs	r3, r1
    3826:	9802      	ldr	r0, [sp, #8]
    3828:	9903      	ldr	r1, [sp, #12]
    382a:	f7fd f8f9 	bl	a20 <__aeabi_dadd>
    382e:	2200      	movs	r2, #0
    3830:	4b0b      	ldr	r3, [pc, #44]	; (3860 <uecom_gnssGetInfo+0x264>)
    3832:	f7fe f985 	bl	1b40 <__aeabi_dsub>
E:\2017-2018\03_Graduation Project\04_Software\05_Wangshi\02_6220\06_UpdateSoftware-180714\01_UEBootloader\KL36_Bios-180714\Debug/../04_UserBoard/uecom/uecom.c:489
	b = AT_reBuf[i++] - '0';
    3836:	4642      	mov	r2, r8
E:\2017-2018\03_Graduation Project\04_Software\05_Wangshi\02_6220\06_UpdateSoftware-180714\01_UEBootloader\KL36_Bios-180714\Debug/../04_UserBoard/uecom/uecom.c:488
    a  = a*10 + AT_reBuf[i++] - '0';
    3838:	1dbb      	adds	r3, r7, #6
E:\2017-2018\03_Graduation Project\04_Software\05_Wangshi\02_6220\06_UpdateSoftware-180714\01_UEBootloader\KL36_Bios-180714\Debug/../04_UserBoard/uecom/uecom.c:489
	b = AT_reBuf[i++] - '0';
    383a:	b2db      	uxtb	r3, r3
E:\2017-2018\03_Graduation Project\04_Software\05_Wangshi\02_6220\06_UpdateSoftware-180714\01_UEBootloader\KL36_Bios-180714\Debug/../04_UserBoard/uecom/uecom.c:488
    a  = a*10 + AT_reBuf[i++] - '0';
    383c:	9002      	str	r0, [sp, #8]
    383e:	9103      	str	r1, [sp, #12]
E:\2017-2018\03_Graduation Project\04_Software\05_Wangshi\02_6220\06_UpdateSoftware-180714\01_UEBootloader\KL36_Bios-180714\Debug/../04_UserBoard/uecom/uecom.c:489
	b = AT_reBuf[i++] - '0';
    3840:	5cd0      	ldrb	r0, [r2, r3]
    3842:	b2f6      	uxtb	r6, r6
    3844:	3830      	subs	r0, #48	; 0x30
    3846:	f7fe fcc3 	bl	21d0 <__aeabi_i2d>
    384a:	e028      	b.n	389e <uecom_gnssGetInfo+0x2a2>
    384c:	1ffff8e8 	.word	0x1ffff8e8
    3850:	1ffff9bc 	.word	0x1ffff9bc
    3854:	00005c38 	.word	0x00005c38
    3858:	00005c48 	.word	0x00005c48
    385c:	40240000 	.word	0x40240000
    3860:	40480000 	.word	0x40480000
    3864:	9999999a 	.word	0x9999999a
    3868:	3fb99999 	.word	0x3fb99999
    386c:	bff00000 	.word	0xbff00000
    3870:	404e0000 	.word	0x404e0000
E:\2017-2018\03_Graduation Project\04_Software\05_Wangshi\02_6220\06_UpdateSoftware-180714\01_UEBootloader\KL36_Bios-180714\Debug/../04_UserBoard/uecom/uecom.c:492
		b = b*10 + AT_reBuf[i++] - '0';
    3874:	2200      	movs	r2, #0
    3876:	4bb6      	ldr	r3, [pc, #728]	; (3b50 <uecom_gnssGetInfo+0x554>)
    3878:	f7fd fef0 	bl	165c <__aeabi_dmul>
    387c:	0004      	movs	r4, r0
    387e:	0038      	movs	r0, r7
    3880:	000d      	movs	r5, r1
    3882:	f7fe fca5 	bl	21d0 <__aeabi_i2d>
    3886:	0002      	movs	r2, r0
    3888:	000b      	movs	r3, r1
    388a:	0020      	movs	r0, r4
    388c:	0029      	movs	r1, r5
    388e:	f7fd f8c7 	bl	a20 <__aeabi_dadd>
    3892:	3601      	adds	r6, #1
    3894:	2200      	movs	r2, #0
    3896:	4baf      	ldr	r3, [pc, #700]	; (3b54 <uecom_gnssGetInfo+0x558>)
    3898:	b2f6      	uxtb	r6, r6
    389a:	f7fe f951 	bl	1b40 <__aeabi_dsub>
E:\2017-2018\03_Graduation Project\04_Software\05_Wangshi\02_6220\06_UpdateSoftware-180714\01_UEBootloader\KL36_Bios-180714\Debug/../04_UserBoard/uecom/uecom.c:490
	while(AT_reBuf[i]!='.')
    389e:	4643      	mov	r3, r8
    38a0:	5d9f      	ldrb	r7, [r3, r6]
E:\2017-2018\03_Graduation Project\04_Software\05_Wangshi\02_6220\06_UpdateSoftware-180714\01_UEBootloader\KL36_Bios-180714\Debug/../04_UserBoard/uecom/uecom.c:489
	b = AT_reBuf[i++] - '0';
    38a2:	0004      	movs	r4, r0
    38a4:	000d      	movs	r5, r1
E:\2017-2018\03_Graduation Project\04_Software\05_Wangshi\02_6220\06_UpdateSoftware-180714\01_UEBootloader\KL36_Bios-180714\Debug/../04_UserBoard/uecom/uecom.c:490
	while(AT_reBuf[i]!='.')
    38a6:	2f2e      	cmp	r7, #46	; 0x2e
    38a8:	d1e4      	bne.n	3874 <uecom_gnssGetInfo+0x278>
E:\2017-2018\03_Graduation Project\04_Software\05_Wangshi\02_6220\06_UpdateSoftware-180714\01_UEBootloader\KL36_Bios-180714\Debug/../04_UserBoard/uecom/uecom.c:496
	b = b + (AT_reBuf[i++] - '0')*c;
    38aa:	1cb7      	adds	r7, r6, #2
E:\2017-2018\03_Graduation Project\04_Software\05_Wangshi\02_6220\06_UpdateSoftware-180714\01_UEBootloader\KL36_Bios-180714\Debug/../04_UserBoard/uecom/uecom.c:494
	i ++;
    38ac:	3601      	adds	r6, #1
E:\2017-2018\03_Graduation Project\04_Software\05_Wangshi\02_6220\06_UpdateSoftware-180714\01_UEBootloader\KL36_Bios-180714\Debug/../04_UserBoard/uecom/uecom.c:496
	b = b + (AT_reBuf[i++] - '0')*c;
    38ae:	b2f6      	uxtb	r6, r6
    38b0:	5d98      	ldrb	r0, [r3, r6]
    38b2:	b2ff      	uxtb	r7, r7
    38b4:	3830      	subs	r0, #48	; 0x30
    38b6:	f7fe fc8b 	bl	21d0 <__aeabi_i2d>
    38ba:	4aa7      	ldr	r2, [pc, #668]	; (3b58 <uecom_gnssGetInfo+0x55c>)
    38bc:	4ba7      	ldr	r3, [pc, #668]	; (3b5c <uecom_gnssGetInfo+0x560>)
    38be:	f7fd fecd 	bl	165c <__aeabi_dmul>
    38c2:	002b      	movs	r3, r5
    38c4:	0022      	movs	r2, r4
    38c6:	f7fd f8ab 	bl	a20 <__aeabi_dadd>
E:\2017-2018\03_Graduation Project\04_Software\05_Wangshi\02_6220\06_UpdateSoftware-180714\01_UEBootloader\KL36_Bios-180714\Debug/../04_UserBoard/uecom/uecom.c:497
	while(AT_reBuf[i]!=',')
    38ca:	4643      	mov	r3, r8
    38cc:	5dde      	ldrb	r6, [r3, r7]
    38ce:	2e2c      	cmp	r6, #44	; 0x2c
    38d0:	d028      	beq.n	3924 <uecom_gnssGetInfo+0x328>
E:\2017-2018\03_Graduation Project\04_Software\05_Wangshi\02_6220\06_UpdateSoftware-180714\01_UEBootloader\KL36_Bios-180714\Debug/../04_UserBoard/uecom/uecom.c:495
	c = 0.1;
    38d2:	46b2      	mov	sl, r6
    38d4:	46bb      	mov	fp, r7
    38d6:	0006      	movs	r6, r0
    38d8:	000f      	movs	r7, r1
    38da:	4c9f      	ldr	r4, [pc, #636]	; (3b58 <uecom_gnssGetInfo+0x55c>)
    38dc:	4d9f      	ldr	r5, [pc, #636]	; (3b5c <uecom_gnssGetInfo+0x560>)
E:\2017-2018\03_Graduation Project\04_Software\05_Wangshi\02_6220\06_UpdateSoftware-180714\01_UEBootloader\KL36_Bios-180714\Debug/../04_UserBoard/uecom/uecom.c:499
		c *= 0.1;
    38de:	4a9e      	ldr	r2, [pc, #632]	; (3b58 <uecom_gnssGetInfo+0x55c>)
    38e0:	4b9e      	ldr	r3, [pc, #632]	; (3b5c <uecom_gnssGetInfo+0x560>)
    38e2:	0020      	movs	r0, r4
    38e4:	0029      	movs	r1, r5
    38e6:	f7fd feb9 	bl	165c <__aeabi_dmul>
E:\2017-2018\03_Graduation Project\04_Software\05_Wangshi\02_6220\06_UpdateSoftware-180714\01_UEBootloader\KL36_Bios-180714\Debug/../04_UserBoard/uecom/uecom.c:500
		b = b + (AT_reBuf[i++] - '0')*c;
    38ea:	465b      	mov	r3, fp
E:\2017-2018\03_Graduation Project\04_Software\05_Wangshi\02_6220\06_UpdateSoftware-180714\01_UEBootloader\KL36_Bios-180714\Debug/../04_UserBoard/uecom/uecom.c:499
		c *= 0.1;
    38ec:	0004      	movs	r4, r0
E:\2017-2018\03_Graduation Project\04_Software\05_Wangshi\02_6220\06_UpdateSoftware-180714\01_UEBootloader\KL36_Bios-180714\Debug/../04_UserBoard/uecom/uecom.c:500
		b = b + (AT_reBuf[i++] - '0')*c;
    38ee:	4650      	mov	r0, sl
E:\2017-2018\03_Graduation Project\04_Software\05_Wangshi\02_6220\06_UpdateSoftware-180714\01_UEBootloader\KL36_Bios-180714\Debug/../04_UserBoard/uecom/uecom.c:499
		c *= 0.1;
    38f0:	000d      	movs	r5, r1
E:\2017-2018\03_Graduation Project\04_Software\05_Wangshi\02_6220\06_UpdateSoftware-180714\01_UEBootloader\KL36_Bios-180714\Debug/../04_UserBoard/uecom/uecom.c:500
		b = b + (AT_reBuf[i++] - '0')*c;
    38f2:	3301      	adds	r3, #1
    38f4:	b2db      	uxtb	r3, r3
    38f6:	3830      	subs	r0, #48	; 0x30
    38f8:	469b      	mov	fp, r3
    38fa:	f7fe fc69 	bl	21d0 <__aeabi_i2d>
    38fe:	0022      	movs	r2, r4
    3900:	002b      	movs	r3, r5
    3902:	f7fd feab 	bl	165c <__aeabi_dmul>
    3906:	0002      	movs	r2, r0
    3908:	000b      	movs	r3, r1
    390a:	0030      	movs	r0, r6
    390c:	0039      	movs	r1, r7
    390e:	f7fd f887 	bl	a20 <__aeabi_dadd>
E:\2017-2018\03_Graduation Project\04_Software\05_Wangshi\02_6220\06_UpdateSoftware-180714\01_UEBootloader\KL36_Bios-180714\Debug/../04_UserBoard/uecom/uecom.c:497
	while(AT_reBuf[i]!=',')
    3912:	4643      	mov	r3, r8
    3914:	465a      	mov	r2, fp
    3916:	5c9b      	ldrb	r3, [r3, r2]
E:\2017-2018\03_Graduation Project\04_Software\05_Wangshi\02_6220\06_UpdateSoftware-180714\01_UEBootloader\KL36_Bios-180714\Debug/../04_UserBoard/uecom/uecom.c:500
		b = b + (AT_reBuf[i++] - '0')*c;
    3918:	0006      	movs	r6, r0
    391a:	000f      	movs	r7, r1
E:\2017-2018\03_Graduation Project\04_Software\05_Wangshi\02_6220\06_UpdateSoftware-180714\01_UEBootloader\KL36_Bios-180714\Debug/../04_UserBoard/uecom/uecom.c:497
	while(AT_reBuf[i]!=',')
    391c:	469a      	mov	sl, r3
    391e:	2b2c      	cmp	r3, #44	; 0x2c
    3920:	d1dd      	bne.n	38de <uecom_gnssGetInfo+0x2e2>
    3922:	465f      	mov	r7, fp
E:\2017-2018\03_Graduation Project\04_Software\05_Wangshi\02_6220\06_UpdateSoftware-180714\01_UEBootloader\KL36_Bios-180714\Debug/../04_UserBoard/uecom/uecom.c:503
	if(AT_reBuf[i] == 'E')
    3924:	4643      	mov	r3, r8
E:\2017-2018\03_Graduation Project\04_Software\05_Wangshi\02_6220\06_UpdateSoftware-180714\01_UEBootloader\KL36_Bios-180714\Debug/../04_UserBoard/uecom/uecom.c:502
	i++;
    3926:	3701      	adds	r7, #1
E:\2017-2018\03_Graduation Project\04_Software\05_Wangshi\02_6220\06_UpdateSoftware-180714\01_UEBootloader\KL36_Bios-180714\Debug/../04_UserBoard/uecom/uecom.c:503
	if(AT_reBuf[i] == 'E')
    3928:	b2ff      	uxtb	r7, r7
    392a:	5ddb      	ldrb	r3, [r3, r7]
E:\2017-2018\03_Graduation Project\04_Software\05_Wangshi\02_6220\06_UpdateSoftware-180714\01_UEBootloader\KL36_Bios-180714\Debug/../04_UserBoard/uecom/uecom.c:504
		d = 1;
    392c:	2400      	movs	r4, #0
E:\2017-2018\03_Graduation Project\04_Software\05_Wangshi\02_6220\06_UpdateSoftware-180714\01_UEBootloader\KL36_Bios-180714\Debug/../04_UserBoard/uecom/uecom.c:503
	if(AT_reBuf[i] == 'E')
    392e:	2b45      	cmp	r3, #69	; 0x45
    3930:	d100      	bne.n	3934 <uecom_gnssGetInfo+0x338>
    3932:	e106      	b.n	3b42 <uecom_gnssGetInfo+0x546>
E:\2017-2018\03_Graduation Project\04_Software\05_Wangshi\02_6220\06_UpdateSoftware-180714\01_UEBootloader\KL36_Bios-180714\Debug/../04_UserBoard/uecom/uecom.c:506
		d = -1;
    3934:	4d8a      	ldr	r5, [pc, #552]	; (3b60 <uecom_gnssGetInfo+0x564>)
E:\2017-2018\03_Graduation Project\04_Software\05_Wangshi\02_6220\06_UpdateSoftware-180714\01_UEBootloader\KL36_Bios-180714\Debug/../04_UserBoard/uecom/uecom.c:507
	data->longitude = (a + b/60)*d;
    3936:	2200      	movs	r2, #0
    3938:	4b8a      	ldr	r3, [pc, #552]	; (3b64 <uecom_gnssGetInfo+0x568>)
    393a:	f7fd fb8d 	bl	1058 <__aeabi_ddiv>
    393e:	9a02      	ldr	r2, [sp, #8]
    3940:	9b03      	ldr	r3, [sp, #12]
    3942:	f7fd f86d 	bl	a20 <__aeabi_dadd>
    3946:	002b      	movs	r3, r5
    3948:	0022      	movs	r2, r4
    394a:	f7fd fe87 	bl	165c <__aeabi_dmul>
    394e:	464b      	mov	r3, r9
    3950:	6198      	str	r0, [r3, #24]
    3952:	61d9      	str	r1, [r3, #28]
E:\2017-2018\03_Graduation Project\04_Software\05_Wangshi\02_6220\06_UpdateSoftware-180714\01_UEBootloader\KL36_Bios-180714\Debug/../04_UserBoard/uecom/uecom.c:509
    if(strstr(AT_reBuf,"E,") != NULL)
    3954:	4984      	ldr	r1, [pc, #528]	; (3b68 <uecom_gnssGetInfo+0x56c>)
    3956:	4640      	mov	r0, r8
    3958:	f001 ffa4 	bl	58a4 <strstr>
    395c:	2800      	cmp	r0, #0
    395e:	d100      	bne.n	3962 <uecom_gnssGetInfo+0x366>
    3960:	e0f1      	b.n	3b46 <uecom_gnssGetInfo+0x54a>
E:\2017-2018\03_Graduation Project\04_Software\05_Wangshi\02_6220\06_UpdateSoftware-180714\01_UEBootloader\KL36_Bios-180714\Debug/../04_UserBoard/uecom/uecom.c:512
    	 i = strstr(AT_reBuf,"W,")-(char*)AT_reBuf;
    3962:	4643      	mov	r3, r8
    3964:	1ac6      	subs	r6, r0, r3
    3966:	b2f6      	uxtb	r6, r6
E:\2017-2018\03_Graduation Project\04_Software\05_Wangshi\02_6220\06_UpdateSoftware-180714\01_UEBootloader\KL36_Bios-180714\Debug/../04_UserBoard/uecom/uecom.c:513
    i+=2;
    3968:	3602      	adds	r6, #2
    396a:	b2f6      	uxtb	r6, r6
E:\2017-2018\03_Graduation Project\04_Software\05_Wangshi\02_6220\06_UpdateSoftware-180714\01_UEBootloader\KL36_Bios-180714\Debug/../04_UserBoard/uecom/uecom.c:515
	while(AT_reBuf[i]!='.')
    396c:	5d9f      	ldrb	r7, [r3, r6]
E:\2017-2018\03_Graduation Project\04_Software\05_Wangshi\02_6220\06_UpdateSoftware-180714\01_UEBootloader\KL36_Bios-180714\Debug/../04_UserBoard/uecom/uecom.c:514
    a = 0;
    396e:	2400      	movs	r4, #0
    3970:	2500      	movs	r5, #0
E:\2017-2018\03_Graduation Project\04_Software\05_Wangshi\02_6220\06_UpdateSoftware-180714\01_UEBootloader\KL36_Bios-180714\Debug/../04_UserBoard/uecom/uecom.c:515
	while(AT_reBuf[i]!='.')
    3972:	2f2e      	cmp	r7, #46	; 0x2e
    3974:	d01c      	beq.n	39b0 <uecom_gnssGetInfo+0x3b4>
E:\2017-2018\03_Graduation Project\04_Software\05_Wangshi\02_6220\06_UpdateSoftware-180714\01_UEBootloader\KL36_Bios-180714\Debug/../04_UserBoard/uecom/uecom.c:517
		a = a*10 + AT_reBuf[i++] - '0';
    3976:	2200      	movs	r2, #0
    3978:	4b75      	ldr	r3, [pc, #468]	; (3b50 <uecom_gnssGetInfo+0x554>)
    397a:	0020      	movs	r0, r4
    397c:	0029      	movs	r1, r5
    397e:	f7fd fe6d 	bl	165c <__aeabi_dmul>
    3982:	0004      	movs	r4, r0
    3984:	0038      	movs	r0, r7
    3986:	000d      	movs	r5, r1
    3988:	f7fe fc22 	bl	21d0 <__aeabi_i2d>
    398c:	0002      	movs	r2, r0
    398e:	000b      	movs	r3, r1
    3990:	0020      	movs	r0, r4
    3992:	0029      	movs	r1, r5
    3994:	f7fd f844 	bl	a20 <__aeabi_dadd>
    3998:	4b6e      	ldr	r3, [pc, #440]	; (3b54 <uecom_gnssGetInfo+0x558>)
    399a:	2200      	movs	r2, #0
    399c:	f7fe f8d0 	bl	1b40 <__aeabi_dsub>
E:\2017-2018\03_Graduation Project\04_Software\05_Wangshi\02_6220\06_UpdateSoftware-180714\01_UEBootloader\KL36_Bios-180714\Debug/../04_UserBoard/uecom/uecom.c:515
	while(AT_reBuf[i]!='.')
    39a0:	4643      	mov	r3, r8
E:\2017-2018\03_Graduation Project\04_Software\05_Wangshi\02_6220\06_UpdateSoftware-180714\01_UEBootloader\KL36_Bios-180714\Debug/../04_UserBoard/uecom/uecom.c:517
		a = a*10 + AT_reBuf[i++] - '0';
    39a2:	3601      	adds	r6, #1
    39a4:	b2f6      	uxtb	r6, r6
E:\2017-2018\03_Graduation Project\04_Software\05_Wangshi\02_6220\06_UpdateSoftware-180714\01_UEBootloader\KL36_Bios-180714\Debug/../04_UserBoard/uecom/uecom.c:515
	while(AT_reBuf[i]!='.')
    39a6:	5d9f      	ldrb	r7, [r3, r6]
E:\2017-2018\03_Graduation Project\04_Software\05_Wangshi\02_6220\06_UpdateSoftware-180714\01_UEBootloader\KL36_Bios-180714\Debug/../04_UserBoard/uecom/uecom.c:517
		a = a*10 + AT_reBuf[i++] - '0';
    39a8:	0004      	movs	r4, r0
    39aa:	000d      	movs	r5, r1
E:\2017-2018\03_Graduation Project\04_Software\05_Wangshi\02_6220\06_UpdateSoftware-180714\01_UEBootloader\KL36_Bios-180714\Debug/../04_UserBoard/uecom/uecom.c:515
	while(AT_reBuf[i]!='.')
    39ac:	2f2e      	cmp	r7, #46	; 0x2e
    39ae:	d1e2      	bne.n	3976 <uecom_gnssGetInfo+0x37a>
E:\2017-2018\03_Graduation Project\04_Software\05_Wangshi\02_6220\06_UpdateSoftware-180714\01_UEBootloader\KL36_Bios-180714\Debug/../04_UserBoard/uecom/uecom.c:521
	a = a + (AT_reBuf[i++] - '0')*b;
    39b0:	1cb3      	adds	r3, r6, #2
    39b2:	b2db      	uxtb	r3, r3
    39b4:	469a      	mov	sl, r3
    39b6:	4643      	mov	r3, r8
E:\2017-2018\03_Graduation Project\04_Software\05_Wangshi\02_6220\06_UpdateSoftware-180714\01_UEBootloader\KL36_Bios-180714\Debug/../04_UserBoard/uecom/uecom.c:519
	i++;
    39b8:	3601      	adds	r6, #1
E:\2017-2018\03_Graduation Project\04_Software\05_Wangshi\02_6220\06_UpdateSoftware-180714\01_UEBootloader\KL36_Bios-180714\Debug/../04_UserBoard/uecom/uecom.c:521
	a = a + (AT_reBuf[i++] - '0')*b;
    39ba:	b2f6      	uxtb	r6, r6
    39bc:	5d98      	ldrb	r0, [r3, r6]
    39be:	3830      	subs	r0, #48	; 0x30
    39c0:	f7fe fc06 	bl	21d0 <__aeabi_i2d>
    39c4:	4a64      	ldr	r2, [pc, #400]	; (3b58 <uecom_gnssGetInfo+0x55c>)
    39c6:	4b65      	ldr	r3, [pc, #404]	; (3b5c <uecom_gnssGetInfo+0x560>)
    39c8:	f7fd fe48 	bl	165c <__aeabi_dmul>
    39cc:	0022      	movs	r2, r4
    39ce:	002b      	movs	r3, r5
    39d0:	f7fd f826 	bl	a20 <__aeabi_dadd>
E:\2017-2018\03_Graduation Project\04_Software\05_Wangshi\02_6220\06_UpdateSoftware-180714\01_UEBootloader\KL36_Bios-180714\Debug/../04_UserBoard/uecom/uecom.c:522
	while(AT_reBuf[i]!=',')
    39d4:	4643      	mov	r3, r8
    39d6:	4652      	mov	r2, sl
    39d8:	5c9b      	ldrb	r3, [r3, r2]
E:\2017-2018\03_Graduation Project\04_Software\05_Wangshi\02_6220\06_UpdateSoftware-180714\01_UEBootloader\KL36_Bios-180714\Debug/../04_UserBoard/uecom/uecom.c:521
	a = a + (AT_reBuf[i++] - '0')*b;
    39da:	0006      	movs	r6, r0
    39dc:	000f      	movs	r7, r1
E:\2017-2018\03_Graduation Project\04_Software\05_Wangshi\02_6220\06_UpdateSoftware-180714\01_UEBootloader\KL36_Bios-180714\Debug/../04_UserBoard/uecom/uecom.c:522
	while(AT_reBuf[i]!=',')
    39de:	469b      	mov	fp, r3
    39e0:	2b2c      	cmp	r3, #44	; 0x2c
    39e2:	d023      	beq.n	3a2c <uecom_gnssGetInfo+0x430>
E:\2017-2018\03_Graduation Project\04_Software\05_Wangshi\02_6220\06_UpdateSoftware-180714\01_UEBootloader\KL36_Bios-180714\Debug/../04_UserBoard/uecom/uecom.c:520
	b = 0.1;
    39e4:	4c5c      	ldr	r4, [pc, #368]	; (3b58 <uecom_gnssGetInfo+0x55c>)
    39e6:	4d5d      	ldr	r5, [pc, #372]	; (3b5c <uecom_gnssGetInfo+0x560>)
E:\2017-2018\03_Graduation Project\04_Software\05_Wangshi\02_6220\06_UpdateSoftware-180714\01_UEBootloader\KL36_Bios-180714\Debug/../04_UserBoard/uecom/uecom.c:524
		b *= 0.1;
    39e8:	4a5b      	ldr	r2, [pc, #364]	; (3b58 <uecom_gnssGetInfo+0x55c>)
    39ea:	4b5c      	ldr	r3, [pc, #368]	; (3b5c <uecom_gnssGetInfo+0x560>)
    39ec:	0020      	movs	r0, r4
    39ee:	0029      	movs	r1, r5
    39f0:	f7fd fe34 	bl	165c <__aeabi_dmul>
E:\2017-2018\03_Graduation Project\04_Software\05_Wangshi\02_6220\06_UpdateSoftware-180714\01_UEBootloader\KL36_Bios-180714\Debug/../04_UserBoard/uecom/uecom.c:525
		a = a + (AT_reBuf[i++] - '0')*b;
    39f4:	4653      	mov	r3, sl
E:\2017-2018\03_Graduation Project\04_Software\05_Wangshi\02_6220\06_UpdateSoftware-180714\01_UEBootloader\KL36_Bios-180714\Debug/../04_UserBoard/uecom/uecom.c:524
		b *= 0.1;
    39f6:	0004      	movs	r4, r0
E:\2017-2018\03_Graduation Project\04_Software\05_Wangshi\02_6220\06_UpdateSoftware-180714\01_UEBootloader\KL36_Bios-180714\Debug/../04_UserBoard/uecom/uecom.c:525
		a = a + (AT_reBuf[i++] - '0')*b;
    39f8:	4658      	mov	r0, fp
E:\2017-2018\03_Graduation Project\04_Software\05_Wangshi\02_6220\06_UpdateSoftware-180714\01_UEBootloader\KL36_Bios-180714\Debug/../04_UserBoard/uecom/uecom.c:524
		b *= 0.1;
    39fa:	000d      	movs	r5, r1
E:\2017-2018\03_Graduation Project\04_Software\05_Wangshi\02_6220\06_UpdateSoftware-180714\01_UEBootloader\KL36_Bios-180714\Debug/../04_UserBoard/uecom/uecom.c:525
		a = a + (AT_reBuf[i++] - '0')*b;
    39fc:	3301      	adds	r3, #1
    39fe:	b2db      	uxtb	r3, r3
    3a00:	3830      	subs	r0, #48	; 0x30
    3a02:	469a      	mov	sl, r3
    3a04:	f7fe fbe4 	bl	21d0 <__aeabi_i2d>
    3a08:	0022      	movs	r2, r4
    3a0a:	002b      	movs	r3, r5
    3a0c:	f7fd fe26 	bl	165c <__aeabi_dmul>
    3a10:	0002      	movs	r2, r0
    3a12:	000b      	movs	r3, r1
    3a14:	0030      	movs	r0, r6
    3a16:	0039      	movs	r1, r7
    3a18:	f7fd f802 	bl	a20 <__aeabi_dadd>
E:\2017-2018\03_Graduation Project\04_Software\05_Wangshi\02_6220\06_UpdateSoftware-180714\01_UEBootloader\KL36_Bios-180714\Debug/../04_UserBoard/uecom/uecom.c:522
	while(AT_reBuf[i]!=',')
    3a1c:	4643      	mov	r3, r8
    3a1e:	4652      	mov	r2, sl
    3a20:	5c9b      	ldrb	r3, [r3, r2]
E:\2017-2018\03_Graduation Project\04_Software\05_Wangshi\02_6220\06_UpdateSoftware-180714\01_UEBootloader\KL36_Bios-180714\Debug/../04_UserBoard/uecom/uecom.c:525
		a = a + (AT_reBuf[i++] - '0')*b;
    3a22:	0006      	movs	r6, r0
    3a24:	000f      	movs	r7, r1
E:\2017-2018\03_Graduation Project\04_Software\05_Wangshi\02_6220\06_UpdateSoftware-180714\01_UEBootloader\KL36_Bios-180714\Debug/../04_UserBoard/uecom/uecom.c:522
	while(AT_reBuf[i]!=',')
    3a26:	469b      	mov	fp, r3
    3a28:	2b2c      	cmp	r3, #44	; 0x2c
    3a2a:	d1dd      	bne.n	39e8 <uecom_gnssGetInfo+0x3ec>
E:\2017-2018\03_Graduation Project\04_Software\05_Wangshi\02_6220\06_UpdateSoftware-180714\01_UEBootloader\KL36_Bios-180714\Debug/../04_UserBoard/uecom/uecom.c:527
	data->speed = a*0.5144444;
    3a2c:	4a4f      	ldr	r2, [pc, #316]	; (3b6c <uecom_gnssGetInfo+0x570>)
    3a2e:	4b50      	ldr	r3, [pc, #320]	; (3b70 <uecom_gnssGetInfo+0x574>)
    3a30:	0030      	movs	r0, r6
    3a32:	0039      	movs	r1, r7
    3a34:	f7fd fe12 	bl	165c <__aeabi_dmul>
    3a38:	464b      	mov	r3, r9
    3a3a:	6218      	str	r0, [r3, #32]
    3a3c:	6259      	str	r1, [r3, #36]	; 0x24
E:\2017-2018\03_Graduation Project\04_Software\05_Wangshi\02_6220\06_UpdateSoftware-180714\01_UEBootloader\KL36_Bios-180714\Debug/../04_UserBoard/uecom/uecom.c:529
    i = strstr(AT_reBuf,"OK")-(char*)AT_reBuf;
    3a3e:	494d      	ldr	r1, [pc, #308]	; (3b74 <uecom_gnssGetInfo+0x578>)
    3a40:	4640      	mov	r0, r8
    3a42:	f001 ff2f 	bl	58a4 <strstr>
    3a46:	4643      	mov	r3, r8
    3a48:	1ac0      	subs	r0, r0, r3
E:\2017-2018\03_Graduation Project\04_Software\05_Wangshi\02_6220\06_UpdateSoftware-180714\01_UEBootloader\KL36_Bios-180714\Debug/../04_UserBoard/uecom/uecom.c:530
   while(AT_reBuf[i]!=',')
    3a4a:	23ff      	movs	r3, #255	; 0xff
E:\2017-2018\03_Graduation Project\04_Software\05_Wangshi\02_6220\06_UpdateSoftware-180714\01_UEBootloader\KL36_Bios-180714\Debug/../04_UserBoard/uecom/uecom.c:529
    i = strstr(AT_reBuf,"OK")-(char*)AT_reBuf;
    3a4c:	b2c6      	uxtb	r6, r0
E:\2017-2018\03_Graduation Project\04_Software\05_Wangshi\02_6220\06_UpdateSoftware-180714\01_UEBootloader\KL36_Bios-180714\Debug/../04_UserBoard/uecom/uecom.c:530
   while(AT_reBuf[i]!=',')
    3a4e:	4018      	ands	r0, r3
    3a50:	4643      	mov	r3, r8
    3a52:	5c1b      	ldrb	r3, [r3, r0]
    3a54:	2b2c      	cmp	r3, #44	; 0x2c
    3a56:	d005      	beq.n	3a64 <uecom_gnssGetInfo+0x468>
    3a58:	4643      	mov	r3, r8
E:\2017-2018\03_Graduation Project\04_Software\05_Wangshi\02_6220\06_UpdateSoftware-180714\01_UEBootloader\KL36_Bios-180714\Debug/../04_UserBoard/uecom/uecom.c:531
   	i--;
    3a5a:	3e01      	subs	r6, #1
    3a5c:	b2f6      	uxtb	r6, r6
E:\2017-2018\03_Graduation Project\04_Software\05_Wangshi\02_6220\06_UpdateSoftware-180714\01_UEBootloader\KL36_Bios-180714\Debug/../04_UserBoard/uecom/uecom.c:530
   while(AT_reBuf[i]!=',')
    3a5e:	5d9b      	ldrb	r3, [r3, r6]
    3a60:	2b2c      	cmp	r3, #44	; 0x2c
    3a62:	d1f9      	bne.n	3a58 <uecom_gnssGetInfo+0x45c>
E:\2017-2018\03_Graduation Project\04_Software\05_Wangshi\02_6220\06_UpdateSoftware-180714\01_UEBootloader\KL36_Bios-180714\Debug/../04_UserBoard/uecom/uecom.c:534
	while(AT_reBuf[i]!='.')
    3a64:	4643      	mov	r3, r8
E:\2017-2018\03_Graduation Project\04_Software\05_Wangshi\02_6220\06_UpdateSoftware-180714\01_UEBootloader\KL36_Bios-180714\Debug/../04_UserBoard/uecom/uecom.c:532
   i += 2;
    3a66:	3602      	adds	r6, #2
    3a68:	b2f6      	uxtb	r6, r6
E:\2017-2018\03_Graduation Project\04_Software\05_Wangshi\02_6220\06_UpdateSoftware-180714\01_UEBootloader\KL36_Bios-180714\Debug/../04_UserBoard/uecom/uecom.c:534
	while(AT_reBuf[i]!='.')
    3a6a:	5d9f      	ldrb	r7, [r3, r6]
E:\2017-2018\03_Graduation Project\04_Software\05_Wangshi\02_6220\06_UpdateSoftware-180714\01_UEBootloader\KL36_Bios-180714\Debug/../04_UserBoard/uecom/uecom.c:533
   a = 0;
    3a6c:	2400      	movs	r4, #0
    3a6e:	2500      	movs	r5, #0
E:\2017-2018\03_Graduation Project\04_Software\05_Wangshi\02_6220\06_UpdateSoftware-180714\01_UEBootloader\KL36_Bios-180714\Debug/../04_UserBoard/uecom/uecom.c:534
	while(AT_reBuf[i]!='.')
    3a70:	2f2e      	cmp	r7, #46	; 0x2e
    3a72:	d01c      	beq.n	3aae <uecom_gnssGetInfo+0x4b2>
E:\2017-2018\03_Graduation Project\04_Software\05_Wangshi\02_6220\06_UpdateSoftware-180714\01_UEBootloader\KL36_Bios-180714\Debug/../04_UserBoard/uecom/uecom.c:536
		a = a*10 + AT_reBuf[i++] - '0';
    3a74:	2200      	movs	r2, #0
    3a76:	4b36      	ldr	r3, [pc, #216]	; (3b50 <uecom_gnssGetInfo+0x554>)
    3a78:	0020      	movs	r0, r4
    3a7a:	0029      	movs	r1, r5
    3a7c:	f7fd fdee 	bl	165c <__aeabi_dmul>
    3a80:	0004      	movs	r4, r0
    3a82:	0038      	movs	r0, r7
    3a84:	000d      	movs	r5, r1
    3a86:	f7fe fba3 	bl	21d0 <__aeabi_i2d>
    3a8a:	0002      	movs	r2, r0
    3a8c:	000b      	movs	r3, r1
    3a8e:	0020      	movs	r0, r4
    3a90:	0029      	movs	r1, r5
    3a92:	f7fc ffc5 	bl	a20 <__aeabi_dadd>
    3a96:	4b2f      	ldr	r3, [pc, #188]	; (3b54 <uecom_gnssGetInfo+0x558>)
    3a98:	2200      	movs	r2, #0
    3a9a:	f7fe f851 	bl	1b40 <__aeabi_dsub>
E:\2017-2018\03_Graduation Project\04_Software\05_Wangshi\02_6220\06_UpdateSoftware-180714\01_UEBootloader\KL36_Bios-180714\Debug/../04_UserBoard/uecom/uecom.c:534
	while(AT_reBuf[i]!='.')
    3a9e:	4643      	mov	r3, r8
E:\2017-2018\03_Graduation Project\04_Software\05_Wangshi\02_6220\06_UpdateSoftware-180714\01_UEBootloader\KL36_Bios-180714\Debug/../04_UserBoard/uecom/uecom.c:536
		a = a*10 + AT_reBuf[i++] - '0';
    3aa0:	3601      	adds	r6, #1
    3aa2:	b2f6      	uxtb	r6, r6
E:\2017-2018\03_Graduation Project\04_Software\05_Wangshi\02_6220\06_UpdateSoftware-180714\01_UEBootloader\KL36_Bios-180714\Debug/../04_UserBoard/uecom/uecom.c:534
	while(AT_reBuf[i]!='.')
    3aa4:	5d9f      	ldrb	r7, [r3, r6]
E:\2017-2018\03_Graduation Project\04_Software\05_Wangshi\02_6220\06_UpdateSoftware-180714\01_UEBootloader\KL36_Bios-180714\Debug/../04_UserBoard/uecom/uecom.c:536
		a = a*10 + AT_reBuf[i++] - '0';
    3aa6:	0004      	movs	r4, r0
    3aa8:	000d      	movs	r5, r1
E:\2017-2018\03_Graduation Project\04_Software\05_Wangshi\02_6220\06_UpdateSoftware-180714\01_UEBootloader\KL36_Bios-180714\Debug/../04_UserBoard/uecom/uecom.c:534
	while(AT_reBuf[i]!='.')
    3aaa:	2f2e      	cmp	r7, #46	; 0x2e
    3aac:	d1e2      	bne.n	3a74 <uecom_gnssGetInfo+0x478>
E:\2017-2018\03_Graduation Project\04_Software\05_Wangshi\02_6220\06_UpdateSoftware-180714\01_UEBootloader\KL36_Bios-180714\Debug/../04_UserBoard/uecom/uecom.c:540
	a = a + (AT_reBuf[i++] - '0')*b;
    3aae:	1cb3      	adds	r3, r6, #2
    3ab0:	b2db      	uxtb	r3, r3
    3ab2:	469a      	mov	sl, r3
    3ab4:	4643      	mov	r3, r8
E:\2017-2018\03_Graduation Project\04_Software\05_Wangshi\02_6220\06_UpdateSoftware-180714\01_UEBootloader\KL36_Bios-180714\Debug/../04_UserBoard/uecom/uecom.c:538
	i++;
    3ab6:	3601      	adds	r6, #1
E:\2017-2018\03_Graduation Project\04_Software\05_Wangshi\02_6220\06_UpdateSoftware-180714\01_UEBootloader\KL36_Bios-180714\Debug/../04_UserBoard/uecom/uecom.c:540
	a = a + (AT_reBuf[i++] - '0')*b;
    3ab8:	b2f6      	uxtb	r6, r6
    3aba:	5d98      	ldrb	r0, [r3, r6]
    3abc:	3830      	subs	r0, #48	; 0x30
    3abe:	f7fe fb87 	bl	21d0 <__aeabi_i2d>
    3ac2:	4a25      	ldr	r2, [pc, #148]	; (3b58 <uecom_gnssGetInfo+0x55c>)
    3ac4:	4b25      	ldr	r3, [pc, #148]	; (3b5c <uecom_gnssGetInfo+0x560>)
    3ac6:	f7fd fdc9 	bl	165c <__aeabi_dmul>
    3aca:	0022      	movs	r2, r4
    3acc:	002b      	movs	r3, r5
    3ace:	f7fc ffa7 	bl	a20 <__aeabi_dadd>
E:\2017-2018\03_Graduation Project\04_Software\05_Wangshi\02_6220\06_UpdateSoftware-180714\01_UEBootloader\KL36_Bios-180714\Debug/../04_UserBoard/uecom/uecom.c:541
	while(AT_reBuf[i]!='\r')
    3ad2:	4643      	mov	r3, r8
    3ad4:	4652      	mov	r2, sl
    3ad6:	5c9b      	ldrb	r3, [r3, r2]
E:\2017-2018\03_Graduation Project\04_Software\05_Wangshi\02_6220\06_UpdateSoftware-180714\01_UEBootloader\KL36_Bios-180714\Debug/../04_UserBoard/uecom/uecom.c:540
	a = a + (AT_reBuf[i++] - '0')*b;
    3ad8:	0006      	movs	r6, r0
    3ada:	000f      	movs	r7, r1
E:\2017-2018\03_Graduation Project\04_Software\05_Wangshi\02_6220\06_UpdateSoftware-180714\01_UEBootloader\KL36_Bios-180714\Debug/../04_UserBoard/uecom/uecom.c:541
	while(AT_reBuf[i]!='\r')
    3adc:	469b      	mov	fp, r3
    3ade:	2b0d      	cmp	r3, #13
    3ae0:	d023      	beq.n	3b2a <uecom_gnssGetInfo+0x52e>
E:\2017-2018\03_Graduation Project\04_Software\05_Wangshi\02_6220\06_UpdateSoftware-180714\01_UEBootloader\KL36_Bios-180714\Debug/../04_UserBoard/uecom/uecom.c:539
	b = 0.1;
    3ae2:	4c1d      	ldr	r4, [pc, #116]	; (3b58 <uecom_gnssGetInfo+0x55c>)
    3ae4:	4d1d      	ldr	r5, [pc, #116]	; (3b5c <uecom_gnssGetInfo+0x560>)
E:\2017-2018\03_Graduation Project\04_Software\05_Wangshi\02_6220\06_UpdateSoftware-180714\01_UEBootloader\KL36_Bios-180714\Debug/../04_UserBoard/uecom/uecom.c:543
		b *= 0.1;
    3ae6:	4a1c      	ldr	r2, [pc, #112]	; (3b58 <uecom_gnssGetInfo+0x55c>)
    3ae8:	4b1c      	ldr	r3, [pc, #112]	; (3b5c <uecom_gnssGetInfo+0x560>)
    3aea:	0020      	movs	r0, r4
    3aec:	0029      	movs	r1, r5
    3aee:	f7fd fdb5 	bl	165c <__aeabi_dmul>
E:\2017-2018\03_Graduation Project\04_Software\05_Wangshi\02_6220\06_UpdateSoftware-180714\01_UEBootloader\KL36_Bios-180714\Debug/../04_UserBoard/uecom/uecom.c:544
		a = a + (AT_reBuf[i++] - '0')*b;
    3af2:	4653      	mov	r3, sl
E:\2017-2018\03_Graduation Project\04_Software\05_Wangshi\02_6220\06_UpdateSoftware-180714\01_UEBootloader\KL36_Bios-180714\Debug/../04_UserBoard/uecom/uecom.c:543
		b *= 0.1;
    3af4:	0004      	movs	r4, r0
E:\2017-2018\03_Graduation Project\04_Software\05_Wangshi\02_6220\06_UpdateSoftware-180714\01_UEBootloader\KL36_Bios-180714\Debug/../04_UserBoard/uecom/uecom.c:544
		a = a + (AT_reBuf[i++] - '0')*b;
    3af6:	4658      	mov	r0, fp
E:\2017-2018\03_Graduation Project\04_Software\05_Wangshi\02_6220\06_UpdateSoftware-180714\01_UEBootloader\KL36_Bios-180714\Debug/../04_UserBoard/uecom/uecom.c:543
		b *= 0.1;
    3af8:	000d      	movs	r5, r1
E:\2017-2018\03_Graduation Project\04_Software\05_Wangshi\02_6220\06_UpdateSoftware-180714\01_UEBootloader\KL36_Bios-180714\Debug/../04_UserBoard/uecom/uecom.c:544
		a = a + (AT_reBuf[i++] - '0')*b;
    3afa:	3301      	adds	r3, #1
    3afc:	b2db      	uxtb	r3, r3
    3afe:	3830      	subs	r0, #48	; 0x30
    3b00:	469a      	mov	sl, r3
    3b02:	f7fe fb65 	bl	21d0 <__aeabi_i2d>
    3b06:	0022      	movs	r2, r4
    3b08:	002b      	movs	r3, r5
    3b0a:	f7fd fda7 	bl	165c <__aeabi_dmul>
    3b0e:	0002      	movs	r2, r0
    3b10:	000b      	movs	r3, r1
    3b12:	0030      	movs	r0, r6
    3b14:	0039      	movs	r1, r7
    3b16:	f7fc ff83 	bl	a20 <__aeabi_dadd>
E:\2017-2018\03_Graduation Project\04_Software\05_Wangshi\02_6220\06_UpdateSoftware-180714\01_UEBootloader\KL36_Bios-180714\Debug/../04_UserBoard/uecom/uecom.c:541
	while(AT_reBuf[i]!='\r')
    3b1a:	4643      	mov	r3, r8
    3b1c:	4652      	mov	r2, sl
    3b1e:	5c9b      	ldrb	r3, [r3, r2]
E:\2017-2018\03_Graduation Project\04_Software\05_Wangshi\02_6220\06_UpdateSoftware-180714\01_UEBootloader\KL36_Bios-180714\Debug/../04_UserBoard/uecom/uecom.c:544
		a = a + (AT_reBuf[i++] - '0')*b;
    3b20:	0006      	movs	r6, r0
    3b22:	000f      	movs	r7, r1
E:\2017-2018\03_Graduation Project\04_Software\05_Wangshi\02_6220\06_UpdateSoftware-180714\01_UEBootloader\KL36_Bios-180714\Debug/../04_UserBoard/uecom/uecom.c:541
	while(AT_reBuf[i]!='\r')
    3b24:	469b      	mov	fp, r3
    3b26:	2b0d      	cmp	r3, #13
    3b28:	d1dd      	bne.n	3ae6 <uecom_gnssGetInfo+0x4ea>
E:\2017-2018\03_Graduation Project\04_Software\05_Wangshi\02_6220\06_UpdateSoftware-180714\01_UEBootloader\KL36_Bios-180714\Debug/../04_UserBoard/uecom/uecom.c:546
	data->attitude = a;
    3b2a:	464b      	mov	r3, r9
    3b2c:	629e      	str	r6, [r3, #40]	; 0x28
    3b2e:	62df      	str	r7, [r3, #44]	; 0x2c
    3b30:	e580      	b.n	3634 <uecom_gnssGetInfo+0x38>
E:\2017-2018\03_Graduation Project\04_Software\05_Wangshi\02_6220\06_UpdateSoftware-180714\01_UEBootloader\KL36_Bios-180714\Debug/../04_UserBoard/uecom/uecom.c:434
	ret = 1;        //1
    3b32:	2301      	movs	r3, #1
    3b34:	9301      	str	r3, [sp, #4]
    3b36:	e57d      	b.n	3634 <uecom_gnssGetInfo+0x38>
E:\2017-2018\03_Graduation Project\04_Software\05_Wangshi\02_6220\06_UpdateSoftware-180714\01_UEBootloader\KL36_Bios-180714\Debug/../04_UserBoard/uecom/uecom.c:454
    ret = 3;
    3b38:	2303      	movs	r3, #3
    3b3a:	9301      	str	r3, [sp, #4]
    3b3c:	e57a      	b.n	3634 <uecom_gnssGetInfo+0x38>
E:\2017-2018\03_Graduation Project\04_Software\05_Wangshi\02_6220\06_UpdateSoftware-180714\01_UEBootloader\KL36_Bios-180714\Debug/../04_UserBoard/uecom/uecom.c:480
		d = 1;
    3b3e:	4d0e      	ldr	r5, [pc, #56]	; (3b78 <uecom_gnssGetInfo+0x57c>)
    3b40:	e632      	b.n	37a8 <uecom_gnssGetInfo+0x1ac>
E:\2017-2018\03_Graduation Project\04_Software\05_Wangshi\02_6220\06_UpdateSoftware-180714\01_UEBootloader\KL36_Bios-180714\Debug/../04_UserBoard/uecom/uecom.c:504
		d = 1;
    3b42:	4d0d      	ldr	r5, [pc, #52]	; (3b78 <uecom_gnssGetInfo+0x57c>)
    3b44:	e6f7      	b.n	3936 <uecom_gnssGetInfo+0x33a>
E:\2017-2018\03_Graduation Project\04_Software\05_Wangshi\02_6220\06_UpdateSoftware-180714\01_UEBootloader\KL36_Bios-180714\Debug/../04_UserBoard/uecom/uecom.c:512
    	 i = strstr(AT_reBuf,"W,")-(char*)AT_reBuf;
    3b46:	490d      	ldr	r1, [pc, #52]	; (3b7c <uecom_gnssGetInfo+0x580>)
    3b48:	4640      	mov	r0, r8
    3b4a:	f001 feab 	bl	58a4 <strstr>
    3b4e:	e708      	b.n	3962 <uecom_gnssGetInfo+0x366>
    3b50:	40240000 	.word	0x40240000
    3b54:	40480000 	.word	0x40480000
    3b58:	9999999a 	.word	0x9999999a
    3b5c:	3fb99999 	.word	0x3fb99999
    3b60:	bff00000 	.word	0xbff00000
    3b64:	404e0000 	.word	0x404e0000
    3b68:	00005c54 	.word	0x00005c54
    3b6c:	1a3387ed 	.word	0x1a3387ed
    3b70:	3fe07654 	.word	0x3fe07654
    3b74:	00005cb8 	.word	0x00005cb8
    3b78:	3ff00000 	.word	0x3ff00000
    3b7c:	00005c58 	.word	0x00005c58

00003b80 <uecom_httpGet>:
uecom_httpGet():
E:\2017-2018\03_Graduation Project\04_Software\05_Wangshi\02_6220\06_UpdateSoftware-180714\01_UEBootloader\KL36_Bios-180714\Debug/../04_UserBoard/uecom/uecom.c:563
{
    3b80:	b5f0      	push	{r4, r5, r6, r7, lr}
    3b82:	46ce      	mov	lr, r9
    3b84:	4647      	mov	r7, r8
    3b86:	b580      	push	{r7, lr}
    3b88:	b0ff      	sub	sp, #508	; 0x1fc
E:\2017-2018\03_Graduation Project\04_Software\05_Wangshi\02_6220\06_UpdateSoftware-180714\01_UEBootloader\KL36_Bios-180714\Debug/../04_UserBoard/uecom/uecom.c:565
	uint_8 allUrl[500] = "AT+HTTPPARA=\"URL\",\"";
    3b8a:	ac01      	add	r4, sp, #4
E:\2017-2018\03_Graduation Project\04_Software\05_Wangshi\02_6220\06_UpdateSoftware-180714\01_UEBootloader\KL36_Bios-180714\Debug/../04_UserBoard/uecom/uecom.c:563
{
    3b8c:	0015      	movs	r5, r2
E:\2017-2018\03_Graduation Project\04_Software\05_Wangshi\02_6220\06_UpdateSoftware-180714\01_UEBootloader\KL36_Bios-180714\Debug/../04_UserBoard/uecom/uecom.c:565
	uint_8 allUrl[500] = "AT+HTTPPARA=\"URL\",\"";
    3b8e:	0022      	movs	r2, r4
E:\2017-2018\03_Graduation Project\04_Software\05_Wangshi\02_6220\06_UpdateSoftware-180714\01_UEBootloader\KL36_Bios-180714\Debug/../04_UserBoard/uecom/uecom.c:563
{
    3b90:	001e      	movs	r6, r3
E:\2017-2018\03_Graduation Project\04_Software\05_Wangshi\02_6220\06_UpdateSoftware-180714\01_UEBootloader\KL36_Bios-180714\Debug/../04_UserBoard/uecom/uecom.c:565
	uint_8 allUrl[500] = "AT+HTTPPARA=\"URL\",\"";
    3b92:	4b47      	ldr	r3, [pc, #284]	; (3cb0 <uecom_httpGet+0x130>)
E:\2017-2018\03_Graduation Project\04_Software\05_Wangshi\02_6220\06_UpdateSoftware-180714\01_UEBootloader\KL36_Bios-180714\Debug/../04_UserBoard/uecom/uecom.c:563
{
    3b94:	4681      	mov	r9, r0
    3b96:	4688      	mov	r8, r1
E:\2017-2018\03_Graduation Project\04_Software\05_Wangshi\02_6220\06_UpdateSoftware-180714\01_UEBootloader\KL36_Bios-180714\Debug/../04_UserBoard/uecom/uecom.c:565
	uint_8 allUrl[500] = "AT+HTTPPARA=\"URL\",\"";
    3b98:	cb83      	ldmia	r3!, {r0, r1, r7}
    3b9a:	c283      	stmia	r2!, {r0, r1, r7}
    3b9c:	cb03      	ldmia	r3!, {r0, r1}
    3b9e:	c203      	stmia	r2!, {r0, r1}
    3ba0:	22f0      	movs	r2, #240	; 0xf0
    3ba2:	2100      	movs	r1, #0
    3ba4:	0052      	lsls	r2, r2, #1
    3ba6:	a806      	add	r0, sp, #24
    3ba8:	f001 fe39 	bl	581e <memset>
E:\2017-2018\03_Graduation Project\04_Software\05_Wangshi\02_6220\06_UpdateSoftware-180714\01_UEBootloader\KL36_Bios-180714\Debug/../04_UserBoard/uecom/uecom.c:569
	if(uecom_sendCmd(HTTPINIT,2000,2))
    3bac:	21fa      	movs	r1, #250	; 0xfa
    3bae:	2202      	movs	r2, #2
    3bb0:	00c9      	lsls	r1, r1, #3
    3bb2:	4840      	ldr	r0, [pc, #256]	; (3cb4 <uecom_httpGet+0x134>)
    3bb4:	f7ff fb20 	bl	31f8 <uecom_sendCmd>
E:\2017-2018\03_Graduation Project\04_Software\05_Wangshi\02_6220\06_UpdateSoftware-180714\01_UEBootloader\KL36_Bios-180714\Debug/../04_UserBoard/uecom/uecom.c:571
		ret = 1;
    3bb8:	2701      	movs	r7, #1
E:\2017-2018\03_Graduation Project\04_Software\05_Wangshi\02_6220\06_UpdateSoftware-180714\01_UEBootloader\KL36_Bios-180714\Debug/../04_UserBoard/uecom/uecom.c:569
	if(uecom_sendCmd(HTTPINIT,2000,2))
    3bba:	2800      	cmp	r0, #0
    3bbc:	d005      	beq.n	3bca <uecom_httpGet+0x4a>
E:\2017-2018\03_Graduation Project\04_Software\05_Wangshi\02_6220\06_UpdateSoftware-180714\01_UEBootloader\KL36_Bios-180714\Debug/../04_UserBoard/uecom/uecom.c:628
}
    3bbe:	0038      	movs	r0, r7
    3bc0:	b07f      	add	sp, #508	; 0x1fc
    3bc2:	bc0c      	pop	{r2, r3}
    3bc4:	4690      	mov	r8, r2
    3bc6:	4699      	mov	r9, r3
    3bc8:	bdf0      	pop	{r4, r5, r6, r7, pc}
E:\2017-2018\03_Graduation Project\04_Software\05_Wangshi\02_6220\06_UpdateSoftware-180714\01_UEBootloader\KL36_Bios-180714\Debug/../04_UserBoard/uecom/uecom.c:575
	strcat(allUrl,url);
    3bca:	0029      	movs	r1, r5
    3bcc:	0020      	movs	r0, r4
    3bce:	f001 fe2e 	bl	582e <strcat>
E:\2017-2018\03_Graduation Project\04_Software\05_Wangshi\02_6220\06_UpdateSoftware-180714\01_UEBootloader\KL36_Bios-180714\Debug/../04_UserBoard/uecom/uecom.c:576
	strcat(allUrl,"\"\r\n");
    3bd2:	0020      	movs	r0, r4
    3bd4:	f7fe fb6a 	bl	22ac <strlen>
    3bd8:	2204      	movs	r2, #4
    3bda:	4937      	ldr	r1, [pc, #220]	; (3cb8 <uecom_httpGet+0x138>)
    3bdc:	1820      	adds	r0, r4, r0
    3bde:	f001 fe15 	bl	580c <memcpy>
E:\2017-2018\03_Graduation Project\04_Software\05_Wangshi\02_6220\06_UpdateSoftware-180714\01_UEBootloader\KL36_Bios-180714\Debug/../04_UserBoard/uecom/uecom.c:577
	if(uecom_sendCmd(allUrl,2000,2))
    3be2:	21fa      	movs	r1, #250	; 0xfa
    3be4:	2202      	movs	r2, #2
    3be6:	00c9      	lsls	r1, r1, #3
    3be8:	0020      	movs	r0, r4
    3bea:	f7ff fb05 	bl	31f8 <uecom_sendCmd>
E:\2017-2018\03_Graduation Project\04_Software\05_Wangshi\02_6220\06_UpdateSoftware-180714\01_UEBootloader\KL36_Bios-180714\Debug/../04_UserBoard/uecom/uecom.c:579
		ret = 2;
    3bee:	3701      	adds	r7, #1
E:\2017-2018\03_Graduation Project\04_Software\05_Wangshi\02_6220\06_UpdateSoftware-180714\01_UEBootloader\KL36_Bios-180714\Debug/../04_UserBoard/uecom/uecom.c:577
	if(uecom_sendCmd(allUrl,2000,2))
    3bf0:	2800      	cmp	r0, #0
    3bf2:	d1e4      	bne.n	3bbe <uecom_httpGet+0x3e>
E:\2017-2018\03_Graduation Project\04_Software\05_Wangshi\02_6220\06_UpdateSoftware-180714\01_UEBootloader\KL36_Bios-180714\Debug/../04_UserBoard/uecom/uecom.c:583
	if(uecom_sendCmd(CGDCONT,2000,2))
    3bf4:	21fa      	movs	r1, #250	; 0xfa
    3bf6:	2202      	movs	r2, #2
    3bf8:	00c9      	lsls	r1, r1, #3
    3bfa:	4830      	ldr	r0, [pc, #192]	; (3cbc <uecom_httpGet+0x13c>)
    3bfc:	f7ff fafc 	bl	31f8 <uecom_sendCmd>
E:\2017-2018\03_Graduation Project\04_Software\05_Wangshi\02_6220\06_UpdateSoftware-180714\01_UEBootloader\KL36_Bios-180714\Debug/../04_UserBoard/uecom/uecom.c:585
		ret = 3;
    3c00:	3701      	adds	r7, #1
E:\2017-2018\03_Graduation Project\04_Software\05_Wangshi\02_6220\06_UpdateSoftware-180714\01_UEBootloader\KL36_Bios-180714\Debug/../04_UserBoard/uecom/uecom.c:583
	if(uecom_sendCmd(CGDCONT,2000,2))
    3c02:	2800      	cmp	r0, #0
    3c04:	d1db      	bne.n	3bbe <uecom_httpGet+0x3e>
E:\2017-2018\03_Graduation Project\04_Software\05_Wangshi\02_6220\06_UpdateSoftware-180714\01_UEBootloader\KL36_Bios-180714\Debug/../04_UserBoard/uecom/uecom.c:589
	if(uecom_sendCmd(CGACT_1,5000,3))
    3c06:	2203      	movs	r2, #3
    3c08:	492d      	ldr	r1, [pc, #180]	; (3cc0 <uecom_httpGet+0x140>)
    3c0a:	482e      	ldr	r0, [pc, #184]	; (3cc4 <uecom_httpGet+0x144>)
    3c0c:	f7ff faf4 	bl	31f8 <uecom_sendCmd>
E:\2017-2018\03_Graduation Project\04_Software\05_Wangshi\02_6220\06_UpdateSoftware-180714\01_UEBootloader\KL36_Bios-180714\Debug/../04_UserBoard/uecom/uecom.c:591
		ret = 4;
    3c10:	3701      	adds	r7, #1
E:\2017-2018\03_Graduation Project\04_Software\05_Wangshi\02_6220\06_UpdateSoftware-180714\01_UEBootloader\KL36_Bios-180714\Debug/../04_UserBoard/uecom/uecom.c:589
	if(uecom_sendCmd(CGACT_1,5000,3))
    3c12:	2800      	cmp	r0, #0
    3c14:	d1d3      	bne.n	3bbe <uecom_httpGet+0x3e>
E:\2017-2018\03_Graduation Project\04_Software\05_Wangshi\02_6220\06_UpdateSoftware-180714\01_UEBootloader\KL36_Bios-180714\Debug/../04_UserBoard/uecom/uecom.c:595
	if(uecom_linkCS(ip, port))
    3c16:	4641      	mov	r1, r8
    3c18:	4648      	mov	r0, r9
    3c1a:	f7ff fbbb 	bl	3394 <uecom_linkCS>
E:\2017-2018\03_Graduation Project\04_Software\05_Wangshi\02_6220\06_UpdateSoftware-180714\01_UEBootloader\KL36_Bios-180714\Debug/../04_UserBoard/uecom/uecom.c:597
		ret = 5;
    3c1e:	3701      	adds	r7, #1
E:\2017-2018\03_Graduation Project\04_Software\05_Wangshi\02_6220\06_UpdateSoftware-180714\01_UEBootloader\KL36_Bios-180714\Debug/../04_UserBoard/uecom/uecom.c:595
	if(uecom_linkCS(ip, port))
    3c20:	2800      	cmp	r0, #0
    3c22:	d1cc      	bne.n	3bbe <uecom_httpGet+0x3e>
E:\2017-2018\03_Graduation Project\04_Software\05_Wangshi\02_6220\06_UpdateSoftware-180714\01_UEBootloader\KL36_Bios-180714\Debug/../04_UserBoard/uecom/uecom.c:601
	if(uecom_sendCmd(HTTPSEND_0,5000,3))
    3c24:	2203      	movs	r2, #3
    3c26:	4926      	ldr	r1, [pc, #152]	; (3cc0 <uecom_httpGet+0x140>)
    3c28:	4827      	ldr	r0, [pc, #156]	; (3cc8 <uecom_httpGet+0x148>)
    3c2a:	f7ff fae5 	bl	31f8 <uecom_sendCmd>
E:\2017-2018\03_Graduation Project\04_Software\05_Wangshi\02_6220\06_UpdateSoftware-180714\01_UEBootloader\KL36_Bios-180714\Debug/../04_UserBoard/uecom/uecom.c:603
		ret = 6;
    3c2e:	3701      	adds	r7, #1
E:\2017-2018\03_Graduation Project\04_Software\05_Wangshi\02_6220\06_UpdateSoftware-180714\01_UEBootloader\KL36_Bios-180714\Debug/../04_UserBoard/uecom/uecom.c:601
	if(uecom_sendCmd(HTTPSEND_0,5000,3))
    3c30:	2800      	cmp	r0, #0
    3c32:	d1c4      	bne.n	3bbe <uecom_httpGet+0x3e>
E:\2017-2018\03_Graduation Project\04_Software\05_Wangshi\02_6220\06_UpdateSoftware-180714\01_UEBootloader\KL36_Bios-180714\Debug/../04_UserBoard/uecom/uecom.c:606
	uecom_delay_ms(500);
    3c34:	30f5      	adds	r0, #245	; 0xf5
    3c36:	30ff      	adds	r0, #255	; 0xff
    3c38:	f7ff f844 	bl	2cc4 <Delay_ms>
E:\2017-2018\03_Graduation Project\04_Software\05_Wangshi\02_6220\06_UpdateSoftware-180714\01_UEBootloader\KL36_Bios-180714\Debug/../04_UserBoard/uecom/uecom.c:608
	if(uecom_sendCmd(HTTPREAD,8000,3))
    3c3c:	21fa      	movs	r1, #250	; 0xfa
    3c3e:	2203      	movs	r2, #3
    3c40:	0149      	lsls	r1, r1, #5
    3c42:	4822      	ldr	r0, [pc, #136]	; (3ccc <uecom_httpGet+0x14c>)
    3c44:	f7ff fad8 	bl	31f8 <uecom_sendCmd>
    3c48:	1e07      	subs	r7, r0, #0
    3c4a:	d12c      	bne.n	3ca6 <uecom_httpGet+0x126>
E:\2017-2018\03_Graduation Project\04_Software\05_Wangshi\02_6220\06_UpdateSoftware-180714\01_UEBootloader\KL36_Bios-180714\Debug/../04_UserBoard/uecom/uecom.c:613
	p = strstr(AT_reBuf,"+HTTPREAD:");
    3c4c:	4920      	ldr	r1, [pc, #128]	; (3cd0 <uecom_httpGet+0x150>)
    3c4e:	4821      	ldr	r0, [pc, #132]	; (3cd4 <uecom_httpGet+0x154>)
    3c50:	f001 fe28 	bl	58a4 <strstr>
E:\2017-2018\03_Graduation Project\04_Software\05_Wangshi\02_6220\06_UpdateSoftware-180714\01_UEBootloader\KL36_Bios-180714\Debug/../04_UserBoard/uecom/uecom.c:615
	while(*p>='0'&&*p<='9')
    3c54:	7a82      	ldrb	r2, [r0, #10]
E:\2017-2018\03_Graduation Project\04_Software\05_Wangshi\02_6220\06_UpdateSoftware-180714\01_UEBootloader\KL36_Bios-180714\Debug/../04_UserBoard/uecom/uecom.c:614
	p+=10;
    3c56:	0004      	movs	r4, r0
E:\2017-2018\03_Graduation Project\04_Software\05_Wangshi\02_6220\06_UpdateSoftware-180714\01_UEBootloader\KL36_Bios-180714\Debug/../04_UserBoard/uecom/uecom.c:615
	while(*p>='0'&&*p<='9')
    3c58:	0013      	movs	r3, r2
    3c5a:	3b30      	subs	r3, #48	; 0x30
E:\2017-2018\03_Graduation Project\04_Software\05_Wangshi\02_6220\06_UpdateSoftware-180714\01_UEBootloader\KL36_Bios-180714\Debug/../04_UserBoard/uecom/uecom.c:614
	p+=10;
    3c5c:	340a      	adds	r4, #10
E:\2017-2018\03_Graduation Project\04_Software\05_Wangshi\02_6220\06_UpdateSoftware-180714\01_UEBootloader\KL36_Bios-180714\Debug/../04_UserBoard/uecom/uecom.c:615
	while(*p>='0'&&*p<='9')
    3c5e:	2b09      	cmp	r3, #9
    3c60:	d823      	bhi.n	3caa <uecom_httpGet+0x12a>
E:\2017-2018\03_Graduation Project\04_Software\05_Wangshi\02_6220\06_UpdateSoftware-180714\01_UEBootloader\KL36_Bios-180714\Debug/../04_UserBoard/uecom/uecom.c:566
	uint_16 len = 0 , i;
    3c62:	2300      	movs	r3, #0
    3c64:	e000      	b.n	3c68 <uecom_httpGet+0xe8>
    3c66:	002c      	movs	r4, r5
E:\2017-2018\03_Graduation Project\04_Software\05_Wangshi\02_6220\06_UpdateSoftware-180714\01_UEBootloader\KL36_Bios-180714\Debug/../04_UserBoard/uecom/uecom.c:617
		len = len*10+*p-'0';
    3c68:	0099      	lsls	r1, r3, #2
    3c6a:	185b      	adds	r3, r3, r1
    3c6c:	005b      	lsls	r3, r3, #1
    3c6e:	189b      	adds	r3, r3, r2
E:\2017-2018\03_Graduation Project\04_Software\05_Wangshi\02_6220\06_UpdateSoftware-180714\01_UEBootloader\KL36_Bios-180714\Debug/../04_UserBoard/uecom/uecom.c:615
	while(*p>='0'&&*p<='9')
    3c70:	7862      	ldrb	r2, [r4, #1]
E:\2017-2018\03_Graduation Project\04_Software\05_Wangshi\02_6220\06_UpdateSoftware-180714\01_UEBootloader\KL36_Bios-180714\Debug/../04_UserBoard/uecom/uecom.c:617
		len = len*10+*p-'0';
    3c72:	b299      	uxth	r1, r3
    3c74:	000b      	movs	r3, r1
E:\2017-2018\03_Graduation Project\04_Software\05_Wangshi\02_6220\06_UpdateSoftware-180714\01_UEBootloader\KL36_Bios-180714\Debug/../04_UserBoard/uecom/uecom.c:615
	while(*p>='0'&&*p<='9')
    3c76:	0010      	movs	r0, r2
E:\2017-2018\03_Graduation Project\04_Software\05_Wangshi\02_6220\06_UpdateSoftware-180714\01_UEBootloader\KL36_Bios-180714\Debug/../04_UserBoard/uecom/uecom.c:617
		len = len*10+*p-'0';
    3c78:	3b30      	subs	r3, #48	; 0x30
E:\2017-2018\03_Graduation Project\04_Software\05_Wangshi\02_6220\06_UpdateSoftware-180714\01_UEBootloader\KL36_Bios-180714\Debug/../04_UserBoard/uecom/uecom.c:615
	while(*p>='0'&&*p<='9')
    3c7a:	3830      	subs	r0, #48	; 0x30
E:\2017-2018\03_Graduation Project\04_Software\05_Wangshi\02_6220\06_UpdateSoftware-180714\01_UEBootloader\KL36_Bios-180714\Debug/../04_UserBoard/uecom/uecom.c:617
		len = len*10+*p-'0';
    3c7c:	b29b      	uxth	r3, r3
E:\2017-2018\03_Graduation Project\04_Software\05_Wangshi\02_6220\06_UpdateSoftware-180714\01_UEBootloader\KL36_Bios-180714\Debug/../04_UserBoard/uecom/uecom.c:618
		p++;
    3c7e:	1c65      	adds	r5, r4, #1
E:\2017-2018\03_Graduation Project\04_Software\05_Wangshi\02_6220\06_UpdateSoftware-180714\01_UEBootloader\KL36_Bios-180714\Debug/../04_UserBoard/uecom/uecom.c:615
	while(*p>='0'&&*p<='9')
    3c80:	2809      	cmp	r0, #9
    3c82:	d9f0      	bls.n	3c66 <uecom_httpGet+0xe6>
    3c84:	18f0      	adds	r0, r6, r3
E:\2017-2018\03_Graduation Project\04_Software\05_Wangshi\02_6220\06_UpdateSoftware-180714\01_UEBootloader\KL36_Bios-180714\Debug/../04_UserBoard/uecom/uecom.c:621
	for(i=0;i<len;i++)
    3c86:	2b00      	cmp	r3, #0
    3c88:	d00a      	beq.n	3ca0 <uecom_httpGet+0x120>
    3c8a:	3931      	subs	r1, #49	; 0x31
    3c8c:	1ce2      	adds	r2, r4, #3
    3c8e:	b28b      	uxth	r3, r1
    3c90:	3404      	adds	r4, #4
    3c92:	191b      	adds	r3, r3, r4
E:\2017-2018\03_Graduation Project\04_Software\05_Wangshi\02_6220\06_UpdateSoftware-180714\01_UEBootloader\KL36_Bios-180714\Debug/../04_UserBoard/uecom/uecom.c:622 (discriminator 3)
		result[i] = *(p+i);
    3c94:	7811      	ldrb	r1, [r2, #0]
    3c96:	3201      	adds	r2, #1
    3c98:	7031      	strb	r1, [r6, #0]
    3c9a:	3601      	adds	r6, #1
E:\2017-2018\03_Graduation Project\04_Software\05_Wangshi\02_6220\06_UpdateSoftware-180714\01_UEBootloader\KL36_Bios-180714\Debug/../04_UserBoard/uecom/uecom.c:621 (discriminator 3)
	for(i=0;i<len;i++)
    3c9c:	4293      	cmp	r3, r2
    3c9e:	d1f9      	bne.n	3c94 <uecom_httpGet+0x114>
E:\2017-2018\03_Graduation Project\04_Software\05_Wangshi\02_6220\06_UpdateSoftware-180714\01_UEBootloader\KL36_Bios-180714\Debug/../04_UserBoard/uecom/uecom.c:623
	result[len] = 0;
    3ca0:	2300      	movs	r3, #0
    3ca2:	7003      	strb	r3, [r0, #0]
    3ca4:	e78b      	b.n	3bbe <uecom_httpGet+0x3e>
E:\2017-2018\03_Graduation Project\04_Software\05_Wangshi\02_6220\06_UpdateSoftware-180714\01_UEBootloader\KL36_Bios-180714\Debug/../04_UserBoard/uecom/uecom.c:610
		ret = 7;
    3ca6:	2707      	movs	r7, #7
    3ca8:	e789      	b.n	3bbe <uecom_httpGet+0x3e>
E:\2017-2018\03_Graduation Project\04_Software\05_Wangshi\02_6220\06_UpdateSoftware-180714\01_UEBootloader\KL36_Bios-180714\Debug/../04_UserBoard/uecom/uecom.c:615
	while(*p>='0'&&*p<='9')
    3caa:	0030      	movs	r0, r6
    3cac:	e7f8      	b.n	3ca0 <uecom_httpGet+0x120>
    3cae:	46c0      	nop			; (mov r8, r8)
    3cb0:	00005950 	.word	0x00005950
    3cb4:	1ffff8f4 	.word	0x1ffff8f4
    3cb8:	00005c5c 	.word	0x00005c5c
    3cbc:	1ffff830 	.word	0x1ffff830
    3cc0:	00001388 	.word	0x00001388
    3cc4:	1ffff820 	.word	0x1ffff820
    3cc8:	1ffff914 	.word	0x1ffff914
    3ccc:	1ffff904 	.word	0x1ffff904
    3cd0:	00005c60 	.word	0x00005c60
    3cd4:	1ffff9bc 	.word	0x1ffff9bc

00003cd8 <uecom_internal_getIMEI>:
uecom_internal_getIMEI():
E:\2017-2018\03_Graduation Project\04_Software\05_Wangshi\02_6220\06_UpdateSoftware-180714\01_UEBootloader\KL36_Bios-180714\Debug/../04_UserBoard/uecom/uecom.c:715
	//1
	uint_8 ret_val;
	uint_16 i,k;

	//2IMEI
	dest[15] = 0;				      //
    3cd8:	2300      	movs	r3, #0
E:\2017-2018\03_Graduation Project\04_Software\05_Wangshi\02_6220\06_UpdateSoftware-180714\01_UEBootloader\KL36_Bios-180714\Debug/../04_UserBoard/uecom/uecom.c:716
	if(uecom_sendCmd((uint_8 *)CGSN,500,2))
    3cda:	21fa      	movs	r1, #250	; 0xfa
E:\2017-2018\03_Graduation Project\04_Software\05_Wangshi\02_6220\06_UpdateSoftware-180714\01_UEBootloader\KL36_Bios-180714\Debug/../04_UserBoard/uecom/uecom.c:709
{
    3cdc:	b570      	push	{r4, r5, r6, lr}
E:\2017-2018\03_Graduation Project\04_Software\05_Wangshi\02_6220\06_UpdateSoftware-180714\01_UEBootloader\KL36_Bios-180714\Debug/../04_UserBoard/uecom/uecom.c:716
	if(uecom_sendCmd((uint_8 *)CGSN,500,2))
    3cde:	4c21      	ldr	r4, [pc, #132]	; (3d64 <uecom_internal_getIMEI+0x8c>)
E:\2017-2018\03_Graduation Project\04_Software\05_Wangshi\02_6220\06_UpdateSoftware-180714\01_UEBootloader\KL36_Bios-180714\Debug/../04_UserBoard/uecom/uecom.c:709
{
    3ce0:	0005      	movs	r5, r0
E:\2017-2018\03_Graduation Project\04_Software\05_Wangshi\02_6220\06_UpdateSoftware-180714\01_UEBootloader\KL36_Bios-180714\Debug/../04_UserBoard/uecom/uecom.c:715
	dest[15] = 0;				      //
    3ce2:	73c3      	strb	r3, [r0, #15]
E:\2017-2018\03_Graduation Project\04_Software\05_Wangshi\02_6220\06_UpdateSoftware-180714\01_UEBootloader\KL36_Bios-180714\Debug/../04_UserBoard/uecom/uecom.c:716
	if(uecom_sendCmd((uint_8 *)CGSN,500,2))
    3ce4:	2202      	movs	r2, #2
    3ce6:	0049      	lsls	r1, r1, #1
    3ce8:	0020      	movs	r0, r4
    3cea:	f7ff fa85 	bl	31f8 <uecom_sendCmd>
    3cee:	2800      	cmp	r0, #0
    3cf0:	d128      	bne.n	3d44 <uecom_internal_getIMEI+0x6c>
E:\2017-2018\03_Graduation Project\04_Software\05_Wangshi\02_6220\06_UpdateSoftware-180714\01_UEBootloader\KL36_Bios-180714\Debug/../04_UserBoard/uecom/uecom.c:727
			goto uecom_internal_getIMEI_exit;      //IMEI
		}
	}
	//3IMEIdest
	//IMEI
	i = strstr(AT_reBuf,"+CGSN: ")-(char*)AT_reBuf;
    3cf2:	4c1d      	ldr	r4, [pc, #116]	; (3d68 <uecom_internal_getIMEI+0x90>)
    3cf4:	491d      	ldr	r1, [pc, #116]	; (3d6c <uecom_internal_getIMEI+0x94>)
    3cf6:	0020      	movs	r0, r4
    3cf8:	f001 fdd4 	bl	58a4 <strstr>
    3cfc:	1b03      	subs	r3, r0, r4
E:\2017-2018\03_Graduation Project\04_Software\05_Wangshi\02_6220\06_UpdateSoftware-180714\01_UEBootloader\KL36_Bios-180714\Debug/../04_UserBoard/uecom/uecom.c:728
	i += 7;
    3cfe:	3307      	adds	r3, #7
    3d00:	b29b      	uxth	r3, r3
E:\2017-2018\03_Graduation Project\04_Software\05_Wangshi\02_6220\06_UpdateSoftware-180714\01_UEBootloader\KL36_Bios-180714\Debug/../04_UserBoard/uecom/uecom.c:730
	k = 0;
	while ( (AT_reBuf[i] != 'O' || AT_reBuf[i+1] != 'K') && i  <  AT_reBuf_length && k<15)
    3d02:	18e0      	adds	r0, r4, r3
    3d04:	7802      	ldrb	r2, [r0, #0]
E:\2017-2018\03_Graduation Project\04_Software\05_Wangshi\02_6220\06_UpdateSoftware-180714\01_UEBootloader\KL36_Bios-180714\Debug/../04_UserBoard/uecom/uecom.c:729
	k = 0;
    3d06:	2100      	movs	r1, #0
E:\2017-2018\03_Graduation Project\04_Software\05_Wangshi\02_6220\06_UpdateSoftware-180714\01_UEBootloader\KL36_Bios-180714\Debug/../04_UserBoard/uecom/uecom.c:730
	while ( (AT_reBuf[i] != 'O' || AT_reBuf[i+1] != 'K') && i  <  AT_reBuf_length && k<15)
    3d08:	2a4f      	cmp	r2, #79	; 0x4f
    3d0a:	d010      	beq.n	3d2e <uecom_internal_getIMEI+0x56>
E:\2017-2018\03_Graduation Project\04_Software\05_Wangshi\02_6220\06_UpdateSoftware-180714\01_UEBootloader\KL36_Bios-180714\Debug/../04_UserBoard/uecom/uecom.c:730 (discriminator 3)
    3d0c:	b298      	uxth	r0, r3
    3d0e:	28c7      	cmp	r0, #199	; 0xc7
    3d10:	d810      	bhi.n	3d34 <uecom_internal_getIMEI+0x5c>
E:\2017-2018\03_Graduation Project\04_Software\05_Wangshi\02_6220\06_UpdateSoftware-180714\01_UEBootloader\KL36_Bios-180714\Debug/../04_UserBoard/uecom/uecom.c:730 (discriminator 4)
    3d12:	290e      	cmp	r1, #14
    3d14:	d814      	bhi.n	3d40 <uecom_internal_getIMEI+0x68>
E:\2017-2018\03_Graduation Project\04_Software\05_Wangshi\02_6220\06_UpdateSoftware-180714\01_UEBootloader\KL36_Bios-180714\Debug/../04_UserBoard/uecom/uecom.c:732
	{
		if( (AT_reBuf[i] >= '0' && AT_reBuf[i] <= '9'))
    3d16:	0010      	movs	r0, r2
    3d18:	3830      	subs	r0, #48	; 0x30
    3d1a:	2809      	cmp	r0, #9
    3d1c:	d802      	bhi.n	3d24 <uecom_internal_getIMEI+0x4c>
E:\2017-2018\03_Graduation Project\04_Software\05_Wangshi\02_6220\06_UpdateSoftware-180714\01_UEBootloader\KL36_Bios-180714\Debug/../04_UserBoard/uecom/uecom.c:734
		{
			dest[k++] = AT_reBuf[i++];
    3d1e:	1c48      	adds	r0, r1, #1
    3d20:	546a      	strb	r2, [r5, r1]
    3d22:	b281      	uxth	r1, r0
    3d24:	3301      	adds	r3, #1
E:\2017-2018\03_Graduation Project\04_Software\05_Wangshi\02_6220\06_UpdateSoftware-180714\01_UEBootloader\KL36_Bios-180714\Debug/../04_UserBoard/uecom/uecom.c:730
	while ( (AT_reBuf[i] != 'O' || AT_reBuf[i+1] != 'K') && i  <  AT_reBuf_length && k<15)
    3d26:	18e0      	adds	r0, r4, r3
    3d28:	7802      	ldrb	r2, [r0, #0]
    3d2a:	2a4f      	cmp	r2, #79	; 0x4f
    3d2c:	d1ee      	bne.n	3d0c <uecom_internal_getIMEI+0x34>
E:\2017-2018\03_Graduation Project\04_Software\05_Wangshi\02_6220\06_UpdateSoftware-180714\01_UEBootloader\KL36_Bios-180714\Debug/../04_UserBoard/uecom/uecom.c:730 (discriminator 2)
    3d2e:	7840      	ldrb	r0, [r0, #1]
    3d30:	284b      	cmp	r0, #75	; 0x4b
    3d32:	d1eb      	bne.n	3d0c <uecom_internal_getIMEI+0x34>
E:\2017-2018\03_Graduation Project\04_Software\05_Wangshi\02_6220\06_UpdateSoftware-180714\01_UEBootloader\KL36_Bios-180714\Debug/../04_UserBoard/uecom/uecom.c:743
			i++;
		}
	}
	if(k < 15)    //IMEI15
	{
			ret_val = 2;
    3d34:	2000      	movs	r0, #0
    3d36:	230e      	movs	r3, #14
    3d38:	428b      	cmp	r3, r1
    3d3a:	4140      	adcs	r0, r0
    3d3c:	0040      	lsls	r0, r0, #1
E:\2017-2018\03_Graduation Project\04_Software\05_Wangshi\02_6220\06_UpdateSoftware-180714\01_UEBootloader\KL36_Bios-180714\Debug/../04_UserBoard/uecom/uecom.c:750
	}
	ret_val = 0;
	//
uecom_internal_getIMEI_exit:
	return ret_val;
}
    3d3e:	bd70      	pop	{r4, r5, r6, pc}
E:\2017-2018\03_Graduation Project\04_Software\05_Wangshi\02_6220\06_UpdateSoftware-180714\01_UEBootloader\KL36_Bios-180714\Debug/../04_UserBoard/uecom/uecom.c:746
	ret_val = 0;
    3d40:	2000      	movs	r0, #0
    3d42:	e7fc      	b.n	3d3e <uecom_internal_getIMEI+0x66>
E:\2017-2018\03_Graduation Project\04_Software\05_Wangshi\02_6220\06_UpdateSoftware-180714\01_UEBootloader\KL36_Bios-180714\Debug/../04_UserBoard/uecom/uecom.c:718
		uecom_sendCmd((uint_8 *)AT,200,2);
    3d44:	2202      	movs	r2, #2
    3d46:	21c8      	movs	r1, #200	; 0xc8
    3d48:	4809      	ldr	r0, [pc, #36]	; (3d70 <uecom_internal_getIMEI+0x98>)
    3d4a:	f7ff fa55 	bl	31f8 <uecom_sendCmd>
E:\2017-2018\03_Graduation Project\04_Software\05_Wangshi\02_6220\06_UpdateSoftware-180714\01_UEBootloader\KL36_Bios-180714\Debug/../04_UserBoard/uecom/uecom.c:719
		if(uecom_sendCmd((uint_8 *)CGSN,500,2))
    3d4e:	21fa      	movs	r1, #250	; 0xfa
    3d50:	2202      	movs	r2, #2
    3d52:	0049      	lsls	r1, r1, #1
    3d54:	0020      	movs	r0, r4
    3d56:	f7ff fa4f 	bl	31f8 <uecom_sendCmd>
    3d5a:	0003      	movs	r3, r0
E:\2017-2018\03_Graduation Project\04_Software\05_Wangshi\02_6220\06_UpdateSoftware-180714\01_UEBootloader\KL36_Bios-180714\Debug/../04_UserBoard/uecom/uecom.c:721
			ret_val = 1;
    3d5c:	2001      	movs	r0, #1
E:\2017-2018\03_Graduation Project\04_Software\05_Wangshi\02_6220\06_UpdateSoftware-180714\01_UEBootloader\KL36_Bios-180714\Debug/../04_UserBoard/uecom/uecom.c:719
		if(uecom_sendCmd((uint_8 *)CGSN,500,2))
    3d5e:	2b00      	cmp	r3, #0
    3d60:	d0c7      	beq.n	3cf2 <uecom_internal_getIMEI+0x1a>
    3d62:	e7ec      	b.n	3d3e <uecom_internal_getIMEI+0x66>
    3d64:	1ffff850 	.word	0x1ffff850
    3d68:	1ffff9bc 	.word	0x1ffff9bc
    3d6c:	00005c6c 	.word	0x00005c6c
    3d70:	1ffff800 	.word	0x1ffff800

00003d74 <uecom_internal_getIMSI>:
uecom_internal_getIMSI():
E:\2017-2018\03_Graduation Project\04_Software\05_Wangshi\02_6220\06_UpdateSoftware-180714\01_UEBootloader\KL36_Bios-180714\Debug/../04_UserBoard/uecom/uecom.c:766
{
	//1
	uint_8 ret_val;
	int_16 i,k;

	dest[14] = 0;
    3d74:	2300      	movs	r3, #0
E:\2017-2018\03_Graduation Project\04_Software\05_Wangshi\02_6220\06_UpdateSoftware-180714\01_UEBootloader\KL36_Bios-180714\Debug/../04_UserBoard/uecom/uecom.c:761
{
    3d76:	b570      	push	{r4, r5, r6, lr}
E:\2017-2018\03_Graduation Project\04_Software\05_Wangshi\02_6220\06_UpdateSoftware-180714\01_UEBootloader\KL36_Bios-180714\Debug/../04_UserBoard/uecom/uecom.c:769

	//2IMSI
	if(uecom_sendCmd((uint_8 *)CIMI,5000,2))
    3d78:	4c1d      	ldr	r4, [pc, #116]	; (3df0 <uecom_internal_getIMSI+0x7c>)
E:\2017-2018\03_Graduation Project\04_Software\05_Wangshi\02_6220\06_UpdateSoftware-180714\01_UEBootloader\KL36_Bios-180714\Debug/../04_UserBoard/uecom/uecom.c:761
{
    3d7a:	0005      	movs	r5, r0
E:\2017-2018\03_Graduation Project\04_Software\05_Wangshi\02_6220\06_UpdateSoftware-180714\01_UEBootloader\KL36_Bios-180714\Debug/../04_UserBoard/uecom/uecom.c:766
	dest[14] = 0;
    3d7c:	7383      	strb	r3, [r0, #14]
E:\2017-2018\03_Graduation Project\04_Software\05_Wangshi\02_6220\06_UpdateSoftware-180714\01_UEBootloader\KL36_Bios-180714\Debug/../04_UserBoard/uecom/uecom.c:769
	if(uecom_sendCmd((uint_8 *)CIMI,5000,2))
    3d7e:	2202      	movs	r2, #2
    3d80:	491c      	ldr	r1, [pc, #112]	; (3df4 <uecom_internal_getIMSI+0x80>)
    3d82:	0020      	movs	r0, r4
    3d84:	f7ff fa38 	bl	31f8 <uecom_sendCmd>
    3d88:	2800      	cmp	r0, #0
    3d8a:	d121      	bne.n	3dd0 <uecom_internal_getIMSI+0x5c>
E:\2017-2018\03_Graduation Project\04_Software\05_Wangshi\02_6220\06_UpdateSoftware-180714\01_UEBootloader\KL36_Bios-180714\Debug/../04_UserBoard/uecom/uecom.c:780
			goto uecom_internal_getIMSI_exit;     //IMSI
		}
	}
	//3IMSIdest
	//IMSI
	i = strstr(AT_reBuf,OK)-(char*)AT_reBuf;
    3d8c:	4c1a      	ldr	r4, [pc, #104]	; (3df8 <uecom_internal_getIMSI+0x84>)
    3d8e:	491b      	ldr	r1, [pc, #108]	; (3dfc <uecom_internal_getIMSI+0x88>)
    3d90:	0020      	movs	r0, r4
    3d92:	f001 fd87 	bl	58a4 <strstr>
E:\2017-2018\03_Graduation Project\04_Software\05_Wangshi\02_6220\06_UpdateSoftware-180714\01_UEBootloader\KL36_Bios-180714\Debug/../04_UserBoard/uecom/uecom.c:781
	dest[15]=0;
    3d96:	2300      	movs	r3, #0
E:\2017-2018\03_Graduation Project\04_Software\05_Wangshi\02_6220\06_UpdateSoftware-180714\01_UEBootloader\KL36_Bios-180714\Debug/../04_UserBoard/uecom/uecom.c:780
	i = strstr(AT_reBuf,OK)-(char*)AT_reBuf;
    3d98:	1b02      	subs	r2, r0, r4
    3d9a:	b210      	sxth	r0, r2
E:\2017-2018\03_Graduation Project\04_Software\05_Wangshi\02_6220\06_UpdateSoftware-180714\01_UEBootloader\KL36_Bios-180714\Debug/../04_UserBoard/uecom/uecom.c:781
	dest[15]=0;
    3d9c:	73eb      	strb	r3, [r5, #15]
E:\2017-2018\03_Graduation Project\04_Software\05_Wangshi\02_6220\06_UpdateSoftware-180714\01_UEBootloader\KL36_Bios-180714\Debug/../04_UserBoard/uecom/uecom.c:783
	k=14;
	while(k>=0 && i>=0)
    3d9e:	2800      	cmp	r0, #0
    3da0:	db14      	blt.n	3dcc <uecom_internal_getIMSI+0x58>
    3da2:	1903      	adds	r3, r0, r4
    3da4:	0412      	lsls	r2, r2, #16
    3da6:	3c01      	subs	r4, #1
    3da8:	0c12      	lsrs	r2, r2, #16
    3daa:	1820      	adds	r0, r4, r0
    3dac:	1a80      	subs	r0, r0, r2
E:\2017-2018\03_Graduation Project\04_Software\05_Wangshi\02_6220\06_UpdateSoftware-180714\01_UEBootloader\KL36_Bios-180714\Debug/../04_UserBoard/uecom/uecom.c:782
	k=14;
    3dae:	220e      	movs	r2, #14
    3db0:	e002      	b.n	3db8 <uecom_internal_getIMSI+0x44>
    3db2:	3b01      	subs	r3, #1
E:\2017-2018\03_Graduation Project\04_Software\05_Wangshi\02_6220\06_UpdateSoftware-180714\01_UEBootloader\KL36_Bios-180714\Debug/../04_UserBoard/uecom/uecom.c:783 (discriminator 1)
	while(k>=0 && i>=0)
    3db4:	4298      	cmp	r0, r3
    3db6:	d009      	beq.n	3dcc <uecom_internal_getIMSI+0x58>
E:\2017-2018\03_Graduation Project\04_Software\05_Wangshi\02_6220\06_UpdateSoftware-180714\01_UEBootloader\KL36_Bios-180714\Debug/../04_UserBoard/uecom/uecom.c:785
	{
		if( (AT_reBuf[i] >= '0' && AT_reBuf[i] <= '9'))
    3db8:	7819      	ldrb	r1, [r3, #0]
    3dba:	000c      	movs	r4, r1
    3dbc:	3c30      	subs	r4, #48	; 0x30
    3dbe:	2c09      	cmp	r4, #9
    3dc0:	d802      	bhi.n	3dc8 <uecom_internal_getIMSI+0x54>
E:\2017-2018\03_Graduation Project\04_Software\05_Wangshi\02_6220\06_UpdateSoftware-180714\01_UEBootloader\KL36_Bios-180714\Debug/../04_UserBoard/uecom/uecom.c:787
		{
			dest[k--] = AT_reBuf[i--];
    3dc2:	1e54      	subs	r4, r2, #1
    3dc4:	54a9      	strb	r1, [r5, r2]
    3dc6:	b222      	sxth	r2, r4
E:\2017-2018\03_Graduation Project\04_Software\05_Wangshi\02_6220\06_UpdateSoftware-180714\01_UEBootloader\KL36_Bios-180714\Debug/../04_UserBoard/uecom/uecom.c:783
	while(k>=0 && i>=0)
    3dc8:	1c51      	adds	r1, r2, #1
    3dca:	d1f2      	bne.n	3db2 <uecom_internal_getIMSI+0x3e>
E:\2017-2018\03_Graduation Project\04_Software\05_Wangshi\02_6220\06_UpdateSoftware-180714\01_UEBootloader\KL36_Bios-180714\Debug/../04_UserBoard/uecom/uecom.c:794
		else
		{
			i--;
		}
	}
	ret_val = 0;
    3dcc:	2000      	movs	r0, #0
E:\2017-2018\03_Graduation Project\04_Software\05_Wangshi\02_6220\06_UpdateSoftware-180714\01_UEBootloader\KL36_Bios-180714\Debug/../04_UserBoard/uecom/uecom.c:798
	//
uecom_internal_getIMSI_exit:
	return ret_val;
}
    3dce:	bd70      	pop	{r4, r5, r6, pc}
E:\2017-2018\03_Graduation Project\04_Software\05_Wangshi\02_6220\06_UpdateSoftware-180714\01_UEBootloader\KL36_Bios-180714\Debug/../04_UserBoard/uecom/uecom.c:771
		uecom_sendCmd((uint_8 *)AT,200,2);
    3dd0:	2202      	movs	r2, #2
    3dd2:	21c8      	movs	r1, #200	; 0xc8
    3dd4:	480a      	ldr	r0, [pc, #40]	; (3e00 <uecom_internal_getIMSI+0x8c>)
    3dd6:	f7ff fa0f 	bl	31f8 <uecom_sendCmd>
E:\2017-2018\03_Graduation Project\04_Software\05_Wangshi\02_6220\06_UpdateSoftware-180714\01_UEBootloader\KL36_Bios-180714\Debug/../04_UserBoard/uecom/uecom.c:772
		if(uecom_sendCmd((uint_8 *)CIMI,5000,1))
    3dda:	2201      	movs	r2, #1
    3ddc:	4905      	ldr	r1, [pc, #20]	; (3df4 <uecom_internal_getIMSI+0x80>)
    3dde:	0020      	movs	r0, r4
    3de0:	f7ff fa0a 	bl	31f8 <uecom_sendCmd>
    3de4:	0003      	movs	r3, r0
E:\2017-2018\03_Graduation Project\04_Software\05_Wangshi\02_6220\06_UpdateSoftware-180714\01_UEBootloader\KL36_Bios-180714\Debug/../04_UserBoard/uecom/uecom.c:774
			ret_val = 1;
    3de6:	2001      	movs	r0, #1
E:\2017-2018\03_Graduation Project\04_Software\05_Wangshi\02_6220\06_UpdateSoftware-180714\01_UEBootloader\KL36_Bios-180714\Debug/../04_UserBoard/uecom/uecom.c:772
		if(uecom_sendCmd((uint_8 *)CIMI,5000,1))
    3de8:	2b00      	cmp	r3, #0
    3dea:	d0cf      	beq.n	3d8c <uecom_internal_getIMSI+0x18>
    3dec:	e7ef      	b.n	3dce <uecom_internal_getIMSI+0x5a>
    3dee:	46c0      	nop			; (mov r8, r8)
    3df0:	1ffff85c 	.word	0x1ffff85c
    3df4:	00001388 	.word	0x00001388
    3df8:	1ffff9bc 	.word	0x1ffff9bc
    3dfc:	1ffff924 	.word	0x1ffff924
    3e00:	1ffff800 	.word	0x1ffff800

00003e04 <uecom_init>:
uecom_init():
E:\2017-2018\03_Graduation Project\04_Software\05_Wangshi\02_6220\06_UpdateSoftware-180714\01_UEBootloader\KL36_Bios-180714\Debug/../04_UserBoard/uecom/uecom.c:107
	uart_init(UART_UE, 115200);   //UE115200
    3e04:	21e1      	movs	r1, #225	; 0xe1
E:\2017-2018\03_Graduation Project\04_Software\05_Wangshi\02_6220\06_UpdateSoftware-180714\01_UEBootloader\KL36_Bios-180714\Debug/../04_UserBoard/uecom/uecom.c:101
{
    3e06:	b510      	push	{r4, lr}
E:\2017-2018\03_Graduation Project\04_Software\05_Wangshi\02_6220\06_UpdateSoftware-180714\01_UEBootloader\KL36_Bios-180714\Debug/../04_UserBoard/uecom/uecom.c:107
	uart_init(UART_UE, 115200);   //UE115200
    3e08:	0249      	lsls	r1, r1, #9
    3e0a:	2001      	movs	r0, #1
    3e0c:	f000 fb10 	bl	4430 <uart_init>
E:\2017-2018\03_Graduation Project\04_Software\05_Wangshi\02_6220\06_UpdateSoftware-180714\01_UEBootloader\KL36_Bios-180714\Debug/../04_UserBoard/uecom/uecom.c:108
	uart_enable_re_int(UART_UE);  //UE
    3e10:	2001      	movs	r0, #1
    3e12:	f000 fc51 	bl	46b8 <uart_enable_re_int>
E:\2017-2018\03_Graduation Project\04_Software\05_Wangshi\02_6220\06_UpdateSoftware-180714\01_UEBootloader\KL36_Bios-180714\Debug/../04_UserBoard/uecom/uecom.c:110
	if(uecom_sendCmd((uint_8 *)AT,500,3))
    3e16:	21fa      	movs	r1, #250	; 0xfa
    3e18:	4c16      	ldr	r4, [pc, #88]	; (3e74 <uecom_init+0x70>)
    3e1a:	2203      	movs	r2, #3
    3e1c:	0049      	lsls	r1, r1, #1
    3e1e:	0020      	movs	r0, r4
    3e20:	f7ff f9ea 	bl	31f8 <uecom_sendCmd>
    3e24:	2800      	cmp	r0, #0
    3e26:	d11d      	bne.n	3e64 <uecom_init+0x60>
E:\2017-2018\03_Graduation Project\04_Software\05_Wangshi\02_6220\06_UpdateSoftware-180714\01_UEBootloader\KL36_Bios-180714\Debug/../04_UserBoard/uecom/uecom.c:115
	if(uecom_sendCmd((uint_8 *)AT,500,3))
    3e28:	21fa      	movs	r1, #250	; 0xfa
    3e2a:	2203      	movs	r2, #3
    3e2c:	0049      	lsls	r1, r1, #1
    3e2e:	0020      	movs	r0, r4
    3e30:	f7ff f9e2 	bl	31f8 <uecom_sendCmd>
    3e34:	2800      	cmp	r0, #0
    3e36:	d001      	beq.n	3e3c <uecom_init+0x38>
E:\2017-2018\03_Graduation Project\04_Software\05_Wangshi\02_6220\06_UpdateSoftware-180714\01_UEBootloader\KL36_Bios-180714\Debug/../04_UserBoard/uecom/uecom.c:131
	ret_val = 1;                       //UE
    3e38:	2001      	movs	r0, #1
E:\2017-2018\03_Graduation Project\04_Software\05_Wangshi\02_6220\06_UpdateSoftware-180714\01_UEBootloader\KL36_Bios-180714\Debug/../04_UserBoard/uecom/uecom.c:139
}
    3e3a:	bd10      	pop	{r4, pc}
E:\2017-2018\03_Graduation Project\04_Software\05_Wangshi\02_6220\06_UpdateSoftware-180714\01_UEBootloader\KL36_Bios-180714\Debug/../04_UserBoard/uecom/uecom.c:118
	if(uecom_sendCmd((uint_8 *)ATE_0,500,2))
    3e3c:	21fa      	movs	r1, #250	; 0xfa
    3e3e:	2202      	movs	r2, #2
    3e40:	0049      	lsls	r1, r1, #1
    3e42:	480d      	ldr	r0, [pc, #52]	; (3e78 <uecom_init+0x74>)
    3e44:	f7ff f9d8 	bl	31f8 <uecom_sendCmd>
    3e48:	2800      	cmp	r0, #0
    3e4a:	d1f5      	bne.n	3e38 <uecom_init+0x34>
E:\2017-2018\03_Graduation Project\04_Software\05_Wangshi\02_6220\06_UpdateSoftware-180714\01_UEBootloader\KL36_Bios-180714\Debug/../04_UserBoard/uecom/uecom.c:121
	if(uecom_internal_getIMEI(IMEI))
    3e4c:	480b      	ldr	r0, [pc, #44]	; (3e7c <uecom_init+0x78>)
    3e4e:	f7ff ff43 	bl	3cd8 <uecom_internal_getIMEI>
    3e52:	2800      	cmp	r0, #0
    3e54:	d1f0      	bne.n	3e38 <uecom_init+0x34>
E:\2017-2018\03_Graduation Project\04_Software\05_Wangshi\02_6220\06_UpdateSoftware-180714\01_UEBootloader\KL36_Bios-180714\Debug/../04_UserBoard/uecom/uecom.c:124
	if(uecom_internal_getIMSI(IMSI))
    3e56:	480a      	ldr	r0, [pc, #40]	; (3e80 <uecom_init+0x7c>)
    3e58:	f7ff ff8c 	bl	3d74 <uecom_internal_getIMSI>
    3e5c:	2800      	cmp	r0, #0
    3e5e:	d0ec      	beq.n	3e3a <uecom_init+0x36>
E:\2017-2018\03_Graduation Project\04_Software\05_Wangshi\02_6220\06_UpdateSoftware-180714\01_UEBootloader\KL36_Bios-180714\Debug/../04_UserBoard/uecom/uecom.c:134
	ret_val = 2;                      //SIMIMSI
    3e60:	2002      	movs	r0, #2
    3e62:	e7ea      	b.n	3e3a <uecom_init+0x36>
uecom_power():
E:\2017-2018\03_Graduation Project\04_Software\05_Wangshi\02_6220\06_UpdateSoftware-180714\01_UEBootloader\KL36_Bios-180714\Debug/../04_UserBoard/uecom/uecom.c:134
    3e64:	f7ff f982 	bl	316c <uecom_power.part.0>
uecom_init():
E:\2017-2018\03_Graduation Project\04_Software\05_Wangshi\02_6220\06_UpdateSoftware-180714\01_UEBootloader\KL36_Bios-180714\Debug/../04_UserBoard/uecom/uecom.c:113
		uecom_delay_ms(8000);
    3e68:	20fa      	movs	r0, #250	; 0xfa
    3e6a:	0140      	lsls	r0, r0, #5
    3e6c:	f7fe ff2a 	bl	2cc4 <Delay_ms>
    3e70:	e7da      	b.n	3e28 <uecom_init+0x24>
    3e72:	46c0      	nop			; (mov r8, r8)
    3e74:	1ffff800 	.word	0x1ffff800
    3e78:	1ffff808 	.word	0x1ffff808
    3e7c:	1ffffa88 	.word	0x1ffffa88
    3e80:	1ffffa98 	.word	0x1ffffa98

00003e84 <uecom_default_delay_ms>:
uecom_default_delay_ms():
E:\2017-2018\03_Graduation Project\04_Software\05_Wangshi\02_6220\06_UpdateSoftware-180714\01_UEBootloader\KL36_Bios-180714\Debug/../04_UserBoard/uecom/uecom.c:808
//
//
// - 
//======================================================================
void uecom_default_delay_ms(uint_16 mseconds)
{
    3e84:	b510      	push	{r4, lr}
    3e86:	b082      	sub	sp, #8
E:\2017-2018\03_Graduation Project\04_Software\05_Wangshi\02_6220\06_UpdateSoftware-180714\01_UEBootloader\KL36_Bios-180714\Debug/../04_UserBoard/uecom/uecom.c:811
  vuint_16 i;
  vuint_32 j;
  for(i = 0; i<mseconds; i++)
    3e88:	466b      	mov	r3, sp
    3e8a:	1c99      	adds	r1, r3, #2
    3e8c:	2300      	movs	r3, #0
    3e8e:	800b      	strh	r3, [r1, #0]
    3e90:	880b      	ldrh	r3, [r1, #0]
    3e92:	4298      	cmp	r0, r3
    3e94:	d912      	bls.n	3ebc <uecom_default_delay_ms+0x38>
E:\2017-2018\03_Graduation Project\04_Software\05_Wangshi\02_6220\06_UpdateSoftware-180714\01_UEBootloader\KL36_Bios-180714\Debug/../04_UserBoard/uecom/uecom.c:813
  {
    for(j = 0; j<4800; j++);
    3e96:	2400      	movs	r4, #0
    3e98:	4a09      	ldr	r2, [pc, #36]	; (3ec0 <uecom_default_delay_ms+0x3c>)
    3e9a:	9401      	str	r4, [sp, #4]
    3e9c:	9b01      	ldr	r3, [sp, #4]
    3e9e:	4293      	cmp	r3, r2
    3ea0:	d805      	bhi.n	3eae <uecom_default_delay_ms+0x2a>
E:\2017-2018\03_Graduation Project\04_Software\05_Wangshi\02_6220\06_UpdateSoftware-180714\01_UEBootloader\KL36_Bios-180714\Debug/../04_UserBoard/uecom/uecom.c:813 (discriminator 3)
    3ea2:	9b01      	ldr	r3, [sp, #4]
    3ea4:	3301      	adds	r3, #1
    3ea6:	9301      	str	r3, [sp, #4]
    3ea8:	9b01      	ldr	r3, [sp, #4]
    3eaa:	4293      	cmp	r3, r2
    3eac:	d9f9      	bls.n	3ea2 <uecom_default_delay_ms+0x1e>
E:\2017-2018\03_Graduation Project\04_Software\05_Wangshi\02_6220\06_UpdateSoftware-180714\01_UEBootloader\KL36_Bios-180714\Debug/../04_UserBoard/uecom/uecom.c:811
  for(i = 0; i<mseconds; i++)
    3eae:	880b      	ldrh	r3, [r1, #0]
    3eb0:	3301      	adds	r3, #1
    3eb2:	b29b      	uxth	r3, r3
    3eb4:	800b      	strh	r3, [r1, #0]
    3eb6:	880b      	ldrh	r3, [r1, #0]
    3eb8:	4283      	cmp	r3, r0
    3eba:	d3ee      	bcc.n	3e9a <uecom_default_delay_ms+0x16>
E:\2017-2018\03_Graduation Project\04_Software\05_Wangshi\02_6220\06_UpdateSoftware-180714\01_UEBootloader\KL36_Bios-180714\Debug/../04_UserBoard/uecom/uecom.c:815
  }
}
    3ebc:	b002      	add	sp, #8
    3ebe:	bd10      	pop	{r4, pc}
    3ec0:	000012bf 	.word	0x000012bf

00003ec4 <uint_to_str>:
uint_to_str():
E:\2017-2018\03_Graduation Project\04_Software\05_Wangshi\02_6220\06_UpdateSoftware-180714\01_UEBootloader\KL36_Bios-180714\Debug/../04_UserBoard/uecom/uecom.c:823
//
//ch:		*str
//
//======================================================================
void uint_to_str(uint_32 ch,char *str)
{
    3ec4:	b5f0      	push	{r4, r5, r6, r7, lr}
    3ec6:	464f      	mov	r7, r9
    3ec8:	46d6      	mov	lr, sl
    3eca:	4646      	mov	r6, r8
    3ecc:	b5c0      	push	{r6, r7, lr}
E:\2017-2018\03_Graduation Project\04_Software\05_Wangshi\02_6220\06_UpdateSoftware-180714\01_UEBootloader\KL36_Bios-180714\Debug/../04_UserBoard/uecom/uecom.c:827
	int i,j,sign;
	char s[10];
	if((sign=ch)<0)//
		ch=-ch;//n
    3ece:	17c3      	asrs	r3, r0, #31
E:\2017-2018\03_Graduation Project\04_Software\05_Wangshi\02_6220\06_UpdateSoftware-180714\01_UEBootloader\KL36_Bios-180714\Debug/../04_UserBoard/uecom/uecom.c:823
{
    3ed0:	b084      	sub	sp, #16
E:\2017-2018\03_Graduation Project\04_Software\05_Wangshi\02_6220\06_UpdateSoftware-180714\01_UEBootloader\KL36_Bios-180714\Debug/../04_UserBoard/uecom/uecom.c:827
		ch=-ch;//n
    3ed2:	18c4      	adds	r4, r0, r3
E:\2017-2018\03_Graduation Project\04_Software\05_Wangshi\02_6220\06_UpdateSoftware-180714\01_UEBootloader\KL36_Bios-180714\Debug/../04_UserBoard/uecom/uecom.c:823
{
    3ed4:	4689      	mov	r9, r1
E:\2017-2018\03_Graduation Project\04_Software\05_Wangshi\02_6220\06_UpdateSoftware-180714\01_UEBootloader\KL36_Bios-180714\Debug/../04_UserBoard/uecom/uecom.c:826
	if((sign=ch)<0)//
    3ed6:	4682      	mov	sl, r0
E:\2017-2018\03_Graduation Project\04_Software\05_Wangshi\02_6220\06_UpdateSoftware-180714\01_UEBootloader\KL36_Bios-180714\Debug/../04_UserBoard/uecom/uecom.c:827
		ch=-ch;//n
    3ed8:	405c      	eors	r4, r3
E:\2017-2018\03_Graduation Project\04_Software\05_Wangshi\02_6220\06_UpdateSoftware-180714\01_UEBootloader\KL36_Bios-180714\Debug/../04_UserBoard/uecom/uecom.c:823
{
    3eda:	2700      	movs	r7, #0
    3edc:	ae01      	add	r6, sp, #4
    3ede:	e000      	b.n	3ee2 <uint_to_str+0x1e>
E:\2017-2018\03_Graduation Project\04_Software\05_Wangshi\02_6220\06_UpdateSoftware-180714\01_UEBootloader\KL36_Bios-180714\Debug/../04_UserBoard/uecom/uecom.c:830
	i=0;
	do{
	       s[i++]=ch%10+'0';//
    3ee0:	4647      	mov	r7, r8
E:\2017-2018\03_Graduation Project\04_Software\05_Wangshi\02_6220\06_UpdateSoftware-180714\01_UEBootloader\KL36_Bios-180714\Debug/../04_UserBoard/uecom/uecom.c:830 (discriminator 1)
    3ee2:	1c7b      	adds	r3, r7, #1
    3ee4:	0020      	movs	r0, r4
    3ee6:	210a      	movs	r1, #10
    3ee8:	4698      	mov	r8, r3
    3eea:	f7fc fb9d 	bl	628 <__aeabi_uidivmod>
    3eee:	19f5      	adds	r5, r6, r7
    3ef0:	3130      	adds	r1, #48	; 0x30
    3ef2:	7029      	strb	r1, [r5, #0]
E:\2017-2018\03_Graduation Project\04_Software\05_Wangshi\02_6220\06_UpdateSoftware-180714\01_UEBootloader\KL36_Bios-180714\Debug/../04_UserBoard/uecom/uecom.c:832 (discriminator 1)
	}
	while ((ch/=10)>0);//
    3ef4:	0020      	movs	r0, r4
    3ef6:	210a      	movs	r1, #10
    3ef8:	f7fc fb10 	bl	51c <__udivsi3>
    3efc:	1e04      	subs	r4, r0, #0
    3efe:	d1ef      	bne.n	3ee0 <uint_to_str+0x1c>
E:\2017-2018\03_Graduation Project\04_Software\05_Wangshi\02_6220\06_UpdateSoftware-180714\01_UEBootloader\KL36_Bios-180714\Debug/../04_UserBoard/uecom/uecom.c:833
	if(sign<0)
    3f00:	4653      	mov	r3, sl
    3f02:	2b00      	cmp	r3, #0
    3f04:	da04      	bge.n	3f10 <uint_to_str+0x4c>
E:\2017-2018\03_Graduation Project\04_Software\05_Wangshi\02_6220\06_UpdateSoftware-180714\01_UEBootloader\KL36_Bios-180714\Debug/../04_UserBoard/uecom/uecom.c:834
	  s[i++]='-';
    3f06:	232d      	movs	r3, #45	; 0x2d
    3f08:	4642      	mov	r2, r8
    3f0a:	54b3      	strb	r3, [r6, r2]
    3f0c:	1cbb      	adds	r3, r7, #2
    3f0e:	4698      	mov	r8, r3
E:\2017-2018\03_Graduation Project\04_Software\05_Wangshi\02_6220\06_UpdateSoftware-180714\01_UEBootloader\KL36_Bios-180714\Debug/../04_UserBoard/uecom/uecom.c:835
	for(j=i-1;j>=0;j--)//
    3f10:	4643      	mov	r3, r8
    3f12:	464a      	mov	r2, r9
    3f14:	3b01      	subs	r3, #1
E:\2017-2018\03_Graduation Project\04_Software\05_Wangshi\02_6220\06_UpdateSoftware-180714\01_UEBootloader\KL36_Bios-180714\Debug/../04_UserBoard/uecom/uecom.c:836 (discriminator 3)
	       str[i-1-j]=s[j];
    3f16:	5cf1      	ldrb	r1, [r6, r3]
    3f18:	7011      	strb	r1, [r2, #0]
    3f1a:	3201      	adds	r2, #1
E:\2017-2018\03_Graduation Project\04_Software\05_Wangshi\02_6220\06_UpdateSoftware-180714\01_UEBootloader\KL36_Bios-180714\Debug/../04_UserBoard/uecom/uecom.c:835 (discriminator 3)
	for(j=i-1;j>=0;j--)//
    3f1c:	3b01      	subs	r3, #1
    3f1e:	d2fa      	bcs.n	3f16 <uint_to_str+0x52>
E:\2017-2018\03_Graduation Project\04_Software\05_Wangshi\02_6220\06_UpdateSoftware-180714\01_UEBootloader\KL36_Bios-180714\Debug/../04_UserBoard/uecom/uecom.c:837
	str[i]=0;
    3f20:	2300      	movs	r3, #0
    3f22:	464a      	mov	r2, r9
    3f24:	4641      	mov	r1, r8
    3f26:	5453      	strb	r3, [r2, r1]
E:\2017-2018\03_Graduation Project\04_Software\05_Wangshi\02_6220\06_UpdateSoftware-180714\01_UEBootloader\KL36_Bios-180714\Debug/../04_UserBoard/uecom/uecom.c:838
}
    3f28:	b004      	add	sp, #16
    3f2a:	bc1c      	pop	{r2, r3, r4}
    3f2c:	4690      	mov	r8, r2
    3f2e:	4699      	mov	r9, r3
    3f30:	46a2      	mov	sl, r4
    3f32:	bdf0      	pop	{r4, r5, r6, r7, pc}

00003f34 <frameEncode>:
frameEncode():
E:\2017-2018\03_Graduation Project\04_Software\05_Wangshi\02_6220\06_UpdateSoftware-180714\01_UEBootloader\KL36_Bios-180714\Debug/../04_UserBoard/uecom/uecom.c:853
//       frame:
//       framelen:
//0
//=====================================================================
void frameEncode(uint_8 *imsi,uint_8 *data,uint_16 dlen,uint_8 *frame,uint_16 *framelen)
{
    3f34:	b5f0      	push	{r4, r5, r6, r7, lr}
    3f36:	001d      	movs	r5, r3
E:\2017-2018\03_Graduation Project\04_Software\05_Wangshi\02_6220\06_UpdateSoftware-180714\01_UEBootloader\KL36_Bios-180714\Debug/../04_UserBoard/uecom/uecom.c:858
	uint_16 crc,len;

	//
	//
	frame[0] = frameHead[0];
    3f38:	2356      	movs	r3, #86	; 0x56
E:\2017-2018\03_Graduation Project\04_Software\05_Wangshi\02_6220\06_UpdateSoftware-180714\01_UEBootloader\KL36_Bios-180714\Debug/../04_UserBoard/uecom/uecom.c:853
{
    3f3a:	46c6      	mov	lr, r8
E:\2017-2018\03_Graduation Project\04_Software\05_Wangshi\02_6220\06_UpdateSoftware-180714\01_UEBootloader\KL36_Bios-180714\Debug/../04_UserBoard/uecom/uecom.c:858
	frame[0] = frameHead[0];
    3f3c:	702b      	strb	r3, [r5, #0]
E:\2017-2018\03_Graduation Project\04_Software\05_Wangshi\02_6220\06_UpdateSoftware-180714\01_UEBootloader\KL36_Bios-180714\Debug/../04_UserBoard/uecom/uecom.c:862
	frame[1] = frameHead[1];
	len = 2;
	//IMSI
	strncpy(frame+2,imsi,15);
    3f3e:	1cae      	adds	r6, r5, #2
E:\2017-2018\03_Graduation Project\04_Software\05_Wangshi\02_6220\06_UpdateSoftware-180714\01_UEBootloader\KL36_Bios-180714\Debug/../04_UserBoard/uecom/uecom.c:859
	frame[1] = frameHead[1];
    3f40:	3b35      	subs	r3, #53	; 0x35
E:\2017-2018\03_Graduation Project\04_Software\05_Wangshi\02_6220\06_UpdateSoftware-180714\01_UEBootloader\KL36_Bios-180714\Debug/../04_UserBoard/uecom/uecom.c:853
{
    3f42:	0014      	movs	r4, r2
    3f44:	b500      	push	{lr}
    3f46:	000f      	movs	r7, r1
E:\2017-2018\03_Graduation Project\04_Software\05_Wangshi\02_6220\06_UpdateSoftware-180714\01_UEBootloader\KL36_Bios-180714\Debug/../04_UserBoard/uecom/uecom.c:859
	frame[1] = frameHead[1];
    3f48:	706b      	strb	r3, [r5, #1]
E:\2017-2018\03_Graduation Project\04_Software\05_Wangshi\02_6220\06_UpdateSoftware-180714\01_UEBootloader\KL36_Bios-180714\Debug/../04_UserBoard/uecom/uecom.c:862
	strncpy(frame+2,imsi,15);
    3f4a:	0001      	movs	r1, r0
    3f4c:	220f      	movs	r2, #15
    3f4e:	0030      	movs	r0, r6
    3f50:	f001 fc94 	bl	587c <strncpy>
E:\2017-2018\03_Graduation Project\04_Software\05_Wangshi\02_6220\06_UpdateSoftware-180714\01_UEBootloader\KL36_Bios-180714\Debug/../04_UserBoard/uecom/uecom.c:868
	len += 15;
    //
	frame[len++] = dlen>>8;
	frame[len++] = dlen;
	//
	memcpy(frame+19,data,dlen);
    3f54:	0028      	movs	r0, r5
E:\2017-2018\03_Graduation Project\04_Software\05_Wangshi\02_6220\06_UpdateSoftware-180714\01_UEBootloader\KL36_Bios-180714\Debug/../04_UserBoard/uecom/uecom.c:865
	frame[len++] = dlen>>8;
    3f56:	0a23      	lsrs	r3, r4, #8
    3f58:	746b      	strb	r3, [r5, #17]
E:\2017-2018\03_Graduation Project\04_Software\05_Wangshi\02_6220\06_UpdateSoftware-180714\01_UEBootloader\KL36_Bios-180714\Debug/../04_UserBoard/uecom/uecom.c:866
	frame[len++] = dlen;
    3f5a:	74ac      	strb	r4, [r5, #18]
E:\2017-2018\03_Graduation Project\04_Software\05_Wangshi\02_6220\06_UpdateSoftware-180714\01_UEBootloader\KL36_Bios-180714\Debug/../04_UserBoard/uecom/uecom.c:868
	memcpy(frame+19,data,dlen);
    3f5c:	3013      	adds	r0, #19
    3f5e:	0022      	movs	r2, r4
    3f60:	0039      	movs	r1, r7
    3f62:	f001 fc53 	bl	580c <memcpy>
E:\2017-2018\03_Graduation Project\04_Software\05_Wangshi\02_6220\06_UpdateSoftware-180714\01_UEBootloader\KL36_Bios-180714\Debug/../04_UserBoard/uecom/uecom.c:869
	len += dlen;
    3f66:	0023      	movs	r3, r4
    3f68:	3313      	adds	r3, #19
    3f6a:	b29b      	uxth	r3, r3
    3f6c:	4698      	mov	r8, r3
crc16():
E:\2017-2018\03_Graduation Project\04_Software\05_Wangshi\02_6220\06_UpdateSoftware-180714\01_UEBootloader\KL36_Bios-180714\Debug/../04_UserBoard/uecom/uecom.c:893
uint_16 crc16(uint_8 *ptr,uint_16 len)
{
	uint_16 i,j,tmp,crc16;

	crc16 = 0xffff;
	for(i = 0;i < len;i++)
    3f6e:	4b1e      	ldr	r3, [pc, #120]	; (3fe8 <frameEncode+0xb4>)
    3f70:	429c      	cmp	r4, r3
    3f72:	d035      	beq.n	3fe0 <frameEncode+0xac>
    3f74:	0023      	movs	r3, r4
    3f76:	3310      	adds	r3, #16
    3f78:	b29b      	uxth	r3, r3
    3f7a:	3303      	adds	r3, #3
    3f7c:	469c      	mov	ip, r3
    3f7e:	0030      	movs	r0, r6
E:\2017-2018\03_Graduation Project\04_Software\05_Wangshi\02_6220\06_UpdateSoftware-180714\01_UEBootloader\KL36_Bios-180714\Debug/../04_UserBoard/uecom/uecom.c:898
	{
		crc16 = ptr[i]^crc16;
		for(j = 0;j< 8;j++)
		{
			tmp = crc16 & 0x0001;
    3f80:	2601      	movs	r6, #1
E:\2017-2018\03_Graduation Project\04_Software\05_Wangshi\02_6220\06_UpdateSoftware-180714\01_UEBootloader\KL36_Bios-180714\Debug/../04_UserBoard/uecom/uecom.c:892
	crc16 = 0xffff;
    3f82:	4b1a      	ldr	r3, [pc, #104]	; (3fec <frameEncode+0xb8>)
E:\2017-2018\03_Graduation Project\04_Software\05_Wangshi\02_6220\06_UpdateSoftware-180714\01_UEBootloader\KL36_Bios-180714\Debug/../04_UserBoard/uecom/uecom.c:901
			crc16 = crc16>>1;
			if(tmp)
				crc16 = crc16^0xa001;
    3f84:	4f1a      	ldr	r7, [pc, #104]	; (3ff0 <frameEncode+0xbc>)
    3f86:	44ac      	add	ip, r5
E:\2017-2018\03_Graduation Project\04_Software\05_Wangshi\02_6220\06_UpdateSoftware-180714\01_UEBootloader\KL36_Bios-180714\Debug/../04_UserBoard/uecom/uecom.c:895
		crc16 = ptr[i]^crc16;
    3f88:	7802      	ldrb	r2, [r0, #0]
    3f8a:	4053      	eors	r3, r2
    3f8c:	2208      	movs	r2, #8
E:\2017-2018\03_Graduation Project\04_Software\05_Wangshi\02_6220\06_UpdateSoftware-180714\01_UEBootloader\KL36_Bios-180714\Debug/../04_UserBoard/uecom/uecom.c:898
			tmp = crc16 & 0x0001;
    3f8e:	0031      	movs	r1, r6
    3f90:	4019      	ands	r1, r3
E:\2017-2018\03_Graduation Project\04_Software\05_Wangshi\02_6220\06_UpdateSoftware-180714\01_UEBootloader\KL36_Bios-180714\Debug/../04_UserBoard/uecom/uecom.c:899
			crc16 = crc16>>1;
    3f92:	085b      	lsrs	r3, r3, #1
E:\2017-2018\03_Graduation Project\04_Software\05_Wangshi\02_6220\06_UpdateSoftware-180714\01_UEBootloader\KL36_Bios-180714\Debug/../04_UserBoard/uecom/uecom.c:900
			if(tmp)
    3f94:	2900      	cmp	r1, #0
    3f96:	d001      	beq.n	3f9c <frameEncode+0x68>
E:\2017-2018\03_Graduation Project\04_Software\05_Wangshi\02_6220\06_UpdateSoftware-180714\01_UEBootloader\KL36_Bios-180714\Debug/../04_UserBoard/uecom/uecom.c:901
				crc16 = crc16^0xa001;
    3f98:	407b      	eors	r3, r7
    3f9a:	b29b      	uxth	r3, r3
    3f9c:	3a01      	subs	r2, #1
    3f9e:	b292      	uxth	r2, r2
E:\2017-2018\03_Graduation Project\04_Software\05_Wangshi\02_6220\06_UpdateSoftware-180714\01_UEBootloader\KL36_Bios-180714\Debug/../04_UserBoard/uecom/uecom.c:896
		for(j = 0;j< 8;j++)
    3fa0:	2a00      	cmp	r2, #0
    3fa2:	d1f4      	bne.n	3f8e <frameEncode+0x5a>
    3fa4:	3001      	adds	r0, #1
E:\2017-2018\03_Graduation Project\04_Software\05_Wangshi\02_6220\06_UpdateSoftware-180714\01_UEBootloader\KL36_Bios-180714\Debug/../04_UserBoard/uecom/uecom.c:893
	for(i = 0;i < len;i++)
    3fa6:	4560      	cmp	r0, ip
    3fa8:	d1ee      	bne.n	3f88 <frameEncode+0x54>
    3faa:	0a1a      	lsrs	r2, r3, #8
    3fac:	b2db      	uxtb	r3, r3
frameEncode():
E:\2017-2018\03_Graduation Project\04_Software\05_Wangshi\02_6220\06_UpdateSoftware-180714\01_UEBootloader\KL36_Bios-180714\Debug/../04_UserBoard/uecom/uecom.c:872
	frame[len++] = crc>>8;
    3fae:	4641      	mov	r1, r8
    3fb0:	546a      	strb	r2, [r5, r1]
    3fb2:	0022      	movs	r2, r4
    3fb4:	3214      	adds	r2, #20
E:\2017-2018\03_Graduation Project\04_Software\05_Wangshi\02_6220\06_UpdateSoftware-180714\01_UEBootloader\KL36_Bios-180714\Debug/../04_UserBoard/uecom/uecom.c:873
	frame[len++] = crc;
    3fb6:	b292      	uxth	r2, r2
    3fb8:	54ab      	strb	r3, [r5, r2]
    3fba:	0023      	movs	r3, r4
E:\2017-2018\03_Graduation Project\04_Software\05_Wangshi\02_6220\06_UpdateSoftware-180714\01_UEBootloader\KL36_Bios-180714\Debug/../04_UserBoard/uecom/uecom.c:875
	frame[len++] = frameTail[0];
    3fbc:	2253      	movs	r2, #83	; 0x53
E:\2017-2018\03_Graduation Project\04_Software\05_Wangshi\02_6220\06_UpdateSoftware-180714\01_UEBootloader\KL36_Bios-180714\Debug/../04_UserBoard/uecom/uecom.c:873
	frame[len++] = crc;
    3fbe:	3315      	adds	r3, #21
E:\2017-2018\03_Graduation Project\04_Software\05_Wangshi\02_6220\06_UpdateSoftware-180714\01_UEBootloader\KL36_Bios-180714\Debug/../04_UserBoard/uecom/uecom.c:875
	frame[len++] = frameTail[0];
    3fc0:	b29b      	uxth	r3, r3
    3fc2:	54ea      	strb	r2, [r5, r3]
E:\2017-2018\03_Graduation Project\04_Software\05_Wangshi\02_6220\06_UpdateSoftware-180714\01_UEBootloader\KL36_Bios-180714\Debug/../04_UserBoard/uecom/uecom.c:876
	frame[len++] = frameTail[1];
    3fc4:	0023      	movs	r3, r4
E:\2017-2018\03_Graduation Project\04_Software\05_Wangshi\02_6220\06_UpdateSoftware-180714\01_UEBootloader\KL36_Bios-180714\Debug/../04_UserBoard/uecom/uecom.c:875
	frame[len++] = frameTail[0];
    3fc6:	3416      	adds	r4, #22
E:\2017-2018\03_Graduation Project\04_Software\05_Wangshi\02_6220\06_UpdateSoftware-180714\01_UEBootloader\KL36_Bios-180714\Debug/../04_UserBoard/uecom/uecom.c:876
	frame[len++] = frameTail[1];
    3fc8:	b2a4      	uxth	r4, r4
    3fca:	3a2f      	subs	r2, #47	; 0x2f
    3fcc:	552a      	strb	r2, [r5, r4]
E:\2017-2018\03_Graduation Project\04_Software\05_Wangshi\02_6220\06_UpdateSoftware-180714\01_UEBootloader\KL36_Bios-180714\Debug/../04_UserBoard/uecom/uecom.c:877
	frame[len] = 0;
    3fce:	2200      	movs	r2, #0
E:\2017-2018\03_Graduation Project\04_Software\05_Wangshi\02_6220\06_UpdateSoftware-180714\01_UEBootloader\KL36_Bios-180714\Debug/../04_UserBoard/uecom/uecom.c:876
	frame[len++] = frameTail[1];
    3fd0:	3317      	adds	r3, #23
    3fd2:	b29b      	uxth	r3, r3
E:\2017-2018\03_Graduation Project\04_Software\05_Wangshi\02_6220\06_UpdateSoftware-180714\01_UEBootloader\KL36_Bios-180714\Debug/../04_UserBoard/uecom/uecom.c:877
	frame[len] = 0;
    3fd4:	54ea      	strb	r2, [r5, r3]
E:\2017-2018\03_Graduation Project\04_Software\05_Wangshi\02_6220\06_UpdateSoftware-180714\01_UEBootloader\KL36_Bios-180714\Debug/../04_UserBoard/uecom/uecom.c:878
	*framelen = len;
    3fd6:	9a06      	ldr	r2, [sp, #24]
    3fd8:	8013      	strh	r3, [r2, #0]
E:\2017-2018\03_Graduation Project\04_Software\05_Wangshi\02_6220\06_UpdateSoftware-180714\01_UEBootloader\KL36_Bios-180714\Debug/../04_UserBoard/uecom/uecom.c:879
}
    3fda:	bc04      	pop	{r2}
    3fdc:	4690      	mov	r8, r2
    3fde:	bdf0      	pop	{r4, r5, r6, r7, pc}
crc16():
E:\2017-2018\03_Graduation Project\04_Software\05_Wangshi\02_6220\06_UpdateSoftware-180714\01_UEBootloader\KL36_Bios-180714\Debug/../04_UserBoard/uecom/uecom.c:893
	for(i = 0;i < len;i++)
    3fe0:	23ff      	movs	r3, #255	; 0xff
    3fe2:	22ff      	movs	r2, #255	; 0xff
    3fe4:	e7e3      	b.n	3fae <frameEncode+0x7a>
    3fe6:	46c0      	nop			; (mov r8, r8)
    3fe8:	0000ffef 	.word	0x0000ffef
    3fec:	0000ffff 	.word	0x0000ffff
    3ff0:	ffffa001 	.word	0xffffa001

00003ff4 <uecom_send>:
uecom_send():
E:\2017-2018\03_Graduation Project\04_Software\05_Wangshi\02_6220\06_UpdateSoftware-180714\01_UEBootloader\KL36_Bios-180714\Debug/../04_UserBoard/uecom/uecom.c:231
	char dataLen[5]="";
    3ff4:	2300      	movs	r3, #0
E:\2017-2018\03_Graduation Project\04_Software\05_Wangshi\02_6220\06_UpdateSoftware-180714\01_UEBootloader\KL36_Bios-180714\Debug/../04_UserBoard/uecom/uecom.c:227
{
    3ff6:	b570      	push	{r4, r5, r6, lr}
    3ff8:	4c2c      	ldr	r4, [pc, #176]	; (40ac <uecom_send+0xb8>)
    3ffa:	0006      	movs	r6, r0
    3ffc:	44a5      	add	sp, r4
E:\2017-2018\03_Graduation Project\04_Software\05_Wangshi\02_6220\06_UpdateSoftware-180714\01_UEBootloader\KL36_Bios-180714\Debug/../04_UserBoard/uecom/uecom.c:231
	char dataLen[5]="";
    3ffe:	ad04      	add	r5, sp, #16
E:\2017-2018\03_Graduation Project\04_Software\05_Wangshi\02_6220\06_UpdateSoftware-180714\01_UEBootloader\KL36_Bios-180714\Debug/../04_UserBoard/uecom/uecom.c:227
{
    4000:	000c      	movs	r4, r1
E:\2017-2018\03_Graduation Project\04_Software\05_Wangshi\02_6220\06_UpdateSoftware-180714\01_UEBootloader\KL36_Bios-180714\Debug/../04_UserBoard/uecom/uecom.c:232
	char CIPSEND[20] = "";    //
    4002:	2210      	movs	r2, #16
    4004:	2100      	movs	r1, #0
    4006:	a807      	add	r0, sp, #28
E:\2017-2018\03_Graduation Project\04_Software\05_Wangshi\02_6220\06_UpdateSoftware-180714\01_UEBootloader\KL36_Bios-180714\Debug/../04_UserBoard/uecom/uecom.c:231
	char dataLen[5]="";
    4008:	9304      	str	r3, [sp, #16]
    400a:	712b      	strb	r3, [r5, #4]
E:\2017-2018\03_Graduation Project\04_Software\05_Wangshi\02_6220\06_UpdateSoftware-180714\01_UEBootloader\KL36_Bios-180714\Debug/../04_UserBoard/uecom/uecom.c:232
	char CIPSEND[20] = "";    //
    400c:	9306      	str	r3, [sp, #24]
    400e:	f001 fc06 	bl	581e <memset>
E:\2017-2018\03_Graduation Project\04_Software\05_Wangshi\02_6220\06_UpdateSoftware-180714\01_UEBootloader\KL36_Bios-180714\Debug/../04_UserBoard/uecom/uecom.c:237
	frameEncode(IMSI,data, length,frame,&frameLen);
    4012:	230e      	movs	r3, #14
    4014:	446b      	add	r3, sp
    4016:	0032      	movs	r2, r6
    4018:	0021      	movs	r1, r4
    401a:	9300      	str	r3, [sp, #0]
    401c:	4824      	ldr	r0, [pc, #144]	; (40b0 <uecom_send+0xbc>)
    401e:	ab0b      	add	r3, sp, #44	; 0x2c
    4020:	f7ff ff88 	bl	3f34 <frameEncode>
E:\2017-2018\03_Graduation Project\04_Software\05_Wangshi\02_6220\06_UpdateSoftware-180714\01_UEBootloader\KL36_Bios-180714\Debug/../04_UserBoard/uecom/uecom.c:239
	uint_to_str(frameLen,dataLen);        //
    4024:	466b      	mov	r3, sp
    4026:	0029      	movs	r1, r5
    4028:	89d8      	ldrh	r0, [r3, #14]
    402a:	f7ff ff4b 	bl	3ec4 <uint_to_str>
E:\2017-2018\03_Graduation Project\04_Software\05_Wangshi\02_6220\06_UpdateSoftware-180714\01_UEBootloader\KL36_Bios-180714\Debug/../04_UserBoard/uecom/uecom.c:240
	strcat(CIPSEND,"AT+CIPSEND=");		//AT
    402e:	a806      	add	r0, sp, #24
    4030:	f7fe f93c 	bl	22ac <strlen>
    4034:	0004      	movs	r4, r0
    4036:	ab06      	add	r3, sp, #24
    4038:	220c      	movs	r2, #12
    403a:	1818      	adds	r0, r3, r0
    403c:	491d      	ldr	r1, [pc, #116]	; (40b4 <uecom_send+0xc0>)
    403e:	f001 fbe5 	bl	580c <memcpy>
E:\2017-2018\03_Graduation Project\04_Software\05_Wangshi\02_6220\06_UpdateSoftware-180714\01_UEBootloader\KL36_Bios-180714\Debug/../04_UserBoard/uecom/uecom.c:241
	strcat(CIPSEND, dataLen);
    4042:	ab06      	add	r3, sp, #24
E:\2017-2018\03_Graduation Project\04_Software\05_Wangshi\02_6220\06_UpdateSoftware-180714\01_UEBootloader\KL36_Bios-180714\Debug/../04_UserBoard/uecom/uecom.c:240
	strcat(CIPSEND,"AT+CIPSEND=");		//AT
    4044:	0020      	movs	r0, r4
E:\2017-2018\03_Graduation Project\04_Software\05_Wangshi\02_6220\06_UpdateSoftware-180714\01_UEBootloader\KL36_Bios-180714\Debug/../04_UserBoard/uecom/uecom.c:241
	strcat(CIPSEND, dataLen);
    4046:	469c      	mov	ip, r3
E:\2017-2018\03_Graduation Project\04_Software\05_Wangshi\02_6220\06_UpdateSoftware-180714\01_UEBootloader\KL36_Bios-180714\Debug/../04_UserBoard/uecom/uecom.c:240
	strcat(CIPSEND,"AT+CIPSEND=");		//AT
    4048:	300b      	adds	r0, #11
E:\2017-2018\03_Graduation Project\04_Software\05_Wangshi\02_6220\06_UpdateSoftware-180714\01_UEBootloader\KL36_Bios-180714\Debug/../04_UserBoard/uecom/uecom.c:241
	strcat(CIPSEND, dataLen);
    404a:	4460      	add	r0, ip
    404c:	0029      	movs	r1, r5
    404e:	f001 fbfc 	bl	584a <strcpy>
E:\2017-2018\03_Graduation Project\04_Software\05_Wangshi\02_6220\06_UpdateSoftware-180714\01_UEBootloader\KL36_Bios-180714\Debug/../04_UserBoard/uecom/uecom.c:242
	strcat(CIPSEND, "\r\n");
    4052:	a806      	add	r0, sp, #24
    4054:	f7fe f92a 	bl	22ac <strlen>
    4058:	ab06      	add	r3, sp, #24
    405a:	469c      	mov	ip, r3
    405c:	2203      	movs	r2, #3
    405e:	4460      	add	r0, ip
    4060:	4915      	ldr	r1, [pc, #84]	; (40b8 <uecom_send+0xc4>)
    4062:	f001 fbd3 	bl	580c <memcpy>
E:\2017-2018\03_Graduation Project\04_Software\05_Wangshi\02_6220\06_UpdateSoftware-180714\01_UEBootloader\KL36_Bios-180714\Debug/../04_UserBoard/uecom/uecom.c:243
	uart_send_string(UART_UE, CIPSEND);	//
    4066:	a906      	add	r1, sp, #24
    4068:	2001      	movs	r0, #1
    406a:	f000 fad7 	bl	461c <uart_send_string>
E:\2017-2018\03_Graduation Project\04_Software\05_Wangshi\02_6220\06_UpdateSoftware-180714\01_UEBootloader\KL36_Bios-180714\Debug/../04_UserBoard/uecom/uecom.c:245
	if(uecom_sendCmd("wait",3000,1))
    406e:	2201      	movs	r2, #1
    4070:	4912      	ldr	r1, [pc, #72]	; (40bc <uecom_send+0xc8>)
    4072:	4813      	ldr	r0, [pc, #76]	; (40c0 <uecom_send+0xcc>)
    4074:	f7ff f8c0 	bl	31f8 <uecom_sendCmd>
    4078:	0003      	movs	r3, r0
E:\2017-2018\03_Graduation Project\04_Software\05_Wangshi\02_6220\06_UpdateSoftware-180714\01_UEBootloader\KL36_Bios-180714\Debug/../04_UserBoard/uecom/uecom.c:247
			ret_val = 1;
    407a:	2001      	movs	r0, #1
E:\2017-2018\03_Graduation Project\04_Software\05_Wangshi\02_6220\06_UpdateSoftware-180714\01_UEBootloader\KL36_Bios-180714\Debug/../04_UserBoard/uecom/uecom.c:245
	if(uecom_sendCmd("wait",3000,1))
    407c:	2b00      	cmp	r3, #0
    407e:	d003      	beq.n	4088 <uecom_send+0x94>
E:\2017-2018\03_Graduation Project\04_Software\05_Wangshi\02_6220\06_UpdateSoftware-180714\01_UEBootloader\KL36_Bios-180714\Debug/../04_UserBoard/uecom/uecom.c:263
}
    4080:	238e      	movs	r3, #142	; 0x8e
    4082:	009b      	lsls	r3, r3, #2
    4084:	449d      	add	sp, r3
    4086:	bd70      	pop	{r4, r5, r6, pc}
E:\2017-2018\03_Graduation Project\04_Software\05_Wangshi\02_6220\06_UpdateSoftware-180714\01_UEBootloader\KL36_Bios-180714\Debug/../04_UserBoard/uecom/uecom.c:250
	AT_haveCommand=1;  //AT
    4088:	4a0e      	ldr	r2, [pc, #56]	; (40c4 <uecom_send+0xd0>)
    408a:	7010      	strb	r0, [r2, #0]
E:\2017-2018\03_Graduation Project\04_Software\05_Wangshi\02_6220\06_UpdateSoftware-180714\01_UEBootloader\KL36_Bios-180714\Debug/../04_UserBoard/uecom/uecom.c:251
    AT_reLength = 0;
    408c:	4a0e      	ldr	r2, [pc, #56]	; (40c8 <uecom_send+0xd4>)
    408e:	7013      	strb	r3, [r2, #0]
E:\2017-2018\03_Graduation Project\04_Software\05_Wangshi\02_6220\06_UpdateSoftware-180714\01_UEBootloader\KL36_Bios-180714\Debug/../04_UserBoard/uecom/uecom.c:253
	uart_sendN(UART_UE,frameLen,frame);    //
    4090:	466b      	mov	r3, sp
    4092:	aa0b      	add	r2, sp, #44	; 0x2c
    4094:	89d9      	ldrh	r1, [r3, #14]
    4096:	f000 fa99 	bl	45cc <uart_sendN>
E:\2017-2018\03_Graduation Project\04_Software\05_Wangshi\02_6220\06_UpdateSoftware-180714\01_UEBootloader\KL36_Bios-180714\Debug/../04_UserBoard/uecom/uecom.c:255
	if(uecom_sendCmd("SEND",6000,1))
    409a:	2201      	movs	r2, #1
    409c:	490b      	ldr	r1, [pc, #44]	; (40cc <uecom_send+0xd8>)
    409e:	480c      	ldr	r0, [pc, #48]	; (40d0 <uecom_send+0xdc>)
    40a0:	f7ff f8aa 	bl	31f8 <uecom_sendCmd>
    40a4:	2800      	cmp	r0, #0
    40a6:	d0eb      	beq.n	4080 <uecom_send+0x8c>
E:\2017-2018\03_Graduation Project\04_Software\05_Wangshi\02_6220\06_UpdateSoftware-180714\01_UEBootloader\KL36_Bios-180714\Debug/../04_UserBoard/uecom/uecom.c:257
		ret_val = 2;
    40a8:	2002      	movs	r0, #2
    40aa:	e7e9      	b.n	4080 <uecom_send+0x8c>
    40ac:	fffffdc8 	.word	0xfffffdc8
    40b0:	1ffffa98 	.word	0x1ffffa98
    40b4:	00005c90 	.word	0x00005c90
    40b8:	00005c8c 	.word	0x00005c8c
    40bc:	00000bb8 	.word	0x00000bb8
    40c0:	00005cbc 	.word	0x00005cbc
    40c4:	1ffff9b8 	.word	0x1ffff9b8
    40c8:	1ffffa84 	.word	0x1ffffa84
    40cc:	00001770 	.word	0x00001770
    40d0:	00005c9c 	.word	0x00005c9c

000040d4 <uecom_recv>:
uecom_recv():
E:\2017-2018\03_Graduation Project\04_Software\05_Wangshi\02_6220\06_UpdateSoftware-180714\01_UEBootloader\KL36_Bios-180714\Debug/../04_UserBoard/uecom/uecom.c:918
//datauart
//uart_inituart_disable_re_int,uart_re1
//2017.08.11,QHJ,CC2017.09.25WB
//=====================================================================
uint_8 uecom_recv(uint_8 ch,uint_16 *dataLen, uint_8 *data)
{
    40d4:	b5f0      	push	{r4, r5, r6, r7, lr}
    40d6:	46de      	mov	lr, fp
    40d8:	4657      	mov	r7, sl
    40da:	464e      	mov	r6, r9
    40dc:	4645      	mov	r5, r8
    40de:	b5e0      	push	{r5, r6, r7, lr}
E:\2017-2018\03_Graduation Project\04_Software\05_Wangshi\02_6220\06_UpdateSoftware-180714\01_UEBootloader\KL36_Bios-180714\Debug/../04_UserBoard/uecom/uecom.c:928
	uint_8 ret_val;
	uint_16 i;
	uint_8 CRC[2];
	uint_16 crc;
	isGPRSdata = 0;
	switch(flag)
    40e0:	4b75      	ldr	r3, [pc, #468]	; (42b8 <uecom_recv+0x1e4>)
E:\2017-2018\03_Graduation Project\04_Software\05_Wangshi\02_6220\06_UpdateSoftware-180714\01_UEBootloader\KL36_Bios-180714\Debug/../04_UserBoard/uecom/uecom.c:918
{
    40e2:	b083      	sub	sp, #12
E:\2017-2018\03_Graduation Project\04_Software\05_Wangshi\02_6220\06_UpdateSoftware-180714\01_UEBootloader\KL36_Bios-180714\Debug/../04_UserBoard/uecom/uecom.c:928
	switch(flag)
    40e4:	781c      	ldrb	r4, [r3, #0]
    40e6:	2c0a      	cmp	r4, #10
    40e8:	d80b      	bhi.n	4102 <uecom_recv+0x2e>
    40ea:	4d74      	ldr	r5, [pc, #464]	; (42bc <uecom_recv+0x1e8>)
    40ec:	00a4      	lsls	r4, r4, #2
    40ee:	592c      	ldr	r4, [r5, r4]
    40f0:	46a7      	mov	pc, r4
E:\2017-2018\03_Graduation Project\04_Software\05_Wangshi\02_6220\06_UpdateSoftware-180714\01_UEBootloader\KL36_Bios-180714\Debug/../04_UserBoard/uecom/uecom.c:938
	case 3:    if(ch=='C')flag=4; else flag = 0;break;
	case 4:    if(ch=='E')flag=5; else flag = 0;break;
	case 5:    if(ch=='I')flag=6; else flag = 0;break;
	case 6:    if(ch=='V')flag=7; else flag = 0;break;
	case 7:    if(ch=='E')flag=8; else flag = 0;break;
	case 8:    if(ch==',')flag=9; else flag = 0;recvLength = 0;break;
    40f2:	282c      	cmp	r0, #44	; 0x2c
    40f4:	d100      	bne.n	40f8 <uecom_recv+0x24>
    40f6:	e0c7      	b.n	4288 <uecom_recv+0x1b4>
E:\2017-2018\03_Graduation Project\04_Software\05_Wangshi\02_6220\06_UpdateSoftware-180714\01_UEBootloader\KL36_Bios-180714\Debug/../04_UserBoard/uecom/uecom.c:938 (discriminator 2)
    40f8:	2200      	movs	r2, #0
    40fa:	701a      	strb	r2, [r3, #0]
E:\2017-2018\03_Graduation Project\04_Software\05_Wangshi\02_6220\06_UpdateSoftware-180714\01_UEBootloader\KL36_Bios-180714\Debug/../04_UserBoard/uecom/uecom.c:938 (discriminator 4)
    40fc:	2200      	movs	r2, #0
    40fe:	4b70      	ldr	r3, [pc, #448]	; (42c0 <uecom_recv+0x1ec>)
    4100:	801a      	strh	r2, [r3, #0]
E:\2017-2018\03_Graduation Project\04_Software\05_Wangshi\02_6220\06_UpdateSoftware-180714\01_UEBootloader\KL36_Bios-180714\Debug/../04_UserBoard/uecom/uecom.c:1002
	    ret_val = 1;
		break;
	}
uecom_recv_exit:
    return ret_val;
}
    4102:	0030      	movs	r0, r6
    4104:	b003      	add	sp, #12
    4106:	bc3c      	pop	{r2, r3, r4, r5}
    4108:	4690      	mov	r8, r2
    410a:	4699      	mov	r9, r3
    410c:	46a2      	mov	sl, r4
    410e:	46ab      	mov	fp, r5
    4110:	bdf0      	pop	{r4, r5, r6, r7, pc}
E:\2017-2018\03_Graduation Project\04_Software\05_Wangshi\02_6220\06_UpdateSoftware-180714\01_UEBootloader\KL36_Bios-180714\Debug/../04_UserBoard/uecom/uecom.c:939
	case 9:    if(ch==':')flag=10; else recvLength=recvLength*10+ch-'0';
    4112:	283a      	cmp	r0, #58	; 0x3a
    4114:	d100      	bne.n	4118 <uecom_recv+0x44>
    4116:	e0b4      	b.n	4282 <uecom_recv+0x1ae>
E:\2017-2018\03_Graduation Project\04_Software\05_Wangshi\02_6220\06_UpdateSoftware-180714\01_UEBootloader\KL36_Bios-180714\Debug/../04_UserBoard/uecom/uecom.c:939 (discriminator 2)
    4118:	4a69      	ldr	r2, [pc, #420]	; (42c0 <uecom_recv+0x1ec>)
    411a:	8813      	ldrh	r3, [r2, #0]
    411c:	0099      	lsls	r1, r3, #2
    411e:	185b      	adds	r3, r3, r1
    4120:	005b      	lsls	r3, r3, #1
    4122:	3b30      	subs	r3, #48	; 0x30
    4124:	1818      	adds	r0, r3, r0
    4126:	8010      	strh	r0, [r2, #0]
    4128:	e7eb      	b.n	4102 <uecom_recv+0x2e>
E:\2017-2018\03_Graduation Project\04_Software\05_Wangshi\02_6220\06_UpdateSoftware-180714\01_UEBootloader\KL36_Bios-180714\Debug/../04_UserBoard/uecom/uecom.c:944
		if(index>recvLength)   //
    412a:	4f66      	ldr	r7, [pc, #408]	; (42c4 <uecom_recv+0x1f0>)
    412c:	4d64      	ldr	r5, [pc, #400]	; (42c0 <uecom_recv+0x1ec>)
    412e:	883c      	ldrh	r4, [r7, #0]
    4130:	882d      	ldrh	r5, [r5, #0]
    4132:	42a5      	cmp	r5, r4
    4134:	d200      	bcs.n	4138 <uecom_recv+0x64>
    4136:	e098      	b.n	426a <uecom_recv+0x196>
E:\2017-2018\03_Graduation Project\04_Software\05_Wangshi\02_6220\06_UpdateSoftware-180714\01_UEBootloader\KL36_Bios-180714\Debug/../04_UserBoard/uecom/uecom.c:953
		if((index == 0 && ch != frameHead[0]) ||
    4138:	2c00      	cmp	r4, #0
    413a:	d100      	bne.n	413e <uecom_recv+0x6a>
    413c:	e08c      	b.n	4258 <uecom_recv+0x184>
E:\2017-2018\03_Graduation Project\04_Software\05_Wangshi\02_6220\06_UpdateSoftware-180714\01_UEBootloader\KL36_Bios-180714\Debug/../04_UserBoard/uecom/uecom.c:953 (discriminator 3)
    413e:	2c01      	cmp	r4, #1
    4140:	d000      	beq.n	4144 <uecom_recv+0x70>
    4142:	e0a4      	b.n	428e <uecom_recv+0x1ba>
E:\2017-2018\03_Graduation Project\04_Software\05_Wangshi\02_6220\06_UpdateSoftware-180714\01_UEBootloader\KL36_Bios-180714\Debug/../04_UserBoard/uecom/uecom.c:954
				(index == 1 && ch != frameHead[1]))//
    4144:	2821      	cmp	r0, #33	; 0x21
    4146:	d000      	beq.n	414a <uecom_recv+0x76>
    4148:	e089      	b.n	425e <uecom_recv+0x18a>
E:\2017-2018\03_Graduation Project\04_Software\05_Wangshi\02_6220\06_UpdateSoftware-180714\01_UEBootloader\KL36_Bios-180714\Debug/../04_UserBoard/uecom/uecom.c:962
		data[index++] = ch;//
    414a:	1c65      	adds	r5, r4, #1
    414c:	b2ad      	uxth	r5, r5
    414e:	46a9      	mov	r9, r5
    4150:	803d      	strh	r5, [r7, #0]
    4152:	5510      	strb	r0, [r2, r4]
    4154:	485c      	ldr	r0, [pc, #368]	; (42c8 <uecom_recv+0x1f4>)
    4156:	4682      	mov	sl, r0
    4158:	8800      	ldrh	r0, [r0, #0]
    415a:	4683      	mov	fp, r0
E:\2017-2018\03_Graduation Project\04_Software\05_Wangshi\02_6220\06_UpdateSoftware-180714\01_UEBootloader\KL36_Bios-180714\Debug/../04_UserBoard/uecom/uecom.c:967
	    if(length != 0 && index >= length+23)//23
    415c:	4658      	mov	r0, fp
    415e:	2800      	cmp	r0, #0
    4160:	d100      	bne.n	4164 <uecom_recv+0x90>
    4162:	e0a2      	b.n	42aa <uecom_recv+0x1d6>
E:\2017-2018\03_Graduation Project\04_Software\05_Wangshi\02_6220\06_UpdateSoftware-180714\01_UEBootloader\KL36_Bios-180714\Debug/../04_UserBoard/uecom/uecom.c:967 (discriminator 1)
    4164:	3016      	adds	r0, #22
    4166:	4548      	cmp	r0, r9
    4168:	db00      	blt.n	416c <uecom_recv+0x98>
    416a:	e09e      	b.n	42aa <uecom_recv+0x1d6>
crc16():
E:\2017-2018\03_Graduation Project\04_Software\05_Wangshi\02_6220\06_UpdateSoftware-180714\01_UEBootloader\KL36_Bios-180714\Debug/../04_UserBoard/uecom/uecom.c:893
	for(i = 0;i < len;i++)
    416c:	4857      	ldr	r0, [pc, #348]	; (42cc <uecom_recv+0x1f8>)
    416e:	4583      	cmp	fp, r0
    4170:	d100      	bne.n	4174 <uecom_recv+0xa0>
    4172:	e09e      	b.n	42b2 <uecom_recv+0x1de>
    4174:	1c90      	adds	r0, r2, #2
    4176:	4680      	mov	r8, r0
    4178:	4658      	mov	r0, fp
    417a:	3010      	adds	r0, #16
    417c:	b280      	uxth	r0, r0
    417e:	1cd4      	adds	r4, r2, #3
    4180:	1904      	adds	r4, r0, r4
E:\2017-2018\03_Graduation Project\04_Software\05_Wangshi\02_6220\06_UpdateSoftware-180714\01_UEBootloader\KL36_Bios-180714\Debug/../04_UserBoard/uecom/uecom.c:901
				crc16 = crc16^0xa001;
    4182:	9101      	str	r1, [sp, #4]
    4184:	0021      	movs	r1, r4
    4186:	0014      	movs	r4, r2
    4188:	4d51      	ldr	r5, [pc, #324]	; (42d0 <uecom_recv+0x1fc>)
    418a:	4642      	mov	r2, r8
E:\2017-2018\03_Graduation Project\04_Software\05_Wangshi\02_6220\06_UpdateSoftware-180714\01_UEBootloader\KL36_Bios-180714\Debug/../04_UserBoard/uecom/uecom.c:898
			tmp = crc16 & 0x0001;
    418c:	2601      	movs	r6, #1
E:\2017-2018\03_Graduation Project\04_Software\05_Wangshi\02_6220\06_UpdateSoftware-180714\01_UEBootloader\KL36_Bios-180714\Debug/../04_UserBoard/uecom/uecom.c:901
				crc16 = crc16^0xa001;
    418e:	46ac      	mov	ip, r5
    4190:	46a0      	mov	r8, r4
E:\2017-2018\03_Graduation Project\04_Software\05_Wangshi\02_6220\06_UpdateSoftware-180714\01_UEBootloader\KL36_Bios-180714\Debug/../04_UserBoard/uecom/uecom.c:892
	crc16 = 0xffff;
    4192:	4850      	ldr	r0, [pc, #320]	; (42d4 <uecom_recv+0x200>)
E:\2017-2018\03_Graduation Project\04_Software\05_Wangshi\02_6220\06_UpdateSoftware-180714\01_UEBootloader\KL36_Bios-180714\Debug/../04_UserBoard/uecom/uecom.c:895
		crc16 = ptr[i]^crc16;
    4194:	7814      	ldrb	r4, [r2, #0]
    4196:	4060      	eors	r0, r4
    4198:	2408      	movs	r4, #8
E:\2017-2018\03_Graduation Project\04_Software\05_Wangshi\02_6220\06_UpdateSoftware-180714\01_UEBootloader\KL36_Bios-180714\Debug/../04_UserBoard/uecom/uecom.c:898
			tmp = crc16 & 0x0001;
    419a:	0035      	movs	r5, r6
    419c:	4005      	ands	r5, r0
E:\2017-2018\03_Graduation Project\04_Software\05_Wangshi\02_6220\06_UpdateSoftware-180714\01_UEBootloader\KL36_Bios-180714\Debug/../04_UserBoard/uecom/uecom.c:899
			crc16 = crc16>>1;
    419e:	0840      	lsrs	r0, r0, #1
E:\2017-2018\03_Graduation Project\04_Software\05_Wangshi\02_6220\06_UpdateSoftware-180714\01_UEBootloader\KL36_Bios-180714\Debug/../04_UserBoard/uecom/uecom.c:900
			if(tmp)
    41a0:	2d00      	cmp	r5, #0
    41a2:	d002      	beq.n	41aa <uecom_recv+0xd6>
E:\2017-2018\03_Graduation Project\04_Software\05_Wangshi\02_6220\06_UpdateSoftware-180714\01_UEBootloader\KL36_Bios-180714\Debug/../04_UserBoard/uecom/uecom.c:901
				crc16 = crc16^0xa001;
    41a4:	4665      	mov	r5, ip
    41a6:	4068      	eors	r0, r5
    41a8:	b280      	uxth	r0, r0
    41aa:	3c01      	subs	r4, #1
    41ac:	b2a4      	uxth	r4, r4
E:\2017-2018\03_Graduation Project\04_Software\05_Wangshi\02_6220\06_UpdateSoftware-180714\01_UEBootloader\KL36_Bios-180714\Debug/../04_UserBoard/uecom/uecom.c:896
		for(j = 0;j< 8;j++)
    41ae:	2c00      	cmp	r4, #0
    41b0:	d1f3      	bne.n	419a <uecom_recv+0xc6>
    41b2:	3201      	adds	r2, #1
E:\2017-2018\03_Graduation Project\04_Software\05_Wangshi\02_6220\06_UpdateSoftware-180714\01_UEBootloader\KL36_Bios-180714\Debug/../04_UserBoard/uecom/uecom.c:893
	for(i = 0;i < len;i++)
    41b4:	428a      	cmp	r2, r1
    41b6:	d1ed      	bne.n	4194 <uecom_recv+0xc0>
    41b8:	4642      	mov	r2, r8
    41ba:	9901      	ldr	r1, [sp, #4]
    41bc:	0a06      	lsrs	r6, r0, #8
    41be:	b2c0      	uxtb	r0, r0
uecom_recv():
E:\2017-2018\03_Graduation Project\04_Software\05_Wangshi\02_6220\06_UpdateSoftware-180714\01_UEBootloader\KL36_Bios-180714\Debug/../04_UserBoard/uecom/uecom.c:974
	    	if(data[index-2]!=frameTail[0] || data[index-1]!= frameTail[1]//
    41c0:	464c      	mov	r4, r9
    41c2:	1914      	adds	r4, r2, r4
    41c4:	1ea5      	subs	r5, r4, #2
    41c6:	782d      	ldrb	r5, [r5, #0]
    41c8:	2d53      	cmp	r5, #83	; 0x53
    41ca:	d150      	bne.n	426e <uecom_recv+0x19a>
E:\2017-2018\03_Graduation Project\04_Software\05_Wangshi\02_6220\06_UpdateSoftware-180714\01_UEBootloader\KL36_Bios-180714\Debug/../04_UserBoard/uecom/uecom.c:974 (discriminator 1)
    41cc:	3c01      	subs	r4, #1
    41ce:	7824      	ldrb	r4, [r4, #0]
    41d0:	2c24      	cmp	r4, #36	; 0x24
    41d2:	d14c      	bne.n	426e <uecom_recv+0x19a>
E:\2017-2018\03_Graduation Project\04_Software\05_Wangshi\02_6220\06_UpdateSoftware-180714\01_UEBootloader\KL36_Bios-180714\Debug/../04_UserBoard/uecom/uecom.c:975
	    		||	CRC[0] != data[length+19] || CRC[1] != data[length+20])//CRC
    41d4:	465c      	mov	r4, fp
    41d6:	1914      	adds	r4, r2, r4
    41d8:	7ce5      	ldrb	r5, [r4, #19]
    41da:	42b5      	cmp	r5, r6
    41dc:	d147      	bne.n	426e <uecom_recv+0x19a>
E:\2017-2018\03_Graduation Project\04_Software\05_Wangshi\02_6220\06_UpdateSoftware-180714\01_UEBootloader\KL36_Bios-180714\Debug/../04_UserBoard/uecom/uecom.c:975 (discriminator 1)
    41de:	7d24      	ldrb	r4, [r4, #20]
    41e0:	4284      	cmp	r4, r0
    41e2:	d144      	bne.n	426e <uecom_recv+0x19a>
    41e4:	4658      	mov	r0, fp
    41e6:	3801      	subs	r0, #1
    41e8:	1c54      	adds	r4, r2, #1
    41ea:	b280      	uxth	r0, r0
    41ec:	1824      	adds	r4, r4, r0
E:\2017-2018\03_Graduation Project\04_Software\05_Wangshi\02_6220\06_UpdateSoftware-180714\01_UEBootloader\KL36_Bios-180714\Debug/../04_UserBoard/uecom/uecom.c:986 (discriminator 3)
	    		data[i] = data[i+19];//19
    41ee:	7cd0      	ldrb	r0, [r2, #19]
    41f0:	7010      	strb	r0, [r2, #0]
    41f2:	3201      	adds	r2, #1
E:\2017-2018\03_Graduation Project\04_Software\05_Wangshi\02_6220\06_UpdateSoftware-180714\01_UEBootloader\KL36_Bios-180714\Debug/../04_UserBoard/uecom/uecom.c:984 (discriminator 3)
	    	for(i=0;i<length;i++)
    41f4:	4294      	cmp	r4, r2
    41f6:	d1fa      	bne.n	41ee <uecom_recv+0x11a>
E:\2017-2018\03_Graduation Project\04_Software\05_Wangshi\02_6220\06_UpdateSoftware-180714\01_UEBootloader\KL36_Bios-180714\Debug/../04_UserBoard/uecom/uecom.c:988
	    	*dataLen = length;
    41f8:	465a      	mov	r2, fp
E:\2017-2018\03_Graduation Project\04_Software\05_Wangshi\02_6220\06_UpdateSoftware-180714\01_UEBootloader\KL36_Bios-180714\Debug/../04_UserBoard/uecom/uecom.c:989
	    	index = 0;
    41fa:	2600      	movs	r6, #0
E:\2017-2018\03_Graduation Project\04_Software\05_Wangshi\02_6220\06_UpdateSoftware-180714\01_UEBootloader\KL36_Bios-180714\Debug/../04_UserBoard/uecom/uecom.c:988
	    	*dataLen = length;
    41fc:	800a      	strh	r2, [r1, #0]
E:\2017-2018\03_Graduation Project\04_Software\05_Wangshi\02_6220\06_UpdateSoftware-180714\01_UEBootloader\KL36_Bios-180714\Debug/../04_UserBoard/uecom/uecom.c:990
	    	length = 0;
    41fe:	4652      	mov	r2, sl
E:\2017-2018\03_Graduation Project\04_Software\05_Wangshi\02_6220\06_UpdateSoftware-180714\01_UEBootloader\KL36_Bios-180714\Debug/../04_UserBoard/uecom/uecom.c:989
	    	index = 0;
    4200:	803e      	strh	r6, [r7, #0]
E:\2017-2018\03_Graduation Project\04_Software\05_Wangshi\02_6220\06_UpdateSoftware-180714\01_UEBootloader\KL36_Bios-180714\Debug/../04_UserBoard/uecom/uecom.c:990
	    	length = 0;
    4202:	8016      	strh	r6, [r2, #0]
E:\2017-2018\03_Graduation Project\04_Software\05_Wangshi\02_6220\06_UpdateSoftware-180714\01_UEBootloader\KL36_Bios-180714\Debug/../04_UserBoard/uecom/uecom.c:992
	    	flag = 0;//
    4204:	701e      	strb	r6, [r3, #0]
E:\2017-2018\03_Graduation Project\04_Software\05_Wangshi\02_6220\06_UpdateSoftware-180714\01_UEBootloader\KL36_Bios-180714\Debug/../04_UserBoard/uecom/uecom.c:994
	    	goto uecom_recv_exit;
    4206:	e77c      	b.n	4102 <uecom_recv+0x2e>
E:\2017-2018\03_Graduation Project\04_Software\05_Wangshi\02_6220\06_UpdateSoftware-180714\01_UEBootloader\KL36_Bios-180714\Debug/../04_UserBoard/uecom/uecom.c:930
	case 0:    if(ch=='+')flag=1; else flag = 0;break;
    4208:	282b      	cmp	r0, #43	; 0x2b
    420a:	d037      	beq.n	427c <uecom_recv+0x1a8>
E:\2017-2018\03_Graduation Project\04_Software\05_Wangshi\02_6220\06_UpdateSoftware-180714\01_UEBootloader\KL36_Bios-180714\Debug/../04_UserBoard/uecom/uecom.c:930 (discriminator 2)
    420c:	2200      	movs	r2, #0
    420e:	701a      	strb	r2, [r3, #0]
    4210:	e777      	b.n	4102 <uecom_recv+0x2e>
E:\2017-2018\03_Graduation Project\04_Software\05_Wangshi\02_6220\06_UpdateSoftware-180714\01_UEBootloader\KL36_Bios-180714\Debug/../04_UserBoard/uecom/uecom.c:931
	case 1:    if(ch=='R')flag=2; else flag = 0;break;
    4212:	2852      	cmp	r0, #82	; 0x52
    4214:	d1fa      	bne.n	420c <uecom_recv+0x138>
E:\2017-2018\03_Graduation Project\04_Software\05_Wangshi\02_6220\06_UpdateSoftware-180714\01_UEBootloader\KL36_Bios-180714\Debug/../04_UserBoard/uecom/uecom.c:931 (discriminator 1)
    4216:	2202      	movs	r2, #2
    4218:	701a      	strb	r2, [r3, #0]
    421a:	e772      	b.n	4102 <uecom_recv+0x2e>
E:\2017-2018\03_Graduation Project\04_Software\05_Wangshi\02_6220\06_UpdateSoftware-180714\01_UEBootloader\KL36_Bios-180714\Debug/../04_UserBoard/uecom/uecom.c:932
	case 2:    if(ch=='E')flag=3; else flag = 0;break;
    421c:	2845      	cmp	r0, #69	; 0x45
    421e:	d1f5      	bne.n	420c <uecom_recv+0x138>
E:\2017-2018\03_Graduation Project\04_Software\05_Wangshi\02_6220\06_UpdateSoftware-180714\01_UEBootloader\KL36_Bios-180714\Debug/../04_UserBoard/uecom/uecom.c:932 (discriminator 1)
    4220:	2203      	movs	r2, #3
    4222:	701a      	strb	r2, [r3, #0]
    4224:	e76d      	b.n	4102 <uecom_recv+0x2e>
E:\2017-2018\03_Graduation Project\04_Software\05_Wangshi\02_6220\06_UpdateSoftware-180714\01_UEBootloader\KL36_Bios-180714\Debug/../04_UserBoard/uecom/uecom.c:933
	case 3:    if(ch=='C')flag=4; else flag = 0;break;
    4226:	2843      	cmp	r0, #67	; 0x43
    4228:	d1f0      	bne.n	420c <uecom_recv+0x138>
E:\2017-2018\03_Graduation Project\04_Software\05_Wangshi\02_6220\06_UpdateSoftware-180714\01_UEBootloader\KL36_Bios-180714\Debug/../04_UserBoard/uecom/uecom.c:933 (discriminator 1)
    422a:	2204      	movs	r2, #4
    422c:	701a      	strb	r2, [r3, #0]
    422e:	e768      	b.n	4102 <uecom_recv+0x2e>
E:\2017-2018\03_Graduation Project\04_Software\05_Wangshi\02_6220\06_UpdateSoftware-180714\01_UEBootloader\KL36_Bios-180714\Debug/../04_UserBoard/uecom/uecom.c:934
	case 4:    if(ch=='E')flag=5; else flag = 0;break;
    4230:	2845      	cmp	r0, #69	; 0x45
    4232:	d1eb      	bne.n	420c <uecom_recv+0x138>
E:\2017-2018\03_Graduation Project\04_Software\05_Wangshi\02_6220\06_UpdateSoftware-180714\01_UEBootloader\KL36_Bios-180714\Debug/../04_UserBoard/uecom/uecom.c:934 (discriminator 1)
    4234:	2205      	movs	r2, #5
    4236:	701a      	strb	r2, [r3, #0]
    4238:	e763      	b.n	4102 <uecom_recv+0x2e>
E:\2017-2018\03_Graduation Project\04_Software\05_Wangshi\02_6220\06_UpdateSoftware-180714\01_UEBootloader\KL36_Bios-180714\Debug/../04_UserBoard/uecom/uecom.c:935
	case 5:    if(ch=='I')flag=6; else flag = 0;break;
    423a:	2849      	cmp	r0, #73	; 0x49
    423c:	d1e6      	bne.n	420c <uecom_recv+0x138>
E:\2017-2018\03_Graduation Project\04_Software\05_Wangshi\02_6220\06_UpdateSoftware-180714\01_UEBootloader\KL36_Bios-180714\Debug/../04_UserBoard/uecom/uecom.c:935 (discriminator 1)
    423e:	2206      	movs	r2, #6
    4240:	701a      	strb	r2, [r3, #0]
    4242:	e75e      	b.n	4102 <uecom_recv+0x2e>
E:\2017-2018\03_Graduation Project\04_Software\05_Wangshi\02_6220\06_UpdateSoftware-180714\01_UEBootloader\KL36_Bios-180714\Debug/../04_UserBoard/uecom/uecom.c:936
	case 6:    if(ch=='V')flag=7; else flag = 0;break;
    4244:	2856      	cmp	r0, #86	; 0x56
    4246:	d1e1      	bne.n	420c <uecom_recv+0x138>
E:\2017-2018\03_Graduation Project\04_Software\05_Wangshi\02_6220\06_UpdateSoftware-180714\01_UEBootloader\KL36_Bios-180714\Debug/../04_UserBoard/uecom/uecom.c:936 (discriminator 1)
    4248:	2207      	movs	r2, #7
    424a:	701a      	strb	r2, [r3, #0]
    424c:	e759      	b.n	4102 <uecom_recv+0x2e>
E:\2017-2018\03_Graduation Project\04_Software\05_Wangshi\02_6220\06_UpdateSoftware-180714\01_UEBootloader\KL36_Bios-180714\Debug/../04_UserBoard/uecom/uecom.c:937
	case 7:    if(ch=='E')flag=8; else flag = 0;break;
    424e:	2845      	cmp	r0, #69	; 0x45
    4250:	d1dc      	bne.n	420c <uecom_recv+0x138>
E:\2017-2018\03_Graduation Project\04_Software\05_Wangshi\02_6220\06_UpdateSoftware-180714\01_UEBootloader\KL36_Bios-180714\Debug/../04_UserBoard/uecom/uecom.c:937 (discriminator 1)
    4252:	2208      	movs	r2, #8
    4254:	701a      	strb	r2, [r3, #0]
    4256:	e754      	b.n	4102 <uecom_recv+0x2e>
E:\2017-2018\03_Graduation Project\04_Software\05_Wangshi\02_6220\06_UpdateSoftware-180714\01_UEBootloader\KL36_Bios-180714\Debug/../04_UserBoard/uecom/uecom.c:953 (discriminator 1)
		if((index == 0 && ch != frameHead[0]) ||
    4258:	2856      	cmp	r0, #86	; 0x56
    425a:	d100      	bne.n	425e <uecom_recv+0x18a>
    425c:	e775      	b.n	414a <uecom_recv+0x76>
E:\2017-2018\03_Graduation Project\04_Software\05_Wangshi\02_6220\06_UpdateSoftware-180714\01_UEBootloader\KL36_Bios-180714\Debug/../04_UserBoard/uecom/uecom.c:956
	    	index = 0;
    425e:	2300      	movs	r3, #0
E:\2017-2018\03_Graduation Project\04_Software\05_Wangshi\02_6220\06_UpdateSoftware-180714\01_UEBootloader\KL36_Bios-180714\Debug/../04_UserBoard/uecom/uecom.c:957
	    	length = 0;
    4260:	4a19      	ldr	r2, [pc, #100]	; (42c8 <uecom_recv+0x1f4>)
E:\2017-2018\03_Graduation Project\04_Software\05_Wangshi\02_6220\06_UpdateSoftware-180714\01_UEBootloader\KL36_Bios-180714\Debug/../04_UserBoard/uecom/uecom.c:956
	    	index = 0;
    4262:	803b      	strh	r3, [r7, #0]
E:\2017-2018\03_Graduation Project\04_Software\05_Wangshi\02_6220\06_UpdateSoftware-180714\01_UEBootloader\KL36_Bios-180714\Debug/../04_UserBoard/uecom/uecom.c:957
	    	length = 0;
    4264:	8013      	strh	r3, [r2, #0]
E:\2017-2018\03_Graduation Project\04_Software\05_Wangshi\02_6220\06_UpdateSoftware-180714\01_UEBootloader\KL36_Bios-180714\Debug/../04_UserBoard/uecom/uecom.c:958
			ret_val = 2;     //
    4266:	2602      	movs	r6, #2
E:\2017-2018\03_Graduation Project\04_Software\05_Wangshi\02_6220\06_UpdateSoftware-180714\01_UEBootloader\KL36_Bios-180714\Debug/../04_UserBoard/uecom/uecom.c:960
			goto uecom_recv_exit;
    4268:	e74b      	b.n	4102 <uecom_recv+0x2e>
    426a:	4a17      	ldr	r2, [pc, #92]	; (42c8 <uecom_recv+0x1f4>)
    426c:	4692      	mov	sl, r2
E:\2017-2018\03_Graduation Project\04_Software\05_Wangshi\02_6220\06_UpdateSoftware-180714\01_UEBootloader\KL36_Bios-180714\Debug/../04_UserBoard/uecom/uecom.c:946
        	index = 0;
    426e:	2200      	movs	r2, #0
E:\2017-2018\03_Graduation Project\04_Software\05_Wangshi\02_6220\06_UpdateSoftware-180714\01_UEBootloader\KL36_Bios-180714\Debug/../04_UserBoard/uecom/uecom.c:947
        	length = 0;
    4270:	4651      	mov	r1, sl
E:\2017-2018\03_Graduation Project\04_Software\05_Wangshi\02_6220\06_UpdateSoftware-180714\01_UEBootloader\KL36_Bios-180714\Debug/../04_UserBoard/uecom/uecom.c:946
        	index = 0;
    4272:	803a      	strh	r2, [r7, #0]
E:\2017-2018\03_Graduation Project\04_Software\05_Wangshi\02_6220\06_UpdateSoftware-180714\01_UEBootloader\KL36_Bios-180714\Debug/../04_UserBoard/uecom/uecom.c:947
        	length = 0;
    4274:	800a      	strh	r2, [r1, #0]
E:\2017-2018\03_Graduation Project\04_Software\05_Wangshi\02_6220\06_UpdateSoftware-180714\01_UEBootloader\KL36_Bios-180714\Debug/../04_UserBoard/uecom/uecom.c:949
    		flag = 0;//
    4276:	701a      	strb	r2, [r3, #0]
E:\2017-2018\03_Graduation Project\04_Software\05_Wangshi\02_6220\06_UpdateSoftware-180714\01_UEBootloader\KL36_Bios-180714\Debug/../04_UserBoard/uecom/uecom.c:948
    		ret_val = 2;
    4278:	2602      	movs	r6, #2
E:\2017-2018\03_Graduation Project\04_Software\05_Wangshi\02_6220\06_UpdateSoftware-180714\01_UEBootloader\KL36_Bios-180714\Debug/../04_UserBoard/uecom/uecom.c:951
    		goto uecom_recv_exit;
    427a:	e742      	b.n	4102 <uecom_recv+0x2e>
E:\2017-2018\03_Graduation Project\04_Software\05_Wangshi\02_6220\06_UpdateSoftware-180714\01_UEBootloader\KL36_Bios-180714\Debug/../04_UserBoard/uecom/uecom.c:930 (discriminator 1)
	case 0:    if(ch=='+')flag=1; else flag = 0;break;
    427c:	2201      	movs	r2, #1
    427e:	701a      	strb	r2, [r3, #0]
    4280:	e73f      	b.n	4102 <uecom_recv+0x2e>
E:\2017-2018\03_Graduation Project\04_Software\05_Wangshi\02_6220\06_UpdateSoftware-180714\01_UEBootloader\KL36_Bios-180714\Debug/../04_UserBoard/uecom/uecom.c:939 (discriminator 1)
	case 9:    if(ch==':')flag=10; else recvLength=recvLength*10+ch-'0';
    4282:	220a      	movs	r2, #10
    4284:	701a      	strb	r2, [r3, #0]
    4286:	e73c      	b.n	4102 <uecom_recv+0x2e>
E:\2017-2018\03_Graduation Project\04_Software\05_Wangshi\02_6220\06_UpdateSoftware-180714\01_UEBootloader\KL36_Bios-180714\Debug/../04_UserBoard/uecom/uecom.c:938 (discriminator 1)
	case 8:    if(ch==',')flag=9; else flag = 0;recvLength = 0;break;
    4288:	2209      	movs	r2, #9
    428a:	701a      	strb	r2, [r3, #0]
    428c:	e736      	b.n	40fc <uecom_recv+0x28>
E:\2017-2018\03_Graduation Project\04_Software\05_Wangshi\02_6220\06_UpdateSoftware-180714\01_UEBootloader\KL36_Bios-180714\Debug/../04_UserBoard/uecom/uecom.c:962
		data[index++] = ch;//
    428e:	1c65      	adds	r5, r4, #1
    4290:	b2ad      	uxth	r5, r5
    4292:	46a9      	mov	r9, r5
    4294:	803d      	strh	r5, [r7, #0]
    4296:	5510      	strb	r0, [r2, r4]
E:\2017-2018\03_Graduation Project\04_Software\05_Wangshi\02_6220\06_UpdateSoftware-180714\01_UEBootloader\KL36_Bios-180714\Debug/../04_UserBoard/uecom/uecom.c:963
		if(index == 19)//
    4298:	2d13      	cmp	r5, #19
    429a:	d000      	beq.n	429e <uecom_recv+0x1ca>
    429c:	e75a      	b.n	4154 <uecom_recv+0x80>
E:\2017-2018\03_Graduation Project\04_Software\05_Wangshi\02_6220\06_UpdateSoftware-180714\01_UEBootloader\KL36_Bios-180714\Debug/../04_UserBoard/uecom/uecom.c:965
			length = ((uint_16)data[17]<<8) + data[18];
    429e:	7c50      	ldrb	r0, [r2, #17]
    42a0:	7c93      	ldrb	r3, [r2, #18]
    42a2:	0200      	lsls	r0, r0, #8
    42a4:	4a08      	ldr	r2, [pc, #32]	; (42c8 <uecom_recv+0x1f4>)
    42a6:	181b      	adds	r3, r3, r0
    42a8:	8013      	strh	r3, [r2, #0]
E:\2017-2018\03_Graduation Project\04_Software\05_Wangshi\02_6220\06_UpdateSoftware-180714\01_UEBootloader\KL36_Bios-180714\Debug/../04_UserBoard/uecom/uecom.c:996
	    *dataLen = 0;//
    42aa:	2300      	movs	r3, #0
E:\2017-2018\03_Graduation Project\04_Software\05_Wangshi\02_6220\06_UpdateSoftware-180714\01_UEBootloader\KL36_Bios-180714\Debug/../04_UserBoard/uecom/uecom.c:997
	    ret_val = 1;
    42ac:	2601      	movs	r6, #1
E:\2017-2018\03_Graduation Project\04_Software\05_Wangshi\02_6220\06_UpdateSoftware-180714\01_UEBootloader\KL36_Bios-180714\Debug/../04_UserBoard/uecom/uecom.c:996
	    *dataLen = 0;//
    42ae:	800b      	strh	r3, [r1, #0]
E:\2017-2018\03_Graduation Project\04_Software\05_Wangshi\02_6220\06_UpdateSoftware-180714\01_UEBootloader\KL36_Bios-180714\Debug/../04_UserBoard/uecom/uecom.c:1001
    return ret_val;
    42b0:	e727      	b.n	4102 <uecom_recv+0x2e>
crc16():
E:\2017-2018\03_Graduation Project\04_Software\05_Wangshi\02_6220\06_UpdateSoftware-180714\01_UEBootloader\KL36_Bios-180714\Debug/../04_UserBoard/uecom/uecom.c:893
	for(i = 0;i < len;i++)
    42b2:	20ff      	movs	r0, #255	; 0xff
    42b4:	26ff      	movs	r6, #255	; 0xff
    42b6:	e783      	b.n	41c0 <uecom_recv+0xec>
    42b8:	1ffffaa7 	.word	0x1ffffaa7
    42bc:	00005bfc 	.word	0x00005bfc
    42c0:	1ffffaac 	.word	0x1ffffaac
    42c4:	1ffffaa8 	.word	0x1ffffaa8
    42c8:	1ffffaaa 	.word	0x1ffffaaa
    42cc:	0000ffef 	.word	0x0000ffef
    42d0:	ffffa001 	.word	0xffffa001
    42d4:	0000ffff 	.word	0x0000ffff

000042d8 <uecom_interrupt>:
uecom_interrupt():
E:\2017-2018\03_Graduation Project\04_Software\05_Wangshi\02_6220\06_UpdateSoftware-180714\01_UEBootloader\KL36_Bios-180714\Debug/../04_UserBoard/uecom/uecom.c:276
{
    42d8:	b5f0      	push	{r4, r5, r6, r7, lr}
    42da:	46c6      	mov	lr, r8
    42dc:	b500      	push	{lr}
E:\2017-2018\03_Graduation Project\04_Software\05_Wangshi\02_6220\06_UpdateSoftware-180714\01_UEBootloader\KL36_Bios-180714\Debug/../04_UserBoard/uecom/uecom.c:278
	if(AT_haveCommand)// && !isGPRSdata)
    42de:	4b0e      	ldr	r3, [pc, #56]	; (4318 <uecom_interrupt+0x40>)
E:\2017-2018\03_Graduation Project\04_Software\05_Wangshi\02_6220\06_UpdateSoftware-180714\01_UEBootloader\KL36_Bios-180714\Debug/../04_UserBoard/uecom/uecom.c:276
{
    42e0:	0004      	movs	r4, r0
E:\2017-2018\03_Graduation Project\04_Software\05_Wangshi\02_6220\06_UpdateSoftware-180714\01_UEBootloader\KL36_Bios-180714\Debug/../04_UserBoard/uecom/uecom.c:278
	if(AT_haveCommand)// && !isGPRSdata)
    42e2:	781b      	ldrb	r3, [r3, #0]
E:\2017-2018\03_Graduation Project\04_Software\05_Wangshi\02_6220\06_UpdateSoftware-180714\01_UEBootloader\KL36_Bios-180714\Debug/../04_UserBoard/uecom/uecom.c:276
{
    42e4:	000d      	movs	r5, r1
    42e6:	0016      	movs	r6, r2
E:\2017-2018\03_Graduation Project\04_Software\05_Wangshi\02_6220\06_UpdateSoftware-180714\01_UEBootloader\KL36_Bios-180714\Debug/../04_UserBoard/uecom/uecom.c:278
	if(AT_haveCommand)// && !isGPRSdata)
    42e8:	2b00      	cmp	r3, #0
    42ea:	d00c      	beq.n	4306 <uecom_interrupt+0x2e>
E:\2017-2018\03_Graduation Project\04_Software\05_Wangshi\02_6220\06_UpdateSoftware-180714\01_UEBootloader\KL36_Bios-180714\Debug/../04_UserBoard/uecom/uecom.c:280
		AT_reBuf[AT_reLength] = ch;    //AT_reBuf
    42ec:	4b0b      	ldr	r3, [pc, #44]	; (431c <uecom_interrupt+0x44>)
    42ee:	4f0c      	ldr	r7, [pc, #48]	; (4320 <uecom_interrupt+0x48>)
    42f0:	4698      	mov	r8, r3
    42f2:	7818      	ldrb	r0, [r3, #0]
E:\2017-2018\03_Graduation Project\04_Software\05_Wangshi\02_6220\06_UpdateSoftware-180714\01_UEBootloader\KL36_Bios-180714\Debug/../04_UserBoard/uecom/uecom.c:281
		AT_reLength = (AT_reLength+1)%AT_reBuf_length;//
    42f4:	21c8      	movs	r1, #200	; 0xc8
E:\2017-2018\03_Graduation Project\04_Software\05_Wangshi\02_6220\06_UpdateSoftware-180714\01_UEBootloader\KL36_Bios-180714\Debug/../04_UserBoard/uecom/uecom.c:280
		AT_reBuf[AT_reLength] = ch;    //AT_reBuf
    42f6:	543c      	strb	r4, [r7, r0]
E:\2017-2018\03_Graduation Project\04_Software\05_Wangshi\02_6220\06_UpdateSoftware-180714\01_UEBootloader\KL36_Bios-180714\Debug/../04_UserBoard/uecom/uecom.c:281
		AT_reLength = (AT_reLength+1)%AT_reBuf_length;//
    42f8:	3001      	adds	r0, #1
    42fa:	f7fc fa7f 	bl	7fc <__aeabi_idivmod>
    42fe:	4643      	mov	r3, r8
    4300:	7019      	strb	r1, [r3, #0]
E:\2017-2018\03_Graduation Project\04_Software\05_Wangshi\02_6220\06_UpdateSoftware-180714\01_UEBootloader\KL36_Bios-180714\Debug/../04_UserBoard/uecom/uecom.c:282
		AT_reBuf[AT_reLength] = 0;
    4302:	2300      	movs	r3, #0
    4304:	547b      	strb	r3, [r7, r1]
E:\2017-2018\03_Graduation Project\04_Software\05_Wangshi\02_6220\06_UpdateSoftware-180714\01_UEBootloader\KL36_Bios-180714\Debug/../04_UserBoard/uecom/uecom.c:284
    uecom_recv(ch,length,recvData); //GPRS
    4306:	0032      	movs	r2, r6
    4308:	0029      	movs	r1, r5
    430a:	0020      	movs	r0, r4
    430c:	f7ff fee2 	bl	40d4 <uecom_recv>
E:\2017-2018\03_Graduation Project\04_Software\05_Wangshi\02_6220\06_UpdateSoftware-180714\01_UEBootloader\KL36_Bios-180714\Debug/../04_UserBoard/uecom/uecom.c:285
}
    4310:	bc04      	pop	{r2}
    4312:	4690      	mov	r8, r2
    4314:	bdf0      	pop	{r4, r5, r6, r7, pc}
    4316:	46c0      	nop			; (mov r8, r8)
    4318:	1ffff9b8 	.word	0x1ffff9b8
    431c:	1ffffa84 	.word	0x1ffffa84
    4320:	1ffff9bc 	.word	0x1ffff9bc

00004324 <light_init>:
light_init():
E:\2017-2018\03_Graduation Project\04_Software\05_Wangshi\02_6220\06_UpdateSoftware-180714\01_UEBootloader\KL36_Bios-180714\Debug/../04_UserBoard/light/light.c:16
//       statelight.h
//
//
//=====================================================================
void light_init(uint_16 port_pin, uint_8 state)
{
    4324:	b510      	push	{r4, lr}
    4326:	000a      	movs	r2, r1
E:\2017-2018\03_Graduation Project\04_Software\05_Wangshi\02_6220\06_UpdateSoftware-180714\01_UEBootloader\KL36_Bios-180714\Debug/../04_UserBoard/light/light.c:17
    gpio_init(port_pin, GPIO_OUTPUT, state);
    4328:	2101      	movs	r1, #1
    432a:	f000 ffa7 	bl	527c <gpio_init>
E:\2017-2018\03_Graduation Project\04_Software\05_Wangshi\02_6220\06_UpdateSoftware-180714\01_UEBootloader\KL36_Bios-180714\Debug/../04_UserBoard/light/light.c:18
}
    432e:	bd10      	pop	{r4, pc}

00004330 <light_control>:
light_control():
E:\2017-2018\03_Graduation Project\04_Software\05_Wangshi\02_6220\06_UpdateSoftware-180714\01_UEBootloader\KL36_Bios-180714\Debug/../04_UserBoard/light/light.c:28
//       statelight.h
//
//
//=====================================================================
void light_control(uint_16 port_pin, uint_8 state)
{
    4330:	b510      	push	{r4, lr}
E:\2017-2018\03_Graduation Project\04_Software\05_Wangshi\02_6220\06_UpdateSoftware-180714\01_UEBootloader\KL36_Bios-180714\Debug/../04_UserBoard/light/light.c:29
    gpio_set(port_pin, state);
    4332:	f000 ffd1 	bl	52d8 <gpio_set>
E:\2017-2018\03_Graduation Project\04_Software\05_Wangshi\02_6220\06_UpdateSoftware-180714\01_UEBootloader\KL36_Bios-180714\Debug/../04_UserBoard/light/light.c:30
}
    4336:	bd10      	pop	{r4, pc}

00004338 <light_change>:
light_change():
E:\2017-2018\03_Graduation Project\04_Software\05_Wangshi\02_6220\06_UpdateSoftware-180714\01_UEBootloader\KL36_Bios-180714\Debug/../04_UserBoard/light/light.c:39
//port_pin()|()(PTB_NUM)|(9) B9
//
//
//=====================================================================
void light_change(uint_16 port_pin)
{
    4338:	b510      	push	{r4, lr}
E:\2017-2018\03_Graduation Project\04_Software\05_Wangshi\02_6220\06_UpdateSoftware-180714\01_UEBootloader\KL36_Bios-180714\Debug/../04_UserBoard/light/light.c:40
    gpio_reverse(port_pin);
    433a:	f000 ffed 	bl	5318 <gpio_reverse>
E:\2017-2018\03_Graduation Project\04_Software\05_Wangshi\02_6220\06_UpdateSoftware-180714\01_UEBootloader\KL36_Bios-180714\Debug/../04_UserBoard/light/light.c:41
}
    433e:	bd10      	pop	{r4, pc}

00004340 <bootloader_goToUserApp>:
bootloader_goToUserApp():
E:\2017-2018\03_Graduation Project\04_Software\05_Wangshi\02_6220\06_UpdateSoftware-180714\01_UEBootloader\KL36_Bios-180714\Debug/../04_UserBoard/bootloader/bootloader.c:11
#include "bootloader.h"

typedef  void (*pFunction)(void);  //

void bootloader_goToUserApp(volatile uint_32 app_start_addr)
{
    4340:	b580      	push	{r7, lr}
    4342:	b084      	sub	sp, #16
    4344:	af00      	add	r7, sp, #0
    4346:	6078      	str	r0, [r7, #4]
E:\2017-2018\03_Graduation Project\04_Software\05_Wangshi\02_6220\06_UpdateSoftware-180714\01_UEBootloader\KL36_Bios-180714\Debug/../04_UserBoard/bootloader/bootloader.c:15
    volatile pFunction jump_to_application;  //
    uint_32 jump_addr;

    jump_addr = *(volatile uint_32*)(app_start_addr + 4);  //RESET
    4348:	687b      	ldr	r3, [r7, #4]
    434a:	685a      	ldr	r2, [r3, #4]
E:\2017-2018\03_Graduation Project\04_Software\05_Wangshi\02_6220\06_UpdateSoftware-180714\01_UEBootloader\KL36_Bios-180714\Debug/../04_UserBoard/bootloader/bootloader.c:18

    //bootloader, jump_addr [USERBASE, UPDATEBASE)
    if(app_start_addr != 0xfffffffful)
    434c:	687b      	ldr	r3, [r7, #4]
    434e:	3301      	adds	r3, #1
    4350:	d006      	beq.n	4360 <bootloader_goToUserApp+0x20>
E:\2017-2018\03_Graduation Project\04_Software\05_Wangshi\02_6220\06_UpdateSoftware-180714\01_UEBootloader\KL36_Bios-180714\Debug/../04_UserBoard/bootloader/bootloader.c:20
    {
    	jump_to_application = (pFunction)jump_addr;
    4352:	60fa      	str	r2, [r7, #12]
E:\2017-2018\03_Graduation Project\04_Software\05_Wangshi\02_6220\06_UpdateSoftware-180714\01_UEBootloader\KL36_Bios-180714\Debug/../04_UserBoard/bootloader/bootloader.c:22

        __set_MSP(*(volatile uint32_t*)app_start_addr); //
    4354:	687b      	ldr	r3, [r7, #4]
    4356:	681b      	ldr	r3, [r3, #0]
__set_MSP():
E:\2017-2018\03_Graduation Project\04_Software\05_Wangshi\02_6220\06_UpdateSoftware-180714\01_UEBootloader\KL36_Bios-180714\02_Core/core_cmFunc.h:470

    \param [in]    topOfMainStack  Main Stack Pointer value to set
 */
__attribute__( ( always_inline ) ) __STATIC_INLINE void __set_MSP(uint32_t topOfMainStack)
{
  __ASM volatile ("MSR msp, %0\n" : : "r" (topOfMainStack) : "sp");
    4358:	f383 8808 	msr	MSP, r3
bootloader_goToUserApp():
E:\2017-2018\03_Graduation Project\04_Software\05_Wangshi\02_6220\06_UpdateSoftware-180714\01_UEBootloader\KL36_Bios-180714\Debug/../04_UserBoard/bootloader/bootloader.c:24

        jump_to_application();  //
    435c:	68fb      	ldr	r3, [r7, #12]
    435e:	4798      	blx	r3
E:\2017-2018\03_Graduation Project\04_Software\05_Wangshi\02_6220\06_UpdateSoftware-180714\01_UEBootloader\KL36_Bios-180714\Debug/../04_UserBoard/bootloader/bootloader.c:26
    }
}
    4360:	46bd      	mov	sp, r7
    4362:	b004      	add	sp, #16
    4364:	bd80      	pop	{r7, pc}
    4366:	46c0      	nop			; (mov r8, r8)

00004368 <SystemInit>:
SystemInit():
E:\2017-2018\03_Graduation Project\04_Software\05_Wangshi\02_6220\06_UpdateSoftware-180714\01_UEBootloader\KL36_Bios-180714\Debug/../03_MCU/startup/system_MKL36Z4.c:111
	char temp_reg = 0;

	/* Watchdog disable */
#if (DISABLE_WDOG)
	/* SIM_COPC: COPT=3,COPCLKS=0,COPW=0 */
	SIM->COPC = (uint32_t)0x00u;
    4368:	2288      	movs	r2, #136	; 0x88
    436a:	2100      	movs	r1, #0
    436c:	4b26      	ldr	r3, [pc, #152]	; (4408 <SystemInit+0xa0>)
    436e:	0152      	lsls	r2, r2, #5
    4370:	5099      	str	r1, [r3, r2]
E:\2017-2018\03_Graduation Project\04_Software\05_Wangshi\02_6220\06_UpdateSoftware-180714\01_UEBootloader\KL36_Bios-180714\Debug/../03_MCU/startup/system_MKL36Z4.c:116
#endif /* (DISABLE_WDOG) */

	/* System clock initialization */
	/* SIM_CLKDIV1: OUTDIV1=0,??=0,??=0,??=0,??=0,??=0,??=0,??=0,??=0,??=0,OUTDIV4=3,??=0,??=0,??=0,??=0,??=0,??=0,??=0,??=0,??=0,??=0,??=0,??=0,??=0,??=0,??=0,??=0 */
	SIM_CLKDIV1 = (SIM_CLKDIV1_OUTDIV1(0x00) | SIM_CLKDIV1_OUTDIV4(0x03)); /* Set the system prescalers to safe value */
    4372:	21c0      	movs	r1, #192	; 0xc0
    4374:	4a25      	ldr	r2, [pc, #148]	; (440c <SystemInit+0xa4>)
    4376:	0289      	lsls	r1, r1, #10
    4378:	5099      	str	r1, [r3, r2]
E:\2017-2018\03_Graduation Project\04_Software\05_Wangshi\02_6220\06_UpdateSoftware-180714\01_UEBootloader\KL36_Bios-180714\Debug/../03_MCU/startup/system_MKL36Z4.c:118
	/* SIM_SCGC5: PORTA=1 */
	SIM_SCGC5 |= SIM_SCGC5_PORTA_MASK;   /* Enable clock gate for ports to enable pin routing */
    437a:	2280      	movs	r2, #128	; 0x80
    437c:	4924      	ldr	r1, [pc, #144]	; (4410 <SystemInit+0xa8>)
    437e:	0092      	lsls	r2, r2, #2
    4380:	5858      	ldr	r0, [r3, r1]
    4382:	4302      	orrs	r2, r0
    4384:	505a      	str	r2, [r3, r1]
E:\2017-2018\03_Graduation Project\04_Software\05_Wangshi\02_6220\06_UpdateSoftware-180714\01_UEBootloader\KL36_Bios-180714\Debug/../03_MCU/startup/system_MKL36Z4.c:119
	if ((PMC_REGSC & PMC_REGSC_ACKISO_MASK) != 0x0U) {
    4386:	4b23      	ldr	r3, [pc, #140]	; (4414 <SystemInit+0xac>)
    4388:	789a      	ldrb	r2, [r3, #2]
    438a:	0712      	lsls	r2, r2, #28
    438c:	d503      	bpl.n	4396 <SystemInit+0x2e>
E:\2017-2018\03_Graduation Project\04_Software\05_Wangshi\02_6220\06_UpdateSoftware-180714\01_UEBootloader\KL36_Bios-180714\Debug/../03_MCU/startup/system_MKL36Z4.c:121
		/* PMC_REGSC: ACKISO=1 */
		PMC_REGSC |= PMC_REGSC_ACKISO_MASK; /* Release IO pads after wakeup from VLLS mode. */
    438e:	2108      	movs	r1, #8
    4390:	789a      	ldrb	r2, [r3, #2]
    4392:	430a      	orrs	r2, r1
    4394:	709a      	strb	r2, [r3, #2]
E:\2017-2018\03_Graduation Project\04_Software\05_Wangshi\02_6220\06_UpdateSoftware-180714\01_UEBootloader\KL36_Bios-180714\Debug/../03_MCU/startup/system_MKL36Z4.c:124
	}
	/* SIM_CLKDIV1: OUTDIV1=0,??=0,??=0,??=0,??=0,??=0,??=0,??=0,??=0,??=0,OUTDIV4=1,??=0,??=0,??=0,??=0,??=0,??=0,??=0,??=0,??=0,??=0,??=0,??=0,??=0,??=0,??=0,??=0 */
	SIM_CLKDIV1 = (SIM_CLKDIV1_OUTDIV1(0x00) | SIM_CLKDIV1_OUTDIV4(0x01)); /* Update system prescalers */
    4396:	2180      	movs	r1, #128	; 0x80
    4398:	4b1b      	ldr	r3, [pc, #108]	; (4408 <SystemInit+0xa0>)
    439a:	4a1c      	ldr	r2, [pc, #112]	; (440c <SystemInit+0xa4>)
    439c:	0249      	lsls	r1, r1, #9
    439e:	5099      	str	r1, [r3, r2]
E:\2017-2018\03_Graduation Project\04_Software\05_Wangshi\02_6220\06_UpdateSoftware-180714\01_UEBootloader\KL36_Bios-180714\Debug/../03_MCU/startup/system_MKL36Z4.c:126
	/* SIM_SOPT2: ??=0,PLLFLLSEL=0 */
	SIM_SOPT2 &= (uint32_t)~(uint32_t)((SIM_SOPT2_PLLFLLSEL_MASK | 0x00020000U)); /* Select FLL as a clock source for various peripherals */
    43a0:	4a1d      	ldr	r2, [pc, #116]	; (4418 <SystemInit+0xb0>)
    43a2:	481e      	ldr	r0, [pc, #120]	; (441c <SystemInit+0xb4>)
    43a4:	5899      	ldr	r1, [r3, r2]
    43a6:	4001      	ands	r1, r0
    43a8:	5099      	str	r1, [r3, r2]
E:\2017-2018\03_Graduation Project\04_Software\05_Wangshi\02_6220\06_UpdateSoftware-180714\01_UEBootloader\KL36_Bios-180714\Debug/../03_MCU/startup/system_MKL36Z4.c:128
	/* SIM_SOPT1: OSC32KSEL=0 */
	SIM_SOPT1 &= (uint32_t)~(uint32_t)(SIM_SOPT1_OSC32KSEL(0x03)); /* System oscillator drives 32 kHz clock for various peripherals */
    43aa:	6819      	ldr	r1, [r3, #0]
    43ac:	481c      	ldr	r0, [pc, #112]	; (4420 <SystemInit+0xb8>)
    43ae:	4001      	ands	r1, r0
    43b0:	6019      	str	r1, [r3, #0]
E:\2017-2018\03_Graduation Project\04_Software\05_Wangshi\02_6220\06_UpdateSoftware-180714\01_UEBootloader\KL36_Bios-180714\Debug/../03_MCU/startup/system_MKL36Z4.c:130
	/* SIM_SOPT2: TPMSRC=1 */
	SIM_SOPT2 = (uint32_t)((SIM_SOPT2 & (uint32_t)~(uint32_t)(
    43b2:	5899      	ldr	r1, [r3, r2]
    43b4:	481b      	ldr	r0, [pc, #108]	; (4424 <SystemInit+0xbc>)
    43b6:	4008      	ands	r0, r1
    43b8:	2180      	movs	r1, #128	; 0x80
    43ba:	0449      	lsls	r1, r1, #17
    43bc:	4301      	orrs	r1, r0
    43be:	5099      	str	r1, [r3, r2]
E:\2017-2018\03_Graduation Project\04_Software\05_Wangshi\02_6220\06_UpdateSoftware-180714\01_UEBootloader\KL36_Bios-180714\Debug/../03_MCU/startup/system_MKL36Z4.c:137
	)) | (uint32_t)(
			SIM_SOPT2_TPMSRC(0x01)
	));                      /* Set the TPM clock */
	/* Switch to FEI Mode */
	/* MCG_C1: CLKS=0,FRDIV=0,IREFS=1,IRCLKEN=1,IREFSTEN=0 */
	MCG_C1 = MCG_C1_CLKS(0x00) |
    43c0:	2206      	movs	r2, #6
    43c2:	4b19      	ldr	r3, [pc, #100]	; (4428 <SystemInit+0xc0>)
    43c4:	701a      	strb	r2, [r3, #0]
E:\2017-2018\03_Graduation Project\04_Software\05_Wangshi\02_6220\06_UpdateSoftware-180714\01_UEBootloader\KL36_Bios-180714\Debug/../03_MCU/startup/system_MKL36Z4.c:142
			MCG_C1_FRDIV(0x00) |
			MCG_C1_IREFS_MASK |
			MCG_C1_IRCLKEN_MASK;
	/* MCG_C2: LOCRE0=0,RANGE0=0,HGO0=0,EREFS0=0,LP=0,IRCS=0 */
	MCG_C2 &= (uint8_t)~(uint8_t)(
    43c6:	7859      	ldrb	r1, [r3, #1]
    43c8:	323a      	adds	r2, #58	; 0x3a
    43ca:	400a      	ands	r2, r1
    43cc:	705a      	strb	r2, [r3, #1]
E:\2017-2018\03_Graduation Project\04_Software\05_Wangshi\02_6220\06_UpdateSoftware-180714\01_UEBootloader\KL36_Bios-180714\Debug/../03_MCU/startup/system_MKL36Z4.c:153
			MCG_C2_IRCS_MASK
	);
	/* MCG_C4: DMX32=1,DRST_DRS=1 */
	MCG_C4 = (uint8_t)((MCG_C4 & (uint8_t)~(uint8_t)(
			MCG_C4_DRST_DRS(0x02)
	)) | (uint8_t)(
    43ce:	221f      	movs	r2, #31
E:\2017-2018\03_Graduation Project\04_Software\05_Wangshi\02_6220\06_UpdateSoftware-180714\01_UEBootloader\KL36_Bios-180714\Debug/../03_MCU/startup/system_MKL36Z4.c:151
	MCG_C4 = (uint8_t)((MCG_C4 & (uint8_t)~(uint8_t)(
    43d0:	78d9      	ldrb	r1, [r3, #3]
E:\2017-2018\03_Graduation Project\04_Software\05_Wangshi\02_6220\06_UpdateSoftware-180714\01_UEBootloader\KL36_Bios-180714\Debug/../03_MCU/startup/system_MKL36Z4.c:153
	)) | (uint8_t)(
    43d2:	400a      	ands	r2, r1
    43d4:	21a0      	movs	r1, #160	; 0xa0
E:\2017-2018\03_Graduation Project\04_Software\05_Wangshi\02_6220\06_UpdateSoftware-180714\01_UEBootloader\KL36_Bios-180714\Debug/../03_MCU/startup/system_MKL36Z4.c:151
	MCG_C4 = (uint8_t)((MCG_C4 & (uint8_t)~(uint8_t)(
    43d6:	430a      	orrs	r2, r1
    43d8:	70da      	strb	r2, [r3, #3]
E:\2017-2018\03_Graduation Project\04_Software\05_Wangshi\02_6220\06_UpdateSoftware-180714\01_UEBootloader\KL36_Bios-180714\Debug/../03_MCU/startup/system_MKL36Z4.c:158
			MCG_C4_DMX32_MASK |
			MCG_C4_DRST_DRS(0x01)
	));
	/* OSC0_CR: ERCLKEN=0,??=0,EREFSTEN=0,??=0,SC2P=0,SC4P=0,SC8P=0,SC16P=0 */
	OSC0_CR = 0x00U;
    43da:	2200      	movs	r2, #0
    43dc:	4913      	ldr	r1, [pc, #76]	; (442c <SystemInit+0xc4>)
    43de:	700a      	strb	r2, [r1, #0]
E:\2017-2018\03_Graduation Project\04_Software\05_Wangshi\02_6220\06_UpdateSoftware-180714\01_UEBootloader\KL36_Bios-180714\Debug/../03_MCU/startup/system_MKL36Z4.c:163
	/* MCG_C5: ??=0,PLLCLKEN0=0,PLLSTEN0=0,PRDIV0=0 */
	MCG_C5 = MCG_C5_PRDIV0(0x00);
	/* MCG_C6: LOLIE0=0,PLLS=0,CME0=0,VDIV0=0 */
	MCG_C6 = MCG_C6_VDIV0(0x00);
	while((MCG_S & MCG_S_IREFST_MASK) == 0x00U) { /* Check that the source of the FLL reference clock is the internal reference clock. */
    43e0:	2110      	movs	r1, #16
E:\2017-2018\03_Graduation Project\04_Software\05_Wangshi\02_6220\06_UpdateSoftware-180714\01_UEBootloader\KL36_Bios-180714\Debug/../03_MCU/startup/system_MKL36Z4.c:160
	MCG_C5 = MCG_C5_PRDIV0(0x00);
    43e2:	711a      	strb	r2, [r3, #4]
E:\2017-2018\03_Graduation Project\04_Software\05_Wangshi\02_6220\06_UpdateSoftware-180714\01_UEBootloader\KL36_Bios-180714\Debug/../03_MCU/startup/system_MKL36Z4.c:162
	MCG_C6 = MCG_C6_VDIV0(0x00);
    43e4:	715a      	strb	r2, [r3, #5]
E:\2017-2018\03_Graduation Project\04_Software\05_Wangshi\02_6220\06_UpdateSoftware-180714\01_UEBootloader\KL36_Bios-180714\Debug/../03_MCU/startup/system_MKL36Z4.c:163 (discriminator 1)
	while((MCG_S & MCG_S_IREFST_MASK) == 0x00U) { /* Check that the source of the FLL reference clock is the internal reference clock. */
    43e6:	799a      	ldrb	r2, [r3, #6]
    43e8:	4211      	tst	r1, r2
    43ea:	d0fc      	beq.n	43e6 <SystemInit+0x7e>
E:\2017-2018\03_Graduation Project\04_Software\05_Wangshi\02_6220\06_UpdateSoftware-180714\01_UEBootloader\KL36_Bios-180714\Debug/../03_MCU/startup/system_MKL36Z4.c:165
	}
	while((MCG_S & 0x0CU) != 0x00U) {    /* Wait until output of the FLL is selected */
    43ec:	220c      	movs	r2, #12
    43ee:	490e      	ldr	r1, [pc, #56]	; (4428 <SystemInit+0xc0>)
E:\2017-2018\03_Graduation Project\04_Software\05_Wangshi\02_6220\06_UpdateSoftware-180714\01_UEBootloader\KL36_Bios-180714\Debug/../03_MCU/startup/system_MKL36Z4.c:165 (discriminator 1)
    43f0:	798b      	ldrb	r3, [r1, #6]
    43f2:	421a      	tst	r2, r3
    43f4:	d1fc      	bne.n	43f0 <SystemInit+0x88>
E:\2017-2018\03_Graduation Project\04_Software\05_Wangshi\02_6220\06_UpdateSoftware-180714\01_UEBootloader\KL36_Bios-180714\Debug/../03_MCU/startup/system_MKL36Z4.c:170
	}
	/*** End of PE initialization code after reset ***/

	//PORT
	SIM->SCGC5 |= SIM_SCGC5_PORTA_MASK
    43f6:	23f8      	movs	r3, #248	; 0xf8
    43f8:	4903      	ldr	r1, [pc, #12]	; (4408 <SystemInit+0xa0>)
    43fa:	4a05      	ldr	r2, [pc, #20]	; (4410 <SystemInit+0xa8>)
    43fc:	019b      	lsls	r3, r3, #6
    43fe:	5888      	ldr	r0, [r1, r2]
    4400:	4303      	orrs	r3, r0
    4402:	508b      	str	r3, [r1, r2]
E:\2017-2018\03_Graduation Project\04_Software\05_Wangshi\02_6220\06_UpdateSoftware-180714\01_UEBootloader\KL36_Bios-180714\Debug/../03_MCU/startup/system_MKL36Z4.c:175
			| SIM_SCGC5_PORTB_MASK
			| SIM_SCGC5_PORTC_MASK
			| SIM_SCGC5_PORTD_MASK
			| SIM_SCGC5_PORTE_MASK;
}
    4404:	4770      	bx	lr
    4406:	46c0      	nop			; (mov r8, r8)
    4408:	40047000 	.word	0x40047000
    440c:	00001044 	.word	0x00001044
    4410:	00001038 	.word	0x00001038
    4414:	4007d000 	.word	0x4007d000
    4418:	00001004 	.word	0x00001004
    441c:	fffcffff 	.word	0xfffcffff
    4420:	fff3ffff 	.word	0xfff3ffff
    4424:	fcffffff 	.word	0xfcffffff
    4428:	40064000 	.word	0x40064000
    442c:	40065000 	.word	0x40065000

00004430 <uart_init>:
uart_init():
E:\2017-2018\03_Graduation Project\04_Software\05_Wangshi\02_6220\06_UpdateSoftware-180714\01_UEBootloader\KL36_Bios-180714\Debug/../03_MCU/MCU_drivers/uart/uart.c:25
//uartNo:UART_0UART_1UART_2 
//          baud:300600120024004800960019200115200...
//
//======================================================================
void uart_init(uint_8 uartNo, uint_32 baud_rate)
{
    4430:	b570      	push	{r4, r5, r6, lr}
    4432:	0004      	movs	r4, r0
uart_is_uartNo():
E:\2017-2018\03_Graduation Project\04_Software\05_Wangshi\02_6220\06_UpdateSoftware-180714\01_UEBootloader\KL36_Bios-180714\Debug/../03_MCU/MCU_drivers/uart/uart.c:538
//uartNo  :UART_0UART_1UART_2
//uartNo
//=====================================================================
uint_8 uart_is_uartNo(uint_8 uartNo)
{
    if(uartNo < UART_0 || uartNo > UART_2)
    4434:	2802      	cmp	r0, #2
    4436:	d83d      	bhi.n	44b4 <uart_init+0x84>
    4438:	4b49      	ldr	r3, [pc, #292]	; (4560 <uart_init+0x130>)
    443a:	010e      	lsls	r6, r1, #4
    443c:	6818      	ldr	r0, [r3, #0]
uart_init():
E:\2017-2018\03_Graduation Project\04_Software\05_Wangshi\02_6220\06_UpdateSoftware-180714\01_UEBootloader\KL36_Bios-180714\Debug/../03_MCU/MCU_drivers/uart/uart.c:39
    if(uartNo==0)
    443e:	2c00      	cmp	r4, #0
    4440:	d039      	beq.n	44b6 <uart_init+0x86>
E:\2017-2018\03_Graduation Project\04_Software\05_Wangshi\02_6220\06_UpdateSoftware-180714\01_UEBootloader\KL36_Bios-180714\Debug/../03_MCU/MCU_drivers/uart/uart.c:121
    				PORTE_PCR16 = PORT_PCR_MUX(0x3); //UART2_TXD
    4442:	22c0      	movs	r2, #192	; 0xc0
    4444:	4b47      	ldr	r3, [pc, #284]	; (4564 <uart_init+0x134>)
    4446:	0092      	lsls	r2, r2, #2
E:\2017-2018\03_Graduation Project\04_Software\05_Wangshi\02_6220\06_UpdateSoftware-180714\01_UEBootloader\KL36_Bios-180714\Debug/../03_MCU/MCU_drivers/uart/uart.c:93
    	switch (uartNo)
    4448:	2c02      	cmp	r4, #2
    444a:	d100      	bne.n	444e <uart_init+0x1e>
    444c:	e07d      	b.n	454a <uart_init+0x11a>
E:\2017-2018\03_Graduation Project\04_Software\05_Wangshi\02_6220\06_UpdateSoftware-180714\01_UEBootloader\KL36_Bios-180714\Debug/../03_MCU/MCU_drivers/uart/uart.c:100
    			PORTE_PCR0 = PORT_PCR_MUX(0x3);    //UART1_TXD
    444e:	601a      	str	r2, [r3, #0]
E:\2017-2018\03_Graduation Project\04_Software\05_Wangshi\02_6220\06_UpdateSoftware-180714\01_UEBootloader\KL36_Bios-180714\Debug/../03_MCU/MCU_drivers/uart/uart.c:101
    			PORTE_PCR1 = PORT_PCR_MUX(0x3);    //UART1_RXD
    4450:	605a      	str	r2, [r3, #4]
E:\2017-2018\03_Graduation Project\04_Software\05_Wangshi\02_6220\06_UpdateSoftware-180714\01_UEBootloader\KL36_Bios-180714\Debug/../03_MCU/MCU_drivers/uart/uart.c:114
    		SIM_SCGC4 |= SIM_SCGC4_UART1_MASK; //1
    4452:	2380      	movs	r3, #128	; 0x80
    4454:	4944      	ldr	r1, [pc, #272]	; (4568 <uart_init+0x138>)
    4456:	4a45      	ldr	r2, [pc, #276]	; (456c <uart_init+0x13c>)
    4458:	011b      	lsls	r3, r3, #4
    445a:	588d      	ldr	r5, [r1, r2]
    445c:	432b      	orrs	r3, r5
    445e:	508b      	str	r3, [r1, r2]
E:\2017-2018\03_Graduation Project\04_Software\05_Wangshi\02_6220\06_UpdateSoftware-180714\01_UEBootloader\KL36_Bios-180714\Debug/../03_MCU/MCU_drivers/uart/uart.c:146
        UART_C2_REG(uartch_1_2) &= ~(UART_C2_TE_MASK | UART_C2_RE_MASK);
    4460:	220c      	movs	r2, #12
E:\2017-2018\03_Graduation Project\04_Software\05_Wangshi\02_6220\06_UpdateSoftware-180714\01_UEBootloader\KL36_Bios-180714\Debug/../03_MCU/MCU_drivers/uart/uart.c:151
        sbr = (uint_16)((BUS_CLK_KHZ*1000)/(baud_rate * 16));
    4462:	21fa      	movs	r1, #250	; 0xfa
E:\2017-2018\03_Graduation Project\04_Software\05_Wangshi\02_6220\06_UpdateSoftware-180714\01_UEBootloader\KL36_Bios-180714\Debug/../03_MCU/MCU_drivers/uart/uart.c:143
        uartch_1_2 = UART_ARR[uartNo-1]; //UART12
    4464:	4b42      	ldr	r3, [pc, #264]	; (4570 <uart_init+0x140>)
    4466:	3c01      	subs	r4, #1
    4468:	00a4      	lsls	r4, r4, #2
    446a:	58e4      	ldr	r4, [r4, r3]
E:\2017-2018\03_Graduation Project\04_Software\05_Wangshi\02_6220\06_UpdateSoftware-180714\01_UEBootloader\KL36_Bios-180714\Debug/../03_MCU/MCU_drivers/uart/uart.c:151
        sbr = (uint_16)((BUS_CLK_KHZ*1000)/(baud_rate * 16));
    446c:	00c9      	lsls	r1, r1, #3
E:\2017-2018\03_Graduation Project\04_Software\05_Wangshi\02_6220\06_UpdateSoftware-180714\01_UEBootloader\KL36_Bios-180714\Debug/../03_MCU/MCU_drivers/uart/uart.c:146
        UART_C2_REG(uartch_1_2) &= ~(UART_C2_TE_MASK | UART_C2_RE_MASK);
    446e:	78e3      	ldrb	r3, [r4, #3]
    4470:	4393      	bics	r3, r2
    4472:	70e3      	strb	r3, [r4, #3]
E:\2017-2018\03_Graduation Project\04_Software\05_Wangshi\02_6220\06_UpdateSoftware-180714\01_UEBootloader\KL36_Bios-180714\Debug/../03_MCU/MCU_drivers/uart/uart.c:151
        sbr = (uint_16)((BUS_CLK_KHZ*1000)/(baud_rate * 16));
    4474:	f7fc f852 	bl	51c <__udivsi3>
    4478:	0002      	movs	r2, r0
    447a:	0140      	lsls	r0, r0, #5
    447c:	1a80      	subs	r0, r0, r2
    447e:	0080      	lsls	r0, r0, #2
    4480:	1880      	adds	r0, r0, r2
    4482:	0031      	movs	r1, r6
    4484:	00c0      	lsls	r0, r0, #3
    4486:	f7fc f849 	bl	51c <__udivsi3>
E:\2017-2018\03_Graduation Project\04_Software\05_Wangshi\02_6220\06_UpdateSoftware-180714\01_UEBootloader\KL36_Bios-180714\Debug/../03_MCU/MCU_drivers/uart/uart.c:153
        UART_BDH_REG(uartch_1_2) = temp |  UART_BDH_SBR(((sbr & 0x1F00) >> 8));
    448a:	211f      	movs	r1, #31
E:\2017-2018\03_Graduation Project\04_Software\05_Wangshi\02_6220\06_UpdateSoftware-180714\01_UEBootloader\KL36_Bios-180714\Debug/../03_MCU/MCU_drivers/uart/uart.c:152
        temp = UART_BDH_REG(uartch_1_2) & ~(UART_BDH_SBR(0x1F));
    448c:	7822      	ldrb	r2, [r4, #0]
E:\2017-2018\03_Graduation Project\04_Software\05_Wangshi\02_6220\06_UpdateSoftware-180714\01_UEBootloader\KL36_Bios-180714\Debug/../03_MCU/MCU_drivers/uart/uart.c:153
        UART_BDH_REG(uartch_1_2) = temp |  UART_BDH_SBR(((sbr & 0x1F00) >> 8));
    448e:	1203      	asrs	r3, r0, #8
E:\2017-2018\03_Graduation Project\04_Software\05_Wangshi\02_6220\06_UpdateSoftware-180714\01_UEBootloader\KL36_Bios-180714\Debug/../03_MCU/MCU_drivers/uart/uart.c:152
        temp = UART_BDH_REG(uartch_1_2) & ~(UART_BDH_SBR(0x1F));
    4490:	438a      	bics	r2, r1
E:\2017-2018\03_Graduation Project\04_Software\05_Wangshi\02_6220\06_UpdateSoftware-180714\01_UEBootloader\KL36_Bios-180714\Debug/../03_MCU/MCU_drivers/uart/uart.c:153
        UART_BDH_REG(uartch_1_2) = temp |  UART_BDH_SBR(((sbr & 0x1F00) >> 8));
    4492:	400b      	ands	r3, r1
    4494:	4313      	orrs	r3, r2
    4496:	7023      	strb	r3, [r4, #0]
E:\2017-2018\03_Graduation Project\04_Software\05_Wangshi\02_6220\06_UpdateSoftware-180714\01_UEBootloader\KL36_Bios-180714\Debug/../03_MCU/MCU_drivers/uart/uart.c:157
        UART_C1_REG(uartch_1_2)=0x00;
    4498:	2300      	movs	r3, #0
E:\2017-2018\03_Graduation Project\04_Software\05_Wangshi\02_6220\06_UpdateSoftware-180714\01_UEBootloader\KL36_Bios-180714\Debug/../03_MCU/MCU_drivers/uart/uart.c:154
        UART_BDL_REG(uartch_1_2) = (uint_8)(sbr & UART_BDL_SBR_MASK);
    449a:	b2c0      	uxtb	r0, r0
    449c:	7060      	strb	r0, [r4, #1]
E:\2017-2018\03_Graduation Project\04_Software\05_Wangshi\02_6220\06_UpdateSoftware-180714\01_UEBootloader\KL36_Bios-180714\Debug/../03_MCU/MCU_drivers/uart/uart.c:157
        UART_C1_REG(uartch_1_2)=0x00;
    449e:	70a3      	strb	r3, [r4, #2]
E:\2017-2018\03_Graduation Project\04_Software\05_Wangshi\02_6220\06_UpdateSoftware-180714\01_UEBootloader\KL36_Bios-180714\Debug/../03_MCU/MCU_drivers/uart/uart.c:158
        UART_C3_REG(uartch_1_2)=0x00;
    44a0:	71a3      	strb	r3, [r4, #6]
E:\2017-2018\03_Graduation Project\04_Software\05_Wangshi\02_6220\06_UpdateSoftware-180714\01_UEBootloader\KL36_Bios-180714\Debug/../03_MCU/MCU_drivers/uart/uart.c:159
        UART_S2_REG(uartch_1_2)=0x00;
    44a2:	7163      	strb	r3, [r4, #5]
E:\2017-2018\03_Graduation Project\04_Software\05_Wangshi\02_6220\06_UpdateSoftware-180714\01_UEBootloader\KL36_Bios-180714\Debug/../03_MCU/MCU_drivers/uart/uart.c:161
        UART_C2_REG(uartch_1_2) &= ~UART_C2_TIE_MASK;
    44a4:	78e2      	ldrb	r2, [r4, #3]
    44a6:	337f      	adds	r3, #127	; 0x7f
    44a8:	4013      	ands	r3, r2
E:\2017-2018\03_Graduation Project\04_Software\05_Wangshi\02_6220\06_UpdateSoftware-180714\01_UEBootloader\KL36_Bios-180714\Debug/../03_MCU/MCU_drivers/uart/uart.c:163
        UART_C2_REG(uartch_1_2)|= (UART_C2_TE_MASK | UART_C2_RE_MASK);
    44aa:	220c      	movs	r2, #12
E:\2017-2018\03_Graduation Project\04_Software\05_Wangshi\02_6220\06_UpdateSoftware-180714\01_UEBootloader\KL36_Bios-180714\Debug/../03_MCU/MCU_drivers/uart/uart.c:161
        UART_C2_REG(uartch_1_2) &= ~UART_C2_TIE_MASK;
    44ac:	70e3      	strb	r3, [r4, #3]
E:\2017-2018\03_Graduation Project\04_Software\05_Wangshi\02_6220\06_UpdateSoftware-180714\01_UEBootloader\KL36_Bios-180714\Debug/../03_MCU/MCU_drivers/uart/uart.c:163
        UART_C2_REG(uartch_1_2)|= (UART_C2_TE_MASK | UART_C2_RE_MASK);
    44ae:	78e3      	ldrb	r3, [r4, #3]
    44b0:	4313      	orrs	r3, r2
    44b2:	70e3      	strb	r3, [r4, #3]
E:\2017-2018\03_Graduation Project\04_Software\05_Wangshi\02_6220\06_UpdateSoftware-180714\01_UEBootloader\KL36_Bios-180714\Debug/../03_MCU/MCU_drivers/uart/uart.c:165
}
    44b4:	bd70      	pop	{r4, r5, r6, pc}
E:\2017-2018\03_Graduation Project\04_Software\05_Wangshi\02_6220\06_UpdateSoftware-180714\01_UEBootloader\KL36_Bios-180714\Debug/../03_MCU/MCU_drivers/uart/uart.c:42
        SIM_SOPT2 |= SIM_SOPT2_UART0SRC(0x1);
    44b6:	2180      	movs	r1, #128	; 0x80
    44b8:	4b2b      	ldr	r3, [pc, #172]	; (4568 <uart_init+0x138>)
    44ba:	4a2e      	ldr	r2, [pc, #184]	; (4574 <uart_init+0x144>)
    44bc:	04c9      	lsls	r1, r1, #19
    44be:	589d      	ldr	r5, [r3, r2]
    44c0:	4329      	orrs	r1, r5
    44c2:	5099      	str	r1, [r3, r2]
E:\2017-2018\03_Graduation Project\04_Software\05_Wangshi\02_6220\06_UpdateSoftware-180714\01_UEBootloader\KL36_Bios-180714\Debug/../03_MCU/MCU_drivers/uart/uart.c:43
        SIM_SOPT2 &= ~SIM_SOPT2_PLLFLLSEL_MASK;
    44c4:	5899      	ldr	r1, [r3, r2]
    44c6:	4d2c      	ldr	r5, [pc, #176]	; (4578 <uart_init+0x148>)
    44c8:	4029      	ands	r1, r5
    44ca:	5099      	str	r1, [r3, r2]
E:\2017-2018\03_Graduation Project\04_Software\05_Wangshi\02_6220\06_UpdateSoftware-180714\01_UEBootloader\KL36_Bios-180714\Debug/../03_MCU/MCU_drivers/uart/uart.c:49
            PORTE_PCR20 |= PORT_PCR_MUX(0x4);    //UART0_TXD
    44cc:	2280      	movs	r2, #128	; 0x80
    44ce:	4925      	ldr	r1, [pc, #148]	; (4564 <uart_init+0x134>)
    44d0:	00d2      	lsls	r2, r2, #3
    44d2:	6d0d      	ldr	r5, [r1, #80]	; 0x50
    44d4:	4315      	orrs	r5, r2
    44d6:	650d      	str	r5, [r1, #80]	; 0x50
E:\2017-2018\03_Graduation Project\04_Software\05_Wangshi\02_6220\06_UpdateSoftware-180714\01_UEBootloader\KL36_Bios-180714\Debug/../03_MCU/MCU_drivers/uart/uart.c:50
            PORTE_PCR21 |= PORT_PCR_MUX(0x4);    //UART0_RXD
    44d8:	6d4d      	ldr	r5, [r1, #84]	; 0x54
    44da:	4315      	orrs	r5, r2
    44dc:	654d      	str	r5, [r1, #84]	; 0x54
E:\2017-2018\03_Graduation Project\04_Software\05_Wangshi\02_6220\06_UpdateSoftware-180714\01_UEBootloader\KL36_Bios-180714\Debug/../03_MCU/MCU_drivers/uart/uart.c:67
        SIM_SCGC4 |= SIM_SCGC4_UART0_MASK;    //0
    44de:	4923      	ldr	r1, [pc, #140]	; (456c <uart_init+0x13c>)
    44e0:	585d      	ldr	r5, [r3, r1]
    44e2:	432a      	orrs	r2, r5
    44e4:	505a      	str	r2, [r3, r1]
E:\2017-2018\03_Graduation Project\04_Software\05_Wangshi\02_6220\06_UpdateSoftware-180714\01_UEBootloader\KL36_Bios-180714\Debug/../03_MCU/MCU_drivers/uart/uart.c:70
        UART0_C2_REG(uartch_0) &= ~(UART0_C2_TE_MASK | UART0_C2_RE_MASK);
    44e6:	220c      	movs	r2, #12
E:\2017-2018\03_Graduation Project\04_Software\05_Wangshi\02_6220\06_UpdateSoftware-180714\01_UEBootloader\KL36_Bios-180714\Debug/../03_MCU/MCU_drivers/uart/uart.c:73
        sbr = (uint_16)((SYSTEM_CLK_KHZ*1000)/(baud_rate * 16));
    44e8:	21fa      	movs	r1, #250	; 0xfa
E:\2017-2018\03_Graduation Project\04_Software\05_Wangshi\02_6220\06_UpdateSoftware-180714\01_UEBootloader\KL36_Bios-180714\Debug/../03_MCU/MCU_drivers/uart/uart.c:70
        UART0_C2_REG(uartch_0) &= ~(UART0_C2_TE_MASK | UART0_C2_RE_MASK);
    44ea:	4d24      	ldr	r5, [pc, #144]	; (457c <uart_init+0x14c>)
E:\2017-2018\03_Graduation Project\04_Software\05_Wangshi\02_6220\06_UpdateSoftware-180714\01_UEBootloader\KL36_Bios-180714\Debug/../03_MCU/MCU_drivers/uart/uart.c:73
        sbr = (uint_16)((SYSTEM_CLK_KHZ*1000)/(baud_rate * 16));
    44ec:	0089      	lsls	r1, r1, #2
E:\2017-2018\03_Graduation Project\04_Software\05_Wangshi\02_6220\06_UpdateSoftware-180714\01_UEBootloader\KL36_Bios-180714\Debug/../03_MCU/MCU_drivers/uart/uart.c:70
        UART0_C2_REG(uartch_0) &= ~(UART0_C2_TE_MASK | UART0_C2_RE_MASK);
    44ee:	78eb      	ldrb	r3, [r5, #3]
    44f0:	4393      	bics	r3, r2
    44f2:	70eb      	strb	r3, [r5, #3]
E:\2017-2018\03_Graduation Project\04_Software\05_Wangshi\02_6220\06_UpdateSoftware-180714\01_UEBootloader\KL36_Bios-180714\Debug/../03_MCU/MCU_drivers/uart/uart.c:73
        sbr = (uint_16)((SYSTEM_CLK_KHZ*1000)/(baud_rate * 16));
    44f4:	f7fc f812 	bl	51c <__udivsi3>
    44f8:	0002      	movs	r2, r0
    44fa:	0140      	lsls	r0, r0, #5
    44fc:	1a80      	subs	r0, r0, r2
    44fe:	0080      	lsls	r0, r0, #2
    4500:	1880      	adds	r0, r0, r2
    4502:	0031      	movs	r1, r6
    4504:	00c0      	lsls	r0, r0, #3
    4506:	f7fc f809 	bl	51c <__udivsi3>
E:\2017-2018\03_Graduation Project\04_Software\05_Wangshi\02_6220\06_UpdateSoftware-180714\01_UEBootloader\KL36_Bios-180714\Debug/../03_MCU/MCU_drivers/uart/uart.c:75
        UART0_BDH_REG(uartch_0) = temp | UART0_BDH_SBR(((sbr & 0x1F00) >> 8));
    450a:	211f      	movs	r1, #31
E:\2017-2018\03_Graduation Project\04_Software\05_Wangshi\02_6220\06_UpdateSoftware-180714\01_UEBootloader\KL36_Bios-180714\Debug/../03_MCU/MCU_drivers/uart/uart.c:74
        temp = UART0_BDH_REG(uartch_0) & ~(UART0_BDH_SBR(0x1F));
    450c:	782a      	ldrb	r2, [r5, #0]
E:\2017-2018\03_Graduation Project\04_Software\05_Wangshi\02_6220\06_UpdateSoftware-180714\01_UEBootloader\KL36_Bios-180714\Debug/../03_MCU/MCU_drivers/uart/uart.c:75
        UART0_BDH_REG(uartch_0) = temp | UART0_BDH_SBR(((sbr & 0x1F00) >> 8));
    450e:	1203      	asrs	r3, r0, #8
E:\2017-2018\03_Graduation Project\04_Software\05_Wangshi\02_6220\06_UpdateSoftware-180714\01_UEBootloader\KL36_Bios-180714\Debug/../03_MCU/MCU_drivers/uart/uart.c:74
        temp = UART0_BDH_REG(uartch_0) & ~(UART0_BDH_SBR(0x1F));
    4510:	438a      	bics	r2, r1
E:\2017-2018\03_Graduation Project\04_Software\05_Wangshi\02_6220\06_UpdateSoftware-180714\01_UEBootloader\KL36_Bios-180714\Debug/../03_MCU/MCU_drivers/uart/uart.c:75
        UART0_BDH_REG(uartch_0) = temp | UART0_BDH_SBR(((sbr & 0x1F00) >> 8));
    4512:	400b      	ands	r3, r1
    4514:	4313      	orrs	r3, r2
    4516:	702b      	strb	r3, [r5, #0]
E:\2017-2018\03_Graduation Project\04_Software\05_Wangshi\02_6220\06_UpdateSoftware-180714\01_UEBootloader\KL36_Bios-180714\Debug/../03_MCU/MCU_drivers/uart/uart.c:79
        UART0_C4_REG(uartch_0) = 0x0F;
    4518:	230f      	movs	r3, #15
E:\2017-2018\03_Graduation Project\04_Software\05_Wangshi\02_6220\06_UpdateSoftware-180714\01_UEBootloader\KL36_Bios-180714\Debug/../03_MCU/MCU_drivers/uart/uart.c:84
        UART0_S1_REG(uartch_0) |= 0x1F;
    451a:	221f      	movs	r2, #31
E:\2017-2018\03_Graduation Project\04_Software\05_Wangshi\02_6220\06_UpdateSoftware-180714\01_UEBootloader\KL36_Bios-180714\Debug/../03_MCU/MCU_drivers/uart/uart.c:76
        UART0_BDL_REG(uartch_0) = (uint_8)(sbr & UART0_BDL_SBR_MASK);
    451c:	b2c0      	uxtb	r0, r0
    451e:	7068      	strb	r0, [r5, #1]
E:\2017-2018\03_Graduation Project\04_Software\05_Wangshi\02_6220\06_UpdateSoftware-180714\01_UEBootloader\KL36_Bios-180714\Debug/../03_MCU/MCU_drivers/uart/uart.c:79
        UART0_C4_REG(uartch_0) = 0x0F;
    4520:	72ab      	strb	r3, [r5, #10]
E:\2017-2018\03_Graduation Project\04_Software\05_Wangshi\02_6220\06_UpdateSoftware-180714\01_UEBootloader\KL36_Bios-180714\Debug/../03_MCU/MCU_drivers/uart/uart.c:80
        UART0_C1_REG(uartch_0) = 0x00;
    4522:	70ac      	strb	r4, [r5, #2]
E:\2017-2018\03_Graduation Project\04_Software\05_Wangshi\02_6220\06_UpdateSoftware-180714\01_UEBootloader\KL36_Bios-180714\Debug/../03_MCU/MCU_drivers/uart/uart.c:81
        UART0_C3_REG(uartch_0) = 0x00;
    4524:	71ac      	strb	r4, [r5, #6]
E:\2017-2018\03_Graduation Project\04_Software\05_Wangshi\02_6220\06_UpdateSoftware-180714\01_UEBootloader\KL36_Bios-180714\Debug/../03_MCU/MCU_drivers/uart/uart.c:82
        UART0_MA1_REG(uartch_0) = 0x00;
    4526:	722c      	strb	r4, [r5, #8]
E:\2017-2018\03_Graduation Project\04_Software\05_Wangshi\02_6220\06_UpdateSoftware-180714\01_UEBootloader\KL36_Bios-180714\Debug/../03_MCU/MCU_drivers/uart/uart.c:83
        UART0_MA2_REG(uartch_0) = 0x00;
    4528:	726c      	strb	r4, [r5, #9]
E:\2017-2018\03_Graduation Project\04_Software\05_Wangshi\02_6220\06_UpdateSoftware-180714\01_UEBootloader\KL36_Bios-180714\Debug/../03_MCU/MCU_drivers/uart/uart.c:84
        UART0_S1_REG(uartch_0) |= 0x1F;
    452a:	792b      	ldrb	r3, [r5, #4]
    452c:	4313      	orrs	r3, r2
E:\2017-2018\03_Graduation Project\04_Software\05_Wangshi\02_6220\06_UpdateSoftware-180714\01_UEBootloader\KL36_Bios-180714\Debug/../03_MCU/MCU_drivers/uart/uart.c:85
        UART0_S2_REG(uartch_0) |= 0xC0;
    452e:	22c0      	movs	r2, #192	; 0xc0
E:\2017-2018\03_Graduation Project\04_Software\05_Wangshi\02_6220\06_UpdateSoftware-180714\01_UEBootloader\KL36_Bios-180714\Debug/../03_MCU/MCU_drivers/uart/uart.c:84
        UART0_S1_REG(uartch_0) |= 0x1F;
    4530:	712b      	strb	r3, [r5, #4]
E:\2017-2018\03_Graduation Project\04_Software\05_Wangshi\02_6220\06_UpdateSoftware-180714\01_UEBootloader\KL36_Bios-180714\Debug/../03_MCU/MCU_drivers/uart/uart.c:85
        UART0_S2_REG(uartch_0) |= 0xC0;
    4532:	796b      	ldrb	r3, [r5, #5]
    4534:	4313      	orrs	r3, r2
    4536:	716b      	strb	r3, [r5, #5]
E:\2017-2018\03_Graduation Project\04_Software\05_Wangshi\02_6220\06_UpdateSoftware-180714\01_UEBootloader\KL36_Bios-180714\Debug/../03_MCU/MCU_drivers/uart/uart.c:87
        UART0_C2_REG(uartch_0) &= ~UART0_C2_TIE_MASK;
    4538:	237f      	movs	r3, #127	; 0x7f
    453a:	78ea      	ldrb	r2, [r5, #3]
    453c:	4013      	ands	r3, r2
E:\2017-2018\03_Graduation Project\04_Software\05_Wangshi\02_6220\06_UpdateSoftware-180714\01_UEBootloader\KL36_Bios-180714\Debug/../03_MCU/MCU_drivers/uart/uart.c:89
        UART0_C2_REG(uartch_0) |= (UART0_C2_TE_MASK | UART0_C2_RE_MASK);
    453e:	220c      	movs	r2, #12
E:\2017-2018\03_Graduation Project\04_Software\05_Wangshi\02_6220\06_UpdateSoftware-180714\01_UEBootloader\KL36_Bios-180714\Debug/../03_MCU/MCU_drivers/uart/uart.c:87
        UART0_C2_REG(uartch_0) &= ~UART0_C2_TIE_MASK;
    4540:	70eb      	strb	r3, [r5, #3]
E:\2017-2018\03_Graduation Project\04_Software\05_Wangshi\02_6220\06_UpdateSoftware-180714\01_UEBootloader\KL36_Bios-180714\Debug/../03_MCU/MCU_drivers/uart/uart.c:89
        UART0_C2_REG(uartch_0) |= (UART0_C2_TE_MASK | UART0_C2_RE_MASK);
    4542:	78eb      	ldrb	r3, [r5, #3]
    4544:	4313      	orrs	r3, r2
    4546:	70eb      	strb	r3, [r5, #3]
    4548:	e7b4      	b.n	44b4 <uart_init+0x84>
E:\2017-2018\03_Graduation Project\04_Software\05_Wangshi\02_6220\06_UpdateSoftware-180714\01_UEBootloader\KL36_Bios-180714\Debug/../03_MCU/MCU_drivers/uart/uart.c:121
    				PORTE_PCR16 = PORT_PCR_MUX(0x3); //UART2_TXD
    454a:	641a      	str	r2, [r3, #64]	; 0x40
E:\2017-2018\03_Graduation Project\04_Software\05_Wangshi\02_6220\06_UpdateSoftware-180714\01_UEBootloader\KL36_Bios-180714\Debug/../03_MCU/MCU_drivers/uart/uart.c:122
    				PORTE_PCR17 = PORT_PCR_MUX(0x3); //UART2_RXD
    454c:	645a      	str	r2, [r3, #68]	; 0x44
E:\2017-2018\03_Graduation Project\04_Software\05_Wangshi\02_6220\06_UpdateSoftware-180714\01_UEBootloader\KL36_Bios-180714\Debug/../03_MCU/MCU_drivers/uart/uart.c:138
    			SIM_SCGC4 |= SIM_SCGC4_UART2_MASK;//2
    454e:	2380      	movs	r3, #128	; 0x80
    4550:	4905      	ldr	r1, [pc, #20]	; (4568 <uart_init+0x138>)
    4552:	4a06      	ldr	r2, [pc, #24]	; (456c <uart_init+0x13c>)
    4554:	015b      	lsls	r3, r3, #5
    4556:	588d      	ldr	r5, [r1, r2]
    4558:	432b      	orrs	r3, r5
    455a:	508b      	str	r3, [r1, r2]
E:\2017-2018\03_Graduation Project\04_Software\05_Wangshi\02_6220\06_UpdateSoftware-180714\01_UEBootloader\KL36_Bios-180714\Debug/../03_MCU/MCU_drivers/uart/uart.c:139
    			break;
    455c:	e780      	b.n	4460 <uart_init+0x30>
    455e:	46c0      	nop			; (mov r8, r8)
    4560:	1ffff928 	.word	0x1ffff928
    4564:	4004d000 	.word	0x4004d000
    4568:	40047000 	.word	0x40047000
    456c:	00001034 	.word	0x00001034
    4570:	00005cc4 	.word	0x00005cc4
    4574:	00001004 	.word	0x00001004
    4578:	fffeffff 	.word	0xfffeffff
    457c:	4006a000 	.word	0x4006a000

00004580 <uart_send1>:
uart_send1():
E:\2017-2018\03_Graduation Project\04_Software\05_Wangshi\02_6220\06_UpdateSoftware-180714\01_UEBootloader\KL36_Bios-180714\Debug/../03_MCU/MCU_drivers/uart/uart.c:175
{
    4580:	b530      	push	{r4, r5, lr}
E:\2017-2018\03_Graduation Project\04_Software\05_Wangshi\02_6220\06_UpdateSoftware-180714\01_UEBootloader\KL36_Bios-180714\Debug/../03_MCU/MCU_drivers/uart/uart.c:183
        return 0;
    4582:	2300      	movs	r3, #0
uart_is_uartNo():
E:\2017-2018\03_Graduation Project\04_Software\05_Wangshi\02_6220\06_UpdateSoftware-180714\01_UEBootloader\KL36_Bios-180714\Debug/../03_MCU/MCU_drivers/uart/uart.c:538
    if(uartNo < UART_0 || uartNo > UART_2)
    4584:	2802      	cmp	r0, #2
    4586:	d815      	bhi.n	45b4 <uart_send1+0x34>
uart_send1():
E:\2017-2018\03_Graduation Project\04_Software\05_Wangshi\02_6220\06_UpdateSoftware-180714\01_UEBootloader\KL36_Bios-180714\Debug/../03_MCU/MCU_drivers/uart/uart.c:178
    UART_MemMapPtr uartch_1_2 = UART_ARR[uartNo-1]; //UART12
    4588:	1e43      	subs	r3, r0, #1
    458a:	4a0d      	ldr	r2, [pc, #52]	; (45c0 <uart_send1+0x40>)
    458c:	009b      	lsls	r3, r3, #2
    458e:	589c      	ldr	r4, [r3, r2]
E:\2017-2018\03_Graduation Project\04_Software\05_Wangshi\02_6220\06_UpdateSoftware-180714\01_UEBootloader\KL36_Bios-180714\Debug/../03_MCU/MCU_drivers/uart/uart.c:191
            if ( UART0_S1_REG(uartch_0) & UART0_S1_TDRE_MASK )
    4590:	4d0c      	ldr	r5, [pc, #48]	; (45c4 <uart_send1+0x44>)
E:\2017-2018\03_Graduation Project\04_Software\05_Wangshi\02_6220\06_UpdateSoftware-180714\01_UEBootloader\KL36_Bios-180714\Debug/../03_MCU/MCU_drivers/uart/uart.c:178
    UART_MemMapPtr uartch_1_2 = UART_ARR[uartNo-1]; //UART12
    4592:	4b0d      	ldr	r3, [pc, #52]	; (45c8 <uart_send1+0x48>)
    4594:	e006      	b.n	45a4 <uart_send1+0x24>
E:\2017-2018\03_Graduation Project\04_Software\05_Wangshi\02_6220\06_UpdateSoftware-180714\01_UEBootloader\KL36_Bios-180714\Debug/../03_MCU/MCU_drivers/uart/uart.c:191
            if ( UART0_S1_REG(uartch_0) & UART0_S1_TDRE_MASK )
    4596:	792a      	ldrb	r2, [r5, #4]
    4598:	b252      	sxtb	r2, r2
    459a:	2a00      	cmp	r2, #0
    459c:	db0c      	blt.n	45b8 <uart_send1+0x38>
    459e:	3b01      	subs	r3, #1
E:\2017-2018\03_Graduation Project\04_Software\05_Wangshi\02_6220\06_UpdateSoftware-180714\01_UEBootloader\KL36_Bios-180714\Debug/../03_MCU/MCU_drivers/uart/uart.c:186 (discriminator 2)
    for (t = 0; t < 0xFBBB; t++)//
    45a0:	2b00      	cmp	r3, #0
    45a2:	d007      	beq.n	45b4 <uart_send1+0x34>
E:\2017-2018\03_Graduation Project\04_Software\05_Wangshi\02_6220\06_UpdateSoftware-180714\01_UEBootloader\KL36_Bios-180714\Debug/../03_MCU/MCU_drivers/uart/uart.c:188
        if(0==uartNo)     //
    45a4:	2800      	cmp	r0, #0
    45a6:	d0f6      	beq.n	4596 <uart_send1+0x16>
E:\2017-2018\03_Graduation Project\04_Software\05_Wangshi\02_6220\06_UpdateSoftware-180714\01_UEBootloader\KL36_Bios-180714\Debug/../03_MCU/MCU_drivers/uart/uart.c:200
            if (UART_S1_REG(uartch_1_2) & UART_S1_TDRE_MASK )
    45a8:	7922      	ldrb	r2, [r4, #4]
    45aa:	b252      	sxtb	r2, r2
    45ac:	2a00      	cmp	r2, #0
    45ae:	daf6      	bge.n	459e <uart_send1+0x1e>
E:\2017-2018\03_Graduation Project\04_Software\05_Wangshi\02_6220\06_UpdateSoftware-180714\01_UEBootloader\KL36_Bios-180714\Debug/../03_MCU/MCU_drivers/uart/uart.c:210
        return 1; //
    45b0:	2301      	movs	r3, #1
E:\2017-2018\03_Graduation Project\04_Software\05_Wangshi\02_6220\06_UpdateSoftware-180714\01_UEBootloader\KL36_Bios-180714\Debug/../03_MCU/MCU_drivers/uart/uart.c:202
                UART_D_REG(uartch_1_2) = ch;
    45b2:	71e1      	strb	r1, [r4, #7]
E:\2017-2018\03_Graduation Project\04_Software\05_Wangshi\02_6220\06_UpdateSoftware-180714\01_UEBootloader\KL36_Bios-180714\Debug/../03_MCU/MCU_drivers/uart/uart.c:211
}
    45b4:	0018      	movs	r0, r3
    45b6:	bd30      	pop	{r4, r5, pc}
E:\2017-2018\03_Graduation Project\04_Software\05_Wangshi\02_6220\06_UpdateSoftware-180714\01_UEBootloader\KL36_Bios-180714\Debug/../03_MCU/MCU_drivers/uart/uart.c:193
                UART0_D_REG(uartch_0) = ch;
    45b8:	71e9      	strb	r1, [r5, #7]
E:\2017-2018\03_Graduation Project\04_Software\05_Wangshi\02_6220\06_UpdateSoftware-180714\01_UEBootloader\KL36_Bios-180714\Debug/../03_MCU/MCU_drivers/uart/uart.c:210
        return 1; //
    45ba:	2301      	movs	r3, #1
E:\2017-2018\03_Graduation Project\04_Software\05_Wangshi\02_6220\06_UpdateSoftware-180714\01_UEBootloader\KL36_Bios-180714\Debug/../03_MCU/MCU_drivers/uart/uart.c:194
                break;
    45bc:	e7fa      	b.n	45b4 <uart_send1+0x34>
    45be:	46c0      	nop			; (mov r8, r8)
    45c0:	00005cc4 	.word	0x00005cc4
    45c4:	4006a000 	.word	0x4006a000
    45c8:	0000fbbb 	.word	0x0000fbbb

000045cc <uart_sendN>:
uart_sendN():
E:\2017-2018\03_Graduation Project\04_Software\05_Wangshi\02_6220\06_UpdateSoftware-180714\01_UEBootloader\KL36_Bios-180714\Debug/../03_MCU/MCU_drivers/uart/uart.c:222
{
    45cc:	b5f8      	push	{r3, r4, r5, r6, r7, lr}
    45ce:	4647      	mov	r7, r8
    45d0:	46ce      	mov	lr, r9
    45d2:	0006      	movs	r6, r0
    45d4:	b580      	push	{r7, lr}
    45d6:	4688      	mov	r8, r1
    45d8:	0017      	movs	r7, r2
E:\2017-2018\03_Graduation Project\04_Software\05_Wangshi\02_6220\06_UpdateSoftware-180714\01_UEBootloader\KL36_Bios-180714\Debug/../03_MCU/MCU_drivers/uart/uart.c:228
        return 0;
    45da:	2000      	movs	r0, #0
uart_is_uartNo():
E:\2017-2018\03_Graduation Project\04_Software\05_Wangshi\02_6220\06_UpdateSoftware-180714\01_UEBootloader\KL36_Bios-180714\Debug/../03_MCU/MCU_drivers/uart/uart.c:538
    if(uartNo < UART_0 || uartNo > UART_2)
    45dc:	2e02      	cmp	r6, #2
    45de:	d816      	bhi.n	460e <uart_sendN+0x42>
uart_sendN():
E:\2017-2018\03_Graduation Project\04_Software\05_Wangshi\02_6220\06_UpdateSoftware-180714\01_UEBootloader\KL36_Bios-180714\Debug/../03_MCU/MCU_drivers/uart/uart.c:231
    for (i = 0; i < len; i++)
    45e0:	2900      	cmp	r1, #0
    45e2:	d018      	beq.n	4616 <uart_sendN+0x4a>
    45e4:	1e4d      	subs	r5, r1, #1
    45e6:	b2ad      	uxth	r5, r5
    45e8:	3501      	adds	r5, #1
    45ea:	2400      	movs	r4, #0
    45ec:	e002      	b.n	45f4 <uart_sendN+0x28>
    45ee:	3401      	adds	r4, #1
E:\2017-2018\03_Graduation Project\04_Software\05_Wangshi\02_6220\06_UpdateSoftware-180714\01_UEBootloader\KL36_Bios-180714\Debug/../03_MCU/MCU_drivers/uart/uart.c:231 (discriminator 2)
    45f0:	42ac      	cmp	r4, r5
    45f2:	d010      	beq.n	4616 <uart_sendN+0x4a>
    45f4:	b2a3      	uxth	r3, r4
E:\2017-2018\03_Graduation Project\04_Software\05_Wangshi\02_6220\06_UpdateSoftware-180714\01_UEBootloader\KL36_Bios-180714\Debug/../03_MCU/MCU_drivers/uart/uart.c:233
        if (!uart_send1(uartNo, buff[i])) //
    45f6:	5d39      	ldrb	r1, [r7, r4]
    45f8:	0030      	movs	r0, r6
    45fa:	4699      	mov	r9, r3
    45fc:	f7ff ffc0 	bl	4580 <uart_send1>
    4600:	2800      	cmp	r0, #0
    4602:	d1f4      	bne.n	45ee <uart_sendN+0x22>
E:\2017-2018\03_Graduation Project\04_Software\05_Wangshi\02_6220\06_UpdateSoftware-180714\01_UEBootloader\KL36_Bios-180714\Debug/../03_MCU/MCU_drivers/uart/uart.c:238
    if(i<len)
    4604:	464b      	mov	r3, r9
    4606:	4642      	mov	r2, r8
    4608:	4293      	cmp	r3, r2
    460a:	4140      	adcs	r0, r0
E:\2017-2018\03_Graduation Project\04_Software\05_Wangshi\02_6220\06_UpdateSoftware-180714\01_UEBootloader\KL36_Bios-180714\Debug/../03_MCU/MCU_drivers/uart/uart.c:228
        return 0;
    460c:	b2c0      	uxtb	r0, r0
E:\2017-2018\03_Graduation Project\04_Software\05_Wangshi\02_6220\06_UpdateSoftware-180714\01_UEBootloader\KL36_Bios-180714\Debug/../03_MCU/MCU_drivers/uart/uart.c:242
}
    460e:	bc0c      	pop	{r2, r3}
    4610:	4690      	mov	r8, r2
    4612:	4699      	mov	r9, r3
    4614:	bdf8      	pop	{r3, r4, r5, r6, r7, pc}
E:\2017-2018\03_Graduation Project\04_Software\05_Wangshi\02_6220\06_UpdateSoftware-180714\01_UEBootloader\KL36_Bios-180714\Debug/../03_MCU/MCU_drivers/uart/uart.c:241
        return 1;    //
    4616:	2001      	movs	r0, #1
    4618:	e7f9      	b.n	460e <uart_sendN+0x42>
    461a:	46c0      	nop			; (mov r8, r8)

0000461c <uart_send_string>:
uart_send_string():
E:\2017-2018\03_Graduation Project\04_Software\05_Wangshi\02_6220\06_UpdateSoftware-180714\01_UEBootloader\KL36_Bios-180714\Debug/../03_MCU/MCU_drivers/uart/uart.c:252
{
    461c:	b570      	push	{r4, r5, r6, lr}
    461e:	0005      	movs	r5, r0
    4620:	000e      	movs	r6, r1
uart_is_uartNo():
E:\2017-2018\03_Graduation Project\04_Software\05_Wangshi\02_6220\06_UpdateSoftware-180714\01_UEBootloader\KL36_Bios-180714\Debug/../03_MCU/MCU_drivers/uart/uart.c:538
    if(uartNo < UART_0 || uartNo > UART_2)
    4622:	2802      	cmp	r0, #2
    4624:	d80f      	bhi.n	4646 <uart_send_string+0x2a>
uart_send_string():
E:\2017-2018\03_Graduation Project\04_Software\05_Wangshi\02_6220\06_UpdateSoftware-180714\01_UEBootloader\KL36_Bios-180714\Debug/../03_MCU/MCU_drivers/uart/uart.c:262
    for(i = 0; buff_ptr[i] != '\0'; i++)   //
    4626:	7809      	ldrb	r1, [r1, #0]
    4628:	2400      	movs	r4, #0
    462a:	2900      	cmp	r1, #0
    462c:	d106      	bne.n	463c <uart_send_string+0x20>
E:\2017-2018\03_Graduation Project\04_Software\05_Wangshi\02_6220\06_UpdateSoftware-180714\01_UEBootloader\KL36_Bios-180714\Debug/../03_MCU/MCU_drivers/uart/uart.c:267
    return 1;          //
    462e:	2001      	movs	r0, #1
    4630:	e00a      	b.n	4648 <uart_send_string+0x2c>
E:\2017-2018\03_Graduation Project\04_Software\05_Wangshi\02_6220\06_UpdateSoftware-180714\01_UEBootloader\KL36_Bios-180714\Debug/../03_MCU/MCU_drivers/uart/uart.c:262 (discriminator 2)
    for(i = 0; buff_ptr[i] != '\0'; i++)   //
    4632:	3401      	adds	r4, #1
    4634:	b2a4      	uxth	r4, r4
    4636:	5d31      	ldrb	r1, [r6, r4]
    4638:	2900      	cmp	r1, #0
    463a:	d0f8      	beq.n	462e <uart_send_string+0x12>
E:\2017-2018\03_Graduation Project\04_Software\05_Wangshi\02_6220\06_UpdateSoftware-180714\01_UEBootloader\KL36_Bios-180714\Debug/../03_MCU/MCU_drivers/uart/uart.c:264
        if (!uart_send1(uartNo,buff_ptr[i]))//
    463c:	0028      	movs	r0, r5
    463e:	f7ff ff9f 	bl	4580 <uart_send1>
    4642:	2800      	cmp	r0, #0
    4644:	d1f5      	bne.n	4632 <uart_send_string+0x16>
E:\2017-2018\03_Graduation Project\04_Software\05_Wangshi\02_6220\06_UpdateSoftware-180714\01_UEBootloader\KL36_Bios-180714\Debug/../03_MCU/MCU_drivers/uart/uart.c:259
        return 0;
    4646:	2000      	movs	r0, #0
E:\2017-2018\03_Graduation Project\04_Software\05_Wangshi\02_6220\06_UpdateSoftware-180714\01_UEBootloader\KL36_Bios-180714\Debug/../03_MCU/MCU_drivers/uart/uart.c:268
}
    4648:	bd70      	pop	{r4, r5, r6, pc}
    464a:	46c0      	nop			; (mov r8, r8)

0000464c <uart_re1>:
uart_re1():
E:\2017-2018\03_Graduation Project\04_Software\05_Wangshi\02_6220\06_UpdateSoftware-180714\01_UEBootloader\KL36_Bios-180714\Debug/../03_MCU/MCU_drivers/uart/uart.c:278
{
    464c:	b570      	push	{r4, r5, r6, lr}
uart_is_uartNo():
E:\2017-2018\03_Graduation Project\04_Software\05_Wangshi\02_6220\06_UpdateSoftware-180714\01_UEBootloader\KL36_Bios-180714\Debug/../03_MCU/MCU_drivers/uart/uart.c:538
    if(uartNo < UART_0 || uartNo > UART_2)
    464e:	2802      	cmp	r0, #2
    4650:	d817      	bhi.n	4682 <uart_re1+0x36>
uart_re1():
E:\2017-2018\03_Graduation Project\04_Software\05_Wangshi\02_6220\06_UpdateSoftware-180714\01_UEBootloader\KL36_Bios-180714\Debug/../03_MCU/MCU_drivers/uart/uart.c:282
    UART_MemMapPtr uartch_1_2 = UART_ARR[uartNo-1]; //UART12
    4652:	4a12      	ldr	r2, [pc, #72]	; (469c <uart_re1+0x50>)
    4654:	1e43      	subs	r3, r0, #1
    4656:	009b      	lsls	r3, r3, #2
    4658:	589d      	ldr	r5, [r3, r2]
E:\2017-2018\03_Graduation Project\04_Software\05_Wangshi\02_6220\06_UpdateSoftware-180714\01_UEBootloader\KL36_Bios-180714\Debug/../03_MCU/MCU_drivers/uart/uart.c:296
        if (UART0_S1_REG(uartch_0) & UART0_S1_RDRF_MASK)
    465a:	4e11      	ldr	r6, [pc, #68]	; (46a0 <uart_re1+0x54>)
E:\2017-2018\03_Graduation Project\04_Software\05_Wangshi\02_6220\06_UpdateSoftware-180714\01_UEBootloader\KL36_Bios-180714\Debug/../03_MCU/MCU_drivers/uart/uart.c:282
    UART_MemMapPtr uartch_1_2 = UART_ARR[uartNo-1]; //UART12
    465c:	4b11      	ldr	r3, [pc, #68]	; (46a4 <uart_re1+0x58>)
E:\2017-2018\03_Graduation Project\04_Software\05_Wangshi\02_6220\06_UpdateSoftware-180714\01_UEBootloader\KL36_Bios-180714\Debug/../03_MCU/MCU_drivers/uart/uart.c:306
            if(UART_S1_REG(uartch_1_2) & UART_S1_RDRF_MASK)
    465e:	2220      	movs	r2, #32
    4660:	e005      	b.n	466e <uart_re1+0x22>
E:\2017-2018\03_Graduation Project\04_Software\05_Wangshi\02_6220\06_UpdateSoftware-180714\01_UEBootloader\KL36_Bios-180714\Debug/../03_MCU/MCU_drivers/uart/uart.c:296
        if (UART0_S1_REG(uartch_0) & UART0_S1_RDRF_MASK)
    4662:	7934      	ldrb	r4, [r6, #4]
    4664:	4222      	tst	r2, r4
    4666:	d110      	bne.n	468a <uart_re1+0x3e>
    4668:	3b01      	subs	r3, #1
E:\2017-2018\03_Graduation Project\04_Software\05_Wangshi\02_6220\06_UpdateSoftware-180714\01_UEBootloader\KL36_Bios-180714\Debug/../03_MCU/MCU_drivers/uart/uart.c:291 (discriminator 2)
    for (t = 0; t < 0xFBBB; t++)//
    466a:	2b00      	cmp	r3, #0
    466c:	d012      	beq.n	4694 <uart_re1+0x48>
E:\2017-2018\03_Graduation Project\04_Software\05_Wangshi\02_6220\06_UpdateSoftware-180714\01_UEBootloader\KL36_Bios-180714\Debug/../03_MCU/MCU_drivers/uart/uart.c:293
        if(0==uartNo)  //
    466e:	2800      	cmp	r0, #0
    4670:	d0f7      	beq.n	4662 <uart_re1+0x16>
E:\2017-2018\03_Graduation Project\04_Software\05_Wangshi\02_6220\06_UpdateSoftware-180714\01_UEBootloader\KL36_Bios-180714\Debug/../03_MCU/MCU_drivers/uart/uart.c:306
            if(UART_S1_REG(uartch_1_2) & UART_S1_RDRF_MASK)
    4672:	792c      	ldrb	r4, [r5, #4]
    4674:	4222      	tst	r2, r4
    4676:	d0f7      	beq.n	4668 <uart_re1+0x1c>
E:\2017-2018\03_Graduation Project\04_Software\05_Wangshi\02_6220\06_UpdateSoftware-180714\01_UEBootloader\KL36_Bios-180714\Debug/../03_MCU/MCU_drivers/uart/uart.c:309
                *fp= 1;  //
    4678:	2301      	movs	r3, #1
E:\2017-2018\03_Graduation Project\04_Software\05_Wangshi\02_6220\06_UpdateSoftware-180714\01_UEBootloader\KL36_Bios-180714\Debug/../03_MCU/MCU_drivers/uart/uart.c:308
                dat=UART_D_REG(uartch_1_2);    //,
    467a:	79e8      	ldrb	r0, [r5, #7]
E:\2017-2018\03_Graduation Project\04_Software\05_Wangshi\02_6220\06_UpdateSoftware-180714\01_UEBootloader\KL36_Bios-180714\Debug/../03_MCU/MCU_drivers/uart/uart.c:309
                *fp= 1;  //
    467c:	700b      	strb	r3, [r1, #0]
E:\2017-2018\03_Graduation Project\04_Software\05_Wangshi\02_6220\06_UpdateSoftware-180714\01_UEBootloader\KL36_Bios-180714\Debug/../03_MCU/MCU_drivers/uart/uart.c:308
                dat=UART_D_REG(uartch_1_2);    //,
    467e:	b2c0      	uxtb	r0, r0
E:\2017-2018\03_Graduation Project\04_Software\05_Wangshi\02_6220\06_UpdateSoftware-180714\01_UEBootloader\KL36_Bios-180714\Debug/../03_MCU/MCU_drivers/uart/uart.c:320
}
    4680:	bd70      	pop	{r4, r5, r6, pc}
E:\2017-2018\03_Graduation Project\04_Software\05_Wangshi\02_6220\06_UpdateSoftware-180714\01_UEBootloader\KL36_Bios-180714\Debug/../03_MCU/MCU_drivers/uart/uart.c:287
        *fp=0;
    4682:	2300      	movs	r3, #0
E:\2017-2018\03_Graduation Project\04_Software\05_Wangshi\02_6220\06_UpdateSoftware-180714\01_UEBootloader\KL36_Bios-180714\Debug/../03_MCU/MCU_drivers/uart/uart.c:288
        return 0;
    4684:	2000      	movs	r0, #0
E:\2017-2018\03_Graduation Project\04_Software\05_Wangshi\02_6220\06_UpdateSoftware-180714\01_UEBootloader\KL36_Bios-180714\Debug/../03_MCU/MCU_drivers/uart/uart.c:287
        *fp=0;
    4686:	700b      	strb	r3, [r1, #0]
E:\2017-2018\03_Graduation Project\04_Software\05_Wangshi\02_6220\06_UpdateSoftware-180714\01_UEBootloader\KL36_Bios-180714\Debug/../03_MCU/MCU_drivers/uart/uart.c:288
        return 0;
    4688:	e7fa      	b.n	4680 <uart_re1+0x34>
E:\2017-2018\03_Graduation Project\04_Software\05_Wangshi\02_6220\06_UpdateSoftware-180714\01_UEBootloader\KL36_Bios-180714\Debug/../03_MCU/MCU_drivers/uart/uart.c:299
                *fp = 1;  //
    468a:	2301      	movs	r3, #1
E:\2017-2018\03_Graduation Project\04_Software\05_Wangshi\02_6220\06_UpdateSoftware-180714\01_UEBootloader\KL36_Bios-180714\Debug/../03_MCU/MCU_drivers/uart/uart.c:298
                dat=UART0_D_REG(uartch_0);    //,
    468c:	79f0      	ldrb	r0, [r6, #7]
E:\2017-2018\03_Graduation Project\04_Software\05_Wangshi\02_6220\06_UpdateSoftware-180714\01_UEBootloader\KL36_Bios-180714\Debug/../03_MCU/MCU_drivers/uart/uart.c:299
                *fp = 1;  //
    468e:	700b      	strb	r3, [r1, #0]
E:\2017-2018\03_Graduation Project\04_Software\05_Wangshi\02_6220\06_UpdateSoftware-180714\01_UEBootloader\KL36_Bios-180714\Debug/../03_MCU/MCU_drivers/uart/uart.c:298
                dat=UART0_D_REG(uartch_0);    //,
    4690:	b2c0      	uxtb	r0, r0
E:\2017-2018\03_Graduation Project\04_Software\05_Wangshi\02_6220\06_UpdateSoftware-180714\01_UEBootloader\KL36_Bios-180714\Debug/../03_MCU/MCU_drivers/uart/uart.c:300
                break;
    4692:	e7f5      	b.n	4680 <uart_re1+0x34>
E:\2017-2018\03_Graduation Project\04_Software\05_Wangshi\02_6220\06_UpdateSoftware-180714\01_UEBootloader\KL36_Bios-180714\Debug/../03_MCU/MCU_drivers/uart/uart.c:317
        *fp = 0;    //
    4694:	700b      	strb	r3, [r1, #0]
E:\2017-2018\03_Graduation Project\04_Software\05_Wangshi\02_6220\06_UpdateSoftware-180714\01_UEBootloader\KL36_Bios-180714\Debug/../03_MCU/MCU_drivers/uart/uart.c:316
        dat = 0xFF; 
    4696:	20ff      	movs	r0, #255	; 0xff
    4698:	e7f2      	b.n	4680 <uart_re1+0x34>
    469a:	46c0      	nop			; (mov r8, r8)
    469c:	00005cc4 	.word	0x00005cc4
    46a0:	4006a000 	.word	0x4006a000
    46a4:	0000fbbb 	.word	0x0000fbbb

000046a8 <uart_reN>:
uart_reN():
E:\2017-2018\03_Graduation Project\04_Software\05_Wangshi\02_6220\06_UpdateSoftware-180714\01_UEBootloader\KL36_Bios-180714\Debug/../03_MCU/MCU_drivers/uart/uart.c:331
{
    46a8:	0003      	movs	r3, r0
E:\2017-2018\03_Graduation Project\04_Software\05_Wangshi\02_6220\06_UpdateSoftware-180714\01_UEBootloader\KL36_Bios-180714\Debug/../03_MCU/MCU_drivers/uart/uart.c:338
        return 0;
    46aa:	2000      	movs	r0, #0
uart_is_uartNo():
E:\2017-2018\03_Graduation Project\04_Software\05_Wangshi\02_6220\06_UpdateSoftware-180714\01_UEBootloader\KL36_Bios-180714\Debug/../03_MCU/MCU_drivers/uart/uart.c:538
    if(uartNo < UART_0 || uartNo > UART_2)
    46ac:	2b02      	cmp	r3, #2
    46ae:	d802      	bhi.n	46b6 <uart_reN+0xe>
uart_reN():
E:\2017-2018\03_Graduation Project\04_Software\05_Wangshi\02_6220\06_UpdateSoftware-180714\01_UEBootloader\KL36_Bios-180714\Debug/../03_MCU/MCU_drivers/uart/uart.c:342
    for (i = 0; i < len && flag==1; i++)
    46b0:	4248      	negs	r0, r1
    46b2:	4141      	adcs	r1, r0
E:\2017-2018\03_Graduation Project\04_Software\05_Wangshi\02_6220\06_UpdateSoftware-180714\01_UEBootloader\KL36_Bios-180714\Debug/../03_MCU/MCU_drivers/uart/uart.c:338
        return 0;
    46b4:	b2c8      	uxtb	r0, r1
E:\2017-2018\03_Graduation Project\04_Software\05_Wangshi\02_6220\06_UpdateSoftware-180714\01_UEBootloader\KL36_Bios-180714\Debug/../03_MCU/MCU_drivers/uart/uart.c:350
}
    46b6:	4770      	bx	lr

000046b8 <uart_enable_re_int>:
uart_is_uartNo():
E:\2017-2018\03_Graduation Project\04_Software\05_Wangshi\02_6220\06_UpdateSoftware-180714\01_UEBootloader\KL36_Bios-180714\Debug/../03_MCU/MCU_drivers/uart/uart.c:538
    if(uartNo < UART_0 || uartNo > UART_2)
    46b8:	2802      	cmp	r0, #2
    46ba:	d811      	bhi.n	46e0 <uart_enable_re_int+0x28>
uart_enable_re_int():
E:\2017-2018\03_Graduation Project\04_Software\05_Wangshi\02_6220\06_UpdateSoftware-180714\01_UEBootloader\KL36_Bios-180714\Debug/../03_MCU/MCU_drivers/uart/uart.c:369
    if(0 == uartNo)
    46bc:	2800      	cmp	r0, #0
    46be:	d010      	beq.n	46e2 <uart_enable_re_int+0x2a>
E:\2017-2018\03_Graduation Project\04_Software\05_Wangshi\02_6220\06_UpdateSoftware-180714\01_UEBootloader\KL36_Bios-180714\Debug/../03_MCU/MCU_drivers/uart/uart.c:372
        UART_C2_REG(uartch_1_2) |= UART_C2_RIE_MASK;    //UART
    46c0:	2120      	movs	r1, #32
E:\2017-2018\03_Graduation Project\04_Software\05_Wangshi\02_6220\06_UpdateSoftware-180714\01_UEBootloader\KL36_Bios-180714\Debug/../03_MCU/MCU_drivers/uart/uart.c:361
    UART_MemMapPtr uartch_1_2 = UART_ARR[uartNo-1]; //UART12
    46c2:	1e43      	subs	r3, r0, #1
    46c4:	4a0a      	ldr	r2, [pc, #40]	; (46f0 <uart_enable_re_int+0x38>)
    46c6:	009b      	lsls	r3, r3, #2
    46c8:	589a      	ldr	r2, [r3, r2]
E:\2017-2018\03_Graduation Project\04_Software\05_Wangshi\02_6220\06_UpdateSoftware-180714\01_UEBootloader\KL36_Bios-180714\Debug/../03_MCU/MCU_drivers/uart/uart.c:372
        UART_C2_REG(uartch_1_2) |= UART_C2_RIE_MASK;    //UART
    46ca:	78d3      	ldrb	r3, [r2, #3]
    46cc:	430b      	orrs	r3, r1
    46ce:	70d3      	strb	r3, [r2, #3]
NVIC_EnableIRQ():
E:\2017-2018\03_Graduation Project\04_Software\05_Wangshi\02_6220\06_UpdateSoftware-180714\01_UEBootloader\KL36_Bios-180714\02_Core/core_cm0plus.h:685
  NVIC->ISER[0] = (uint32_t)(1UL << (((uint32_t)(int32_t)IRQn) & 0x1FUL));
    46d0:	221f      	movs	r2, #31
uart_enable_re_int():
E:\2017-2018\03_Graduation Project\04_Software\05_Wangshi\02_6220\06_UpdateSoftware-180714\01_UEBootloader\KL36_Bios-180714\Debug/../03_MCU/MCU_drivers/uart/uart.c:373
    NVIC_EnableIRQ(table_irq_uart[uartNo]);    //IRQ
    46d2:	4b08      	ldr	r3, [pc, #32]	; (46f4 <uart_enable_re_int+0x3c>)
NVIC_EnableIRQ():
E:\2017-2018\03_Graduation Project\04_Software\05_Wangshi\02_6220\06_UpdateSoftware-180714\01_UEBootloader\KL36_Bios-180714\02_Core/core_cm0plus.h:685
    46d4:	5c1b      	ldrb	r3, [r3, r0]
    46d6:	401a      	ands	r2, r3
    46d8:	2301      	movs	r3, #1
    46da:	4093      	lsls	r3, r2
    46dc:	4a06      	ldr	r2, [pc, #24]	; (46f8 <uart_enable_re_int+0x40>)
    46de:	6013      	str	r3, [r2, #0]
uart_enable_re_int():
E:\2017-2018\03_Graduation Project\04_Software\05_Wangshi\02_6220\06_UpdateSoftware-180714\01_UEBootloader\KL36_Bios-180714\Debug/../03_MCU/MCU_drivers/uart/uart.c:374
}
    46e0:	4770      	bx	lr
E:\2017-2018\03_Graduation Project\04_Software\05_Wangshi\02_6220\06_UpdateSoftware-180714\01_UEBootloader\KL36_Bios-180714\Debug/../03_MCU/MCU_drivers/uart/uart.c:370
        UART0_C2_REG(uartch_0) |= UART0_C2_RIE_MASK;    //UART
    46e2:	2120      	movs	r1, #32
    46e4:	4a05      	ldr	r2, [pc, #20]	; (46fc <uart_enable_re_int+0x44>)
    46e6:	78d3      	ldrb	r3, [r2, #3]
    46e8:	430b      	orrs	r3, r1
    46ea:	70d3      	strb	r3, [r2, #3]
    46ec:	e7f0      	b.n	46d0 <uart_enable_re_int+0x18>
    46ee:	46c0      	nop			; (mov r8, r8)
    46f0:	00005cc4 	.word	0x00005cc4
    46f4:	1ffff92c 	.word	0x1ffff92c
    46f8:	e000e100 	.word	0xe000e100
    46fc:	4006a000 	.word	0x4006a000

00004700 <uart_disable_re_int>:
uart_is_uartNo():
E:\2017-2018\03_Graduation Project\04_Software\05_Wangshi\02_6220\06_UpdateSoftware-180714\01_UEBootloader\KL36_Bios-180714\Debug/../03_MCU/MCU_drivers/uart/uart.c:538
    if(uartNo < UART_0 || uartNo > UART_2)
    4700:	2802      	cmp	r0, #2
    4702:	d812      	bhi.n	472a <uart_disable_re_int+0x2a>
uart_disable_re_int():
E:\2017-2018\03_Graduation Project\04_Software\05_Wangshi\02_6220\06_UpdateSoftware-180714\01_UEBootloader\KL36_Bios-180714\Debug/../03_MCU/MCU_drivers/uart/uart.c:393
    if(0==uartNo)
    4704:	2800      	cmp	r0, #0
    4706:	d011      	beq.n	472c <uart_disable_re_int+0x2c>
E:\2017-2018\03_Graduation Project\04_Software\05_Wangshi\02_6220\06_UpdateSoftware-180714\01_UEBootloader\KL36_Bios-180714\Debug/../03_MCU/MCU_drivers/uart/uart.c:396
        UART_C2_REG(uartch_1_2) &= ~UART_C2_RIE_MASK;    //UART
    4708:	2120      	movs	r1, #32
E:\2017-2018\03_Graduation Project\04_Software\05_Wangshi\02_6220\06_UpdateSoftware-180714\01_UEBootloader\KL36_Bios-180714\Debug/../03_MCU/MCU_drivers/uart/uart.c:385
    UART_MemMapPtr uartch_1_2 = UART_ARR[uartNo-1]; //UART12
    470a:	1e43      	subs	r3, r0, #1
    470c:	4a0a      	ldr	r2, [pc, #40]	; (4738 <uart_disable_re_int+0x38>)
    470e:	009b      	lsls	r3, r3, #2
    4710:	589a      	ldr	r2, [r3, r2]
E:\2017-2018\03_Graduation Project\04_Software\05_Wangshi\02_6220\06_UpdateSoftware-180714\01_UEBootloader\KL36_Bios-180714\Debug/../03_MCU/MCU_drivers/uart/uart.c:396
        UART_C2_REG(uartch_1_2) &= ~UART_C2_RIE_MASK;    //UART
    4712:	78d3      	ldrb	r3, [r2, #3]
    4714:	438b      	bics	r3, r1
    4716:	70d3      	strb	r3, [r2, #3]
NVIC_DisableIRQ():
E:\2017-2018\03_Graduation Project\04_Software\05_Wangshi\02_6220\06_UpdateSoftware-180714\01_UEBootloader\KL36_Bios-180714\02_Core/core_cm0plus.h:697
  NVIC->ICER[0] = (uint32_t)(1UL << (((uint32_t)(int32_t)IRQn) & 0x1FUL));
    4718:	221f      	movs	r2, #31
uart_disable_re_int():
E:\2017-2018\03_Graduation Project\04_Software\05_Wangshi\02_6220\06_UpdateSoftware-180714\01_UEBootloader\KL36_Bios-180714\Debug/../03_MCU/MCU_drivers/uart/uart.c:397
    NVIC_DisableIRQ(table_irq_uart[uartNo]);
    471a:	4b08      	ldr	r3, [pc, #32]	; (473c <uart_disable_re_int+0x3c>)
NVIC_DisableIRQ():
E:\2017-2018\03_Graduation Project\04_Software\05_Wangshi\02_6220\06_UpdateSoftware-180714\01_UEBootloader\KL36_Bios-180714\02_Core/core_cm0plus.h:697
    471c:	4908      	ldr	r1, [pc, #32]	; (4740 <uart_disable_re_int+0x40>)
    471e:	5c1b      	ldrb	r3, [r3, r0]
    4720:	401a      	ands	r2, r3
    4722:	2301      	movs	r3, #1
    4724:	4093      	lsls	r3, r2
    4726:	2280      	movs	r2, #128	; 0x80
    4728:	508b      	str	r3, [r1, r2]
uart_disable_re_int():
E:\2017-2018\03_Graduation Project\04_Software\05_Wangshi\02_6220\06_UpdateSoftware-180714\01_UEBootloader\KL36_Bios-180714\Debug/../03_MCU/MCU_drivers/uart/uart.c:398
}
    472a:	4770      	bx	lr
E:\2017-2018\03_Graduation Project\04_Software\05_Wangshi\02_6220\06_UpdateSoftware-180714\01_UEBootloader\KL36_Bios-180714\Debug/../03_MCU/MCU_drivers/uart/uart.c:394
        UART0_C2_REG(uartch_0) &= ~UART0_C2_RIE_MASK;    //UART
    472c:	2120      	movs	r1, #32
    472e:	4a05      	ldr	r2, [pc, #20]	; (4744 <uart_disable_re_int+0x44>)
    4730:	78d3      	ldrb	r3, [r2, #3]
    4732:	438b      	bics	r3, r1
    4734:	70d3      	strb	r3, [r2, #3]
    4736:	e7ef      	b.n	4718 <uart_disable_re_int+0x18>
    4738:	00005cc4 	.word	0x00005cc4
    473c:	1ffff92c 	.word	0x1ffff92c
    4740:	e000e100 	.word	0xe000e100
    4744:	4006a000 	.word	0x4006a000

00004748 <uart_get_re_int>:
uart_get_re_int():
E:\2017-2018\03_Graduation Project\04_Software\05_Wangshi\02_6220\06_UpdateSoftware-180714\01_UEBootloader\KL36_Bios-180714\Debug/../03_MCU/MCU_drivers/uart/uart.c:407
{
    4748:	0003      	movs	r3, r0
E:\2017-2018\03_Graduation Project\04_Software\05_Wangshi\02_6220\06_UpdateSoftware-180714\01_UEBootloader\KL36_Bios-180714\Debug/../03_MCU/MCU_drivers/uart/uart.c:415
        return 0;
    474a:	2000      	movs	r0, #0
uart_is_uartNo():
E:\2017-2018\03_Graduation Project\04_Software\05_Wangshi\02_6220\06_UpdateSoftware-180714\01_UEBootloader\KL36_Bios-180714\Debug/../03_MCU/MCU_drivers/uart/uart.c:538
    if(uartNo < UART_0 || uartNo > UART_2)
    474c:	2b02      	cmp	r3, #2
    474e:	d80e      	bhi.n	476e <uart_get_re_int+0x26>
uart_get_re_int():
E:\2017-2018\03_Graduation Project\04_Software\05_Wangshi\02_6220\06_UpdateSoftware-180714\01_UEBootloader\KL36_Bios-180714\Debug/../03_MCU/MCU_drivers/uart/uart.c:418
    if(0==uartNo)
    4750:	2b00      	cmp	r3, #0
    4752:	d00d      	beq.n	4770 <uart_get_re_int+0x28>
E:\2017-2018\03_Graduation Project\04_Software\05_Wangshi\02_6220\06_UpdateSoftware-180714\01_UEBootloader\KL36_Bios-180714\Debug/../03_MCU/MCU_drivers/uart/uart.c:410
    UART_MemMapPtr uartch_1_2 = UART_ARR[uartNo-1]; //UART12
    4754:	3b01      	subs	r3, #1
    4756:	4a07      	ldr	r2, [pc, #28]	; (4774 <uart_get_re_int+0x2c>)
    4758:	009b      	lsls	r3, r3, #2
    475a:	589b      	ldr	r3, [r3, r2]
E:\2017-2018\03_Graduation Project\04_Software\05_Wangshi\02_6220\06_UpdateSoftware-180714\01_UEBootloader\KL36_Bios-180714\Debug/../03_MCU/MCU_drivers/uart/uart.c:430
        UART_C2_REG(uartch_1_2) &= (~UART_C2_TIE_MASK);
    475c:	227f      	movs	r2, #127	; 0x7f
    475e:	78d9      	ldrb	r1, [r3, #3]
    4760:	400a      	ands	r2, r1
    4762:	70da      	strb	r2, [r3, #3]
E:\2017-2018\03_Graduation Project\04_Software\05_Wangshi\02_6220\06_UpdateSoftware-180714\01_UEBootloader\KL36_Bios-180714\Debug/../03_MCU/MCU_drivers/uart/uart.c:432
        flag= UART_S1_REG(uartch_1_2) & (UART_S1_RDRF_MASK);
    4764:	7918      	ldrb	r0, [r3, #4]
E:\2017-2018\03_Graduation Project\04_Software\05_Wangshi\02_6220\06_UpdateSoftware-180714\01_UEBootloader\KL36_Bios-180714\Debug/../03_MCU/MCU_drivers/uart/uart.c:434
                & BGET(UART_C2_RIE_SHIFT,UART_C2_REG(uartch_1_2)));
    4766:	78db      	ldrb	r3, [r3, #3]
    4768:	4018      	ands	r0, r3
    476a:	0680      	lsls	r0, r0, #26
    476c:	0fc0      	lsrs	r0, r0, #31
E:\2017-2018\03_Graduation Project\04_Software\05_Wangshi\02_6220\06_UpdateSoftware-180714\01_UEBootloader\KL36_Bios-180714\Debug/../03_MCU/MCU_drivers/uart/uart.c:436
}
    476e:	4770      	bx	lr
E:\2017-2018\03_Graduation Project\04_Software\05_Wangshi\02_6220\06_UpdateSoftware-180714\01_UEBootloader\KL36_Bios-180714\Debug/../03_MCU/MCU_drivers/uart/uart.c:421
        UART0_C2_REG(uartch_0) &= (~UART0_C2_TIE_MASK);
    4770:	4b01      	ldr	r3, [pc, #4]	; (4778 <uart_get_re_int+0x30>)
    4772:	e7f3      	b.n	475c <uart_get_re_int+0x14>
    4774:	00005cc4 	.word	0x00005cc4
    4778:	4006a000 	.word	0x4006a000

0000477c <uart_deint>:
uart_deint():
E:\2017-2018\03_Graduation Project\04_Software\05_Wangshi\02_6220\06_UpdateSoftware-180714\01_UEBootloader\KL36_Bios-180714\Debug/../03_MCU/MCU_drivers/uart/uart.c:449
	switch(uartNo)
    477c:	2801      	cmp	r0, #1
    477e:	d01a      	beq.n	47b6 <uart_deint+0x3a>
    4780:	2800      	cmp	r0, #0
    4782:	d00c      	beq.n	479e <uart_deint+0x22>
    4784:	2802      	cmp	r0, #2
    4786:	d109      	bne.n	479c <uart_deint+0x20>
E:\2017-2018\03_Graduation Project\04_Software\05_Wangshi\02_6220\06_UpdateSoftware-180714\01_UEBootloader\KL36_Bios-180714\Debug/../03_MCU/MCU_drivers/uart/uart.c:504
			PORTE_PCR16 = PORT_PCR_MUX(0x0); //UART2_TXD
    4788:	2200      	movs	r2, #0
    478a:	4b10      	ldr	r3, [pc, #64]	; (47cc <uart_deint+0x50>)
E:\2017-2018\03_Graduation Project\04_Software\05_Wangshi\02_6220\06_UpdateSoftware-180714\01_UEBootloader\KL36_Bios-180714\Debug/../03_MCU/MCU_drivers/uart/uart.c:521
		SIM_SCGC4 &= ~SIM_SCGC4_UART2_MASK;//2
    478c:	4910      	ldr	r1, [pc, #64]	; (47d0 <uart_deint+0x54>)
E:\2017-2018\03_Graduation Project\04_Software\05_Wangshi\02_6220\06_UpdateSoftware-180714\01_UEBootloader\KL36_Bios-180714\Debug/../03_MCU/MCU_drivers/uart/uart.c:504
			PORTE_PCR16 = PORT_PCR_MUX(0x0); //UART2_TXD
    478e:	641a      	str	r2, [r3, #64]	; 0x40
E:\2017-2018\03_Graduation Project\04_Software\05_Wangshi\02_6220\06_UpdateSoftware-180714\01_UEBootloader\KL36_Bios-180714\Debug/../03_MCU/MCU_drivers/uart/uart.c:505
			PORTE_PCR17 = PORT_PCR_MUX(0x0); //UART2_RXD
    4790:	645a      	str	r2, [r3, #68]	; 0x44
E:\2017-2018\03_Graduation Project\04_Software\05_Wangshi\02_6220\06_UpdateSoftware-180714\01_UEBootloader\KL36_Bios-180714\Debug/../03_MCU/MCU_drivers/uart/uart.c:521
		SIM_SCGC4 &= ~SIM_SCGC4_UART2_MASK;//2
    4792:	4a10      	ldr	r2, [pc, #64]	; (47d4 <uart_deint+0x58>)
    4794:	4810      	ldr	r0, [pc, #64]	; (47d8 <uart_deint+0x5c>)
    4796:	588b      	ldr	r3, [r1, r2]
    4798:	4003      	ands	r3, r0
    479a:	508b      	str	r3, [r1, r2]
E:\2017-2018\03_Graduation Project\04_Software\05_Wangshi\02_6220\06_UpdateSoftware-180714\01_UEBootloader\KL36_Bios-180714\Debug/../03_MCU/MCU_drivers/uart/uart.c:527
}
    479c:	4770      	bx	lr
E:\2017-2018\03_Graduation Project\04_Software\05_Wangshi\02_6220\06_UpdateSoftware-180714\01_UEBootloader\KL36_Bios-180714\Debug/../03_MCU/MCU_drivers/uart/uart.c:456
			PORTE_PCR20 |= PORT_PCR_MUX(0x0);    //UART0_TXD
    479e:	4b0b      	ldr	r3, [pc, #44]	; (47cc <uart_deint+0x50>)
E:\2017-2018\03_Graduation Project\04_Software\05_Wangshi\02_6220\06_UpdateSoftware-180714\01_UEBootloader\KL36_Bios-180714\Debug/../03_MCU/MCU_drivers/uart/uart.c:474
		SIM_SCGC4 &= ~SIM_SCGC4_UART0_MASK;    //0
    47a0:	490b      	ldr	r1, [pc, #44]	; (47d0 <uart_deint+0x54>)
E:\2017-2018\03_Graduation Project\04_Software\05_Wangshi\02_6220\06_UpdateSoftware-180714\01_UEBootloader\KL36_Bios-180714\Debug/../03_MCU/MCU_drivers/uart/uart.c:456
			PORTE_PCR20 |= PORT_PCR_MUX(0x0);    //UART0_TXD
    47a2:	6d1a      	ldr	r2, [r3, #80]	; 0x50
E:\2017-2018\03_Graduation Project\04_Software\05_Wangshi\02_6220\06_UpdateSoftware-180714\01_UEBootloader\KL36_Bios-180714\Debug/../03_MCU/MCU_drivers/uart/uart.c:474
		SIM_SCGC4 &= ~SIM_SCGC4_UART0_MASK;    //0
    47a4:	480d      	ldr	r0, [pc, #52]	; (47dc <uart_deint+0x60>)
E:\2017-2018\03_Graduation Project\04_Software\05_Wangshi\02_6220\06_UpdateSoftware-180714\01_UEBootloader\KL36_Bios-180714\Debug/../03_MCU/MCU_drivers/uart/uart.c:456
			PORTE_PCR20 |= PORT_PCR_MUX(0x0);    //UART0_TXD
    47a6:	651a      	str	r2, [r3, #80]	; 0x50
E:\2017-2018\03_Graduation Project\04_Software\05_Wangshi\02_6220\06_UpdateSoftware-180714\01_UEBootloader\KL36_Bios-180714\Debug/../03_MCU/MCU_drivers/uart/uart.c:457
			PORTE_PCR21 |= PORT_PCR_MUX(0x0);    //UART0_RXD
    47a8:	6d5a      	ldr	r2, [r3, #84]	; 0x54
    47aa:	655a      	str	r2, [r3, #84]	; 0x54
E:\2017-2018\03_Graduation Project\04_Software\05_Wangshi\02_6220\06_UpdateSoftware-180714\01_UEBootloader\KL36_Bios-180714\Debug/../03_MCU/MCU_drivers/uart/uart.c:474
		SIM_SCGC4 &= ~SIM_SCGC4_UART0_MASK;    //0
    47ac:	4a09      	ldr	r2, [pc, #36]	; (47d4 <uart_deint+0x58>)
    47ae:	588b      	ldr	r3, [r1, r2]
    47b0:	4003      	ands	r3, r0
    47b2:	508b      	str	r3, [r1, r2]
E:\2017-2018\03_Graduation Project\04_Software\05_Wangshi\02_6220\06_UpdateSoftware-180714\01_UEBootloader\KL36_Bios-180714\Debug/../03_MCU/MCU_drivers/uart/uart.c:476
		break;
    47b4:	e7f2      	b.n	479c <uart_deint+0x20>
E:\2017-2018\03_Graduation Project\04_Software\05_Wangshi\02_6220\06_UpdateSoftware-180714\01_UEBootloader\KL36_Bios-180714\Debug/../03_MCU/MCU_drivers/uart/uart.c:482
			PORTE_PCR0 = PORT_PCR_MUX(0x0);    //UART1_TXD
    47b6:	2200      	movs	r2, #0
    47b8:	4b04      	ldr	r3, [pc, #16]	; (47cc <uart_deint+0x50>)
E:\2017-2018\03_Graduation Project\04_Software\05_Wangshi\02_6220\06_UpdateSoftware-180714\01_UEBootloader\KL36_Bios-180714\Debug/../03_MCU/MCU_drivers/uart/uart.c:496
		SIM_SCGC4 &= ~SIM_SCGC4_UART1_MASK; //1
    47ba:	4905      	ldr	r1, [pc, #20]	; (47d0 <uart_deint+0x54>)
E:\2017-2018\03_Graduation Project\04_Software\05_Wangshi\02_6220\06_UpdateSoftware-180714\01_UEBootloader\KL36_Bios-180714\Debug/../03_MCU/MCU_drivers/uart/uart.c:482
			PORTE_PCR0 = PORT_PCR_MUX(0x0);    //UART1_TXD
    47bc:	601a      	str	r2, [r3, #0]
E:\2017-2018\03_Graduation Project\04_Software\05_Wangshi\02_6220\06_UpdateSoftware-180714\01_UEBootloader\KL36_Bios-180714\Debug/../03_MCU/MCU_drivers/uart/uart.c:483
			PORTE_PCR1 = PORT_PCR_MUX(0x0);    //UART1_RXD
    47be:	605a      	str	r2, [r3, #4]
E:\2017-2018\03_Graduation Project\04_Software\05_Wangshi\02_6220\06_UpdateSoftware-180714\01_UEBootloader\KL36_Bios-180714\Debug/../03_MCU/MCU_drivers/uart/uart.c:496
		SIM_SCGC4 &= ~SIM_SCGC4_UART1_MASK; //1
    47c0:	4a04      	ldr	r2, [pc, #16]	; (47d4 <uart_deint+0x58>)
    47c2:	4807      	ldr	r0, [pc, #28]	; (47e0 <uart_deint+0x64>)
    47c4:	588b      	ldr	r3, [r1, r2]
    47c6:	4003      	ands	r3, r0
    47c8:	508b      	str	r3, [r1, r2]
E:\2017-2018\03_Graduation Project\04_Software\05_Wangshi\02_6220\06_UpdateSoftware-180714\01_UEBootloader\KL36_Bios-180714\Debug/../03_MCU/MCU_drivers/uart/uart.c:498
		break;
    47ca:	e7e7      	b.n	479c <uart_deint+0x20>
    47cc:	4004d000 	.word	0x4004d000
    47d0:	40047000 	.word	0x40047000
    47d4:	00001034 	.word	0x00001034
    47d8:	ffffefff 	.word	0xffffefff
    47dc:	fffffbff 	.word	0xfffffbff
    47e0:	fffff7ff 	.word	0xfffff7ff

000047e4 <tsi_init>:
tsi_init():
E:\2017-2018\03_Graduation Project\04_Software\05_Wangshi\02_6220\06_UpdateSoftware-180714\01_UEBootloader\KL36_Bios-180714\Debug/../03_MCU/MCU_drivers/tsi/tsi.c:17
//TSI ,KL25TSI                                                 
//chnlIDs:8TSI0~15                                                                               
//                                                                
//=====================================================================
void tsi_init(uint_8 chnlID,uint_32 threshold)
{
    47e4:	b530      	push	{r4, r5, lr}
E:\2017-2018\03_Graduation Project\04_Software\05_Wangshi\02_6220\06_UpdateSoftware-180714\01_UEBootloader\KL36_Bios-180714\Debug/../03_MCU/MCU_drivers/tsi/tsi.c:19
    //TSI
    BSET(SIM_SCGC5_TSI_SHIFT,SIM_SCGC5);
    47e6:	2520      	movs	r5, #32
    47e8:	4a25      	ldr	r2, [pc, #148]	; (4880 <tsi_init+0x9c>)
    47ea:	4b26      	ldr	r3, [pc, #152]	; (4884 <tsi_init+0xa0>)
    47ec:	58d4      	ldr	r4, [r2, r3]
    47ee:	432c      	orrs	r4, r5
    47f0:	50d4      	str	r4, [r2, r3]
E:\2017-2018\03_Graduation Project\04_Software\05_Wangshi\02_6220\06_UpdateSoftware-180714\01_UEBootloader\KL36_Bios-180714\Debug/../03_MCU/MCU_drivers/tsi/tsi.c:20
    BSET(SIM_SCGC5_PORTA_SHIFT,SIM_SCGC5);
    47f2:	2480      	movs	r4, #128	; 0x80
    47f4:	58d5      	ldr	r5, [r2, r3]
    47f6:	00a4      	lsls	r4, r4, #2
    47f8:	432c      	orrs	r4, r5
    47fa:	50d4      	str	r4, [r2, r3]
E:\2017-2018\03_Graduation Project\04_Software\05_Wangshi\02_6220\06_UpdateSoftware-180714\01_UEBootloader\KL36_Bios-180714\Debug/../03_MCU/MCU_drivers/tsi/tsi.c:26

    //0=PTB01=PTA02=PTA13=PTA24=PTA35=PTA4
    //      6=PTB17=PTB28=PTB39=PTB1610=PTB1711=PTB18
    //      12=PTB1913=PTC014=PTC115=PTC2
    //12345TSI
    switch(chnlID)   //chnlID0~15
    47fc:	2805      	cmp	r0, #5
    47fe:	d806      	bhi.n	480e <tsi_init+0x2a>
    4800:	4a21      	ldr	r2, [pc, #132]	; (4888 <tsi_init+0xa4>)
    4802:	0083      	lsls	r3, r0, #2
    4804:	58d3      	ldr	r3, [r2, r3]
    4806:	469f      	mov	pc, r3
E:\2017-2018\03_Graduation Project\04_Software\05_Wangshi\02_6220\06_UpdateSoftware-180714\01_UEBootloader\KL36_Bios-180714\Debug/../03_MCU/MCU_drivers/tsi/tsi.c:29
    {
    case 1:
        PORTA_PCR0 = PORT_PCR_MUX(0);     //1
    4808:	2200      	movs	r2, #0
    480a:	4b20      	ldr	r3, [pc, #128]	; (488c <tsi_init+0xa8>)
    480c:	601a      	str	r2, [r3, #0]
E:\2017-2018\03_Graduation Project\04_Software\05_Wangshi\02_6220\06_UpdateSoftware-180714\01_UEBootloader\KL36_Bios-180714\Debug/../03_MCU/MCU_drivers/tsi/tsi.c:45
    case 5:
        PORTA_PCR4 = PORT_PCR_MUX(0);     //5
        break;
    }

    BSET(TSI_GENCS_TSIIEN_SHIFT,TSI0_GENCS);//TSI
    480e:	2440      	movs	r4, #64	; 0x40
    4810:	4b1f      	ldr	r3, [pc, #124]	; (4890 <tsi_init+0xac>)
E:\2017-2018\03_Graduation Project\04_Software\05_Wangshi\02_6220\06_UpdateSoftware-180714\01_UEBootloader\KL36_Bios-180714\Debug/../03_MCU/MCU_drivers/tsi/tsi.c:64
    //
    //EOSF1
    BSET(TSI_GENCS_OUTRGF_SHIFT,TSI0_GENCS);
    BSET(TSI_GENCS_EOSF_SHIFT,TSI0_GENCS);
    //
    TSI0_DATA |= (TSI_DATA_TSICH(chnlID)); 
    4812:	0700      	lsls	r0, r0, #28
E:\2017-2018\03_Graduation Project\04_Software\05_Wangshi\02_6220\06_UpdateSoftware-180714\01_UEBootloader\KL36_Bios-180714\Debug/../03_MCU/MCU_drivers/tsi/tsi.c:45
    BSET(TSI_GENCS_TSIIEN_SHIFT,TSI0_GENCS);//TSI
    4814:	681a      	ldr	r2, [r3, #0]
    4816:	4322      	orrs	r2, r4
    4818:	601a      	str	r2, [r3, #0]
E:\2017-2018\03_Graduation Project\04_Software\05_Wangshi\02_6220\06_UpdateSoftware-180714\01_UEBootloader\KL36_Bios-180714\Debug/../03_MCU/MCU_drivers/tsi/tsi.c:46
    BSET(TSI_GENCS_STPE_SHIFT,TSI0_GENCS);//TSI
    481a:	681a      	ldr	r2, [r3, #0]
    481c:	3c20      	subs	r4, #32
    481e:	4322      	orrs	r2, r4
    4820:	601a      	str	r2, [r3, #0]
E:\2017-2018\03_Graduation Project\04_Software\05_Wangshi\02_6220\06_UpdateSoftware-180714\01_UEBootloader\KL36_Bios-180714\Debug/../03_MCU/MCU_drivers/tsi/tsi.c:48
    TSI0_GENCS |= (TSI_GENCS_REFCHRG(4)
    4822:	681c      	ldr	r4, [r3, #0]
    4824:	4a1b      	ldr	r2, [pc, #108]	; (4894 <tsi_init+0xb0>)
    4826:	4322      	orrs	r2, r4
    4828:	601a      	str	r2, [r3, #0]
E:\2017-2018\03_Graduation Project\04_Software\05_Wangshi\02_6220\06_UpdateSoftware-180714\01_UEBootloader\KL36_Bios-180714\Debug/../03_MCU/MCU_drivers/tsi/tsi.c:56
    BSET(TSI_GENCS_ESOR_SHIFT,TSI0_GENCS);//
    482a:	2280      	movs	r2, #128	; 0x80
    482c:	681c      	ldr	r4, [r3, #0]
    482e:	0552      	lsls	r2, r2, #21
    4830:	4322      	orrs	r2, r4
E:\2017-2018\03_Graduation Project\04_Software\05_Wangshi\02_6220\06_UpdateSoftware-180714\01_UEBootloader\KL36_Bios-180714\Debug/../03_MCU/MCU_drivers/tsi/tsi.c:58
    BSET(TSI_GENCS_STM_SHIFT,TSI0_GENCS);
    4832:	2410      	movs	r4, #16
E:\2017-2018\03_Graduation Project\04_Software\05_Wangshi\02_6220\06_UpdateSoftware-180714\01_UEBootloader\KL36_Bios-180714\Debug/../03_MCU/MCU_drivers/tsi/tsi.c:56
    BSET(TSI_GENCS_ESOR_SHIFT,TSI0_GENCS);//
    4834:	601a      	str	r2, [r3, #0]
E:\2017-2018\03_Graduation Project\04_Software\05_Wangshi\02_6220\06_UpdateSoftware-180714\01_UEBootloader\KL36_Bios-180714\Debug/../03_MCU/MCU_drivers/tsi/tsi.c:58
    BSET(TSI_GENCS_STM_SHIFT,TSI0_GENCS);
    4836:	681a      	ldr	r2, [r3, #0]
    4838:	4322      	orrs	r2, r4
    483a:	601a      	str	r2, [r3, #0]
E:\2017-2018\03_Graduation Project\04_Software\05_Wangshi\02_6220\06_UpdateSoftware-180714\01_UEBootloader\KL36_Bios-180714\Debug/../03_MCU/MCU_drivers/tsi/tsi.c:61
    BSET(TSI_GENCS_OUTRGF_SHIFT,TSI0_GENCS);
    483c:	2280      	movs	r2, #128	; 0x80
    483e:	681c      	ldr	r4, [r3, #0]
    4840:	0612      	lsls	r2, r2, #24
    4842:	4322      	orrs	r2, r4
E:\2017-2018\03_Graduation Project\04_Software\05_Wangshi\02_6220\06_UpdateSoftware-180714\01_UEBootloader\KL36_Bios-180714\Debug/../03_MCU/MCU_drivers/tsi/tsi.c:62
    BSET(TSI_GENCS_EOSF_SHIFT,TSI0_GENCS);
    4844:	2404      	movs	r4, #4
E:\2017-2018\03_Graduation Project\04_Software\05_Wangshi\02_6220\06_UpdateSoftware-180714\01_UEBootloader\KL36_Bios-180714\Debug/../03_MCU/MCU_drivers/tsi/tsi.c:61
    BSET(TSI_GENCS_OUTRGF_SHIFT,TSI0_GENCS);
    4846:	601a      	str	r2, [r3, #0]
E:\2017-2018\03_Graduation Project\04_Software\05_Wangshi\02_6220\06_UpdateSoftware-180714\01_UEBootloader\KL36_Bios-180714\Debug/../03_MCU/MCU_drivers/tsi/tsi.c:62
    BSET(TSI_GENCS_EOSF_SHIFT,TSI0_GENCS);
    4848:	681a      	ldr	r2, [r3, #0]
    484a:	4322      	orrs	r2, r4
    484c:	601a      	str	r2, [r3, #0]
E:\2017-2018\03_Graduation Project\04_Software\05_Wangshi\02_6220\06_UpdateSoftware-180714\01_UEBootloader\KL36_Bios-180714\Debug/../03_MCU/MCU_drivers/tsi/tsi.c:64
    TSI0_DATA |= (TSI_DATA_TSICH(chnlID)); 
    484e:	685a      	ldr	r2, [r3, #4]
    4850:	4310      	orrs	r0, r2
    4852:	6058      	str	r0, [r3, #4]
E:\2017-2018\03_Graduation Project\04_Software\05_Wangshi\02_6220\06_UpdateSoftware-180714\01_UEBootloader\KL36_Bios-180714\Debug/../03_MCU/MCU_drivers/tsi/tsi.c:66
    //TSI
    BSET(TSI_GENCS_TSIEN_SHIFT,TSI0_GENCS);
    4854:	2080      	movs	r0, #128	; 0x80
    4856:	681a      	ldr	r2, [r3, #0]
    4858:	4302      	orrs	r2, r0
    485a:	601a      	str	r2, [r3, #0]
E:\2017-2018\03_Graduation Project\04_Software\05_Wangshi\02_6220\06_UpdateSoftware-180714\01_UEBootloader\KL36_Bios-180714\Debug/../03_MCU/MCU_drivers/tsi/tsi.c:68

    TSI0_TSHD = threshold;
    485c:	6099      	str	r1, [r3, #8]
E:\2017-2018\03_Graduation Project\04_Software\05_Wangshi\02_6220\06_UpdateSoftware-180714\01_UEBootloader\KL36_Bios-180714\Debug/../03_MCU/MCU_drivers/tsi/tsi.c:69
}
    485e:	bd30      	pop	{r4, r5, pc}
E:\2017-2018\03_Graduation Project\04_Software\05_Wangshi\02_6220\06_UpdateSoftware-180714\01_UEBootloader\KL36_Bios-180714\Debug/../03_MCU/MCU_drivers/tsi/tsi.c:41
        PORTA_PCR4 = PORT_PCR_MUX(0);     //5
    4860:	2200      	movs	r2, #0
    4862:	4b0a      	ldr	r3, [pc, #40]	; (488c <tsi_init+0xa8>)
    4864:	611a      	str	r2, [r3, #16]
E:\2017-2018\03_Graduation Project\04_Software\05_Wangshi\02_6220\06_UpdateSoftware-180714\01_UEBootloader\KL36_Bios-180714\Debug/../03_MCU/MCU_drivers/tsi/tsi.c:42
        break;
    4866:	e7d2      	b.n	480e <tsi_init+0x2a>
E:\2017-2018\03_Graduation Project\04_Software\05_Wangshi\02_6220\06_UpdateSoftware-180714\01_UEBootloader\KL36_Bios-180714\Debug/../03_MCU/MCU_drivers/tsi/tsi.c:32
        PORTA_PCR1 = PORT_PCR_MUX(0);     //2
    4868:	2200      	movs	r2, #0
    486a:	4b08      	ldr	r3, [pc, #32]	; (488c <tsi_init+0xa8>)
    486c:	605a      	str	r2, [r3, #4]
E:\2017-2018\03_Graduation Project\04_Software\05_Wangshi\02_6220\06_UpdateSoftware-180714\01_UEBootloader\KL36_Bios-180714\Debug/../03_MCU/MCU_drivers/tsi/tsi.c:33
        break;
    486e:	e7ce      	b.n	480e <tsi_init+0x2a>
E:\2017-2018\03_Graduation Project\04_Software\05_Wangshi\02_6220\06_UpdateSoftware-180714\01_UEBootloader\KL36_Bios-180714\Debug/../03_MCU/MCU_drivers/tsi/tsi.c:35
        PORTA_PCR2 = PORT_PCR_MUX(0);     //3
    4870:	2200      	movs	r2, #0
    4872:	4b06      	ldr	r3, [pc, #24]	; (488c <tsi_init+0xa8>)
    4874:	609a      	str	r2, [r3, #8]
E:\2017-2018\03_Graduation Project\04_Software\05_Wangshi\02_6220\06_UpdateSoftware-180714\01_UEBootloader\KL36_Bios-180714\Debug/../03_MCU/MCU_drivers/tsi/tsi.c:36
        break;
    4876:	e7ca      	b.n	480e <tsi_init+0x2a>
E:\2017-2018\03_Graduation Project\04_Software\05_Wangshi\02_6220\06_UpdateSoftware-180714\01_UEBootloader\KL36_Bios-180714\Debug/../03_MCU/MCU_drivers/tsi/tsi.c:38
        PORTA_PCR3 = PORT_PCR_MUX(0);     //4
    4878:	2200      	movs	r2, #0
    487a:	4b04      	ldr	r3, [pc, #16]	; (488c <tsi_init+0xa8>)
    487c:	60da      	str	r2, [r3, #12]
E:\2017-2018\03_Graduation Project\04_Software\05_Wangshi\02_6220\06_UpdateSoftware-180714\01_UEBootloader\KL36_Bios-180714\Debug/../03_MCU/MCU_drivers/tsi/tsi.c:39
        break;
    487e:	e7c6      	b.n	480e <tsi_init+0x2a>
    4880:	40047000 	.word	0x40047000
    4884:	00001038 	.word	0x00001038
    4888:	00005ccc 	.word	0x00005ccc
    488c:	40049000 	.word	0x40049000
    4890:	40045000 	.word	0x40045000
    4894:	00864b00 	.word	0x00864b00

00004898 <tsi_get_value16>:
tsi_get_value16():
E:\2017-2018\03_Graduation Project\04_Software\05_Wangshi\02_6220\06_UpdateSoftware-180714\01_UEBootloader\KL36_Bios-180714\Debug/../03_MCU/MCU_drivers/tsi/tsi.c:82
//=====================================================================
uint_16 tsi_get_value16(void)
{

    uint_16 value;      
    BCLR(TSI_GENCS_TSIIEN_SHIFT,TSI0_GENCS);          //TSI  
    4898:	2140      	movs	r1, #64	; 0x40
    489a:	4b10      	ldr	r3, [pc, #64]	; (48dc <tsi_get_value16+0x44>)
E:\2017-2018\03_Graduation Project\04_Software\05_Wangshi\02_6220\06_UpdateSoftware-180714\01_UEBootloader\KL36_Bios-180714\Debug/../03_MCU/MCU_drivers/tsi/tsi.c:79
{
    489c:	b510      	push	{r4, lr}
E:\2017-2018\03_Graduation Project\04_Software\05_Wangshi\02_6220\06_UpdateSoftware-180714\01_UEBootloader\KL36_Bios-180714\Debug/../03_MCU/MCU_drivers/tsi/tsi.c:82
    BCLR(TSI_GENCS_TSIIEN_SHIFT,TSI0_GENCS);          //TSI  
    489e:	681a      	ldr	r2, [r3, #0]
    48a0:	438a      	bics	r2, r1
    48a2:	601a      	str	r2, [r3, #0]
E:\2017-2018\03_Graduation Project\04_Software\05_Wangshi\02_6220\06_UpdateSoftware-180714\01_UEBootloader\KL36_Bios-180714\Debug/../03_MCU/MCU_drivers/tsi/tsi.c:83
    BSET(TSI_DATA_SWTS_SHIFT,TSI0_DATA);
    48a4:	2280      	movs	r2, #128	; 0x80
    48a6:	6859      	ldr	r1, [r3, #4]
    48a8:	03d2      	lsls	r2, r2, #15
    48aa:	430a      	orrs	r2, r1
E:\2017-2018\03_Graduation Project\04_Software\05_Wangshi\02_6220\06_UpdateSoftware-180714\01_UEBootloader\KL36_Bios-180714\Debug/../03_MCU/MCU_drivers/tsi/tsi.c:85
    //TSI0_DATA |= TSI_DATA_SWTS_MASK;                  //  
    while(!(TSI0_GENCS & TSI_GENCS_EOSF_MASK));       //   
    48ac:	2104      	movs	r1, #4
E:\2017-2018\03_Graduation Project\04_Software\05_Wangshi\02_6220\06_UpdateSoftware-180714\01_UEBootloader\KL36_Bios-180714\Debug/../03_MCU/MCU_drivers/tsi/tsi.c:83
    BSET(TSI_DATA_SWTS_SHIFT,TSI0_DATA);
    48ae:	605a      	str	r2, [r3, #4]
E:\2017-2018\03_Graduation Project\04_Software\05_Wangshi\02_6220\06_UpdateSoftware-180714\01_UEBootloader\KL36_Bios-180714\Debug/../03_MCU/MCU_drivers/tsi/tsi.c:85 (discriminator 1)
    while(!(TSI0_GENCS & TSI_GENCS_EOSF_MASK));       //   
    48b0:	681a      	ldr	r2, [r3, #0]
    48b2:	4211      	tst	r1, r2
    48b4:	d0fc      	beq.n	48b0 <tsi_get_value16+0x18>
E:\2017-2018\03_Graduation Project\04_Software\05_Wangshi\02_6220\06_UpdateSoftware-180714\01_UEBootloader\KL36_Bios-180714\Debug/../03_MCU/MCU_drivers/tsi/tsi.c:86
    BSET(TSI_GENCS_EOSF_SHIFT,TSI0_GENCS);            //10
    48b6:	681a      	ldr	r2, [r3, #0]
    48b8:	430a      	orrs	r2, r1
    48ba:	601a      	str	r2, [r3, #0]
E:\2017-2018\03_Graduation Project\04_Software\05_Wangshi\02_6220\06_UpdateSoftware-180714\01_UEBootloader\KL36_Bios-180714\Debug/../03_MCU/MCU_drivers/tsi/tsi.c:89
    //TSI0_GENCS |= TSI_GENCS_EOSF_MASK;                //10
    value =  (TSI0_DATA & TSI_DATA_TSICNT_MASK);      //
    BSET(TSI_GENCS_OUTRGF_SHIFT,TSI0_GENCS);          //10
    48bc:	2280      	movs	r2, #128	; 0x80
E:\2017-2018\03_Graduation Project\04_Software\05_Wangshi\02_6220\06_UpdateSoftware-180714\01_UEBootloader\KL36_Bios-180714\Debug/../03_MCU/MCU_drivers/tsi/tsi.c:88
    value =  (TSI0_DATA & TSI_DATA_TSICNT_MASK);      //
    48be:	6858      	ldr	r0, [r3, #4]
E:\2017-2018\03_Graduation Project\04_Software\05_Wangshi\02_6220\06_UpdateSoftware-180714\01_UEBootloader\KL36_Bios-180714\Debug/../03_MCU/MCU_drivers/tsi/tsi.c:89
    BSET(TSI_GENCS_OUTRGF_SHIFT,TSI0_GENCS);          //10
    48c0:	681c      	ldr	r4, [r3, #0]
    48c2:	0612      	lsls	r2, r2, #24
    48c4:	4322      	orrs	r2, r4
    48c6:	601a      	str	r2, [r3, #0]
E:\2017-2018\03_Graduation Project\04_Software\05_Wangshi\02_6220\06_UpdateSoftware-180714\01_UEBootloader\KL36_Bios-180714\Debug/../03_MCU/MCU_drivers/tsi/tsi.c:91
    //TSI0_GENCS |= TSI_GENCS_OUTRGF_MASK;              //10
    BSET(TSI_GENCS_EOSF_SHIFT,TSI0_GENCS);               //
    48c8:	681a      	ldr	r2, [r3, #0]
E:\2017-2018\03_Graduation Project\04_Software\05_Wangshi\02_6220\06_UpdateSoftware-180714\01_UEBootloader\KL36_Bios-180714\Debug/../03_MCU/MCU_drivers/tsi/tsi.c:94
    //TSI0_GENCS |= TSI_GENCS_EOSF_MASK;                //    
    BSET(TSI_GENCS_TSIIEN_SHIFT,TSI0_GENCS);          //TSI   
    return value; 
    48ca:	b280      	uxth	r0, r0
E:\2017-2018\03_Graduation Project\04_Software\05_Wangshi\02_6220\06_UpdateSoftware-180714\01_UEBootloader\KL36_Bios-180714\Debug/../03_MCU/MCU_drivers/tsi/tsi.c:91
    BSET(TSI_GENCS_EOSF_SHIFT,TSI0_GENCS);               //
    48cc:	4311      	orrs	r1, r2
    48ce:	6019      	str	r1, [r3, #0]
E:\2017-2018\03_Graduation Project\04_Software\05_Wangshi\02_6220\06_UpdateSoftware-180714\01_UEBootloader\KL36_Bios-180714\Debug/../03_MCU/MCU_drivers/tsi/tsi.c:93
    BSET(TSI_GENCS_TSIIEN_SHIFT,TSI0_GENCS);          //TSI   
    48d0:	2140      	movs	r1, #64	; 0x40
    48d2:	681a      	ldr	r2, [r3, #0]
    48d4:	430a      	orrs	r2, r1
    48d6:	601a      	str	r2, [r3, #0]
E:\2017-2018\03_Graduation Project\04_Software\05_Wangshi\02_6220\06_UpdateSoftware-180714\01_UEBootloader\KL36_Bios-180714\Debug/../03_MCU/MCU_drivers/tsi/tsi.c:95
}
    48d8:	bd10      	pop	{r4, pc}
    48da:	46c0      	nop			; (mov r8, r8)
    48dc:	40045000 	.word	0x40045000

000048e0 <tsi_set_threshold>:
tsi_set_threshold():
E:\2017-2018\03_Graduation Project\04_Software\05_Wangshi\02_6220\06_UpdateSoftware-180714\01_UEBootloader\KL36_Bios-180714\Debug/../03_MCU/MCU_drivers/tsi/tsi.c:110
void tsi_set_threshold(uint_16 low, uint_16 high)
{
    uint_32 thresholdValue;
    //1616
    thresholdValue = high;
    thresholdValue = (thresholdValue<<16)|low;
    48e0:	0409      	lsls	r1, r1, #16
E:\2017-2018\03_Graduation Project\04_Software\05_Wangshi\02_6220\06_UpdateSoftware-180714\01_UEBootloader\KL36_Bios-180714\Debug/../03_MCU/MCU_drivers/tsi/tsi.c:111
    TSI0_TSHD = thresholdValue;
    48e2:	4b02      	ldr	r3, [pc, #8]	; (48ec <tsi_set_threshold+0xc>)
E:\2017-2018\03_Graduation Project\04_Software\05_Wangshi\02_6220\06_UpdateSoftware-180714\01_UEBootloader\KL36_Bios-180714\Debug/../03_MCU/MCU_drivers/tsi/tsi.c:110
    thresholdValue = (thresholdValue<<16)|low;
    48e4:	4308      	orrs	r0, r1
E:\2017-2018\03_Graduation Project\04_Software\05_Wangshi\02_6220\06_UpdateSoftware-180714\01_UEBootloader\KL36_Bios-180714\Debug/../03_MCU/MCU_drivers/tsi/tsi.c:111
    TSI0_TSHD = thresholdValue;
    48e6:	6098      	str	r0, [r3, #8]
E:\2017-2018\03_Graduation Project\04_Software\05_Wangshi\02_6220\06_UpdateSoftware-180714\01_UEBootloader\KL36_Bios-180714\Debug/../03_MCU/MCU_drivers/tsi/tsi.c:112
}
    48e8:	4770      	bx	lr
    48ea:	46c0      	nop			; (mov r8, r8)
    48ec:	40045000 	.word	0x40045000

000048f0 <tsi_enable_re_int>:
tsi_enable_re_int():
E:\2017-2018\03_Graduation Project\04_Software\05_Wangshi\02_6220\06_UpdateSoftware-180714\01_UEBootloader\KL36_Bios-180714\Debug/../03_MCU/MCU_drivers/tsi/tsi.c:124
//
//=====================================================================
void tsi_enable_re_int(void)
{
    //TSI,
    BSET(TSI_GENCS_TSIIEN_SHIFT,TSI0_GENCS);
    48f0:	2140      	movs	r1, #64	; 0x40
    48f2:	4b06      	ldr	r3, [pc, #24]	; (490c <tsi_enable_re_int+0x1c>)
E:\2017-2018\03_Graduation Project\04_Software\05_Wangshi\02_6220\06_UpdateSoftware-180714\01_UEBootloader\KL36_Bios-180714\Debug/../03_MCU/MCU_drivers/tsi/tsi.c:122
{
    48f4:	b510      	push	{r4, lr}
E:\2017-2018\03_Graduation Project\04_Software\05_Wangshi\02_6220\06_UpdateSoftware-180714\01_UEBootloader\KL36_Bios-180714\Debug/../03_MCU/MCU_drivers/tsi/tsi.c:124
    BSET(TSI_GENCS_TSIIEN_SHIFT,TSI0_GENCS);
    48f6:	681a      	ldr	r2, [r3, #0]
E:\2017-2018\03_Graduation Project\04_Software\05_Wangshi\02_6220\06_UpdateSoftware-180714\01_UEBootloader\KL36_Bios-180714\Debug/../03_MCU/MCU_drivers/tsi/tsi.c:126
    BSET(TSI_GENCS_STM_SHIFT,TSI0_GENCS);
    enable_irq((IRQn_Type)26); //IRQ  
    48f8:	201a      	movs	r0, #26
E:\2017-2018\03_Graduation Project\04_Software\05_Wangshi\02_6220\06_UpdateSoftware-180714\01_UEBootloader\KL36_Bios-180714\Debug/../03_MCU/MCU_drivers/tsi/tsi.c:124
    BSET(TSI_GENCS_TSIIEN_SHIFT,TSI0_GENCS);
    48fa:	430a      	orrs	r2, r1
    48fc:	601a      	str	r2, [r3, #0]
E:\2017-2018\03_Graduation Project\04_Software\05_Wangshi\02_6220\06_UpdateSoftware-180714\01_UEBootloader\KL36_Bios-180714\Debug/../03_MCU/MCU_drivers/tsi/tsi.c:125
    BSET(TSI_GENCS_STM_SHIFT,TSI0_GENCS);
    48fe:	681a      	ldr	r2, [r3, #0]
    4900:	3930      	subs	r1, #48	; 0x30
    4902:	430a      	orrs	r2, r1
    4904:	601a      	str	r2, [r3, #0]
E:\2017-2018\03_Graduation Project\04_Software\05_Wangshi\02_6220\06_UpdateSoftware-180714\01_UEBootloader\KL36_Bios-180714\Debug/../03_MCU/MCU_drivers/tsi/tsi.c:126
    enable_irq((IRQn_Type)26); //IRQ  
    4906:	f7fe f9c1 	bl	2c8c <enable_irq>
E:\2017-2018\03_Graduation Project\04_Software\05_Wangshi\02_6220\06_UpdateSoftware-180714\01_UEBootloader\KL36_Bios-180714\Debug/../03_MCU/MCU_drivers/tsi/tsi.c:127
}
    490a:	bd10      	pop	{r4, pc}
    490c:	40045000 	.word	0x40045000

00004910 <tsi_disable_re_int>:
tsi_disable_re_int():
E:\2017-2018\03_Graduation Project\04_Software\05_Wangshi\02_6220\06_UpdateSoftware-180714\01_UEBootloader\KL36_Bios-180714\Debug/../03_MCU/MCU_drivers/tsi/tsi.c:138
//TSI,,IRQ
//=====================================================================
void tsi_disable_re_int(void)
{
    //TSI,
    BCLR(TSI_GENCS_TSIIEN_SHIFT,TSI0_GENCS);
    4910:	2140      	movs	r1, #64	; 0x40
    4912:	4b06      	ldr	r3, [pc, #24]	; (492c <tsi_disable_re_int+0x1c>)
E:\2017-2018\03_Graduation Project\04_Software\05_Wangshi\02_6220\06_UpdateSoftware-180714\01_UEBootloader\KL36_Bios-180714\Debug/../03_MCU/MCU_drivers/tsi/tsi.c:136
{
    4914:	b510      	push	{r4, lr}
E:\2017-2018\03_Graduation Project\04_Software\05_Wangshi\02_6220\06_UpdateSoftware-180714\01_UEBootloader\KL36_Bios-180714\Debug/../03_MCU/MCU_drivers/tsi/tsi.c:138
    BCLR(TSI_GENCS_TSIIEN_SHIFT,TSI0_GENCS);
    4916:	681a      	ldr	r2, [r3, #0]
E:\2017-2018\03_Graduation Project\04_Software\05_Wangshi\02_6220\06_UpdateSoftware-180714\01_UEBootloader\KL36_Bios-180714\Debug/../03_MCU/MCU_drivers/tsi/tsi.c:141
    BCLR(TSI_GENCS_STM_SHIFT,TSI0_GENCS);
    //IRQ
    disable_irq((IRQn_Type)26);          
    4918:	201a      	movs	r0, #26
E:\2017-2018\03_Graduation Project\04_Software\05_Wangshi\02_6220\06_UpdateSoftware-180714\01_UEBootloader\KL36_Bios-180714\Debug/../03_MCU/MCU_drivers/tsi/tsi.c:138
    BCLR(TSI_GENCS_TSIIEN_SHIFT,TSI0_GENCS);
    491a:	438a      	bics	r2, r1
    491c:	601a      	str	r2, [r3, #0]
E:\2017-2018\03_Graduation Project\04_Software\05_Wangshi\02_6220\06_UpdateSoftware-180714\01_UEBootloader\KL36_Bios-180714\Debug/../03_MCU/MCU_drivers/tsi/tsi.c:139
    BCLR(TSI_GENCS_STM_SHIFT,TSI0_GENCS);
    491e:	681a      	ldr	r2, [r3, #0]
    4920:	3930      	subs	r1, #48	; 0x30
    4922:	438a      	bics	r2, r1
    4924:	601a      	str	r2, [r3, #0]
E:\2017-2018\03_Graduation Project\04_Software\05_Wangshi\02_6220\06_UpdateSoftware-180714\01_UEBootloader\KL36_Bios-180714\Debug/../03_MCU/MCU_drivers/tsi/tsi.c:141
    disable_irq((IRQn_Type)26);          
    4926:	f7fe f9bf 	bl	2ca8 <disable_irq>
E:\2017-2018\03_Graduation Project\04_Software\05_Wangshi\02_6220\06_UpdateSoftware-180714\01_UEBootloader\KL36_Bios-180714\Debug/../03_MCU/MCU_drivers/tsi/tsi.c:142
}
    492a:	bd10      	pop	{r4, pc}
    492c:	40045000 	.word	0x40045000

00004930 <tsi_softsearch>:
tsi_softsearch():
E:\2017-2018\03_Graduation Project\04_Software\05_Wangshi\02_6220\06_UpdateSoftware-180714\01_UEBootloader\KL36_Bios-180714\Debug/../03_MCU/MCU_drivers/tsi/tsi.c:152
//
//
//=====================================================================
void tsi_softsearch(void)
{
    BCLR(TSI_GENCS_STM_SHIFT,TSI0_GENCS);
    4930:	2110      	movs	r1, #16
    4932:	4b05      	ldr	r3, [pc, #20]	; (4948 <tsi_softsearch+0x18>)
    4934:	681a      	ldr	r2, [r3, #0]
    4936:	438a      	bics	r2, r1
    4938:	601a      	str	r2, [r3, #0]
E:\2017-2018\03_Graduation Project\04_Software\05_Wangshi\02_6220\06_UpdateSoftware-180714\01_UEBootloader\KL36_Bios-180714\Debug/../03_MCU/MCU_drivers/tsi/tsi.c:154
    //TSI0_GENCS &= ~TSI_GENCS_STM_MASK;    //
    BSET(TSI_DATA_SWTS_SHIFT,TSI0_DATA);
    493a:	2280      	movs	r2, #128	; 0x80
    493c:	6859      	ldr	r1, [r3, #4]
    493e:	03d2      	lsls	r2, r2, #15
    4940:	430a      	orrs	r2, r1
    4942:	605a      	str	r2, [r3, #4]
E:\2017-2018\03_Graduation Project\04_Software\05_Wangshi\02_6220\06_UpdateSoftware-180714\01_UEBootloader\KL36_Bios-180714\Debug/../03_MCU/MCU_drivers/tsi/tsi.c:156
    //TSI0_DATA |= TSI_DATA_SWTS_MASK;     //
}
    4944:	4770      	bx	lr
    4946:	46c0      	nop			; (mov r8, r8)
    4948:	40045000 	.word	0x40045000

0000494c <systick_init>:
systick_init():
E:\2017-2018\03_Graduation Project\04_Software\05_Wangshi\02_6220\06_UpdateSoftware-180714\01_UEBootloader\KL36_Bios-180714\Debug/../03_MCU/MCU_drivers/systick/systick.c:25
//241
//1ms~349ms;1ms~5592ms16
//===========================================================================
void systick_init(uint_8 clk_src_sel, uint_16 int_ms)
{
    SysTick->CTRL = 0;   //systick
    494c:	2300      	movs	r3, #0
E:\2017-2018\03_Graduation Project\04_Software\05_Wangshi\02_6220\06_UpdateSoftware-180714\01_UEBootloader\KL36_Bios-180714\Debug/../03_MCU/MCU_drivers/systick/systick.c:24
{
    494e:	b570      	push	{r4, r5, r6, lr}
    4950:	000c      	movs	r4, r1
    4952:	21fa      	movs	r1, #250	; 0xfa
E:\2017-2018\03_Graduation Project\04_Software\05_Wangshi\02_6220\06_UpdateSoftware-180714\01_UEBootloader\KL36_Bios-180714\Debug/../03_MCU/MCU_drivers/systick/systick.c:25
    SysTick->CTRL = 0;   //systick
    4954:	4d0f      	ldr	r5, [pc, #60]	; (4994 <systick_init+0x48>)
E:\2017-2018\03_Graduation Project\04_Software\05_Wangshi\02_6220\06_UpdateSoftware-180714\01_UEBootloader\KL36_Bios-180714\Debug/../03_MCU/MCU_drivers/systick/systick.c:24
{
    4956:	0006      	movs	r6, r0
E:\2017-2018\03_Graduation Project\04_Software\05_Wangshi\02_6220\06_UpdateSoftware-180714\01_UEBootloader\KL36_Bios-180714\Debug/../03_MCU/MCU_drivers/systick/systick.c:25
    SysTick->CTRL = 0;   //systick
    4958:	602b      	str	r3, [r5, #0]
E:\2017-2018\03_Graduation Project\04_Software\05_Wangshi\02_6220\06_UpdateSoftware-180714\01_UEBootloader\KL36_Bios-180714\Debug/../03_MCU/MCU_drivers/systick/systick.c:26
    SysTick->VAL  = 0;   //
    495a:	60ab      	str	r3, [r5, #8]
    495c:	4b0e      	ldr	r3, [pc, #56]	; (4998 <systick_init+0x4c>)
    495e:	0089      	lsls	r1, r1, #2
    4960:	6818      	ldr	r0, [r3, #0]
    4962:	f7fb fddb 	bl	51c <__udivsi3>
    4966:	4344      	muls	r4, r0
E:\2017-2018\03_Graduation Project\04_Software\05_Wangshi\02_6220\06_UpdateSoftware-180714\01_UEBootloader\KL36_Bios-180714\Debug/../03_MCU/MCU_drivers/systick/systick.c:29

    //
    if(0==clk_src_sel)              //0:/16
    4968:	2e00      	cmp	r6, #0
    496a:	d010      	beq.n	498e <systick_init+0x42>
E:\2017-2018\03_Graduation Project\04_Software\05_Wangshi\02_6220\06_UpdateSoftware-180714\01_UEBootloader\KL36_Bios-180714\Debug/../03_MCU/MCU_drivers/systick/systick.c:44
        if((int_ms<1)&&(int_ms>349))
        {
            int_ms = 10;
        }
        SysTick->LOAD = SYSTEM_CLK_KHZ*int_ms;
        SysTick->CTRL = (SysTick_CTRL_CLKSOURCE_Msk);
    496c:	2304      	movs	r3, #4
E:\2017-2018\03_Graduation Project\04_Software\05_Wangshi\02_6220\06_UpdateSoftware-180714\01_UEBootloader\KL36_Bios-180714\Debug/../03_MCU/MCU_drivers/systick/systick.c:43
        SysTick->LOAD = SYSTEM_CLK_KHZ*int_ms;
    496e:	606c      	str	r4, [r5, #4]
E:\2017-2018\03_Graduation Project\04_Software\05_Wangshi\02_6220\06_UpdateSoftware-180714\01_UEBootloader\KL36_Bios-180714\Debug/../03_MCU/MCU_drivers/systick/systick.c:44
        SysTick->CTRL = (SysTick_CTRL_CLKSOURCE_Msk);
    4970:	602b      	str	r3, [r5, #0]
NVIC_SetPriority():
E:\2017-2018\03_Graduation Project\04_Software\05_Wangshi\02_6220\06_UpdateSoftware-180714\01_UEBootloader\KL36_Bios-180714\02_Core/core_cm0plus.h:753
    SCB->SHP[_SHP_IDX(IRQn)] = ((uint32_t)(SCB->SHP[_SHP_IDX(IRQn)] & ~(0xFFUL << _BIT_SHIFT(IRQn))) |
    4972:	22c0      	movs	r2, #192	; 0xc0
    4974:	4909      	ldr	r1, [pc, #36]	; (499c <systick_init+0x50>)
    4976:	0612      	lsls	r2, r2, #24
    4978:	6a0b      	ldr	r3, [r1, #32]
    497a:	021b      	lsls	r3, r3, #8
    497c:	0a1b      	lsrs	r3, r3, #8
    497e:	4313      	orrs	r3, r2
    4980:	620b      	str	r3, [r1, #32]
systick_init():
E:\2017-2018\03_Graduation Project\04_Software\05_Wangshi\02_6220\06_UpdateSoftware-180714\01_UEBootloader\KL36_Bios-180714\Debug/../03_MCU/MCU_drivers/systick/systick.c:49
    }
    // SysTick3(SHPR3=0xC0)
    NVIC_SetPriority (SysTick_IRQn, (1UL << __NVIC_PRIO_BITS) - 1UL);
    //,,,
    SysTick->CTRL |= ( SysTick_CTRL_ENABLE_Msk|SysTick_CTRL_TICKINT_Msk );
    4982:	2103      	movs	r1, #3
    4984:	4a03      	ldr	r2, [pc, #12]	; (4994 <systick_init+0x48>)
    4986:	6813      	ldr	r3, [r2, #0]
    4988:	430b      	orrs	r3, r1
    498a:	6013      	str	r3, [r2, #0]
E:\2017-2018\03_Graduation Project\04_Software\05_Wangshi\02_6220\06_UpdateSoftware-180714\01_UEBootloader\KL36_Bios-180714\Debug/../03_MCU/MCU_drivers/systick/systick.c:50
}
    498c:	bd70      	pop	{r4, r5, r6, pc}
E:\2017-2018\03_Graduation Project\04_Software\05_Wangshi\02_6220\06_UpdateSoftware-180714\01_UEBootloader\KL36_Bios-180714\Debug/../03_MCU/MCU_drivers/systick/systick.c:35
        SysTick->LOAD = SYSTEM_CLK_KHZ*int_ms/16;
    498e:	0924      	lsrs	r4, r4, #4
    4990:	606c      	str	r4, [r5, #4]
    4992:	e7ee      	b.n	4972 <systick_init+0x26>
    4994:	e000e010 	.word	0xe000e010
    4998:	1ffff928 	.word	0x1ffff928
    499c:	e000ed00 	.word	0xe000ed00

000049a0 <SPI_init>:
SPI_init():
E:\2017-2018\03_Graduation Project\04_Software\05_Wangshi\02_6220\06_UpdateSoftware-180714\01_UEBootloader\KL36_Bios-180714\Debug/../03_MCU/MCU_drivers/spi/spi.c:21
//       CPHACPHA=00 CPHA=11
//
//=====================================================================
void SPI_init(uint_8 No,uint_8 MSTR,uint_16 BaudRate,\
		uint_8 CPOL,uint_8 CPHA)
{
    49a0:	b5f8      	push	{r3, r4, r5, r6, r7, lr}
    49a2:	ac06      	add	r4, sp, #24
    49a4:	7826      	ldrb	r6, [r4, #0]
E:\2017-2018\03_Graduation Project\04_Software\05_Wangshi\02_6220\06_UpdateSoftware-180714\01_UEBootloader\KL36_Bios-180714\Debug/../03_MCU/MCU_drivers/spi/spi.c:28
    uint_8 BaudRate_High;
    uint_8 BaudRate_Low;
    if(No<0||No>1)   No=0;    //SPI 0
    if(No==0)                 //SPI0
    {
        BSET(SIM_SCGC4_SPI0_SHIFT,SIM_SCGC4);   //SPI0
    49a6:	4d5c      	ldr	r5, [pc, #368]	; (4b18 <SPI_init+0x178>)
    49a8:	4c5c      	ldr	r4, [pc, #368]	; (4b1c <SPI_init+0x17c>)
    49aa:	592f      	ldr	r7, [r5, r4]
E:\2017-2018\03_Graduation Project\04_Software\05_Wangshi\02_6220\06_UpdateSoftware-180714\01_UEBootloader\KL36_Bios-180714\Debug/../03_MCU/MCU_drivers/spi/spi.c:26
    if(No==0)                 //SPI0
    49ac:	2801      	cmp	r0, #1
    49ae:	d14f      	bne.n	4a50 <SPI_init+0xb0>
E:\2017-2018\03_Graduation Project\04_Software\05_Wangshi\02_6220\06_UpdateSoftware-180714\01_UEBootloader\KL36_Bios-180714\Debug/../03_MCU/MCU_drivers/spi/spi.c:97
        SPI0_BR|=BaudRate_Low;//SPI0_BRSPR D2D1D0

    }
     else         //SPI1
    {
        BSET(SIM_SCGC4_SPI1_SHIFT,SIM_SCGC4);   //SPI1
    49b0:	2080      	movs	r0, #128	; 0x80
    49b2:	0400      	lsls	r0, r0, #16
    49b4:	4338      	orrs	r0, r7
    49b6:	5128      	str	r0, [r5, r4]
E:\2017-2018\03_Graduation Project\04_Software\05_Wangshi\02_6220\06_UpdateSoftware-180714\01_UEBootloader\KL36_Bios-180714\Debug/../03_MCU/MCU_drivers/spi/spi.c:114
        PORTB_PCR16=(0|PORT_PCR_MUX(0x02));        //PTB16MOSI
        PORTB_PCR17=(0|PORT_PCR_MUX(0x02));        //PTB17MIOS
        #endif

        #if (SPI_1_GROUP == 3)
        PORTD_PCR4=(0|PORT_PCR_MUX(0x02));        //PTD4SS
    49b8:	2480      	movs	r4, #128	; 0x80
    49ba:	4859      	ldr	r0, [pc, #356]	; (4b20 <SPI_init+0x180>)
    49bc:	00a4      	lsls	r4, r4, #2
    49be:	6104      	str	r4, [r0, #16]
E:\2017-2018\03_Graduation Project\04_Software\05_Wangshi\02_6220\06_UpdateSoftware-180714\01_UEBootloader\KL36_Bios-180714\Debug/../03_MCU/MCU_drivers/spi/spi.c:115
        PORTD_PCR5=(0|PORT_PCR_MUX(0x02));        //PTD5SCK
    49c0:	6144      	str	r4, [r0, #20]
E:\2017-2018\03_Graduation Project\04_Software\05_Wangshi\02_6220\06_UpdateSoftware-180714\01_UEBootloader\KL36_Bios-180714\Debug/../03_MCU/MCU_drivers/spi/spi.c:116
        PORTD_PCR6=(0|PORT_PCR_MUX(0x02));        //PTD6MOSI
    49c2:	6184      	str	r4, [r0, #24]
E:\2017-2018\03_Graduation Project\04_Software\05_Wangshi\02_6220\06_UpdateSoftware-180714\01_UEBootloader\KL36_Bios-180714\Debug/../03_MCU/MCU_drivers/spi/spi.c:117
        PORTD_PCR7=(0|PORT_PCR_MUX(0x02));        //PTD7MIOS
    49c4:	61c4      	str	r4, [r0, #28]
E:\2017-2018\03_Graduation Project\04_Software\05_Wangshi\02_6220\06_UpdateSoftware-180714\01_UEBootloader\KL36_Bios-180714\Debug/../03_MCU/MCU_drivers/spi/spi.c:120
        #endif

        SPI1_C1=0x00;                     //SPI1
    49c6:	2400      	movs	r4, #0
E:\2017-2018\03_Graduation Project\04_Software\05_Wangshi\02_6220\06_UpdateSoftware-180714\01_UEBootloader\KL36_Bios-180714\Debug/../03_MCU/MCU_drivers/spi/spi.c:121
        BSET(SPI_C1_SPE_SHIFT,SPI1_C1);   //SPI
    49c8:	2540      	movs	r5, #64	; 0x40
E:\2017-2018\03_Graduation Project\04_Software\05_Wangshi\02_6220\06_UpdateSoftware-180714\01_UEBootloader\KL36_Bios-180714\Debug/../03_MCU/MCU_drivers/spi/spi.c:120
        SPI1_C1=0x00;                     //SPI1
    49ca:	4856      	ldr	r0, [pc, #344]	; (4b24 <SPI_init+0x184>)
    49cc:	70c4      	strb	r4, [r0, #3]
E:\2017-2018\03_Graduation Project\04_Software\05_Wangshi\02_6220\06_UpdateSoftware-180714\01_UEBootloader\KL36_Bios-180714\Debug/../03_MCU/MCU_drivers/spi/spi.c:121
        BSET(SPI_C1_SPE_SHIFT,SPI1_C1);   //SPI
    49ce:	78c4      	ldrb	r4, [r0, #3]
    49d0:	432c      	orrs	r4, r5
    49d2:	70c4      	strb	r4, [r0, #3]
E:\2017-2018\03_Graduation Project\04_Software\05_Wangshi\02_6220\06_UpdateSoftware-180714\01_UEBootloader\KL36_Bios-180714\Debug/../03_MCU/MCU_drivers/spi/spi.c:124
        //MSTR=1
        //MSTR=0MSTR0
        (MSTR==1)?BSET(SPI_C1_MSTR_SHIFT,SPI1_C1):\
    49d4:	78c4      	ldrb	r4, [r0, #3]
    49d6:	2901      	cmp	r1, #1
    49d8:	d100      	bne.n	49dc <SPI_init+0x3c>
    49da:	e08e      	b.n	4afa <SPI_init+0x15a>
E:\2017-2018\03_Graduation Project\04_Software\05_Wangshi\02_6220\06_UpdateSoftware-180714\01_UEBootloader\KL36_Bios-180714\Debug/../03_MCU/MCU_drivers/spi/spi.c:125 (discriminator 2)
                                            BSET(SPI_C1_SPIE_SHIFT,SPI1_C1);
    49dc:	2580      	movs	r5, #128	; 0x80
    49de:	432c      	orrs	r4, r5
    49e0:	70c4      	strb	r4, [r0, #3]
E:\2017-2018\03_Graduation Project\04_Software\05_Wangshi\02_6220\06_UpdateSoftware-180714\01_UEBootloader\KL36_Bios-180714\Debug/../03_MCU/MCU_drivers/spi/spi.c:128

        //CPOL=0CPOL=1
        (0 == CPOL)?BCLR(SPI_C1_CPOL_SHIFT,SPI1_C1):\
    49e2:	4850      	ldr	r0, [pc, #320]	; (4b24 <SPI_init+0x184>)
    49e4:	2b00      	cmp	r3, #0
    49e6:	d000      	beq.n	49ea <SPI_init+0x4a>
    49e8:	e091      	b.n	4b0e <SPI_init+0x16e>
E:\2017-2018\03_Graduation Project\04_Software\05_Wangshi\02_6220\06_UpdateSoftware-180714\01_UEBootloader\KL36_Bios-180714\Debug/../03_MCU/MCU_drivers/spi/spi.c:128 (discriminator 1)
    49ea:	2408      	movs	r4, #8
    49ec:	78c3      	ldrb	r3, [r0, #3]
    49ee:	43a3      	bics	r3, r4
    49f0:	70c3      	strb	r3, [r0, #3]
E:\2017-2018\03_Graduation Project\04_Software\05_Wangshi\02_6220\06_UpdateSoftware-180714\01_UEBootloader\KL36_Bios-180714\Debug/../03_MCU/MCU_drivers/spi/spi.c:133
                                            BSET(SPI_C1_CPOL_SHIFT,SPI1_C1);

        //CPHA=08
        //CPHA=18
        (0 == CPHA)?BCLR(SPI_C1_CPHA_SHIFT,SPI1_C1): \
    49f2:	484c      	ldr	r0, [pc, #304]	; (4b24 <SPI_init+0x184>)
    49f4:	78c3      	ldrb	r3, [r0, #3]
    49f6:	2e00      	cmp	r6, #0
    49f8:	d000      	beq.n	49fc <SPI_init+0x5c>
    49fa:	e084      	b.n	4b06 <SPI_init+0x166>
E:\2017-2018\03_Graduation Project\04_Software\05_Wangshi\02_6220\06_UpdateSoftware-180714\01_UEBootloader\KL36_Bios-180714\Debug/../03_MCU/MCU_drivers/spi/spi.c:133 (discriminator 1)
    49fc:	2404      	movs	r4, #4
    49fe:	43a3      	bics	r3, r4
    4a00:	70c3      	strb	r3, [r0, #3]
E:\2017-2018\03_Graduation Project\04_Software\05_Wangshi\02_6220\06_UpdateSoftware-180714\01_UEBootloader\KL36_Bios-180714\Debug/../03_MCU/MCU_drivers/spi/spi.c:136
                                            BSET(SPI_C1_CPHA_SHIFT,SPI1_C1);

        BSET(SPI_C1_SSOE_SHIFT,SPI1_C1);//SSOE1,MODFEN1SS
    4a02:	2402      	movs	r4, #2
    4a04:	4b47      	ldr	r3, [pc, #284]	; (4b24 <SPI_init+0x184>)
    4a06:	78d8      	ldrb	r0, [r3, #3]
    4a08:	4320      	orrs	r0, r4
    4a0a:	70d8      	strb	r0, [r3, #3]
E:\2017-2018\03_Graduation Project\04_Software\05_Wangshi\02_6220\06_UpdateSoftware-180714\01_UEBootloader\KL36_Bios-180714\Debug/../03_MCU/MCU_drivers/spi/spi.c:140
        //SPI0C1SPI0

//        BSET(SPI_C1_SPIE_SHIFT,SPI1_C1);  //SPI
        SPI1_C2 = 0x00U;
    4a0c:	2000      	movs	r0, #0
    4a0e:	7098      	strb	r0, [r3, #2]
E:\2017-2018\03_Graduation Project\04_Software\05_Wangshi\02_6220\06_UpdateSoftware-180714\01_UEBootloader\KL36_Bios-180714\Debug/../03_MCU/MCU_drivers/spi/spi.c:141
        if(MSTR == 1 )  //
    4a10:	2901      	cmp	r1, #1
    4a12:	d103      	bne.n	4a1c <SPI_init+0x7c>
E:\2017-2018\03_Graduation Project\04_Software\05_Wangshi\02_6220\06_UpdateSoftware-180714\01_UEBootloader\KL36_Bios-180714\Debug/../03_MCU/MCU_drivers/spi/spi.c:142
            BSET(SPI_C2_MODFEN_SHIFT,SPI1_C2);
    4a14:	2010      	movs	r0, #16
    4a16:	7899      	ldrb	r1, [r3, #2]
    4a18:	4301      	orrs	r1, r0
    4a1a:	7099      	strb	r1, [r3, #2]
E:\2017-2018\03_Graduation Project\04_Software\05_Wangshi\02_6220\06_UpdateSoftware-180714\01_UEBootloader\KL36_Bios-180714\Debug/../03_MCU/MCU_drivers/spi/spi.c:143
        SPI1_BR = 0x00U;
    4a1c:	2100      	movs	r1, #0
    4a1e:	4b41      	ldr	r3, [pc, #260]	; (4b24 <SPI_init+0x184>)
E:\2017-2018\03_Graduation Project\04_Software\05_Wangshi\02_6220\06_UpdateSoftware-180714\01_UEBootloader\KL36_Bios-180714\Debug/../03_MCU/MCU_drivers/spi/spi.c:147
        //
        BaudRate_High=0;
        BaudRate_Low=0;
        BaudRate_Mode=12000/BaudRate;   //
    4a20:	4841      	ldr	r0, [pc, #260]	; (4b28 <SPI_init+0x188>)
E:\2017-2018\03_Graduation Project\04_Software\05_Wangshi\02_6220\06_UpdateSoftware-180714\01_UEBootloader\KL36_Bios-180714\Debug/../03_MCU/MCU_drivers/spi/spi.c:143
        SPI1_BR = 0x00U;
    4a22:	7059      	strb	r1, [r3, #1]
E:\2017-2018\03_Graduation Project\04_Software\05_Wangshi\02_6220\06_UpdateSoftware-180714\01_UEBootloader\KL36_Bios-180714\Debug/../03_MCU/MCU_drivers/spi/spi.c:147
        BaudRate_Mode=12000/BaudRate;   //
    4a24:	0011      	movs	r1, r2
    4a26:	f7fb fe03 	bl	630 <__divsi3>
    4a2a:	b2c0      	uxtb	r0, r0
E:\2017-2018\03_Graduation Project\04_Software\05_Wangshi\02_6220\06_UpdateSoftware-180714\01_UEBootloader\KL36_Bios-180714\Debug/../03_MCU/MCU_drivers/spi/spi.c:148
        while(BaudRate_Mode % 2 == 0)
    4a2c:	07c3      	lsls	r3, r0, #31
    4a2e:	d468      	bmi.n	4b02 <SPI_init+0x162>
E:\2017-2018\03_Graduation Project\04_Software\05_Wangshi\02_6220\06_UpdateSoftware-180714\01_UEBootloader\KL36_Bios-180714\Debug/../03_MCU/MCU_drivers/spi/spi.c:146
        BaudRate_Low=0;
    4a30:	2300      	movs	r3, #0
E:\2017-2018\03_Graduation Project\04_Software\05_Wangshi\02_6220\06_UpdateSoftware-180714\01_UEBootloader\KL36_Bios-180714\Debug/../03_MCU/MCU_drivers/spi/spi.c:148
        while(BaudRate_Mode % 2 == 0)
    4a32:	2201      	movs	r2, #1
E:\2017-2018\03_Graduation Project\04_Software\05_Wangshi\02_6220\06_UpdateSoftware-180714\01_UEBootloader\KL36_Bios-180714\Debug/../03_MCU/MCU_drivers/spi/spi.c:151
        {
            BaudRate_Mode=BaudRate_Mode/2;
            BaudRate_Low++;
    4a34:	3301      	adds	r3, #1
E:\2017-2018\03_Graduation Project\04_Software\05_Wangshi\02_6220\06_UpdateSoftware-180714\01_UEBootloader\KL36_Bios-180714\Debug/../03_MCU/MCU_drivers/spi/spi.c:150
            BaudRate_Mode=BaudRate_Mode/2;
    4a36:	0840      	lsrs	r0, r0, #1
E:\2017-2018\03_Graduation Project\04_Software\05_Wangshi\02_6220\06_UpdateSoftware-180714\01_UEBootloader\KL36_Bios-180714\Debug/../03_MCU/MCU_drivers/spi/spi.c:151
            BaudRate_Low++;
    4a38:	b2db      	uxtb	r3, r3
E:\2017-2018\03_Graduation Project\04_Software\05_Wangshi\02_6220\06_UpdateSoftware-180714\01_UEBootloader\KL36_Bios-180714\Debug/../03_MCU/MCU_drivers/spi/spi.c:148
        while(BaudRate_Mode % 2 == 0)
    4a3a:	4202      	tst	r2, r0
    4a3c:	d0fa      	beq.n	4a34 <SPI_init+0x94>
E:\2017-2018\03_Graduation Project\04_Software\05_Wangshi\02_6220\06_UpdateSoftware-180714\01_UEBootloader\KL36_Bios-180714\Debug/../03_MCU/MCU_drivers/spi/spi.c:153
        }
        BaudRate_High=--BaudRate_Mode;
    4a3e:	3801      	subs	r0, #1
E:\2017-2018\03_Graduation Project\04_Software\05_Wangshi\02_6220\06_UpdateSoftware-180714\01_UEBootloader\KL36_Bios-180714\Debug/../03_MCU/MCU_drivers/spi/spi.c:154
        SPI0_BR=BaudRate_High<<4;//SPI0_BRSPPRD6D5D4
    4a40:	4a3a      	ldr	r2, [pc, #232]	; (4b2c <SPI_init+0x18c>)
    4a42:	0100      	lsls	r0, r0, #4
    4a44:	b2c0      	uxtb	r0, r0
    4a46:	7050      	strb	r0, [r2, #1]
E:\2017-2018\03_Graduation Project\04_Software\05_Wangshi\02_6220\06_UpdateSoftware-180714\01_UEBootloader\KL36_Bios-180714\Debug/../03_MCU/MCU_drivers/spi/spi.c:155
        SPI0_BR|=BaudRate_Low;//SPI0_BRSPR D2D1D0
    4a48:	7851      	ldrb	r1, [r2, #1]
    4a4a:	430b      	orrs	r3, r1
    4a4c:	7053      	strb	r3, [r2, #1]
E:\2017-2018\03_Graduation Project\04_Software\05_Wangshi\02_6220\06_UpdateSoftware-180714\01_UEBootloader\KL36_Bios-180714\Debug/../03_MCU/MCU_drivers/spi/spi.c:157
    }      
}
    4a4e:	bdf8      	pop	{r3, r4, r5, r6, r7, pc}
E:\2017-2018\03_Graduation Project\04_Software\05_Wangshi\02_6220\06_UpdateSoftware-180714\01_UEBootloader\KL36_Bios-180714\Debug/../03_MCU/MCU_drivers/spi/spi.c:28
        BSET(SIM_SCGC4_SPI0_SHIFT,SIM_SCGC4);   //SPI0
    4a50:	2080      	movs	r0, #128	; 0x80
    4a52:	03c0      	lsls	r0, r0, #15
    4a54:	4338      	orrs	r0, r7
    4a56:	5128      	str	r0, [r5, r4]
E:\2017-2018\03_Graduation Project\04_Software\05_Wangshi\02_6220\06_UpdateSoftware-180714\01_UEBootloader\KL36_Bios-180714\Debug/../03_MCU/MCU_drivers/spi/spi.c:45
        PORTC_PCR4=(0|PORT_PCR_MUX(0x02));        //PTC4SS
    4a58:	2480      	movs	r4, #128	; 0x80
    4a5a:	4835      	ldr	r0, [pc, #212]	; (4b30 <SPI_init+0x190>)
    4a5c:	00a4      	lsls	r4, r4, #2
    4a5e:	6104      	str	r4, [r0, #16]
E:\2017-2018\03_Graduation Project\04_Software\05_Wangshi\02_6220\06_UpdateSoftware-180714\01_UEBootloader\KL36_Bios-180714\Debug/../03_MCU/MCU_drivers/spi/spi.c:46
        PORTC_PCR5=(0|PORT_PCR_MUX(0x02));        //PTC5SCK
    4a60:	6144      	str	r4, [r0, #20]
E:\2017-2018\03_Graduation Project\04_Software\05_Wangshi\02_6220\06_UpdateSoftware-180714\01_UEBootloader\KL36_Bios-180714\Debug/../03_MCU/MCU_drivers/spi/spi.c:47
        PORTC_PCR6=(0|PORT_PCR_MUX(0x02));        //PTC6MOSI
    4a62:	6184      	str	r4, [r0, #24]
E:\2017-2018\03_Graduation Project\04_Software\05_Wangshi\02_6220\06_UpdateSoftware-180714\01_UEBootloader\KL36_Bios-180714\Debug/../03_MCU/MCU_drivers/spi/spi.c:48
        PORTC_PCR7=(0|PORT_PCR_MUX(0x02));        //PTC7MIOS
    4a64:	61c4      	str	r4, [r0, #28]
E:\2017-2018\03_Graduation Project\04_Software\05_Wangshi\02_6220\06_UpdateSoftware-180714\01_UEBootloader\KL36_Bios-180714\Debug/../03_MCU/MCU_drivers/spi/spi.c:58
        SPI0_C1=0x00;                           //SPI1
    4a66:	2400      	movs	r4, #0
E:\2017-2018\03_Graduation Project\04_Software\05_Wangshi\02_6220\06_UpdateSoftware-180714\01_UEBootloader\KL36_Bios-180714\Debug/../03_MCU/MCU_drivers/spi/spi.c:59
        BSET(SPI_C1_SPE_SHIFT,SPI0_C1);         //SPI
    4a68:	2540      	movs	r5, #64	; 0x40
E:\2017-2018\03_Graduation Project\04_Software\05_Wangshi\02_6220\06_UpdateSoftware-180714\01_UEBootloader\KL36_Bios-180714\Debug/../03_MCU/MCU_drivers/spi/spi.c:58
        SPI0_C1=0x00;                           //SPI1
    4a6a:	4830      	ldr	r0, [pc, #192]	; (4b2c <SPI_init+0x18c>)
    4a6c:	70c4      	strb	r4, [r0, #3]
E:\2017-2018\03_Graduation Project\04_Software\05_Wangshi\02_6220\06_UpdateSoftware-180714\01_UEBootloader\KL36_Bios-180714\Debug/../03_MCU/MCU_drivers/spi/spi.c:59
        BSET(SPI_C1_SPE_SHIFT,SPI0_C1);         //SPI
    4a6e:	78c4      	ldrb	r4, [r0, #3]
    4a70:	432c      	orrs	r4, r5
    4a72:	70c4      	strb	r4, [r0, #3]
E:\2017-2018\03_Graduation Project\04_Software\05_Wangshi\02_6220\06_UpdateSoftware-180714\01_UEBootloader\KL36_Bios-180714\Debug/../03_MCU/MCU_drivers/spi/spi.c:63
        (MSTR==1)?BSET(SPI_C1_MSTR_SHIFT,SPI0_C1):\
    4a74:	78c4      	ldrb	r4, [r0, #3]
    4a76:	2901      	cmp	r1, #1
    4a78:	d03b      	beq.n	4af2 <SPI_init+0x152>
E:\2017-2018\03_Graduation Project\04_Software\05_Wangshi\02_6220\06_UpdateSoftware-180714\01_UEBootloader\KL36_Bios-180714\Debug/../03_MCU/MCU_drivers/spi/spi.c:64 (discriminator 2)
                       BSET(SPI_C1_SPIE_SHIFT,SPI0_C1);
    4a7a:	2580      	movs	r5, #128	; 0x80
    4a7c:	432c      	orrs	r4, r5
    4a7e:	70c4      	strb	r4, [r0, #3]
E:\2017-2018\03_Graduation Project\04_Software\05_Wangshi\02_6220\06_UpdateSoftware-180714\01_UEBootloader\KL36_Bios-180714\Debug/../03_MCU/MCU_drivers/spi/spi.c:67
        (0==CPOL)?BCLR(SPI_C1_CPOL_SHIFT,SPI0_C1):\
    4a80:	482a      	ldr	r0, [pc, #168]	; (4b2c <SPI_init+0x18c>)
    4a82:	2b00      	cmp	r3, #0
    4a84:	d029      	beq.n	4ada <SPI_init+0x13a>
E:\2017-2018\03_Graduation Project\04_Software\05_Wangshi\02_6220\06_UpdateSoftware-180714\01_UEBootloader\KL36_Bios-180714\Debug/../03_MCU/MCU_drivers/spi/spi.c:68 (discriminator 2)
                        BSET(SPI_C1_CPOL_SHIFT,SPI0_C1);
    4a86:	2408      	movs	r4, #8
    4a88:	78c3      	ldrb	r3, [r0, #3]
    4a8a:	4323      	orrs	r3, r4
    4a8c:	70c3      	strb	r3, [r0, #3]
E:\2017-2018\03_Graduation Project\04_Software\05_Wangshi\02_6220\06_UpdateSoftware-180714\01_UEBootloader\KL36_Bios-180714\Debug/../03_MCU/MCU_drivers/spi/spi.c:71 (discriminator 2)
        (0 == CPHA)?BCLR(SPI_C1_CPHA_SHIFT,SPI0_C1):\
    4a8e:	4827      	ldr	r0, [pc, #156]	; (4b2c <SPI_init+0x18c>)
    4a90:	78c3      	ldrb	r3, [r0, #3]
    4a92:	2e00      	cmp	r6, #0
    4a94:	d129      	bne.n	4aea <SPI_init+0x14a>
E:\2017-2018\03_Graduation Project\04_Software\05_Wangshi\02_6220\06_UpdateSoftware-180714\01_UEBootloader\KL36_Bios-180714\Debug/../03_MCU/MCU_drivers/spi/spi.c:71 (discriminator 1)
    4a96:	2404      	movs	r4, #4
    4a98:	43a3      	bics	r3, r4
    4a9a:	70c3      	strb	r3, [r0, #3]
E:\2017-2018\03_Graduation Project\04_Software\05_Wangshi\02_6220\06_UpdateSoftware-180714\01_UEBootloader\KL36_Bios-180714\Debug/../03_MCU/MCU_drivers/spi/spi.c:75
        BSET(SPI_C1_SSOE_SHIFT,SPI0_C1);
    4a9c:	2402      	movs	r4, #2
    4a9e:	4b23      	ldr	r3, [pc, #140]	; (4b2c <SPI_init+0x18c>)
    4aa0:	78d8      	ldrb	r0, [r3, #3]
    4aa2:	4320      	orrs	r0, r4
    4aa4:	70d8      	strb	r0, [r3, #3]
E:\2017-2018\03_Graduation Project\04_Software\05_Wangshi\02_6220\06_UpdateSoftware-180714\01_UEBootloader\KL36_Bios-180714\Debug/../03_MCU/MCU_drivers/spi/spi.c:77
        SPI0_C2=0x00;
    4aa6:	2000      	movs	r0, #0
    4aa8:	7098      	strb	r0, [r3, #2]
E:\2017-2018\03_Graduation Project\04_Software\05_Wangshi\02_6220\06_UpdateSoftware-180714\01_UEBootloader\KL36_Bios-180714\Debug/../03_MCU/MCU_drivers/spi/spi.c:78
        if(MSTR == 1 )  //
    4aaa:	2901      	cmp	r1, #1
    4aac:	d103      	bne.n	4ab6 <SPI_init+0x116>
E:\2017-2018\03_Graduation Project\04_Software\05_Wangshi\02_6220\06_UpdateSoftware-180714\01_UEBootloader\KL36_Bios-180714\Debug/../03_MCU/MCU_drivers/spi/spi.c:79
            BSET(SPI_C2_MODFEN_SHIFT,SPI0_C2);
    4aae:	2010      	movs	r0, #16
    4ab0:	7899      	ldrb	r1, [r3, #2]
    4ab2:	4301      	orrs	r1, r0
    4ab4:	7099      	strb	r1, [r3, #2]
E:\2017-2018\03_Graduation Project\04_Software\05_Wangshi\02_6220\06_UpdateSoftware-180714\01_UEBootloader\KL36_Bios-180714\Debug/../03_MCU/MCU_drivers/spi/spi.c:80
        SPI0_BR = 0x00U;//
    4ab6:	2100      	movs	r1, #0
    4ab8:	4b1c      	ldr	r3, [pc, #112]	; (4b2c <SPI_init+0x18c>)
E:\2017-2018\03_Graduation Project\04_Software\05_Wangshi\02_6220\06_UpdateSoftware-180714\01_UEBootloader\KL36_Bios-180714\Debug/../03_MCU/MCU_drivers/spi/spi.c:84
        BaudRate_Mode=12000/BaudRate;
    4aba:	481b      	ldr	r0, [pc, #108]	; (4b28 <SPI_init+0x188>)
E:\2017-2018\03_Graduation Project\04_Software\05_Wangshi\02_6220\06_UpdateSoftware-180714\01_UEBootloader\KL36_Bios-180714\Debug/../03_MCU/MCU_drivers/spi/spi.c:80
        SPI0_BR = 0x00U;//
    4abc:	7059      	strb	r1, [r3, #1]
E:\2017-2018\03_Graduation Project\04_Software\05_Wangshi\02_6220\06_UpdateSoftware-180714\01_UEBootloader\KL36_Bios-180714\Debug/../03_MCU/MCU_drivers/spi/spi.c:84
        BaudRate_Mode=12000/BaudRate;
    4abe:	0011      	movs	r1, r2
    4ac0:	f7fb fdb6 	bl	630 <__divsi3>
    4ac4:	b2c0      	uxtb	r0, r0
E:\2017-2018\03_Graduation Project\04_Software\05_Wangshi\02_6220\06_UpdateSoftware-180714\01_UEBootloader\KL36_Bios-180714\Debug/../03_MCU/MCU_drivers/spi/spi.c:85
        while(BaudRate_Mode % 2 == 0)
    4ac6:	07c3      	lsls	r3, r0, #31
    4ac8:	d41b      	bmi.n	4b02 <SPI_init+0x162>
E:\2017-2018\03_Graduation Project\04_Software\05_Wangshi\02_6220\06_UpdateSoftware-180714\01_UEBootloader\KL36_Bios-180714\Debug/../03_MCU/MCU_drivers/spi/spi.c:83
        BaudRate_Low=0;
    4aca:	2300      	movs	r3, #0
E:\2017-2018\03_Graduation Project\04_Software\05_Wangshi\02_6220\06_UpdateSoftware-180714\01_UEBootloader\KL36_Bios-180714\Debug/../03_MCU/MCU_drivers/spi/spi.c:85
        while(BaudRate_Mode % 2 == 0)
    4acc:	2201      	movs	r2, #1
E:\2017-2018\03_Graduation Project\04_Software\05_Wangshi\02_6220\06_UpdateSoftware-180714\01_UEBootloader\KL36_Bios-180714\Debug/../03_MCU/MCU_drivers/spi/spi.c:88
            BaudRate_Low++;
    4ace:	3301      	adds	r3, #1
E:\2017-2018\03_Graduation Project\04_Software\05_Wangshi\02_6220\06_UpdateSoftware-180714\01_UEBootloader\KL36_Bios-180714\Debug/../03_MCU/MCU_drivers/spi/spi.c:87
            BaudRate_Mode=BaudRate_Mode/2;
    4ad0:	0840      	lsrs	r0, r0, #1
E:\2017-2018\03_Graduation Project\04_Software\05_Wangshi\02_6220\06_UpdateSoftware-180714\01_UEBootloader\KL36_Bios-180714\Debug/../03_MCU/MCU_drivers/spi/spi.c:88
            BaudRate_Low++;
    4ad2:	b2db      	uxtb	r3, r3
E:\2017-2018\03_Graduation Project\04_Software\05_Wangshi\02_6220\06_UpdateSoftware-180714\01_UEBootloader\KL36_Bios-180714\Debug/../03_MCU/MCU_drivers/spi/spi.c:85
        while(BaudRate_Mode % 2 == 0)
    4ad4:	4202      	tst	r2, r0
    4ad6:	d0fa      	beq.n	4ace <SPI_init+0x12e>
    4ad8:	e7b1      	b.n	4a3e <SPI_init+0x9e>
E:\2017-2018\03_Graduation Project\04_Software\05_Wangshi\02_6220\06_UpdateSoftware-180714\01_UEBootloader\KL36_Bios-180714\Debug/../03_MCU/MCU_drivers/spi/spi.c:67 (discriminator 1)
        (0==CPOL)?BCLR(SPI_C1_CPOL_SHIFT,SPI0_C1):\
    4ada:	2408      	movs	r4, #8
    4adc:	78c3      	ldrb	r3, [r0, #3]
    4ade:	43a3      	bics	r3, r4
    4ae0:	70c3      	strb	r3, [r0, #3]
E:\2017-2018\03_Graduation Project\04_Software\05_Wangshi\02_6220\06_UpdateSoftware-180714\01_UEBootloader\KL36_Bios-180714\Debug/../03_MCU/MCU_drivers/spi/spi.c:71 (discriminator 1)
        (0 == CPHA)?BCLR(SPI_C1_CPHA_SHIFT,SPI0_C1):\
    4ae2:	4812      	ldr	r0, [pc, #72]	; (4b2c <SPI_init+0x18c>)
    4ae4:	78c3      	ldrb	r3, [r0, #3]
    4ae6:	2e00      	cmp	r6, #0
    4ae8:	d0d5      	beq.n	4a96 <SPI_init+0xf6>
E:\2017-2018\03_Graduation Project\04_Software\05_Wangshi\02_6220\06_UpdateSoftware-180714\01_UEBootloader\KL36_Bios-180714\Debug/../03_MCU/MCU_drivers/spi/spi.c:72 (discriminator 2)
                              BSET(SPI_C1_CPHA_SHIFT,SPI0_C1);
    4aea:	2404      	movs	r4, #4
    4aec:	4323      	orrs	r3, r4
    4aee:	70c3      	strb	r3, [r0, #3]
    4af0:	e7d4      	b.n	4a9c <SPI_init+0xfc>
E:\2017-2018\03_Graduation Project\04_Software\05_Wangshi\02_6220\06_UpdateSoftware-180714\01_UEBootloader\KL36_Bios-180714\Debug/../03_MCU/MCU_drivers/spi/spi.c:63 (discriminator 1)
        (MSTR==1)?BSET(SPI_C1_MSTR_SHIFT,SPI0_C1):\
    4af2:	2510      	movs	r5, #16
    4af4:	432c      	orrs	r4, r5
    4af6:	70c4      	strb	r4, [r0, #3]
    4af8:	e7c2      	b.n	4a80 <SPI_init+0xe0>
E:\2017-2018\03_Graduation Project\04_Software\05_Wangshi\02_6220\06_UpdateSoftware-180714\01_UEBootloader\KL36_Bios-180714\Debug/../03_MCU/MCU_drivers/spi/spi.c:124 (discriminator 1)
        (MSTR==1)?BSET(SPI_C1_MSTR_SHIFT,SPI1_C1):\
    4afa:	2510      	movs	r5, #16
    4afc:	432c      	orrs	r4, r5
    4afe:	70c4      	strb	r4, [r0, #3]
    4b00:	e76f      	b.n	49e2 <SPI_init+0x42>
E:\2017-2018\03_Graduation Project\04_Software\05_Wangshi\02_6220\06_UpdateSoftware-180714\01_UEBootloader\KL36_Bios-180714\Debug/../03_MCU/MCU_drivers/spi/spi.c:146
        BaudRate_Low=0;
    4b02:	2300      	movs	r3, #0
    4b04:	e79b      	b.n	4a3e <SPI_init+0x9e>
E:\2017-2018\03_Graduation Project\04_Software\05_Wangshi\02_6220\06_UpdateSoftware-180714\01_UEBootloader\KL36_Bios-180714\Debug/../03_MCU/MCU_drivers/spi/spi.c:134 (discriminator 2)
                                            BSET(SPI_C1_CPHA_SHIFT,SPI1_C1);
    4b06:	2404      	movs	r4, #4
    4b08:	4323      	orrs	r3, r4
    4b0a:	70c3      	strb	r3, [r0, #3]
    4b0c:	e779      	b.n	4a02 <SPI_init+0x62>
E:\2017-2018\03_Graduation Project\04_Software\05_Wangshi\02_6220\06_UpdateSoftware-180714\01_UEBootloader\KL36_Bios-180714\Debug/../03_MCU/MCU_drivers/spi/spi.c:129 (discriminator 2)
                                            BSET(SPI_C1_CPOL_SHIFT,SPI1_C1);
    4b0e:	2408      	movs	r4, #8
    4b10:	78c3      	ldrb	r3, [r0, #3]
    4b12:	4323      	orrs	r3, r4
    4b14:	70c3      	strb	r3, [r0, #3]
    4b16:	e76c      	b.n	49f2 <SPI_init+0x52>
    4b18:	40047000 	.word	0x40047000
    4b1c:	00001034 	.word	0x00001034
    4b20:	4004c000 	.word	0x4004c000
    4b24:	40077000 	.word	0x40077000
    4b28:	00002ee0 	.word	0x00002ee0
    4b2c:	40076000 	.word	0x40076000
    4b30:	4004b000 	.word	0x4004b000

00004b34 <SPI_send1>:
SPI_send1():
E:\2017-2018\03_Graduation Project\04_Software\05_Wangshi\02_6220\06_UpdateSoftware-180714\01_UEBootloader\KL36_Bios-180714\Debug/../03_MCU/MCU_drivers/spi/spi.c:169
//01
//=====================================================================
uint_8 SPI_send1(uint_8 No,uint_8 data)
{
    uint_32 i;
    SPI_MemMapPtr baseadd=SPI_baseadd(No);
    4b34:	4b0a      	ldr	r3, [pc, #40]	; (4b60 <SPI_send1+0x2c>)
E:\2017-2018\03_Graduation Project\04_Software\05_Wangshi\02_6220\06_UpdateSoftware-180714\01_UEBootloader\KL36_Bios-180714\Debug/../03_MCU/MCU_drivers/spi/spi.c:170
    while(!(SPI_S_REG(baseadd)&SPI_S_SPTEF_MASK));//
    4b36:	2220      	movs	r2, #32
E:\2017-2018\03_Graduation Project\04_Software\05_Wangshi\02_6220\06_UpdateSoftware-180714\01_UEBootloader\KL36_Bios-180714\Debug/../03_MCU/MCU_drivers/spi/spi.c:169
    SPI_MemMapPtr baseadd=SPI_baseadd(No);
    4b38:	469c      	mov	ip, r3
    4b3a:	4460      	add	r0, ip
    4b3c:	0300      	lsls	r0, r0, #12
E:\2017-2018\03_Graduation Project\04_Software\05_Wangshi\02_6220\06_UpdateSoftware-180714\01_UEBootloader\KL36_Bios-180714\Debug/../03_MCU/MCU_drivers/spi/spi.c:170 (discriminator 1)
    while(!(SPI_S_REG(baseadd)&SPI_S_SPTEF_MASK));//
    4b3e:	7803      	ldrb	r3, [r0, #0]
    4b40:	421a      	tst	r2, r3
    4b42:	d0fc      	beq.n	4b3e <SPI_send1+0xa>
E:\2017-2018\03_Graduation Project\04_Software\05_Wangshi\02_6220\06_UpdateSoftware-180714\01_UEBootloader\KL36_Bios-180714\Debug/../03_MCU/MCU_drivers/spi/spi.c:171
        SPI_DL_REG(baseadd)=data;//
    4b44:	7181      	strb	r1, [r0, #6]
    4b46:	4b07      	ldr	r3, [pc, #28]	; (4b64 <SPI_send1+0x30>)
E:\2017-2018\03_Graduation Project\04_Software\05_Wangshi\02_6220\06_UpdateSoftware-180714\01_UEBootloader\KL36_Bios-180714\Debug/../03_MCU/MCU_drivers/spi/spi.c:174
    for(i=0;i<0xFFF0;i++)        //
    {
        if(SPI_S_REG(baseadd)&SPI_S_SPTEF_MASK)//
    4b48:	2120      	movs	r1, #32
    4b4a:	e002      	b.n	4b52 <SPI_send1+0x1e>
    4b4c:	3b01      	subs	r3, #1
E:\2017-2018\03_Graduation Project\04_Software\05_Wangshi\02_6220\06_UpdateSoftware-180714\01_UEBootloader\KL36_Bios-180714\Debug/../03_MCU/MCU_drivers/spi/spi.c:172 (discriminator 2)
    for(i=0;i<0xFFF0;i++)        //
    4b4e:	2b00      	cmp	r3, #0
    4b50:	d004      	beq.n	4b5c <SPI_send1+0x28>
E:\2017-2018\03_Graduation Project\04_Software\05_Wangshi\02_6220\06_UpdateSoftware-180714\01_UEBootloader\KL36_Bios-180714\Debug/../03_MCU/MCU_drivers/spi/spi.c:174
        if(SPI_S_REG(baseadd)&SPI_S_SPTEF_MASK)//
    4b52:	7802      	ldrb	r2, [r0, #0]
    4b54:	4211      	tst	r1, r2
    4b56:	d0f9      	beq.n	4b4c <SPI_send1+0x18>
E:\2017-2018\03_Graduation Project\04_Software\05_Wangshi\02_6220\06_UpdateSoftware-180714\01_UEBootloader\KL36_Bios-180714\Debug/../03_MCU/MCU_drivers/spi/spi.c:176
        {
            return(1);
    4b58:	2001      	movs	r0, #1
E:\2017-2018\03_Graduation Project\04_Software\05_Wangshi\02_6220\06_UpdateSoftware-180714\01_UEBootloader\KL36_Bios-180714\Debug/../03_MCU/MCU_drivers/spi/spi.c:180
        }
     }
    return(0);
}
    4b5a:	4770      	bx	lr
E:\2017-2018\03_Graduation Project\04_Software\05_Wangshi\02_6220\06_UpdateSoftware-180714\01_UEBootloader\KL36_Bios-180714\Debug/../03_MCU/MCU_drivers/spi/spi.c:179
    return(0);
    4b5c:	2000      	movs	r0, #0
    4b5e:	e7fc      	b.n	4b5a <SPI_send1+0x26>
    4b60:	00040076 	.word	0x00040076
    4b64:	0000fff0 	.word	0x0000fff0

00004b68 <SPI_sendN>:
SPI_sendN():
E:\2017-2018\03_Graduation Project\04_Software\05_Wangshi\02_6220\06_UpdateSoftware-180714\01_UEBootloader\KL36_Bios-180714\Debug/../03_MCU/MCU_drivers/spi/spi.c:192
//       data[]:
//
//=====================================================================
void SPI_sendN(uint_8 No,uint_8 n,uint_8 data[])
{
    SPI_MemMapPtr baseadd=SPI_baseadd(No);
    4b68:	4b09      	ldr	r3, [pc, #36]	; (4b90 <SPI_sendN+0x28>)
E:\2017-2018\03_Graduation Project\04_Software\05_Wangshi\02_6220\06_UpdateSoftware-180714\01_UEBootloader\KL36_Bios-180714\Debug/../03_MCU/MCU_drivers/spi/spi.c:191
{
    4b6a:	b510      	push	{r4, lr}
E:\2017-2018\03_Graduation Project\04_Software\05_Wangshi\02_6220\06_UpdateSoftware-180714\01_UEBootloader\KL36_Bios-180714\Debug/../03_MCU/MCU_drivers/spi/spi.c:192
    SPI_MemMapPtr baseadd=SPI_baseadd(No);
    4b6c:	469c      	mov	ip, r3
    4b6e:	4460      	add	r0, ip
    4b70:	0300      	lsls	r0, r0, #12
E:\2017-2018\03_Graduation Project\04_Software\05_Wangshi\02_6220\06_UpdateSoftware-180714\01_UEBootloader\KL36_Bios-180714\Debug/../03_MCU/MCU_drivers/spi/spi.c:194
    uint_32 k;
    for(k=0;k<n;k++)
    4b72:	2900      	cmp	r1, #0
    4b74:	d00a      	beq.n	4b8c <SPI_sendN+0x24>
E:\2017-2018\03_Graduation Project\04_Software\05_Wangshi\02_6220\06_UpdateSoftware-180714\01_UEBootloader\KL36_Bios-180714\Debug/../03_MCU/MCU_drivers/spi/spi.c:197
    {
        //SPTEF
        while(!(SPI_S_REG(baseadd)&SPI_S_SPTEF_MASK));
    4b76:	2420      	movs	r4, #32
    4b78:	1851      	adds	r1, r2, r1
E:\2017-2018\03_Graduation Project\04_Software\05_Wangshi\02_6220\06_UpdateSoftware-180714\01_UEBootloader\KL36_Bios-180714\Debug/../03_MCU/MCU_drivers/spi/spi.c:197 (discriminator 1)
    4b7a:	7803      	ldrb	r3, [r0, #0]
    4b7c:	421c      	tst	r4, r3
    4b7e:	d0fc      	beq.n	4b7a <SPI_sendN+0x12>
E:\2017-2018\03_Graduation Project\04_Software\05_Wangshi\02_6220\06_UpdateSoftware-180714\01_UEBootloader\KL36_Bios-180714\Debug/../03_MCU/MCU_drivers/spi/spi.c:198 (discriminator 2)
        SPI_DL_REG(baseadd)=data[k];
    4b80:	7813      	ldrb	r3, [r2, #0]
    4b82:	3201      	adds	r2, #1
    4b84:	7183      	strb	r3, [r0, #6]
E:\2017-2018\03_Graduation Project\04_Software\05_Wangshi\02_6220\06_UpdateSoftware-180714\01_UEBootloader\KL36_Bios-180714\Debug/../03_MCU/MCU_drivers/spi/spi.c:199 (discriminator 2)
           SPI_S_REG(baseadd) !=  SPI_S_SPTEF_MASK;    //SPTEF
    4b86:	7803      	ldrb	r3, [r0, #0]
E:\2017-2018\03_Graduation Project\04_Software\05_Wangshi\02_6220\06_UpdateSoftware-180714\01_UEBootloader\KL36_Bios-180714\Debug/../03_MCU/MCU_drivers/spi/spi.c:194 (discriminator 2)
    for(k=0;k<n;k++)
    4b88:	428a      	cmp	r2, r1
    4b8a:	d1f6      	bne.n	4b7a <SPI_sendN+0x12>
E:\2017-2018\03_Graduation Project\04_Software\05_Wangshi\02_6220\06_UpdateSoftware-180714\01_UEBootloader\KL36_Bios-180714\Debug/../03_MCU/MCU_drivers/spi/spi.c:201
    }
}
    4b8c:	bd10      	pop	{r4, pc}
    4b8e:	46c0      	nop			; (mov r8, r8)
    4b90:	00040076 	.word	0x00040076

00004b94 <SPI_receive1>:
SPI_receive1():
E:\2017-2018\03_Graduation Project\04_Software\05_Wangshi\02_6220\06_UpdateSoftware-180714\01_UEBootloader\KL36_Bios-180714\Debug/../03_MCU/MCU_drivers/spi/spi.c:211
//No 01
//
//=====================================================================
uint_8 SPI_receive1(uint_8 No)
{
    SPI_MemMapPtr baseadd=SPI_baseadd(No);
    4b94:	4b05      	ldr	r3, [pc, #20]	; (4bac <SPI_receive1+0x18>)
    4b96:	469c      	mov	ip, r3
    4b98:	4460      	add	r0, ip
    4b9a:	0300      	lsls	r0, r0, #12
E:\2017-2018\03_Graduation Project\04_Software\05_Wangshi\02_6220\06_UpdateSoftware-180714\01_UEBootloader\KL36_Bios-180714\Debug/../03_MCU/MCU_drivers/spi/spi.c:212 (discriminator 1)
    while(!(SPI_S_REG(baseadd)& SPI_S_SPRF_MASK));    //SPI
    4b9c:	7803      	ldrb	r3, [r0, #0]
    4b9e:	b25b      	sxtb	r3, r3
    4ba0:	2b00      	cmp	r3, #0
    4ba2:	dafb      	bge.n	4b9c <SPI_receive1+0x8>
E:\2017-2018\03_Graduation Project\04_Software\05_Wangshi\02_6220\06_UpdateSoftware-180714\01_UEBootloader\KL36_Bios-180714\Debug/../03_MCU/MCU_drivers/spi/spi.c:213
        return SPI_DL_REG(baseadd);
    4ba4:	7980      	ldrb	r0, [r0, #6]
    4ba6:	b2c0      	uxtb	r0, r0
E:\2017-2018\03_Graduation Project\04_Software\05_Wangshi\02_6220\06_UpdateSoftware-180714\01_UEBootloader\KL36_Bios-180714\Debug/../03_MCU/MCU_drivers/spi/spi.c:214
}
    4ba8:	4770      	bx	lr
    4baa:	46c0      	nop			; (mov r8, r8)
    4bac:	00040076 	.word	0x00040076

00004bb0 <SPI_receiveN>:
SPI_receiveN():
E:\2017-2018\03_Graduation Project\04_Software\05_Wangshi\02_6220\06_UpdateSoftware-180714\01_UEBootloader\KL36_Bios-180714\Debug/../03_MCU/MCU_drivers/spi/spi.c:226
//       data[]:
//1,
//=====================================================================
uint_8 SPI_receiveN(uint_8 No,uint_8 n,uint_8 data[])
{
    SPI_MemMapPtr baseadd=SPI_baseadd(No);
    4bb0:	4b09      	ldr	r3, [pc, #36]	; (4bd8 <SPI_receiveN+0x28>)
E:\2017-2018\03_Graduation Project\04_Software\05_Wangshi\02_6220\06_UpdateSoftware-180714\01_UEBootloader\KL36_Bios-180714\Debug/../03_MCU/MCU_drivers/spi/spi.c:225
{
    4bb2:	b510      	push	{r4, lr}
E:\2017-2018\03_Graduation Project\04_Software\05_Wangshi\02_6220\06_UpdateSoftware-180714\01_UEBootloader\KL36_Bios-180714\Debug/../03_MCU/MCU_drivers/spi/spi.c:226
    SPI_MemMapPtr baseadd=SPI_baseadd(No);
    4bb4:	469c      	mov	ip, r3
    4bb6:	4460      	add	r0, ip
    4bb8:	0300      	lsls	r0, r0, #12
E:\2017-2018\03_Graduation Project\04_Software\05_Wangshi\02_6220\06_UpdateSoftware-180714\01_UEBootloader\KL36_Bios-180714\Debug/../03_MCU/MCU_drivers/spi/spi.c:227
    uint_32 m=0;
    4bba:	2400      	movs	r4, #0
E:\2017-2018\03_Graduation Project\04_Software\05_Wangshi\02_6220\06_UpdateSoftware-180714\01_UEBootloader\KL36_Bios-180714\Debug/../03_MCU/MCU_drivers/spi/spi.c:228
    while(m<n)
    4bbc:	e003      	b.n	4bc6 <SPI_receiveN+0x16>
E:\2017-2018\03_Graduation Project\04_Software\05_Wangshi\02_6220\06_UpdateSoftware-180714\01_UEBootloader\KL36_Bios-180714\Debug/../03_MCU/MCU_drivers/spi/spi.c:230
    {
        if(SPI_S_REG(baseadd)&SPI_S_SPRF_MASK)
    4bbe:	7803      	ldrb	r3, [r0, #0]
    4bc0:	b25b      	sxtb	r3, r3
    4bc2:	2b00      	cmp	r3, #0
    4bc4:	db03      	blt.n	4bce <SPI_receiveN+0x1e>
E:\2017-2018\03_Graduation Project\04_Software\05_Wangshi\02_6220\06_UpdateSoftware-180714\01_UEBootloader\KL36_Bios-180714\Debug/../03_MCU/MCU_drivers/spi/spi.c:228
    while(m<n)
    4bc6:	42a1      	cmp	r1, r4
    4bc8:	d8f9      	bhi.n	4bbe <SPI_receiveN+0xe>
E:\2017-2018\03_Graduation Project\04_Software\05_Wangshi\02_6220\06_UpdateSoftware-180714\01_UEBootloader\KL36_Bios-180714\Debug/../03_MCU/MCU_drivers/spi/spi.c:237
             data[m]=SPI_DL_REG(baseadd);
                 m++;
        }
    }
    return(1);
}
    4bca:	2001      	movs	r0, #1
    4bcc:	bd10      	pop	{r4, pc}
E:\2017-2018\03_Graduation Project\04_Software\05_Wangshi\02_6220\06_UpdateSoftware-180714\01_UEBootloader\KL36_Bios-180714\Debug/../03_MCU/MCU_drivers/spi/spi.c:232
             data[m]=SPI_DL_REG(baseadd);
    4bce:	7983      	ldrb	r3, [r0, #6]
    4bd0:	5513      	strb	r3, [r2, r4]
E:\2017-2018\03_Graduation Project\04_Software\05_Wangshi\02_6220\06_UpdateSoftware-180714\01_UEBootloader\KL36_Bios-180714\Debug/../03_MCU/MCU_drivers/spi/spi.c:233
                 m++;
    4bd2:	3401      	adds	r4, #1
    4bd4:	e7f7      	b.n	4bc6 <SPI_receiveN+0x16>
    4bd6:	46c0      	nop			; (mov r8, r8)
    4bd8:	00040076 	.word	0x00040076

00004bdc <SPI_enable_re_int>:
SPI_enable_re_int():
E:\2017-2018\03_Graduation Project\04_Software\05_Wangshi\02_6220\06_UpdateSoftware-180714\01_UEBootloader\KL36_Bios-180714\Debug/../03_MCU/MCU_drivers/spi/spi.c:246
//SPI
//No 01
//
//=====================================================================
void SPI_enable_re_int(uint_8 No)
{
    4bdc:	b510      	push	{r4, lr}
E:\2017-2018\03_Graduation Project\04_Software\05_Wangshi\02_6220\06_UpdateSoftware-180714\01_UEBootloader\KL36_Bios-180714\Debug/../03_MCU/MCU_drivers/spi/spi.c:247
    enable_irq (No+10);
    4bde:	300a      	adds	r0, #10
    4be0:	b240      	sxtb	r0, r0
    4be2:	f7fe f853 	bl	2c8c <enable_irq>
E:\2017-2018\03_Graduation Project\04_Software\05_Wangshi\02_6220\06_UpdateSoftware-180714\01_UEBootloader\KL36_Bios-180714\Debug/../03_MCU/MCU_drivers/spi/spi.c:248
}
    4be6:	bd10      	pop	{r4, pc}

00004be8 <SPI_disable_re_int>:
SPI_disable_re_int():
E:\2017-2018\03_Graduation Project\04_Software\05_Wangshi\02_6220\06_UpdateSoftware-180714\01_UEBootloader\KL36_Bios-180714\Debug/../03_MCU/MCU_drivers/spi/spi.c:257
//SPI
//No 01
//
//=====================================================================
void SPI_disable_re_int(uint_8 No)
{
    4be8:	b510      	push	{r4, lr}
E:\2017-2018\03_Graduation Project\04_Software\05_Wangshi\02_6220\06_UpdateSoftware-180714\01_UEBootloader\KL36_Bios-180714\Debug/../03_MCU/MCU_drivers/spi/spi.c:258
    disable_irq (No+10);
    4bea:	300a      	adds	r0, #10
    4bec:	b240      	sxtb	r0, r0
    4bee:	f7fe f85b 	bl	2ca8 <disable_irq>
E:\2017-2018\03_Graduation Project\04_Software\05_Wangshi\02_6220\06_UpdateSoftware-180714\01_UEBootloader\KL36_Bios-180714\Debug/../03_MCU/MCU_drivers/spi/spi.c:259
}
    4bf2:	bd10      	pop	{r4, pc}

00004bf4 <lptmr_init>:
lptmr_init():
E:\2017-2018\03_Graduation Project\04_Software\05_Wangshi\02_6220\06_UpdateSoftware-180714\01_UEBootloader\KL36_Bios-180714\Debug/../03_MCU/MCU_drivers/lptmr/lptmr.c:26
//LPTMR0_CMR1000
//2LPTMR500HzLPTMR0_CMR500
//
//============================================================================
void lptmr_init(uint_32 time)
{
    4bf4:	b510      	push	{r4, lr}
E:\2017-2018\03_Graduation Project\04_Software\05_Wangshi\02_6220\06_UpdateSoftware-180714\01_UEBootloader\KL36_Bios-180714\Debug/../03_MCU/MCU_drivers/lptmr/lptmr.c:29
    uint_16 compare_value;

    SIM_SCGC5|=SIM_SCGC5_LPTMR_MASK;//LPTMR
    4bf6:	2401      	movs	r4, #1
    4bf8:	4b0a      	ldr	r3, [pc, #40]	; (4c24 <lptmr_init+0x30>)
    4bfa:	4a0b      	ldr	r2, [pc, #44]	; (4c28 <lptmr_init+0x34>)
    4bfc:	0400      	lsls	r0, r0, #16
    4bfe:	5899      	ldr	r1, [r3, r2]
    4c00:	0c00      	lsrs	r0, r0, #16
    4c02:	4321      	orrs	r1, r4
    4c04:	5099      	str	r1, [r3, r2]
E:\2017-2018\03_Graduation Project\04_Software\05_Wangshi\02_6220\06_UpdateSoftware-180714\01_UEBootloader\KL36_Bios-180714\Debug/../03_MCU/MCU_drivers/lptmr/lptmr.c:31

    SIM_SOPT1 |= SIM_SOPT1_OSC32KSEL(0x01);//LPO
    4c06:	2180      	movs	r1, #128	; 0x80
    4c08:	681a      	ldr	r2, [r3, #0]
    4c0a:	02c9      	lsls	r1, r1, #11
    4c0c:	4311      	orrs	r1, r2
E:\2017-2018\03_Graduation Project\04_Software\05_Wangshi\02_6220\06_UpdateSoftware-180714\01_UEBootloader\KL36_Bios-180714\Debug/../03_MCU/MCU_drivers/lptmr/lptmr.c:32
    LPTMR0_PSR |= LPTMR_PSR_PCS(1)|LPTMR_PSR_PBYP_MASK;
    4c0e:	2205      	movs	r2, #5
E:\2017-2018\03_Graduation Project\04_Software\05_Wangshi\02_6220\06_UpdateSoftware-180714\01_UEBootloader\KL36_Bios-180714\Debug/../03_MCU/MCU_drivers/lptmr/lptmr.c:31
    SIM_SOPT1 |= SIM_SOPT1_OSC32KSEL(0x01);//LPO
    4c10:	6019      	str	r1, [r3, #0]
E:\2017-2018\03_Graduation Project\04_Software\05_Wangshi\02_6220\06_UpdateSoftware-180714\01_UEBootloader\KL36_Bios-180714\Debug/../03_MCU/MCU_drivers/lptmr/lptmr.c:32
    LPTMR0_PSR |= LPTMR_PSR_PCS(1)|LPTMR_PSR_PBYP_MASK;
    4c12:	4b06      	ldr	r3, [pc, #24]	; (4c2c <lptmr_init+0x38>)
    4c14:	6859      	ldr	r1, [r3, #4]
    4c16:	4311      	orrs	r1, r2
    4c18:	6059      	str	r1, [r3, #4]
E:\2017-2018\03_Graduation Project\04_Software\05_Wangshi\02_6220\06_UpdateSoftware-180714\01_UEBootloader\KL36_Bios-180714\Debug/../03_MCU/MCU_drivers/lptmr/lptmr.c:35
    compare_value=time;

    LPTMR0_CMR = LPTMR_CMR_COMPARE(compare_value);      //
    4c1a:	6098      	str	r0, [r3, #8]
E:\2017-2018\03_Graduation Project\04_Software\05_Wangshi\02_6220\06_UpdateSoftware-180714\01_UEBootloader\KL36_Bios-180714\Debug/../03_MCU/MCU_drivers/lptmr/lptmr.c:36
    LPTMR0_CSR |= LPTMR_CSR_TEN_MASK; //LPTMR
    4c1c:	681a      	ldr	r2, [r3, #0]
    4c1e:	4322      	orrs	r2, r4
    4c20:	601a      	str	r2, [r3, #0]
E:\2017-2018\03_Graduation Project\04_Software\05_Wangshi\02_6220\06_UpdateSoftware-180714\01_UEBootloader\KL36_Bios-180714\Debug/../03_MCU/MCU_drivers/lptmr/lptmr.c:37
}
    4c22:	bd10      	pop	{r4, pc}
    4c24:	40047000 	.word	0x40047000
    4c28:	00001038 	.word	0x00001038
    4c2c:	40040000 	.word	0x40040000

00004c30 <lptmr_reset>:
lptmr_reset():
E:\2017-2018\03_Graduation Project\04_Software\05_Wangshi\02_6220\06_UpdateSoftware-180714\01_UEBootloader\KL36_Bios-180714\Debug/../03_MCU/MCU_drivers/lptmr/lptmr.c:47
//
//LPTMR
//============================================================================
void lptmr_reset(void)
{
    LPTMR0_CSR|=LPTMR_CSR_TCF_MASK;
    4c30:	2180      	movs	r1, #128	; 0x80
    4c32:	4a02      	ldr	r2, [pc, #8]	; (4c3c <lptmr_reset+0xc>)
    4c34:	6813      	ldr	r3, [r2, #0]
    4c36:	430b      	orrs	r3, r1
    4c38:	6013      	str	r3, [r2, #0]
E:\2017-2018\03_Graduation Project\04_Software\05_Wangshi\02_6220\06_UpdateSoftware-180714\01_UEBootloader\KL36_Bios-180714\Debug/../03_MCU/MCU_drivers/lptmr/lptmr.c:48
}
    4c3a:	4770      	bx	lr
    4c3c:	40040000 	.word	0x40040000

00004c40 <enable_lptmr_int>:
enable_lptmr_int():
E:\2017-2018\03_Graduation Project\04_Software\05_Wangshi\02_6220\06_UpdateSoftware-180714\01_UEBootloader\KL36_Bios-180714\Debug/../03_MCU/MCU_drivers/lptmr/lptmr.c:59
//LPTMRLPTMR
//enable_lptmr_int();LPTMR
//============================================================================
void enable_lptmr_int(void)
{
    LPTMR0_CSR|=LPTMR_CSR_TIE_MASK;        //LPTMR
    4c40:	2140      	movs	r1, #64	; 0x40
    4c42:	4a04      	ldr	r2, [pc, #16]	; (4c54 <enable_lptmr_int+0x14>)
    4c44:	6813      	ldr	r3, [r2, #0]
    4c46:	430b      	orrs	r3, r1
    4c48:	6013      	str	r3, [r2, #0]
NVIC_EnableIRQ():
E:\2017-2018\03_Graduation Project\04_Software\05_Wangshi\02_6220\06_UpdateSoftware-180714\01_UEBootloader\KL36_Bios-180714\02_Core/core_cm0plus.h:685
  NVIC->ISER[0] = (uint32_t)(1UL << (((uint32_t)(int32_t)IRQn) & 0x1FUL));
    4c4a:	2280      	movs	r2, #128	; 0x80
    4c4c:	4b02      	ldr	r3, [pc, #8]	; (4c58 <enable_lptmr_int+0x18>)
    4c4e:	0552      	lsls	r2, r2, #21
    4c50:	601a      	str	r2, [r3, #0]
enable_lptmr_int():
E:\2017-2018\03_Graduation Project\04_Software\05_Wangshi\02_6220\06_UpdateSoftware-180714\01_UEBootloader\KL36_Bios-180714\Debug/../03_MCU/MCU_drivers/lptmr/lptmr.c:61
    NVIC_EnableIRQ(LPTMR0_IRQn);           //IRQ
}
    4c52:	4770      	bx	lr
    4c54:	40040000 	.word	0x40040000
    4c58:	e000e100 	.word	0xe000e100

00004c5c <disable_lptmr_int>:
disable_lptmr_int():
E:\2017-2018\03_Graduation Project\04_Software\05_Wangshi\02_6220\06_UpdateSoftware-180714\01_UEBootloader\KL36_Bios-180714\Debug/../03_MCU/MCU_drivers/lptmr/lptmr.c:72
//LPT
//disable_lptmr_int();LPTMR
//============================================================================
void disable_lptmr_int(void)
{
    LPTMR0_CSR &=~LPTMR_CSR_TIE_MASK;      //LPTMR
    4c5c:	2140      	movs	r1, #64	; 0x40
    4c5e:	4a05      	ldr	r2, [pc, #20]	; (4c74 <disable_lptmr_int+0x18>)
    4c60:	6813      	ldr	r3, [r2, #0]
    4c62:	438b      	bics	r3, r1
NVIC_DisableIRQ():
E:\2017-2018\03_Graduation Project\04_Software\05_Wangshi\02_6220\06_UpdateSoftware-180714\01_UEBootloader\KL36_Bios-180714\02_Core/core_cm0plus.h:697
  NVIC->ICER[0] = (uint32_t)(1UL << (((uint32_t)(int32_t)IRQn) & 0x1FUL));
    4c64:	2180      	movs	r1, #128	; 0x80
disable_lptmr_int():
E:\2017-2018\03_Graduation Project\04_Software\05_Wangshi\02_6220\06_UpdateSoftware-180714\01_UEBootloader\KL36_Bios-180714\Debug/../03_MCU/MCU_drivers/lptmr/lptmr.c:72
    4c66:	6013      	str	r3, [r2, #0]
NVIC_DisableIRQ():
E:\2017-2018\03_Graduation Project\04_Software\05_Wangshi\02_6220\06_UpdateSoftware-180714\01_UEBootloader\KL36_Bios-180714\02_Core/core_cm0plus.h:697
    4c68:	2380      	movs	r3, #128	; 0x80
    4c6a:	4a03      	ldr	r2, [pc, #12]	; (4c78 <disable_lptmr_int+0x1c>)
    4c6c:	0549      	lsls	r1, r1, #21
    4c6e:	50d1      	str	r1, [r2, r3]
disable_lptmr_int():
E:\2017-2018\03_Graduation Project\04_Software\05_Wangshi\02_6220\06_UpdateSoftware-180714\01_UEBootloader\KL36_Bios-180714\Debug/../03_MCU/MCU_drivers/lptmr/lptmr.c:74
    NVIC_DisableIRQ(LPTMR0_IRQn);          //IRQ
}
    4c70:	4770      	bx	lr
    4c72:	46c0      	nop			; (mov r8, r8)
    4c74:	40040000 	.word	0x40040000
    4c78:	e000e100 	.word	0xe000e100

00004c7c <I2C_init>:
I2C_init():
E:\2017-2018\03_Graduation Project\04_Software\05_Wangshi\02_6220\06_UpdateSoftware-180714\01_UEBootloader\KL36_Bios-180714\Debug/../03_MCU/MCU_drivers/i2c/i2c.c:165
//          address     (1~255)
//          BaudRateKb/s25,50,75,100K
// 
//=====================================================================
void I2C_init(uint_8 I2C_No,uint_8 Mode,uint_8 address,uint_8 BaudRate)
{
    4c7c:	b5f0      	push	{r4, r5, r6, r7, lr}
E:\2017-2018\03_Graduation Project\04_Software\05_Wangshi\02_6220\06_UpdateSoftware-180714\01_UEBootloader\KL36_Bios-180714\Debug/../03_MCU/MCU_drivers/i2c/i2c.c:166
	I2C_MemMapPtr i2c_ptr = I2C_BASE_TABLE[I2C_No];
    4c7e:	4c26      	ldr	r4, [pc, #152]	; (4d18 <I2C_init+0x9c>)
    4c80:	0085      	lsls	r5, r0, #2
    4c82:	592c      	ldr	r4, [r5, r4]
E:\2017-2018\03_Graduation Project\04_Software\05_Wangshi\02_6220\06_UpdateSoftware-180714\01_UEBootloader\KL36_Bios-180714\Debug/../03_MCU/MCU_drivers/i2c/i2c.c:169
	if(I2C_No == IIC_0)
	{
		BSET(SIM_SCGC4_I2C0_SHIFT,SIM_SCGC4); //
    4c84:	4e25      	ldr	r6, [pc, #148]	; (4d1c <I2C_init+0xa0>)
    4c86:	4d26      	ldr	r5, [pc, #152]	; (4d20 <I2C_init+0xa4>)
E:\2017-2018\03_Graduation Project\04_Software\05_Wangshi\02_6220\06_UpdateSoftware-180714\01_UEBootloader\KL36_Bios-180714\Debug/../03_MCU/MCU_drivers/i2c/i2c.c:167
	if(I2C_No == IIC_0)
    4c88:	2800      	cmp	r0, #0
    4c8a:	d124      	bne.n	4cd6 <I2C_init+0x5a>
E:\2017-2018\03_Graduation Project\04_Software\05_Wangshi\02_6220\06_UpdateSoftware-180714\01_UEBootloader\KL36_Bios-180714\Debug/../03_MCU/MCU_drivers/i2c/i2c.c:169
		BSET(SIM_SCGC4_I2C0_SHIFT,SIM_SCGC4); //
    4c8c:	2740      	movs	r7, #64	; 0x40
    4c8e:	5970      	ldr	r0, [r6, r5]
    4c90:	4338      	orrs	r0, r7
    4c92:	5170      	str	r0, [r6, r5]
E:\2017-2018\03_Graduation Project\04_Software\05_Wangshi\02_6220\06_UpdateSoftware-180714\01_UEBootloader\KL36_Bios-180714\Debug/../03_MCU/MCU_drivers/i2c/i2c.c:171
		#if (IIC_0_GROUP == 1)
		PORTE_PCR18 = PORT_PCR_MUX(0x4);      //IIC0_SDA
    4c94:	2580      	movs	r5, #128	; 0x80
    4c96:	4823      	ldr	r0, [pc, #140]	; (4d24 <I2C_init+0xa8>)
    4c98:	00ed      	lsls	r5, r5, #3
    4c9a:	6485      	str	r5, [r0, #72]	; 0x48
E:\2017-2018\03_Graduation Project\04_Software\05_Wangshi\02_6220\06_UpdateSoftware-180714\01_UEBootloader\KL36_Bios-180714\Debug/../03_MCU/MCU_drivers/i2c/i2c.c:172
		PORTE_PCR19 = PORT_PCR_MUX(0x4);      //IIC0_SCL
    4c9c:	64c5      	str	r5, [r0, #76]	; 0x4c
E:\2017-2018\03_Graduation Project\04_Software\05_Wangshi\02_6220\06_UpdateSoftware-180714\01_UEBootloader\KL36_Bios-180714\Debug/../03_MCU/MCU_drivers/i2c/i2c.c:217
		#if (IIC_1_GROUP == 4)
		PORTC_PCR10 = PORT_PCR_MUX(0x2);      //IIC1_SCL
		PORTC_PCR11 = PORT_PCR_MUX(0x2);      //IIC1_SDA
		#endif
	}
	i2c_ptr->C1 = 0X00;   //C1
    4c9e:	2000      	movs	r0, #0
E:\2017-2018\03_Graduation Project\04_Software\05_Wangshi\02_6220\06_UpdateSoftware-180714\01_UEBootloader\KL36_Bios-180714\Debug/../03_MCU/MCU_drivers/i2c/i2c.c:218
	i2c_ptr->FLT |= I2C_FLT_STOPF_MASK;//
    4ca0:	2540      	movs	r5, #64	; 0x40
E:\2017-2018\03_Graduation Project\04_Software\05_Wangshi\02_6220\06_UpdateSoftware-180714\01_UEBootloader\KL36_Bios-180714\Debug/../03_MCU/MCU_drivers/i2c/i2c.c:217
	i2c_ptr->C1 = 0X00;   //C1
    4ca2:	70a0      	strb	r0, [r4, #2]
E:\2017-2018\03_Graduation Project\04_Software\05_Wangshi\02_6220\06_UpdateSoftware-180714\01_UEBootloader\KL36_Bios-180714\Debug/../03_MCU/MCU_drivers/i2c/i2c.c:218
	i2c_ptr->FLT |= I2C_FLT_STOPF_MASK;//
    4ca4:	79a0      	ldrb	r0, [r4, #6]
    4ca6:	4328      	orrs	r0, r5
E:\2017-2018\03_Graduation Project\04_Software\05_Wangshi\02_6220\06_UpdateSoftware-180714\01_UEBootloader\KL36_Bios-180714\Debug/../03_MCU/MCU_drivers/i2c/i2c.c:219
	i2c_ptr->S |= I2C_S_ARBL_MASK | I2C_S_IICIF_MASK; //S
    4ca8:	2512      	movs	r5, #18
E:\2017-2018\03_Graduation Project\04_Software\05_Wangshi\02_6220\06_UpdateSoftware-180714\01_UEBootloader\KL36_Bios-180714\Debug/../03_MCU/MCU_drivers/i2c/i2c.c:218
	i2c_ptr->FLT |= I2C_FLT_STOPF_MASK;//
    4caa:	71a0      	strb	r0, [r4, #6]
E:\2017-2018\03_Graduation Project\04_Software\05_Wangshi\02_6220\06_UpdateSoftware-180714\01_UEBootloader\KL36_Bios-180714\Debug/../03_MCU/MCU_drivers/i2c/i2c.c:219
	i2c_ptr->S |= I2C_S_ARBL_MASK | I2C_S_IICIF_MASK; //S
    4cac:	78e0      	ldrb	r0, [r4, #3]
    4cae:	4328      	orrs	r0, r5
    4cb0:	70e0      	strb	r0, [r4, #3]
E:\2017-2018\03_Graduation Project\04_Software\05_Wangshi\02_6220\06_UpdateSoftware-180714\01_UEBootloader\KL36_Bios-180714\Debug/../03_MCU/MCU_drivers/i2c/i2c.c:220
    if(1 == Mode)   //
    4cb2:	2901      	cmp	r1, #1
    4cb4:	d019      	beq.n	4cea <I2C_init+0x6e>
E:\2017-2018\03_Graduation Project\04_Software\05_Wangshi\02_6220\06_UpdateSoftware-180714\01_UEBootloader\KL36_Bios-180714\Debug/../03_MCU/MCU_drivers/i2c/i2c.c:244
    	}
        BSET(I2C_C1_IICEN_SHIFT,i2c_ptr->C1);//i2c0
    }
    else            //
    {
    	i2c_ptr->A1 = address << 1;
    4cb6:	0052      	lsls	r2, r2, #1
    4cb8:	b2d2      	uxtb	r2, r2
    4cba:	7022      	strb	r2, [r4, #0]
E:\2017-2018\03_Graduation Project\04_Software\05_Wangshi\02_6220\06_UpdateSoftware-180714\01_UEBootloader\KL36_Bios-180714\Debug/../03_MCU/MCU_drivers/i2c/i2c.c:245
        BSET(I2C_C1_IICEN_SHIFT,i2c_ptr->C1);//I2C
    4cbc:	2280      	movs	r2, #128	; 0x80
    4cbe:	78a3      	ldrb	r3, [r4, #2]
    4cc0:	4313      	orrs	r3, r2
    4cc2:	70a3      	strb	r3, [r4, #2]
E:\2017-2018\03_Graduation Project\04_Software\05_Wangshi\02_6220\06_UpdateSoftware-180714\01_UEBootloader\KL36_Bios-180714\Debug/../03_MCU/MCU_drivers/i2c/i2c.c:246
        BCLR(I2C_C1_TX_SHIFT,i2c_ptr->C1);//TX = 0,MCU
    4cc4:	78a3      	ldrb	r3, [r4, #2]
    4cc6:	3a70      	subs	r2, #112	; 0x70
    4cc8:	4393      	bics	r3, r2
    4cca:	70a3      	strb	r3, [r4, #2]
E:\2017-2018\03_Graduation Project\04_Software\05_Wangshi\02_6220\06_UpdateSoftware-180714\01_UEBootloader\KL36_Bios-180714\Debug/../03_MCU/MCU_drivers/i2c/i2c.c:247
        BCLR(I2C_C1_MST_SHIFT,i2c_ptr->C1);//MST10
    4ccc:	78a3      	ldrb	r3, [r4, #2]
    4cce:	3210      	adds	r2, #16
    4cd0:	4393      	bics	r3, r2
    4cd2:	70a3      	strb	r3, [r4, #2]
E:\2017-2018\03_Graduation Project\04_Software\05_Wangshi\02_6220\06_UpdateSoftware-180714\01_UEBootloader\KL36_Bios-180714\Debug/../03_MCU/MCU_drivers/i2c/i2c.c:249
    }
}
    4cd4:	bdf0      	pop	{r4, r5, r6, r7, pc}
E:\2017-2018\03_Graduation Project\04_Software\05_Wangshi\02_6220\06_UpdateSoftware-180714\01_UEBootloader\KL36_Bios-180714\Debug/../03_MCU/MCU_drivers/i2c/i2c.c:196
		BSET(SIM_SCGC4_I2C1_SHIFT,SIM_SCGC4); //
    4cd6:	2780      	movs	r7, #128	; 0x80
    4cd8:	5970      	ldr	r0, [r6, r5]
    4cda:	4338      	orrs	r0, r7
    4cdc:	5170      	str	r0, [r6, r5]
E:\2017-2018\03_Graduation Project\04_Software\05_Wangshi\02_6220\06_UpdateSoftware-180714\01_UEBootloader\KL36_Bios-180714\Debug/../03_MCU/MCU_drivers/i2c/i2c.c:208
		PORTC_PCR1 = PORT_PCR_MUX(0x2);      //IIC1_SCL
    4cde:	2580      	movs	r5, #128	; 0x80
    4ce0:	4811      	ldr	r0, [pc, #68]	; (4d28 <I2C_init+0xac>)
    4ce2:	00ad      	lsls	r5, r5, #2
    4ce4:	6045      	str	r5, [r0, #4]
E:\2017-2018\03_Graduation Project\04_Software\05_Wangshi\02_6220\06_UpdateSoftware-180714\01_UEBootloader\KL36_Bios-180714\Debug/../03_MCU/MCU_drivers/i2c/i2c.c:209
		PORTC_PCR2 = PORT_PCR_MUX(0x2);      //IIC1_SDA
    4ce6:	6085      	str	r5, [r0, #8]
    4ce8:	e7d9      	b.n	4c9e <I2C_init+0x22>
E:\2017-2018\03_Graduation Project\04_Software\05_Wangshi\02_6220\06_UpdateSoftware-180714\01_UEBootloader\KL36_Bios-180714\Debug/../03_MCU/MCU_drivers/i2c/i2c.c:222
    	switch(BaudRate)
    4cea:	2b32      	cmp	r3, #50	; 0x32
    4cec:	d00e      	beq.n	4d0c <I2C_init+0x90>
    4cee:	d908      	bls.n	4d02 <I2C_init+0x86>
    4cf0:	2b4b      	cmp	r3, #75	; 0x4b
    4cf2:	d00e      	beq.n	4d12 <I2C_init+0x96>
E:\2017-2018\03_Graduation Project\04_Software\05_Wangshi\02_6220\06_UpdateSoftware-180714\01_UEBootloader\KL36_Bios-180714\Debug/../03_MCU/MCU_drivers/i2c/i2c.c:237
				i2c_ptr->F = 0x1f;
    4cf4:	231f      	movs	r3, #31
    4cf6:	7063      	strb	r3, [r4, #1]
E:\2017-2018\03_Graduation Project\04_Software\05_Wangshi\02_6220\06_UpdateSoftware-180714\01_UEBootloader\KL36_Bios-180714\Debug/../03_MCU/MCU_drivers/i2c/i2c.c:240
        BSET(I2C_C1_IICEN_SHIFT,i2c_ptr->C1);//i2c0
    4cf8:	2280      	movs	r2, #128	; 0x80
    4cfa:	78a3      	ldrb	r3, [r4, #2]
    4cfc:	4313      	orrs	r3, r2
    4cfe:	70a3      	strb	r3, [r4, #2]
    4d00:	e7e8      	b.n	4cd4 <I2C_init+0x58>
E:\2017-2018\03_Graduation Project\04_Software\05_Wangshi\02_6220\06_UpdateSoftware-180714\01_UEBootloader\KL36_Bios-180714\Debug/../03_MCU/MCU_drivers/i2c/i2c.c:222
    	switch(BaudRate)
    4d02:	2b19      	cmp	r3, #25
    4d04:	d1f6      	bne.n	4cf4 <I2C_init+0x78>
E:\2017-2018\03_Graduation Project\04_Software\05_Wangshi\02_6220\06_UpdateSoftware-180714\01_UEBootloader\KL36_Bios-180714\Debug/../03_MCU/MCU_drivers/i2c/i2c.c:225
				i2c_ptr->F = 0x9f;
    4d06:	239f      	movs	r3, #159	; 0x9f
    4d08:	7063      	strb	r3, [r4, #1]
E:\2017-2018\03_Graduation Project\04_Software\05_Wangshi\02_6220\06_UpdateSoftware-180714\01_UEBootloader\KL36_Bios-180714\Debug/../03_MCU/MCU_drivers/i2c/i2c.c:226
				break;
    4d0a:	e7f5      	b.n	4cf8 <I2C_init+0x7c>
E:\2017-2018\03_Graduation Project\04_Software\05_Wangshi\02_6220\06_UpdateSoftware-180714\01_UEBootloader\KL36_Bios-180714\Debug/../03_MCU/MCU_drivers/i2c/i2c.c:228
				i2c_ptr->F = 0x5f;
    4d0c:	235f      	movs	r3, #95	; 0x5f
    4d0e:	7063      	strb	r3, [r4, #1]
E:\2017-2018\03_Graduation Project\04_Software\05_Wangshi\02_6220\06_UpdateSoftware-180714\01_UEBootloader\KL36_Bios-180714\Debug/../03_MCU/MCU_drivers/i2c/i2c.c:229
				break;
    4d10:	e7f2      	b.n	4cf8 <I2C_init+0x7c>
E:\2017-2018\03_Graduation Project\04_Software\05_Wangshi\02_6220\06_UpdateSoftware-180714\01_UEBootloader\KL36_Bios-180714\Debug/../03_MCU/MCU_drivers/i2c/i2c.c:231
				i2c_ptr->F = 0x25;
    4d12:	2325      	movs	r3, #37	; 0x25
    4d14:	7063      	strb	r3, [r4, #1]
E:\2017-2018\03_Graduation Project\04_Software\05_Wangshi\02_6220\06_UpdateSoftware-180714\01_UEBootloader\KL36_Bios-180714\Debug/../03_MCU/MCU_drivers/i2c/i2c.c:232
				break;
    4d16:	e7ef      	b.n	4cf8 <I2C_init+0x7c>
    4d18:	00005ce4 	.word	0x00005ce4
    4d1c:	40047000 	.word	0x40047000
    4d20:	00001034 	.word	0x00001034
    4d24:	4004d000 	.word	0x4004d000
    4d28:	4004b000 	.word	0x4004b000

00004d2c <I2C_read1>:
I2C_read1():
E:\2017-2018\03_Graduation Project\04_Software\05_Wangshi\02_6220\06_UpdateSoftware-180714\01_UEBootloader\KL36_Bios-180714\Debug/../03_MCU/MCU_drivers/i2c/i2c.c:263
//           I2C_readN
//           
//=====================================================================
uint_8 I2C_read1(uint_8 I2C_No,uint_8 slaveAddress,uint_8 commond,\
		                                                  uint_8 *Data)
{      
    4d2c:	b570      	push	{r4, r5, r6, lr}
i2c_start():
E:\2017-2018\03_Graduation Project\04_Software\05_Wangshi\02_6220\06_UpdateSoftware-180714\01_UEBootloader\KL36_Bios-180714\Debug/../03_MCU/MCU_drivers/i2c/i2c.c:85
	BSET(I2C_C1_TX_SHIFT,i2c_ptr->C1);  //
    4d2e:	2510      	movs	r5, #16
E:\2017-2018\03_Graduation Project\04_Software\05_Wangshi\02_6220\06_UpdateSoftware-180714\01_UEBootloader\KL36_Bios-180714\Debug/../03_MCU/MCU_drivers/i2c/i2c.c:84
	I2C_MemMapPtr i2c_ptr = I2C_BASE_TABLE[I2C_No];
    4d30:	4c38      	ldr	r4, [pc, #224]	; (4e14 <I2C_read1+0xe8>)
    4d32:	0080      	lsls	r0, r0, #2
    4d34:	5904      	ldr	r4, [r0, r4]
I2C_read1():
E:\2017-2018\03_Graduation Project\04_Software\05_Wangshi\02_6220\06_UpdateSoftware-180714\01_UEBootloader\KL36_Bios-180714\Debug/../03_MCU/MCU_drivers/i2c/i2c.c:266
	uint_8 temp;
	i2c_start(I2C_No);               //
	temp = (slaveAddress << 1) & 0xfe;
    4d36:	0049      	lsls	r1, r1, #1
i2c_start():
E:\2017-2018\03_Graduation Project\04_Software\05_Wangshi\02_6220\06_UpdateSoftware-180714\01_UEBootloader\KL36_Bios-180714\Debug/../03_MCU/MCU_drivers/i2c/i2c.c:85
	BSET(I2C_C1_TX_SHIFT,i2c_ptr->C1);  //
    4d38:	78a0      	ldrb	r0, [r4, #2]
i2c_wait():
E:\2017-2018\03_Graduation Project\04_Software\05_Wangshi\02_6220\06_UpdateSoftware-180714\01_UEBootloader\KL36_Bios-180714\Debug/../03_MCU/MCU_drivers/i2c/i2c.c:26
	while(BGET(I2C_S_IICIF_SHIFT,i2c_ptr->S) == 0)
    4d3a:	2602      	movs	r6, #2
i2c_start():
E:\2017-2018\03_Graduation Project\04_Software\05_Wangshi\02_6220\06_UpdateSoftware-180714\01_UEBootloader\KL36_Bios-180714\Debug/../03_MCU/MCU_drivers/i2c/i2c.c:85
	BSET(I2C_C1_TX_SHIFT,i2c_ptr->C1);  //
    4d3c:	4328      	orrs	r0, r5
E:\2017-2018\03_Graduation Project\04_Software\05_Wangshi\02_6220\06_UpdateSoftware-180714\01_UEBootloader\KL36_Bios-180714\Debug/../03_MCU/MCU_drivers/i2c/i2c.c:86
	BSET(I2C_C1_MST_SHIFT,i2c_ptr->C1); //
    4d3e:	2520      	movs	r5, #32
E:\2017-2018\03_Graduation Project\04_Software\05_Wangshi\02_6220\06_UpdateSoftware-180714\01_UEBootloader\KL36_Bios-180714\Debug/../03_MCU/MCU_drivers/i2c/i2c.c:85
	BSET(I2C_C1_TX_SHIFT,i2c_ptr->C1);  //
    4d40:	70a0      	strb	r0, [r4, #2]
E:\2017-2018\03_Graduation Project\04_Software\05_Wangshi\02_6220\06_UpdateSoftware-180714\01_UEBootloader\KL36_Bios-180714\Debug/../03_MCU/MCU_drivers/i2c/i2c.c:86
	BSET(I2C_C1_MST_SHIFT,i2c_ptr->C1); //
    4d42:	78a0      	ldrb	r0, [r4, #2]
    4d44:	4328      	orrs	r0, r5
    4d46:	70a0      	strb	r0, [r4, #2]
I2C_read1():
E:\2017-2018\03_Graduation Project\04_Software\05_Wangshi\02_6220\06_UpdateSoftware-180714\01_UEBootloader\KL36_Bios-180714\Debug/../03_MCU/MCU_drivers/i2c/i2c.c:266
	temp = (slaveAddress << 1) & 0xfe;
    4d48:	b2c8      	uxtb	r0, r1
i2c_write():
E:\2017-2018\03_Graduation Project\04_Software\05_Wangshi\02_6220\06_UpdateSoftware-180714\01_UEBootloader\KL36_Bios-180714\Debug/../03_MCU/MCU_drivers/i2c/i2c.c:60
	i2c_ptr->D = data;
    4d4a:	7120      	strb	r0, [r4, #4]
    4d4c:	4832      	ldr	r0, [pc, #200]	; (4e18 <I2C_read1+0xec>)
    4d4e:	e003      	b.n	4d58 <I2C_read1+0x2c>
    4d50:	3801      	subs	r0, #1
    4d52:	b280      	uxth	r0, r0
i2c_wait():
E:\2017-2018\03_Graduation Project\04_Software\05_Wangshi\02_6220\06_UpdateSoftware-180714\01_UEBootloader\KL36_Bios-180714\Debug/../03_MCU/MCU_drivers/i2c/i2c.c:29
		if(time > time_out)
    4d54:	2800      	cmp	r0, #0
    4d56:	d05b      	beq.n	4e10 <I2C_read1+0xe4>
E:\2017-2018\03_Graduation Project\04_Software\05_Wangshi\02_6220\06_UpdateSoftware-180714\01_UEBootloader\KL36_Bios-180714\Debug/../03_MCU/MCU_drivers/i2c/i2c.c:26
	while(BGET(I2C_S_IICIF_SHIFT,i2c_ptr->S) == 0)
    4d58:	78e5      	ldrb	r5, [r4, #3]
    4d5a:	422e      	tst	r6, r5
    4d5c:	d0f8      	beq.n	4d50 <I2C_read1+0x24>
E:\2017-2018\03_Graduation Project\04_Software\05_Wangshi\02_6220\06_UpdateSoftware-180714\01_UEBootloader\KL36_Bios-180714\Debug/../03_MCU/MCU_drivers/i2c/i2c.c:32
	BSET(I2C_S_IICIF_SHIFT,i2c_ptr->S);
    4d5e:	2502      	movs	r5, #2
    4d60:	78e0      	ldrb	r0, [r4, #3]
    4d62:	4328      	orrs	r0, r5
    4d64:	70e0      	strb	r0, [r4, #3]
i2c_get_ack():
E:\2017-2018\03_Graduation Project\04_Software\05_Wangshi\02_6220\06_UpdateSoftware-180714\01_UEBootloader\KL36_Bios-180714\Debug/../03_MCU/MCU_drivers/i2c/i2c.c:150
	ack = BGET(I2C_S_RXAK_SHIFT,i2c_ptr->S);
    4d66:	78e0      	ldrb	r0, [r4, #3]
I2C_read1():
E:\2017-2018\03_Graduation Project\04_Software\05_Wangshi\02_6220\06_UpdateSoftware-180714\01_UEBootloader\KL36_Bios-180714\Debug/../03_MCU/MCU_drivers/i2c/i2c.c:270
	i2c_write(I2C_No,temp);          //
	if(i2c_wait(I2C_No) == 1)        //
		return 1;                    //
	if(i2c_get_ack(I2C_No) == 1)     //ACK
    4d68:	07c0      	lsls	r0, r0, #31
    4d6a:	d451      	bmi.n	4e10 <I2C_read1+0xe4>
i2c_write():
E:\2017-2018\03_Graduation Project\04_Software\05_Wangshi\02_6220\06_UpdateSoftware-180714\01_UEBootloader\KL36_Bios-180714\Debug/../03_MCU/MCU_drivers/i2c/i2c.c:60
	i2c_ptr->D = data;
    4d6c:	7122      	strb	r2, [r4, #4]
i2c_wait():
E:\2017-2018\03_Graduation Project\04_Software\05_Wangshi\02_6220\06_UpdateSoftware-180714\01_UEBootloader\KL36_Bios-180714\Debug/../03_MCU/MCU_drivers/i2c/i2c.c:26
	while(BGET(I2C_S_IICIF_SHIFT,i2c_ptr->S) == 0)
    4d6e:	2502      	movs	r5, #2
i2c_write():
E:\2017-2018\03_Graduation Project\04_Software\05_Wangshi\02_6220\06_UpdateSoftware-180714\01_UEBootloader\KL36_Bios-180714\Debug/../03_MCU/MCU_drivers/i2c/i2c.c:60
	i2c_ptr->D = data;
    4d70:	4a29      	ldr	r2, [pc, #164]	; (4e18 <I2C_read1+0xec>)
    4d72:	e003      	b.n	4d7c <I2C_read1+0x50>
    4d74:	3a01      	subs	r2, #1
    4d76:	b292      	uxth	r2, r2
i2c_wait():
E:\2017-2018\03_Graduation Project\04_Software\05_Wangshi\02_6220\06_UpdateSoftware-180714\01_UEBootloader\KL36_Bios-180714\Debug/../03_MCU/MCU_drivers/i2c/i2c.c:29
		if(time > time_out)
    4d78:	2a00      	cmp	r2, #0
    4d7a:	d049      	beq.n	4e10 <I2C_read1+0xe4>
E:\2017-2018\03_Graduation Project\04_Software\05_Wangshi\02_6220\06_UpdateSoftware-180714\01_UEBootloader\KL36_Bios-180714\Debug/../03_MCU/MCU_drivers/i2c/i2c.c:26
	while(BGET(I2C_S_IICIF_SHIFT,i2c_ptr->S) == 0)
    4d7c:	78e0      	ldrb	r0, [r4, #3]
    4d7e:	4205      	tst	r5, r0
    4d80:	d0f8      	beq.n	4d74 <I2C_read1+0x48>
E:\2017-2018\03_Graduation Project\04_Software\05_Wangshi\02_6220\06_UpdateSoftware-180714\01_UEBootloader\KL36_Bios-180714\Debug/../03_MCU/MCU_drivers/i2c/i2c.c:32
	BSET(I2C_S_IICIF_SHIFT,i2c_ptr->S);
    4d82:	2002      	movs	r0, #2
    4d84:	78e2      	ldrb	r2, [r4, #3]
    4d86:	4302      	orrs	r2, r0
i2c_restart():
E:\2017-2018\03_Graduation Project\04_Software\05_Wangshi\02_6220\06_UpdateSoftware-180714\01_UEBootloader\KL36_Bios-180714\Debug/../03_MCU/MCU_drivers/i2c/i2c.c:98
	BSET(I2C_C1_TX_SHIFT,i2c_ptr->C1);  //
    4d88:	2010      	movs	r0, #16
i2c_wait():
E:\2017-2018\03_Graduation Project\04_Software\05_Wangshi\02_6220\06_UpdateSoftware-180714\01_UEBootloader\KL36_Bios-180714\Debug/../03_MCU/MCU_drivers/i2c/i2c.c:32
	BSET(I2C_S_IICIF_SHIFT,i2c_ptr->S);
    4d8a:	70e2      	strb	r2, [r4, #3]
i2c_restart():
E:\2017-2018\03_Graduation Project\04_Software\05_Wangshi\02_6220\06_UpdateSoftware-180714\01_UEBootloader\KL36_Bios-180714\Debug/../03_MCU/MCU_drivers/i2c/i2c.c:98
	BSET(I2C_C1_TX_SHIFT,i2c_ptr->C1);  //
    4d8c:	78a2      	ldrb	r2, [r4, #2]
    4d8e:	4302      	orrs	r2, r0
E:\2017-2018\03_Graduation Project\04_Software\05_Wangshi\02_6220\06_UpdateSoftware-180714\01_UEBootloader\KL36_Bios-180714\Debug/../03_MCU/MCU_drivers/i2c/i2c.c:99
	BSET(I2C_C1_RSTA_SHIFT,i2c_ptr->C1); //
    4d90:	2004      	movs	r0, #4
E:\2017-2018\03_Graduation Project\04_Software\05_Wangshi\02_6220\06_UpdateSoftware-180714\01_UEBootloader\KL36_Bios-180714\Debug/../03_MCU/MCU_drivers/i2c/i2c.c:98
	BSET(I2C_C1_TX_SHIFT,i2c_ptr->C1);  //
    4d92:	70a2      	strb	r2, [r4, #2]
E:\2017-2018\03_Graduation Project\04_Software\05_Wangshi\02_6220\06_UpdateSoftware-180714\01_UEBootloader\KL36_Bios-180714\Debug/../03_MCU/MCU_drivers/i2c/i2c.c:99
	BSET(I2C_C1_RSTA_SHIFT,i2c_ptr->C1); //
    4d94:	78a2      	ldrb	r2, [r4, #2]
    4d96:	4302      	orrs	r2, r0
    4d98:	70a2      	strb	r2, [r4, #2]
I2C_read1():
E:\2017-2018\03_Graduation Project\04_Software\05_Wangshi\02_6220\06_UpdateSoftware-180714\01_UEBootloader\KL36_Bios-180714\Debug/../03_MCU/MCU_drivers/i2c/i2c.c:276
		return 1;                    //
	i2c_write(I2C_No,commond);       //
	if(i2c_wait(I2C_No) == 1)        //
		return 1;                    //
	i2c_restart(I2C_No);             //
	temp = (slaveAddress << 1) | 0x01;
    4d9a:	2201      	movs	r2, #1
    4d9c:	4311      	orrs	r1, r2
    4d9e:	b2c9      	uxtb	r1, r1
i2c_write():
E:\2017-2018\03_Graduation Project\04_Software\05_Wangshi\02_6220\06_UpdateSoftware-180714\01_UEBootloader\KL36_Bios-180714\Debug/../03_MCU/MCU_drivers/i2c/i2c.c:60
	i2c_ptr->D = data;
    4da0:	7121      	strb	r1, [r4, #4]
    4da2:	4a1d      	ldr	r2, [pc, #116]	; (4e18 <I2C_read1+0xec>)
i2c_wait():
E:\2017-2018\03_Graduation Project\04_Software\05_Wangshi\02_6220\06_UpdateSoftware-180714\01_UEBootloader\KL36_Bios-180714\Debug/../03_MCU/MCU_drivers/i2c/i2c.c:26
	while(BGET(I2C_S_IICIF_SHIFT,i2c_ptr->S) == 0)
    4da4:	2002      	movs	r0, #2
    4da6:	e003      	b.n	4db0 <I2C_read1+0x84>
    4da8:	3a01      	subs	r2, #1
    4daa:	b292      	uxth	r2, r2
E:\2017-2018\03_Graduation Project\04_Software\05_Wangshi\02_6220\06_UpdateSoftware-180714\01_UEBootloader\KL36_Bios-180714\Debug/../03_MCU/MCU_drivers/i2c/i2c.c:29
		if(time > time_out)
    4dac:	2a00      	cmp	r2, #0
    4dae:	d02f      	beq.n	4e10 <I2C_read1+0xe4>
E:\2017-2018\03_Graduation Project\04_Software\05_Wangshi\02_6220\06_UpdateSoftware-180714\01_UEBootloader\KL36_Bios-180714\Debug/../03_MCU/MCU_drivers/i2c/i2c.c:26
	while(BGET(I2C_S_IICIF_SHIFT,i2c_ptr->S) == 0)
    4db0:	78e1      	ldrb	r1, [r4, #3]
    4db2:	4208      	tst	r0, r1
    4db4:	d0f8      	beq.n	4da8 <I2C_read1+0x7c>
E:\2017-2018\03_Graduation Project\04_Software\05_Wangshi\02_6220\06_UpdateSoftware-180714\01_UEBootloader\KL36_Bios-180714\Debug/../03_MCU/MCU_drivers/i2c/i2c.c:32
	BSET(I2C_S_IICIF_SHIFT,i2c_ptr->S);
    4db6:	2102      	movs	r1, #2
    4db8:	78e2      	ldrb	r2, [r4, #3]
    4dba:	430a      	orrs	r2, r1
    4dbc:	70e2      	strb	r2, [r4, #3]
i2c_get_ack():
E:\2017-2018\03_Graduation Project\04_Software\05_Wangshi\02_6220\06_UpdateSoftware-180714\01_UEBootloader\KL36_Bios-180714\Debug/../03_MCU/MCU_drivers/i2c/i2c.c:150
	ack = BGET(I2C_S_RXAK_SHIFT,i2c_ptr->S);
    4dbe:	2201      	movs	r2, #1
    4dc0:	78e0      	ldrb	r0, [r4, #3]
    4dc2:	4010      	ands	r0, r2
I2C_read1():
E:\2017-2018\03_Graduation Project\04_Software\05_Wangshi\02_6220\06_UpdateSoftware-180714\01_UEBootloader\KL36_Bios-180714\Debug/../03_MCU/MCU_drivers/i2c/i2c.c:280
	i2c_write(I2C_No,temp);  //
	if(i2c_wait(I2C_No) == 1)        //
		return 1;                    //
	if(i2c_get_ack(I2C_No) == 1)     //ACK
    4dc4:	d124      	bne.n	4e10 <I2C_read1+0xe4>
i2c_changeDir():
E:\2017-2018\03_Graduation Project\04_Software\05_Wangshi\02_6220\06_UpdateSoftware-180714\01_UEBootloader\KL36_Bios-180714\Debug/../03_MCU/MCU_drivers/i2c/i2c.c:136
	i2c_ptr->C1 &= ~I2C_C1_TX_MASK;
    4dc6:	2110      	movs	r1, #16
    4dc8:	78a2      	ldrb	r2, [r4, #2]
i2c_wait():
E:\2017-2018\03_Graduation Project\04_Software\05_Wangshi\02_6220\06_UpdateSoftware-180714\01_UEBootloader\KL36_Bios-180714\Debug/../03_MCU/MCU_drivers/i2c/i2c.c:26
	while(BGET(I2C_S_IICIF_SHIFT,i2c_ptr->S) == 0)
    4dca:	2502      	movs	r5, #2
i2c_changeDir():
E:\2017-2018\03_Graduation Project\04_Software\05_Wangshi\02_6220\06_UpdateSoftware-180714\01_UEBootloader\KL36_Bios-180714\Debug/../03_MCU/MCU_drivers/i2c/i2c.c:136
	i2c_ptr->C1 &= ~I2C_C1_TX_MASK;
    4dcc:	438a      	bics	r2, r1
i2c_sendNACK():
E:\2017-2018\03_Graduation Project\04_Software\05_Wangshi\02_6220\06_UpdateSoftware-180714\01_UEBootloader\KL36_Bios-180714\Debug/../03_MCU/MCU_drivers/i2c/i2c.c:123
	BSET(I2C_C1_TXAK_SHIFT,i2c_ptr->C1);
    4dce:	2108      	movs	r1, #8
i2c_changeDir():
E:\2017-2018\03_Graduation Project\04_Software\05_Wangshi\02_6220\06_UpdateSoftware-180714\01_UEBootloader\KL36_Bios-180714\Debug/../03_MCU/MCU_drivers/i2c/i2c.c:136
	i2c_ptr->C1 &= ~I2C_C1_TX_MASK;
    4dd0:	70a2      	strb	r2, [r4, #2]
E:\2017-2018\03_Graduation Project\04_Software\05_Wangshi\02_6220\06_UpdateSoftware-180714\01_UEBootloader\KL36_Bios-180714\Debug/../03_MCU/MCU_drivers/i2c/i2c.c:137
	i2c_ptr->C1 |= I2C_C1_TX(direction);
    4dd2:	78a2      	ldrb	r2, [r4, #2]
    4dd4:	b2d2      	uxtb	r2, r2
    4dd6:	70a2      	strb	r2, [r4, #2]
i2c_sendNACK():
E:\2017-2018\03_Graduation Project\04_Software\05_Wangshi\02_6220\06_UpdateSoftware-180714\01_UEBootloader\KL36_Bios-180714\Debug/../03_MCU/MCU_drivers/i2c/i2c.c:123
	BSET(I2C_C1_TXAK_SHIFT,i2c_ptr->C1);
    4dd8:	78a2      	ldrb	r2, [r4, #2]
    4dda:	430a      	orrs	r2, r1
    4ddc:	70a2      	strb	r2, [r4, #2]
i2c_read():
E:\2017-2018\03_Graduation Project\04_Software\05_Wangshi\02_6220\06_UpdateSoftware-180714\01_UEBootloader\KL36_Bios-180714\Debug/../03_MCU/MCU_drivers/i2c/i2c.c:46
	result = i2c_ptr->D;
    4dde:	7922      	ldrb	r2, [r4, #4]
    4de0:	4a0d      	ldr	r2, [pc, #52]	; (4e18 <I2C_read1+0xec>)
    4de2:	e003      	b.n	4dec <I2C_read1+0xc0>
    4de4:	3a01      	subs	r2, #1
    4de6:	b292      	uxth	r2, r2
i2c_wait():
E:\2017-2018\03_Graduation Project\04_Software\05_Wangshi\02_6220\06_UpdateSoftware-180714\01_UEBootloader\KL36_Bios-180714\Debug/../03_MCU/MCU_drivers/i2c/i2c.c:29
		if(time > time_out)
    4de8:	2a00      	cmp	r2, #0
    4dea:	d011      	beq.n	4e10 <I2C_read1+0xe4>
E:\2017-2018\03_Graduation Project\04_Software\05_Wangshi\02_6220\06_UpdateSoftware-180714\01_UEBootloader\KL36_Bios-180714\Debug/../03_MCU/MCU_drivers/i2c/i2c.c:26
	while(BGET(I2C_S_IICIF_SHIFT,i2c_ptr->S) == 0)
    4dec:	78e1      	ldrb	r1, [r4, #3]
    4dee:	420d      	tst	r5, r1
    4df0:	d0f8      	beq.n	4de4 <I2C_read1+0xb8>
E:\2017-2018\03_Graduation Project\04_Software\05_Wangshi\02_6220\06_UpdateSoftware-180714\01_UEBootloader\KL36_Bios-180714\Debug/../03_MCU/MCU_drivers/i2c/i2c.c:32
	BSET(I2C_S_IICIF_SHIFT,i2c_ptr->S);
    4df2:	2102      	movs	r1, #2
    4df4:	78e2      	ldrb	r2, [r4, #3]
    4df6:	430a      	orrs	r2, r1
i2c_stop():
E:\2017-2018\03_Graduation Project\04_Software\05_Wangshi\02_6220\06_UpdateSoftware-180714\01_UEBootloader\KL36_Bios-180714\Debug/../03_MCU/MCU_drivers/i2c/i2c.c:72
	BCLR(I2C_C1_MST_SHIFT,i2c_ptr->C1); //
    4df8:	2120      	movs	r1, #32
i2c_wait():
E:\2017-2018\03_Graduation Project\04_Software\05_Wangshi\02_6220\06_UpdateSoftware-180714\01_UEBootloader\KL36_Bios-180714\Debug/../03_MCU/MCU_drivers/i2c/i2c.c:32
	BSET(I2C_S_IICIF_SHIFT,i2c_ptr->S);
    4dfa:	70e2      	strb	r2, [r4, #3]
i2c_stop():
E:\2017-2018\03_Graduation Project\04_Software\05_Wangshi\02_6220\06_UpdateSoftware-180714\01_UEBootloader\KL36_Bios-180714\Debug/../03_MCU/MCU_drivers/i2c/i2c.c:72
	BCLR(I2C_C1_MST_SHIFT,i2c_ptr->C1); //
    4dfc:	78a2      	ldrb	r2, [r4, #2]
    4dfe:	438a      	bics	r2, r1
    4e00:	70a2      	strb	r2, [r4, #2]
E:\2017-2018\03_Graduation Project\04_Software\05_Wangshi\02_6220\06_UpdateSoftware-180714\01_UEBootloader\KL36_Bios-180714\Debug/../03_MCU/MCU_drivers/i2c/i2c.c:73
	BCLR(I2C_C1_TX_SHIFT,i2c_ptr->C1);  //
    4e02:	78a2      	ldrb	r2, [r4, #2]
    4e04:	3910      	subs	r1, #16
    4e06:	438a      	bics	r2, r1
    4e08:	70a2      	strb	r2, [r4, #2]
i2c_read():
E:\2017-2018\03_Graduation Project\04_Software\05_Wangshi\02_6220\06_UpdateSoftware-180714\01_UEBootloader\KL36_Bios-180714\Debug/../03_MCU/MCU_drivers/i2c/i2c.c:46
	result = i2c_ptr->D;
    4e0a:	7922      	ldrb	r2, [r4, #4]
I2C_read1():
E:\2017-2018\03_Graduation Project\04_Software\05_Wangshi\02_6220\06_UpdateSoftware-180714\01_UEBootloader\KL36_Bios-180714\Debug/../03_MCU/MCU_drivers/i2c/i2c.c:288
	i2c_sendNACK(I2C_No);            //NACK
	i2c_read(I2C_No);                //
	if(i2c_wait(I2C_No) == 1)        //
		return 1;                    //
	i2c_stop(I2C_No);                //
	*Data = i2c_read(I2C_No);  //
    4e0c:	701a      	strb	r2, [r3, #0]
E:\2017-2018\03_Graduation Project\04_Software\05_Wangshi\02_6220\06_UpdateSoftware-180714\01_UEBootloader\KL36_Bios-180714\Debug/../03_MCU/MCU_drivers/i2c/i2c.c:289
	return 0;
    4e0e:	e000      	b.n	4e12 <I2C_read1+0xe6>
E:\2017-2018\03_Graduation Project\04_Software\05_Wangshi\02_6220\06_UpdateSoftware-180714\01_UEBootloader\KL36_Bios-180714\Debug/../03_MCU/MCU_drivers/i2c/i2c.c:269
		return 1;                    //
    4e10:	2001      	movs	r0, #1
E:\2017-2018\03_Graduation Project\04_Software\05_Wangshi\02_6220\06_UpdateSoftware-180714\01_UEBootloader\KL36_Bios-180714\Debug/../03_MCU/MCU_drivers/i2c/i2c.c:290
}
    4e12:	bd70      	pop	{r4, r5, r6, pc}
    4e14:	00005ce4 	.word	0x00005ce4
    4e18:	0000ffff 	.word	0x0000ffff

00004e1c <I2C_readN>:
I2C_readN():
E:\2017-2018\03_Graduation Project\04_Software\05_Wangshi\02_6220\06_UpdateSoftware-180714\01_UEBootloader\KL36_Bios-180714\Debug/../03_MCU/MCU_drivers/i2c/i2c.c:304
//          DataNum2
// 10
//=====================================================================
uint_8 I2C_readN(uint_8 I2C_No,uint_8 slaveAddress,uint_8 commond,\
		                                  uint_8 *Data, uint_8 DataNum)
{
    4e1c:	b5f0      	push	{r4, r5, r6, r7, lr}
i2c_start():
E:\2017-2018\03_Graduation Project\04_Software\05_Wangshi\02_6220\06_UpdateSoftware-180714\01_UEBootloader\KL36_Bios-180714\Debug/../03_MCU/MCU_drivers/i2c/i2c.c:85
	BSET(I2C_C1_TX_SHIFT,i2c_ptr->C1);  //
    4e1e:	2510      	movs	r5, #16
I2C_readN():
E:\2017-2018\03_Graduation Project\04_Software\05_Wangshi\02_6220\06_UpdateSoftware-180714\01_UEBootloader\KL36_Bios-180714\Debug/../03_MCU/MCU_drivers/i2c/i2c.c:304
{
    4e20:	ac05      	add	r4, sp, #20
    4e22:	7827      	ldrb	r7, [r4, #0]
i2c_start():
E:\2017-2018\03_Graduation Project\04_Software\05_Wangshi\02_6220\06_UpdateSoftware-180714\01_UEBootloader\KL36_Bios-180714\Debug/../03_MCU/MCU_drivers/i2c/i2c.c:84
	I2C_MemMapPtr i2c_ptr = I2C_BASE_TABLE[I2C_No];
    4e24:	4c52      	ldr	r4, [pc, #328]	; (4f70 <I2C_readN+0x154>)
    4e26:	0080      	lsls	r0, r0, #2
    4e28:	5904      	ldr	r4, [r0, r4]
I2C_readN():
E:\2017-2018\03_Graduation Project\04_Software\05_Wangshi\02_6220\06_UpdateSoftware-180714\01_UEBootloader\KL36_Bios-180714\Debug/../03_MCU/MCU_drivers/i2c/i2c.c:307
	uint_8 i,temp;
	i2c_start(I2C_No);               //
	temp = (slaveAddress << 1) & 0xfe;
    4e2a:	0049      	lsls	r1, r1, #1
i2c_start():
E:\2017-2018\03_Graduation Project\04_Software\05_Wangshi\02_6220\06_UpdateSoftware-180714\01_UEBootloader\KL36_Bios-180714\Debug/../03_MCU/MCU_drivers/i2c/i2c.c:85
	BSET(I2C_C1_TX_SHIFT,i2c_ptr->C1);  //
    4e2c:	78a0      	ldrb	r0, [r4, #2]
i2c_wait():
E:\2017-2018\03_Graduation Project\04_Software\05_Wangshi\02_6220\06_UpdateSoftware-180714\01_UEBootloader\KL36_Bios-180714\Debug/../03_MCU/MCU_drivers/i2c/i2c.c:26
	while(BGET(I2C_S_IICIF_SHIFT,i2c_ptr->S) == 0)
    4e2e:	2602      	movs	r6, #2
i2c_start():
E:\2017-2018\03_Graduation Project\04_Software\05_Wangshi\02_6220\06_UpdateSoftware-180714\01_UEBootloader\KL36_Bios-180714\Debug/../03_MCU/MCU_drivers/i2c/i2c.c:85
	BSET(I2C_C1_TX_SHIFT,i2c_ptr->C1);  //
    4e30:	4328      	orrs	r0, r5
E:\2017-2018\03_Graduation Project\04_Software\05_Wangshi\02_6220\06_UpdateSoftware-180714\01_UEBootloader\KL36_Bios-180714\Debug/../03_MCU/MCU_drivers/i2c/i2c.c:86
	BSET(I2C_C1_MST_SHIFT,i2c_ptr->C1); //
    4e32:	2520      	movs	r5, #32
E:\2017-2018\03_Graduation Project\04_Software\05_Wangshi\02_6220\06_UpdateSoftware-180714\01_UEBootloader\KL36_Bios-180714\Debug/../03_MCU/MCU_drivers/i2c/i2c.c:85
	BSET(I2C_C1_TX_SHIFT,i2c_ptr->C1);  //
    4e34:	70a0      	strb	r0, [r4, #2]
E:\2017-2018\03_Graduation Project\04_Software\05_Wangshi\02_6220\06_UpdateSoftware-180714\01_UEBootloader\KL36_Bios-180714\Debug/../03_MCU/MCU_drivers/i2c/i2c.c:86
	BSET(I2C_C1_MST_SHIFT,i2c_ptr->C1); //
    4e36:	78a0      	ldrb	r0, [r4, #2]
    4e38:	4328      	orrs	r0, r5
    4e3a:	70a0      	strb	r0, [r4, #2]
I2C_readN():
E:\2017-2018\03_Graduation Project\04_Software\05_Wangshi\02_6220\06_UpdateSoftware-180714\01_UEBootloader\KL36_Bios-180714\Debug/../03_MCU/MCU_drivers/i2c/i2c.c:307
	temp = (slaveAddress << 1) & 0xfe;
    4e3c:	b2c8      	uxtb	r0, r1
i2c_write():
E:\2017-2018\03_Graduation Project\04_Software\05_Wangshi\02_6220\06_UpdateSoftware-180714\01_UEBootloader\KL36_Bios-180714\Debug/../03_MCU/MCU_drivers/i2c/i2c.c:60
	i2c_ptr->D = data;
    4e3e:	7120      	strb	r0, [r4, #4]
    4e40:	484c      	ldr	r0, [pc, #304]	; (4f74 <I2C_readN+0x158>)
    4e42:	e003      	b.n	4e4c <I2C_readN+0x30>
    4e44:	3801      	subs	r0, #1
    4e46:	b280      	uxth	r0, r0
i2c_wait():
E:\2017-2018\03_Graduation Project\04_Software\05_Wangshi\02_6220\06_UpdateSoftware-180714\01_UEBootloader\KL36_Bios-180714\Debug/../03_MCU/MCU_drivers/i2c/i2c.c:29
		if(time > time_out)
    4e48:	2800      	cmp	r0, #0
    4e4a:	d069      	beq.n	4f20 <I2C_readN+0x104>
E:\2017-2018\03_Graduation Project\04_Software\05_Wangshi\02_6220\06_UpdateSoftware-180714\01_UEBootloader\KL36_Bios-180714\Debug/../03_MCU/MCU_drivers/i2c/i2c.c:26
	while(BGET(I2C_S_IICIF_SHIFT,i2c_ptr->S) == 0)
    4e4c:	78e5      	ldrb	r5, [r4, #3]
    4e4e:	422e      	tst	r6, r5
    4e50:	d0f8      	beq.n	4e44 <I2C_readN+0x28>
E:\2017-2018\03_Graduation Project\04_Software\05_Wangshi\02_6220\06_UpdateSoftware-180714\01_UEBootloader\KL36_Bios-180714\Debug/../03_MCU/MCU_drivers/i2c/i2c.c:32
	BSET(I2C_S_IICIF_SHIFT,i2c_ptr->S);
    4e52:	2502      	movs	r5, #2
    4e54:	78e0      	ldrb	r0, [r4, #3]
    4e56:	4328      	orrs	r0, r5
    4e58:	70e0      	strb	r0, [r4, #3]
i2c_get_ack():
E:\2017-2018\03_Graduation Project\04_Software\05_Wangshi\02_6220\06_UpdateSoftware-180714\01_UEBootloader\KL36_Bios-180714\Debug/../03_MCU/MCU_drivers/i2c/i2c.c:150
	ack = BGET(I2C_S_RXAK_SHIFT,i2c_ptr->S);
    4e5a:	78e0      	ldrb	r0, [r4, #3]
I2C_readN():
E:\2017-2018\03_Graduation Project\04_Software\05_Wangshi\02_6220\06_UpdateSoftware-180714\01_UEBootloader\KL36_Bios-180714\Debug/../03_MCU/MCU_drivers/i2c/i2c.c:311
	i2c_write(I2C_No,temp);          //
	if(i2c_wait(I2C_No) == 1)        //
		return 1;                    //
	if(i2c_get_ack(I2C_No) == 1)     //ACK
    4e5c:	07c0      	lsls	r0, r0, #31
    4e5e:	d45f      	bmi.n	4f20 <I2C_readN+0x104>
i2c_write():
E:\2017-2018\03_Graduation Project\04_Software\05_Wangshi\02_6220\06_UpdateSoftware-180714\01_UEBootloader\KL36_Bios-180714\Debug/../03_MCU/MCU_drivers/i2c/i2c.c:60
	i2c_ptr->D = data;
    4e60:	7122      	strb	r2, [r4, #4]
i2c_wait():
E:\2017-2018\03_Graduation Project\04_Software\05_Wangshi\02_6220\06_UpdateSoftware-180714\01_UEBootloader\KL36_Bios-180714\Debug/../03_MCU/MCU_drivers/i2c/i2c.c:26
	while(BGET(I2C_S_IICIF_SHIFT,i2c_ptr->S) == 0)
    4e62:	2502      	movs	r5, #2
i2c_write():
E:\2017-2018\03_Graduation Project\04_Software\05_Wangshi\02_6220\06_UpdateSoftware-180714\01_UEBootloader\KL36_Bios-180714\Debug/../03_MCU/MCU_drivers/i2c/i2c.c:60
	i2c_ptr->D = data;
    4e64:	4a43      	ldr	r2, [pc, #268]	; (4f74 <I2C_readN+0x158>)
    4e66:	e003      	b.n	4e70 <I2C_readN+0x54>
    4e68:	3a01      	subs	r2, #1
    4e6a:	b292      	uxth	r2, r2
i2c_wait():
E:\2017-2018\03_Graduation Project\04_Software\05_Wangshi\02_6220\06_UpdateSoftware-180714\01_UEBootloader\KL36_Bios-180714\Debug/../03_MCU/MCU_drivers/i2c/i2c.c:29
		if(time > time_out)
    4e6c:	2a00      	cmp	r2, #0
    4e6e:	d057      	beq.n	4f20 <I2C_readN+0x104>
E:\2017-2018\03_Graduation Project\04_Software\05_Wangshi\02_6220\06_UpdateSoftware-180714\01_UEBootloader\KL36_Bios-180714\Debug/../03_MCU/MCU_drivers/i2c/i2c.c:26
	while(BGET(I2C_S_IICIF_SHIFT,i2c_ptr->S) == 0)
    4e70:	78e0      	ldrb	r0, [r4, #3]
    4e72:	4205      	tst	r5, r0
    4e74:	d0f8      	beq.n	4e68 <I2C_readN+0x4c>
E:\2017-2018\03_Graduation Project\04_Software\05_Wangshi\02_6220\06_UpdateSoftware-180714\01_UEBootloader\KL36_Bios-180714\Debug/../03_MCU/MCU_drivers/i2c/i2c.c:32
	BSET(I2C_S_IICIF_SHIFT,i2c_ptr->S);
    4e76:	2002      	movs	r0, #2
    4e78:	78e2      	ldrb	r2, [r4, #3]
    4e7a:	4302      	orrs	r2, r0
i2c_restart():
E:\2017-2018\03_Graduation Project\04_Software\05_Wangshi\02_6220\06_UpdateSoftware-180714\01_UEBootloader\KL36_Bios-180714\Debug/../03_MCU/MCU_drivers/i2c/i2c.c:98
	BSET(I2C_C1_TX_SHIFT,i2c_ptr->C1);  //
    4e7c:	2010      	movs	r0, #16
i2c_wait():
E:\2017-2018\03_Graduation Project\04_Software\05_Wangshi\02_6220\06_UpdateSoftware-180714\01_UEBootloader\KL36_Bios-180714\Debug/../03_MCU/MCU_drivers/i2c/i2c.c:32
	BSET(I2C_S_IICIF_SHIFT,i2c_ptr->S);
    4e7e:	70e2      	strb	r2, [r4, #3]
i2c_restart():
E:\2017-2018\03_Graduation Project\04_Software\05_Wangshi\02_6220\06_UpdateSoftware-180714\01_UEBootloader\KL36_Bios-180714\Debug/../03_MCU/MCU_drivers/i2c/i2c.c:98
	BSET(I2C_C1_TX_SHIFT,i2c_ptr->C1);  //
    4e80:	78a2      	ldrb	r2, [r4, #2]
    4e82:	4302      	orrs	r2, r0
E:\2017-2018\03_Graduation Project\04_Software\05_Wangshi\02_6220\06_UpdateSoftware-180714\01_UEBootloader\KL36_Bios-180714\Debug/../03_MCU/MCU_drivers/i2c/i2c.c:99
	BSET(I2C_C1_RSTA_SHIFT,i2c_ptr->C1); //
    4e84:	2004      	movs	r0, #4
E:\2017-2018\03_Graduation Project\04_Software\05_Wangshi\02_6220\06_UpdateSoftware-180714\01_UEBootloader\KL36_Bios-180714\Debug/../03_MCU/MCU_drivers/i2c/i2c.c:98
	BSET(I2C_C1_TX_SHIFT,i2c_ptr->C1);  //
    4e86:	70a2      	strb	r2, [r4, #2]
E:\2017-2018\03_Graduation Project\04_Software\05_Wangshi\02_6220\06_UpdateSoftware-180714\01_UEBootloader\KL36_Bios-180714\Debug/../03_MCU/MCU_drivers/i2c/i2c.c:99
	BSET(I2C_C1_RSTA_SHIFT,i2c_ptr->C1); //
    4e88:	78a2      	ldrb	r2, [r4, #2]
    4e8a:	4302      	orrs	r2, r0
    4e8c:	70a2      	strb	r2, [r4, #2]
I2C_readN():
E:\2017-2018\03_Graduation Project\04_Software\05_Wangshi\02_6220\06_UpdateSoftware-180714\01_UEBootloader\KL36_Bios-180714\Debug/../03_MCU/MCU_drivers/i2c/i2c.c:317
		return 1;                    //
	i2c_write(I2C_No,commond);       //
	if(i2c_wait(I2C_No) == 1)        //
		return 1;                    //
	i2c_restart(I2C_No);             //restart
	temp = (slaveAddress << 1) | 0x01;
    4e8e:	2201      	movs	r2, #1
    4e90:	4311      	orrs	r1, r2
    4e92:	b2c9      	uxtb	r1, r1
i2c_write():
E:\2017-2018\03_Graduation Project\04_Software\05_Wangshi\02_6220\06_UpdateSoftware-180714\01_UEBootloader\KL36_Bios-180714\Debug/../03_MCU/MCU_drivers/i2c/i2c.c:60
	i2c_ptr->D = data;
    4e94:	7121      	strb	r1, [r4, #4]
    4e96:	4a37      	ldr	r2, [pc, #220]	; (4f74 <I2C_readN+0x158>)
i2c_wait():
E:\2017-2018\03_Graduation Project\04_Software\05_Wangshi\02_6220\06_UpdateSoftware-180714\01_UEBootloader\KL36_Bios-180714\Debug/../03_MCU/MCU_drivers/i2c/i2c.c:26
	while(BGET(I2C_S_IICIF_SHIFT,i2c_ptr->S) == 0)
    4e98:	2002      	movs	r0, #2
    4e9a:	e003      	b.n	4ea4 <I2C_readN+0x88>
    4e9c:	3a01      	subs	r2, #1
    4e9e:	b292      	uxth	r2, r2
E:\2017-2018\03_Graduation Project\04_Software\05_Wangshi\02_6220\06_UpdateSoftware-180714\01_UEBootloader\KL36_Bios-180714\Debug/../03_MCU/MCU_drivers/i2c/i2c.c:29
		if(time > time_out)
    4ea0:	2a00      	cmp	r2, #0
    4ea2:	d03d      	beq.n	4f20 <I2C_readN+0x104>
E:\2017-2018\03_Graduation Project\04_Software\05_Wangshi\02_6220\06_UpdateSoftware-180714\01_UEBootloader\KL36_Bios-180714\Debug/../03_MCU/MCU_drivers/i2c/i2c.c:26
	while(BGET(I2C_S_IICIF_SHIFT,i2c_ptr->S) == 0)
    4ea4:	78e1      	ldrb	r1, [r4, #3]
    4ea6:	4208      	tst	r0, r1
    4ea8:	d0f8      	beq.n	4e9c <I2C_readN+0x80>
E:\2017-2018\03_Graduation Project\04_Software\05_Wangshi\02_6220\06_UpdateSoftware-180714\01_UEBootloader\KL36_Bios-180714\Debug/../03_MCU/MCU_drivers/i2c/i2c.c:32
	BSET(I2C_S_IICIF_SHIFT,i2c_ptr->S);
    4eaa:	2102      	movs	r1, #2
i2c_get_ack():
E:\2017-2018\03_Graduation Project\04_Software\05_Wangshi\02_6220\06_UpdateSoftware-180714\01_UEBootloader\KL36_Bios-180714\Debug/../03_MCU/MCU_drivers/i2c/i2c.c:150
	ack = BGET(I2C_S_RXAK_SHIFT,i2c_ptr->S);
    4eac:	2501      	movs	r5, #1
i2c_wait():
E:\2017-2018\03_Graduation Project\04_Software\05_Wangshi\02_6220\06_UpdateSoftware-180714\01_UEBootloader\KL36_Bios-180714\Debug/../03_MCU/MCU_drivers/i2c/i2c.c:32
	BSET(I2C_S_IICIF_SHIFT,i2c_ptr->S);
    4eae:	78e2      	ldrb	r2, [r4, #3]
    4eb0:	430a      	orrs	r2, r1
    4eb2:	70e2      	strb	r2, [r4, #3]
i2c_get_ack():
E:\2017-2018\03_Graduation Project\04_Software\05_Wangshi\02_6220\06_UpdateSoftware-180714\01_UEBootloader\KL36_Bios-180714\Debug/../03_MCU/MCU_drivers/i2c/i2c.c:150
	ack = BGET(I2C_S_RXAK_SHIFT,i2c_ptr->S);
    4eb4:	78e2      	ldrb	r2, [r4, #3]
    4eb6:	4015      	ands	r5, r2
I2C_readN():
E:\2017-2018\03_Graduation Project\04_Software\05_Wangshi\02_6220\06_UpdateSoftware-180714\01_UEBootloader\KL36_Bios-180714\Debug/../03_MCU/MCU_drivers/i2c/i2c.c:321
	i2c_write(I2C_No,temp);          //
	if(i2c_wait(I2C_No) == 1)        //
		return 1;                    //
	if(i2c_get_ack(I2C_No) == 1)     //ACK
    4eb8:	d132      	bne.n	4f20 <I2C_readN+0x104>
i2c_changeDir():
E:\2017-2018\03_Graduation Project\04_Software\05_Wangshi\02_6220\06_UpdateSoftware-180714\01_UEBootloader\KL36_Bios-180714\Debug/../03_MCU/MCU_drivers/i2c/i2c.c:136
	i2c_ptr->C1 &= ~I2C_C1_TX_MASK;
    4eba:	2110      	movs	r1, #16
    4ebc:	78a2      	ldrb	r2, [r4, #2]
i2c_wait():
E:\2017-2018\03_Graduation Project\04_Software\05_Wangshi\02_6220\06_UpdateSoftware-180714\01_UEBootloader\KL36_Bios-180714\Debug/../03_MCU/MCU_drivers/i2c/i2c.c:26
	while(BGET(I2C_S_IICIF_SHIFT,i2c_ptr->S) == 0)
    4ebe:	2002      	movs	r0, #2
i2c_changeDir():
E:\2017-2018\03_Graduation Project\04_Software\05_Wangshi\02_6220\06_UpdateSoftware-180714\01_UEBootloader\KL36_Bios-180714\Debug/../03_MCU/MCU_drivers/i2c/i2c.c:136
	i2c_ptr->C1 &= ~I2C_C1_TX_MASK;
    4ec0:	438a      	bics	r2, r1
    4ec2:	70a2      	strb	r2, [r4, #2]
E:\2017-2018\03_Graduation Project\04_Software\05_Wangshi\02_6220\06_UpdateSoftware-180714\01_UEBootloader\KL36_Bios-180714\Debug/../03_MCU/MCU_drivers/i2c/i2c.c:137
	i2c_ptr->C1 |= I2C_C1_TX(direction);
    4ec4:	78a2      	ldrb	r2, [r4, #2]
i2c_sendACK():
E:\2017-2018\03_Graduation Project\04_Software\05_Wangshi\02_6220\06_UpdateSoftware-180714\01_UEBootloader\KL36_Bios-180714\Debug/../03_MCU/MCU_drivers/i2c/i2c.c:111
	BCLR(I2C_C1_TXAK_SHIFT,i2c_ptr->C1);
    4ec6:	3908      	subs	r1, #8
i2c_changeDir():
E:\2017-2018\03_Graduation Project\04_Software\05_Wangshi\02_6220\06_UpdateSoftware-180714\01_UEBootloader\KL36_Bios-180714\Debug/../03_MCU/MCU_drivers/i2c/i2c.c:137
	i2c_ptr->C1 |= I2C_C1_TX(direction);
    4ec8:	b2d2      	uxtb	r2, r2
    4eca:	70a2      	strb	r2, [r4, #2]
i2c_sendACK():
E:\2017-2018\03_Graduation Project\04_Software\05_Wangshi\02_6220\06_UpdateSoftware-180714\01_UEBootloader\KL36_Bios-180714\Debug/../03_MCU/MCU_drivers/i2c/i2c.c:111
	BCLR(I2C_C1_TXAK_SHIFT,i2c_ptr->C1);
    4ecc:	78a2      	ldrb	r2, [r4, #2]
    4ece:	438a      	bics	r2, r1
    4ed0:	70a2      	strb	r2, [r4, #2]
i2c_read():
E:\2017-2018\03_Graduation Project\04_Software\05_Wangshi\02_6220\06_UpdateSoftware-180714\01_UEBootloader\KL36_Bios-180714\Debug/../03_MCU/MCU_drivers/i2c/i2c.c:46
	result = i2c_ptr->D;
    4ed2:	7922      	ldrb	r2, [r4, #4]
    4ed4:	4a27      	ldr	r2, [pc, #156]	; (4f74 <I2C_readN+0x158>)
    4ed6:	e003      	b.n	4ee0 <I2C_readN+0xc4>
    4ed8:	3a01      	subs	r2, #1
    4eda:	b292      	uxth	r2, r2
i2c_wait():
E:\2017-2018\03_Graduation Project\04_Software\05_Wangshi\02_6220\06_UpdateSoftware-180714\01_UEBootloader\KL36_Bios-180714\Debug/../03_MCU/MCU_drivers/i2c/i2c.c:29
		if(time > time_out)
    4edc:	2a00      	cmp	r2, #0
    4ede:	d01f      	beq.n	4f20 <I2C_readN+0x104>
E:\2017-2018\03_Graduation Project\04_Software\05_Wangshi\02_6220\06_UpdateSoftware-180714\01_UEBootloader\KL36_Bios-180714\Debug/../03_MCU/MCU_drivers/i2c/i2c.c:26
	while(BGET(I2C_S_IICIF_SHIFT,i2c_ptr->S) == 0)
    4ee0:	78e1      	ldrb	r1, [r4, #3]
    4ee2:	4208      	tst	r0, r1
    4ee4:	d0f8      	beq.n	4ed8 <I2C_readN+0xbc>
E:\2017-2018\03_Graduation Project\04_Software\05_Wangshi\02_6220\06_UpdateSoftware-180714\01_UEBootloader\KL36_Bios-180714\Debug/../03_MCU/MCU_drivers/i2c/i2c.c:32
	BSET(I2C_S_IICIF_SHIFT,i2c_ptr->S);
    4ee6:	2102      	movs	r1, #2
    4ee8:	78e2      	ldrb	r2, [r4, #3]
I2C_readN():
E:\2017-2018\03_Graduation Project\04_Software\05_Wangshi\02_6220\06_UpdateSoftware-180714\01_UEBootloader\KL36_Bios-180714\Debug/../03_MCU/MCU_drivers/i2c/i2c.c:328
	i2c_changeDir(I2C_No,0);         //
	i2c_sendACK(I2C_No);             //ACK
	i2c_read(I2C_No);                //
	if(i2c_wait(I2C_No) == 1)        //
		return 1;                    //
	for(i = 0; i < DataNum-2; i++)
    4eea:	3f02      	subs	r7, #2
i2c_wait():
E:\2017-2018\03_Graduation Project\04_Software\05_Wangshi\02_6220\06_UpdateSoftware-180714\01_UEBootloader\KL36_Bios-180714\Debug/../03_MCU/MCU_drivers/i2c/i2c.c:32
	BSET(I2C_S_IICIF_SHIFT,i2c_ptr->S);
    4eec:	430a      	orrs	r2, r1
    4eee:	70e2      	strb	r2, [r4, #3]
I2C_readN():
E:\2017-2018\03_Graduation Project\04_Software\05_Wangshi\02_6220\06_UpdateSoftware-180714\01_UEBootloader\KL36_Bios-180714\Debug/../03_MCU/MCU_drivers/i2c/i2c.c:328
	for(i = 0; i < DataNum-2; i++)
    4ef0:	2f00      	cmp	r7, #0
    4ef2:	dd39      	ble.n	4f68 <I2C_readN+0x14c>
i2c_wait():
E:\2017-2018\03_Graduation Project\04_Software\05_Wangshi\02_6220\06_UpdateSoftware-180714\01_UEBootloader\KL36_Bios-180714\Debug/../03_MCU/MCU_drivers/i2c/i2c.c:26
	while(BGET(I2C_S_IICIF_SHIFT,i2c_ptr->S) == 0)
    4ef4:	2602      	movs	r6, #2
    4ef6:	2002      	movs	r0, #2
i2c_read():
E:\2017-2018\03_Graduation Project\04_Software\05_Wangshi\02_6220\06_UpdateSoftware-180714\01_UEBootloader\KL36_Bios-180714\Debug/../03_MCU/MCU_drivers/i2c/i2c.c:46
	result = i2c_ptr->D;
    4ef8:	7922      	ldrb	r2, [r4, #4]
I2C_readN():
E:\2017-2018\03_Graduation Project\04_Software\05_Wangshi\02_6220\06_UpdateSoftware-180714\01_UEBootloader\KL36_Bios-180714\Debug/../03_MCU/MCU_drivers/i2c/i2c.c:330
	{
		Data[i] = i2c_read(I2C_No);
    4efa:	555a      	strb	r2, [r3, r5]
    4efc:	4a1d      	ldr	r2, [pc, #116]	; (4f74 <I2C_readN+0x158>)
    4efe:	e003      	b.n	4f08 <I2C_readN+0xec>
    4f00:	3a01      	subs	r2, #1
    4f02:	b292      	uxth	r2, r2
i2c_wait():
E:\2017-2018\03_Graduation Project\04_Software\05_Wangshi\02_6220\06_UpdateSoftware-180714\01_UEBootloader\KL36_Bios-180714\Debug/../03_MCU/MCU_drivers/i2c/i2c.c:29
		if(time > time_out)
    4f04:	2a00      	cmp	r2, #0
    4f06:	d00b      	beq.n	4f20 <I2C_readN+0x104>
E:\2017-2018\03_Graduation Project\04_Software\05_Wangshi\02_6220\06_UpdateSoftware-180714\01_UEBootloader\KL36_Bios-180714\Debug/../03_MCU/MCU_drivers/i2c/i2c.c:26
	while(BGET(I2C_S_IICIF_SHIFT,i2c_ptr->S) == 0)
    4f08:	78e1      	ldrb	r1, [r4, #3]
    4f0a:	4208      	tst	r0, r1
    4f0c:	d0f8      	beq.n	4f00 <I2C_readN+0xe4>
E:\2017-2018\03_Graduation Project\04_Software\05_Wangshi\02_6220\06_UpdateSoftware-180714\01_UEBootloader\KL36_Bios-180714\Debug/../03_MCU/MCU_drivers/i2c/i2c.c:32
	BSET(I2C_S_IICIF_SHIFT,i2c_ptr->S);
    4f0e:	78e2      	ldrb	r2, [r4, #3]
    4f10:	4332      	orrs	r2, r6
    4f12:	70e2      	strb	r2, [r4, #3]
I2C_readN():
E:\2017-2018\03_Graduation Project\04_Software\05_Wangshi\02_6220\06_UpdateSoftware-180714\01_UEBootloader\KL36_Bios-180714\Debug/../03_MCU/MCU_drivers/i2c/i2c.c:328
	for(i = 0; i < DataNum-2; i++)
    4f14:	1c6a      	adds	r2, r5, #1
    4f16:	b2d2      	uxtb	r2, r2
    4f18:	42ba      	cmp	r2, r7
    4f1a:	da03      	bge.n	4f24 <I2C_readN+0x108>
    4f1c:	0015      	movs	r5, r2
    4f1e:	e7eb      	b.n	4ef8 <I2C_readN+0xdc>
    4f20:	2001      	movs	r0, #1
E:\2017-2018\03_Graduation Project\04_Software\05_Wangshi\02_6220\06_UpdateSoftware-180714\01_UEBootloader\KL36_Bios-180714\Debug/../03_MCU/MCU_drivers/i2c/i2c.c:340
	Data[i++] = i2c_read(I2C_No);
	if(i2c_wait(I2C_No) == 1)        //
		return 1;                    //
	i2c_stop(I2C_No);                //
	Data[i] = i2c_read(I2C_No);//
}
    4f22:	bdf0      	pop	{r4, r5, r6, r7, pc}
    4f24:	3502      	adds	r5, #2
    4f26:	189a      	adds	r2, r3, r2
    4f28:	b2ed      	uxtb	r5, r5
i2c_sendNACK():
E:\2017-2018\03_Graduation Project\04_Software\05_Wangshi\02_6220\06_UpdateSoftware-180714\01_UEBootloader\KL36_Bios-180714\Debug/../03_MCU/MCU_drivers/i2c/i2c.c:123
	BSET(I2C_C1_TXAK_SHIFT,i2c_ptr->C1);
    4f2a:	2008      	movs	r0, #8
    4f2c:	78a1      	ldrb	r1, [r4, #2]
    4f2e:	4301      	orrs	r1, r0
    4f30:	70a1      	strb	r1, [r4, #2]
i2c_read():
E:\2017-2018\03_Graduation Project\04_Software\05_Wangshi\02_6220\06_UpdateSoftware-180714\01_UEBootloader\KL36_Bios-180714\Debug/../03_MCU/MCU_drivers/i2c/i2c.c:46
	result = i2c_ptr->D;
    4f32:	7921      	ldrb	r1, [r4, #4]
i2c_wait():
E:\2017-2018\03_Graduation Project\04_Software\05_Wangshi\02_6220\06_UpdateSoftware-180714\01_UEBootloader\KL36_Bios-180714\Debug/../03_MCU/MCU_drivers/i2c/i2c.c:26
	while(BGET(I2C_S_IICIF_SHIFT,i2c_ptr->S) == 0)
    4f34:	2002      	movs	r0, #2
I2C_readN():
E:\2017-2018\03_Graduation Project\04_Software\05_Wangshi\02_6220\06_UpdateSoftware-180714\01_UEBootloader\KL36_Bios-180714\Debug/../03_MCU/MCU_drivers/i2c/i2c.c:335
	Data[i++] = i2c_read(I2C_No);
    4f36:	7011      	strb	r1, [r2, #0]
    4f38:	4a0e      	ldr	r2, [pc, #56]	; (4f74 <I2C_readN+0x158>)
    4f3a:	e003      	b.n	4f44 <I2C_readN+0x128>
    4f3c:	3a01      	subs	r2, #1
    4f3e:	b292      	uxth	r2, r2
i2c_wait():
E:\2017-2018\03_Graduation Project\04_Software\05_Wangshi\02_6220\06_UpdateSoftware-180714\01_UEBootloader\KL36_Bios-180714\Debug/../03_MCU/MCU_drivers/i2c/i2c.c:29
		if(time > time_out)
    4f40:	2a00      	cmp	r2, #0
    4f42:	d0ed      	beq.n	4f20 <I2C_readN+0x104>
E:\2017-2018\03_Graduation Project\04_Software\05_Wangshi\02_6220\06_UpdateSoftware-180714\01_UEBootloader\KL36_Bios-180714\Debug/../03_MCU/MCU_drivers/i2c/i2c.c:26
	while(BGET(I2C_S_IICIF_SHIFT,i2c_ptr->S) == 0)
    4f44:	78e1      	ldrb	r1, [r4, #3]
    4f46:	4208      	tst	r0, r1
    4f48:	d0f8      	beq.n	4f3c <I2C_readN+0x120>
E:\2017-2018\03_Graduation Project\04_Software\05_Wangshi\02_6220\06_UpdateSoftware-180714\01_UEBootloader\KL36_Bios-180714\Debug/../03_MCU/MCU_drivers/i2c/i2c.c:32
	BSET(I2C_S_IICIF_SHIFT,i2c_ptr->S);
    4f4a:	2102      	movs	r1, #2
    4f4c:	78e2      	ldrb	r2, [r4, #3]
    4f4e:	430a      	orrs	r2, r1
i2c_stop():
E:\2017-2018\03_Graduation Project\04_Software\05_Wangshi\02_6220\06_UpdateSoftware-180714\01_UEBootloader\KL36_Bios-180714\Debug/../03_MCU/MCU_drivers/i2c/i2c.c:72
	BCLR(I2C_C1_MST_SHIFT,i2c_ptr->C1); //
    4f50:	2120      	movs	r1, #32
i2c_wait():
E:\2017-2018\03_Graduation Project\04_Software\05_Wangshi\02_6220\06_UpdateSoftware-180714\01_UEBootloader\KL36_Bios-180714\Debug/../03_MCU/MCU_drivers/i2c/i2c.c:32
	BSET(I2C_S_IICIF_SHIFT,i2c_ptr->S);
    4f52:	70e2      	strb	r2, [r4, #3]
i2c_stop():
E:\2017-2018\03_Graduation Project\04_Software\05_Wangshi\02_6220\06_UpdateSoftware-180714\01_UEBootloader\KL36_Bios-180714\Debug/../03_MCU/MCU_drivers/i2c/i2c.c:72
	BCLR(I2C_C1_MST_SHIFT,i2c_ptr->C1); //
    4f54:	78a2      	ldrb	r2, [r4, #2]
    4f56:	438a      	bics	r2, r1
    4f58:	70a2      	strb	r2, [r4, #2]
E:\2017-2018\03_Graduation Project\04_Software\05_Wangshi\02_6220\06_UpdateSoftware-180714\01_UEBootloader\KL36_Bios-180714\Debug/../03_MCU/MCU_drivers/i2c/i2c.c:73
	BCLR(I2C_C1_TX_SHIFT,i2c_ptr->C1);  //
    4f5a:	78a2      	ldrb	r2, [r4, #2]
    4f5c:	3910      	subs	r1, #16
    4f5e:	438a      	bics	r2, r1
    4f60:	70a2      	strb	r2, [r4, #2]
i2c_read():
E:\2017-2018\03_Graduation Project\04_Software\05_Wangshi\02_6220\06_UpdateSoftware-180714\01_UEBootloader\KL36_Bios-180714\Debug/../03_MCU/MCU_drivers/i2c/i2c.c:46
	result = i2c_ptr->D;
    4f62:	7922      	ldrb	r2, [r4, #4]
I2C_readN():
E:\2017-2018\03_Graduation Project\04_Software\05_Wangshi\02_6220\06_UpdateSoftware-180714\01_UEBootloader\KL36_Bios-180714\Debug/../03_MCU/MCU_drivers/i2c/i2c.c:339
	Data[i] = i2c_read(I2C_No);//
    4f64:	555a      	strb	r2, [r3, r5]
E:\2017-2018\03_Graduation Project\04_Software\05_Wangshi\02_6220\06_UpdateSoftware-180714\01_UEBootloader\KL36_Bios-180714\Debug/../03_MCU/MCU_drivers/i2c/i2c.c:340
}
    4f66:	e7dc      	b.n	4f22 <I2C_readN+0x106>
E:\2017-2018\03_Graduation Project\04_Software\05_Wangshi\02_6220\06_UpdateSoftware-180714\01_UEBootloader\KL36_Bios-180714\Debug/../03_MCU/MCU_drivers/i2c/i2c.c:328
	for(i = 0; i < DataNum-2; i++)
    4f68:	001a      	movs	r2, r3
    4f6a:	2501      	movs	r5, #1
    4f6c:	e7dd      	b.n	4f2a <I2C_readN+0x10e>
    4f6e:	46c0      	nop			; (mov r8, r8)
    4f70:	00005ce4 	.word	0x00005ce4
    4f74:	0000ffff 	.word	0x0000ffff

00004f78 <I2C_rece1>:
i2c_start():
E:\2017-2018\03_Graduation Project\04_Software\05_Wangshi\02_6220\06_UpdateSoftware-180714\01_UEBootloader\KL36_Bios-180714\Debug/../03_MCU/MCU_drivers/i2c/i2c.c:84
	I2C_MemMapPtr i2c_ptr = I2C_BASE_TABLE[I2C_No];
    4f78:	4b24      	ldr	r3, [pc, #144]	; (500c <I2C_rece1+0x94>)
    4f7a:	0080      	lsls	r0, r0, #2
I2C_rece1():
E:\2017-2018\03_Graduation Project\04_Software\05_Wangshi\02_6220\06_UpdateSoftware-180714\01_UEBootloader\KL36_Bios-180714\Debug/../03_MCU/MCU_drivers/i2c/i2c.c:351
//          slaveAddress
//          Data
// 10
//=====================================================================
uint_8 I2C_rece1(uint_8 I2C_No, uint_8 slaveAddress, uint_8 *Data)
{
    4f7c:	b530      	push	{r4, r5, lr}
i2c_start():
E:\2017-2018\03_Graduation Project\04_Software\05_Wangshi\02_6220\06_UpdateSoftware-180714\01_UEBootloader\KL36_Bios-180714\Debug/../03_MCU/MCU_drivers/i2c/i2c.c:84
	I2C_MemMapPtr i2c_ptr = I2C_BASE_TABLE[I2C_No];
    4f7e:	58c4      	ldr	r4, [r0, r3]
E:\2017-2018\03_Graduation Project\04_Software\05_Wangshi\02_6220\06_UpdateSoftware-180714\01_UEBootloader\KL36_Bios-180714\Debug/../03_MCU/MCU_drivers/i2c/i2c.c:85
	BSET(I2C_C1_TX_SHIFT,i2c_ptr->C1);  //
    4f80:	2010      	movs	r0, #16
    4f82:	78a3      	ldrb	r3, [r4, #2]
I2C_rece1():
E:\2017-2018\03_Graduation Project\04_Software\05_Wangshi\02_6220\06_UpdateSoftware-180714\01_UEBootloader\KL36_Bios-180714\Debug/../03_MCU/MCU_drivers/i2c/i2c.c:354
	uint_8 temp,i;
	i2c_start(I2C_No);             //restart
	temp = (slaveAddress << 1) | 0x01;
    4f84:	0049      	lsls	r1, r1, #1
i2c_start():
E:\2017-2018\03_Graduation Project\04_Software\05_Wangshi\02_6220\06_UpdateSoftware-180714\01_UEBootloader\KL36_Bios-180714\Debug/../03_MCU/MCU_drivers/i2c/i2c.c:85
	BSET(I2C_C1_TX_SHIFT,i2c_ptr->C1);  //
    4f86:	4303      	orrs	r3, r0
E:\2017-2018\03_Graduation Project\04_Software\05_Wangshi\02_6220\06_UpdateSoftware-180714\01_UEBootloader\KL36_Bios-180714\Debug/../03_MCU/MCU_drivers/i2c/i2c.c:86
	BSET(I2C_C1_MST_SHIFT,i2c_ptr->C1); //
    4f88:	2020      	movs	r0, #32
E:\2017-2018\03_Graduation Project\04_Software\05_Wangshi\02_6220\06_UpdateSoftware-180714\01_UEBootloader\KL36_Bios-180714\Debug/../03_MCU/MCU_drivers/i2c/i2c.c:85
	BSET(I2C_C1_TX_SHIFT,i2c_ptr->C1);  //
    4f8a:	70a3      	strb	r3, [r4, #2]
E:\2017-2018\03_Graduation Project\04_Software\05_Wangshi\02_6220\06_UpdateSoftware-180714\01_UEBootloader\KL36_Bios-180714\Debug/../03_MCU/MCU_drivers/i2c/i2c.c:86
	BSET(I2C_C1_MST_SHIFT,i2c_ptr->C1); //
    4f8c:	78a3      	ldrb	r3, [r4, #2]
    4f8e:	4303      	orrs	r3, r0
    4f90:	70a3      	strb	r3, [r4, #2]
I2C_rece1():
E:\2017-2018\03_Graduation Project\04_Software\05_Wangshi\02_6220\06_UpdateSoftware-180714\01_UEBootloader\KL36_Bios-180714\Debug/../03_MCU/MCU_drivers/i2c/i2c.c:354
	temp = (slaveAddress << 1) | 0x01;
    4f92:	2301      	movs	r3, #1
    4f94:	4319      	orrs	r1, r3
    4f96:	b2c9      	uxtb	r1, r1
i2c_write():
E:\2017-2018\03_Graduation Project\04_Software\05_Wangshi\02_6220\06_UpdateSoftware-180714\01_UEBootloader\KL36_Bios-180714\Debug/../03_MCU/MCU_drivers/i2c/i2c.c:60
	i2c_ptr->D = data;
    4f98:	7121      	strb	r1, [r4, #4]
    4f9a:	4b1d      	ldr	r3, [pc, #116]	; (5010 <I2C_rece1+0x98>)
i2c_wait():
E:\2017-2018\03_Graduation Project\04_Software\05_Wangshi\02_6220\06_UpdateSoftware-180714\01_UEBootloader\KL36_Bios-180714\Debug/../03_MCU/MCU_drivers/i2c/i2c.c:26
	while(BGET(I2C_S_IICIF_SHIFT,i2c_ptr->S) == 0)
    4f9c:	2002      	movs	r0, #2
    4f9e:	e003      	b.n	4fa8 <I2C_rece1+0x30>
    4fa0:	3b01      	subs	r3, #1
    4fa2:	b29b      	uxth	r3, r3
E:\2017-2018\03_Graduation Project\04_Software\05_Wangshi\02_6220\06_UpdateSoftware-180714\01_UEBootloader\KL36_Bios-180714\Debug/../03_MCU/MCU_drivers/i2c/i2c.c:29
		if(time > time_out)
    4fa4:	2b00      	cmp	r3, #0
    4fa6:	d02f      	beq.n	5008 <I2C_rece1+0x90>
E:\2017-2018\03_Graduation Project\04_Software\05_Wangshi\02_6220\06_UpdateSoftware-180714\01_UEBootloader\KL36_Bios-180714\Debug/../03_MCU/MCU_drivers/i2c/i2c.c:26
	while(BGET(I2C_S_IICIF_SHIFT,i2c_ptr->S) == 0)
    4fa8:	78e1      	ldrb	r1, [r4, #3]
    4faa:	4208      	tst	r0, r1
    4fac:	d0f8      	beq.n	4fa0 <I2C_rece1+0x28>
E:\2017-2018\03_Graduation Project\04_Software\05_Wangshi\02_6220\06_UpdateSoftware-180714\01_UEBootloader\KL36_Bios-180714\Debug/../03_MCU/MCU_drivers/i2c/i2c.c:32
	BSET(I2C_S_IICIF_SHIFT,i2c_ptr->S);
    4fae:	2102      	movs	r1, #2
    4fb0:	78e3      	ldrb	r3, [r4, #3]
    4fb2:	430b      	orrs	r3, r1
    4fb4:	70e3      	strb	r3, [r4, #3]
i2c_get_ack():
E:\2017-2018\03_Graduation Project\04_Software\05_Wangshi\02_6220\06_UpdateSoftware-180714\01_UEBootloader\KL36_Bios-180714\Debug/../03_MCU/MCU_drivers/i2c/i2c.c:150
	ack = BGET(I2C_S_RXAK_SHIFT,i2c_ptr->S);
    4fb6:	2301      	movs	r3, #1
    4fb8:	78e0      	ldrb	r0, [r4, #3]
    4fba:	4018      	ands	r0, r3
I2C_rece1():
E:\2017-2018\03_Graduation Project\04_Software\05_Wangshi\02_6220\06_UpdateSoftware-180714\01_UEBootloader\KL36_Bios-180714\Debug/../03_MCU/MCU_drivers/i2c/i2c.c:358
	i2c_write(I2C_No,temp);          //
	if(i2c_wait(I2C_No) == 1)        //
		return 1;                    //
	if(i2c_get_ack(I2C_No) == 1)     //ACK
    4fbc:	d124      	bne.n	5008 <I2C_rece1+0x90>
i2c_changeDir():
E:\2017-2018\03_Graduation Project\04_Software\05_Wangshi\02_6220\06_UpdateSoftware-180714\01_UEBootloader\KL36_Bios-180714\Debug/../03_MCU/MCU_drivers/i2c/i2c.c:136
	i2c_ptr->C1 &= ~I2C_C1_TX_MASK;
    4fbe:	2110      	movs	r1, #16
    4fc0:	78a3      	ldrb	r3, [r4, #2]
i2c_wait():
E:\2017-2018\03_Graduation Project\04_Software\05_Wangshi\02_6220\06_UpdateSoftware-180714\01_UEBootloader\KL36_Bios-180714\Debug/../03_MCU/MCU_drivers/i2c/i2c.c:26
	while(BGET(I2C_S_IICIF_SHIFT,i2c_ptr->S) == 0)
    4fc2:	2502      	movs	r5, #2
i2c_changeDir():
E:\2017-2018\03_Graduation Project\04_Software\05_Wangshi\02_6220\06_UpdateSoftware-180714\01_UEBootloader\KL36_Bios-180714\Debug/../03_MCU/MCU_drivers/i2c/i2c.c:136
	i2c_ptr->C1 &= ~I2C_C1_TX_MASK;
    4fc4:	438b      	bics	r3, r1
i2c_sendNACK():
E:\2017-2018\03_Graduation Project\04_Software\05_Wangshi\02_6220\06_UpdateSoftware-180714\01_UEBootloader\KL36_Bios-180714\Debug/../03_MCU/MCU_drivers/i2c/i2c.c:123
	BSET(I2C_C1_TXAK_SHIFT,i2c_ptr->C1);
    4fc6:	2108      	movs	r1, #8
i2c_changeDir():
E:\2017-2018\03_Graduation Project\04_Software\05_Wangshi\02_6220\06_UpdateSoftware-180714\01_UEBootloader\KL36_Bios-180714\Debug/../03_MCU/MCU_drivers/i2c/i2c.c:136
	i2c_ptr->C1 &= ~I2C_C1_TX_MASK;
    4fc8:	70a3      	strb	r3, [r4, #2]
E:\2017-2018\03_Graduation Project\04_Software\05_Wangshi\02_6220\06_UpdateSoftware-180714\01_UEBootloader\KL36_Bios-180714\Debug/../03_MCU/MCU_drivers/i2c/i2c.c:137
	i2c_ptr->C1 |= I2C_C1_TX(direction);
    4fca:	78a3      	ldrb	r3, [r4, #2]
    4fcc:	b2db      	uxtb	r3, r3
    4fce:	70a3      	strb	r3, [r4, #2]
i2c_sendNACK():
E:\2017-2018\03_Graduation Project\04_Software\05_Wangshi\02_6220\06_UpdateSoftware-180714\01_UEBootloader\KL36_Bios-180714\Debug/../03_MCU/MCU_drivers/i2c/i2c.c:123
	BSET(I2C_C1_TXAK_SHIFT,i2c_ptr->C1);
    4fd0:	78a3      	ldrb	r3, [r4, #2]
    4fd2:	430b      	orrs	r3, r1
    4fd4:	70a3      	strb	r3, [r4, #2]
i2c_read():
E:\2017-2018\03_Graduation Project\04_Software\05_Wangshi\02_6220\06_UpdateSoftware-180714\01_UEBootloader\KL36_Bios-180714\Debug/../03_MCU/MCU_drivers/i2c/i2c.c:46
	result = i2c_ptr->D;
    4fd6:	7923      	ldrb	r3, [r4, #4]
    4fd8:	4b0d      	ldr	r3, [pc, #52]	; (5010 <I2C_rece1+0x98>)
    4fda:	e003      	b.n	4fe4 <I2C_rece1+0x6c>
    4fdc:	3b01      	subs	r3, #1
    4fde:	b29b      	uxth	r3, r3
i2c_wait():
E:\2017-2018\03_Graduation Project\04_Software\05_Wangshi\02_6220\06_UpdateSoftware-180714\01_UEBootloader\KL36_Bios-180714\Debug/../03_MCU/MCU_drivers/i2c/i2c.c:29
		if(time > time_out)
    4fe0:	2b00      	cmp	r3, #0
    4fe2:	d011      	beq.n	5008 <I2C_rece1+0x90>
E:\2017-2018\03_Graduation Project\04_Software\05_Wangshi\02_6220\06_UpdateSoftware-180714\01_UEBootloader\KL36_Bios-180714\Debug/../03_MCU/MCU_drivers/i2c/i2c.c:26
	while(BGET(I2C_S_IICIF_SHIFT,i2c_ptr->S) == 0)
    4fe4:	78e1      	ldrb	r1, [r4, #3]
    4fe6:	420d      	tst	r5, r1
    4fe8:	d0f8      	beq.n	4fdc <I2C_rece1+0x64>
E:\2017-2018\03_Graduation Project\04_Software\05_Wangshi\02_6220\06_UpdateSoftware-180714\01_UEBootloader\KL36_Bios-180714\Debug/../03_MCU/MCU_drivers/i2c/i2c.c:32
	BSET(I2C_S_IICIF_SHIFT,i2c_ptr->S);
    4fea:	2102      	movs	r1, #2
    4fec:	78e3      	ldrb	r3, [r4, #3]
    4fee:	430b      	orrs	r3, r1
i2c_stop():
E:\2017-2018\03_Graduation Project\04_Software\05_Wangshi\02_6220\06_UpdateSoftware-180714\01_UEBootloader\KL36_Bios-180714\Debug/../03_MCU/MCU_drivers/i2c/i2c.c:72
	BCLR(I2C_C1_MST_SHIFT,i2c_ptr->C1); //
    4ff0:	2120      	movs	r1, #32
i2c_wait():
E:\2017-2018\03_Graduation Project\04_Software\05_Wangshi\02_6220\06_UpdateSoftware-180714\01_UEBootloader\KL36_Bios-180714\Debug/../03_MCU/MCU_drivers/i2c/i2c.c:32
	BSET(I2C_S_IICIF_SHIFT,i2c_ptr->S);
    4ff2:	70e3      	strb	r3, [r4, #3]
i2c_stop():
E:\2017-2018\03_Graduation Project\04_Software\05_Wangshi\02_6220\06_UpdateSoftware-180714\01_UEBootloader\KL36_Bios-180714\Debug/../03_MCU/MCU_drivers/i2c/i2c.c:72
	BCLR(I2C_C1_MST_SHIFT,i2c_ptr->C1); //
    4ff4:	78a3      	ldrb	r3, [r4, #2]
    4ff6:	438b      	bics	r3, r1
    4ff8:	70a3      	strb	r3, [r4, #2]
E:\2017-2018\03_Graduation Project\04_Software\05_Wangshi\02_6220\06_UpdateSoftware-180714\01_UEBootloader\KL36_Bios-180714\Debug/../03_MCU/MCU_drivers/i2c/i2c.c:73
	BCLR(I2C_C1_TX_SHIFT,i2c_ptr->C1);  //
    4ffa:	78a3      	ldrb	r3, [r4, #2]
    4ffc:	3910      	subs	r1, #16
    4ffe:	438b      	bics	r3, r1
    5000:	70a3      	strb	r3, [r4, #2]
i2c_read():
E:\2017-2018\03_Graduation Project\04_Software\05_Wangshi\02_6220\06_UpdateSoftware-180714\01_UEBootloader\KL36_Bios-180714\Debug/../03_MCU/MCU_drivers/i2c/i2c.c:46
	result = i2c_ptr->D;
    5002:	7923      	ldrb	r3, [r4, #4]
I2C_rece1():
E:\2017-2018\03_Graduation Project\04_Software\05_Wangshi\02_6220\06_UpdateSoftware-180714\01_UEBootloader\KL36_Bios-180714\Debug/../03_MCU/MCU_drivers/i2c/i2c.c:366
	i2c_sendNACK(I2C_No);             //NACK
	i2c_read(I2C_No);                //
	if(i2c_wait(I2C_No) == 1)        //
		return 1;                    //
	i2c_stop(I2C_No);                //
	*Data = i2c_read(I2C_No); //
    5004:	7013      	strb	r3, [r2, #0]
E:\2017-2018\03_Graduation Project\04_Software\05_Wangshi\02_6220\06_UpdateSoftware-180714\01_UEBootloader\KL36_Bios-180714\Debug/../03_MCU/MCU_drivers/i2c/i2c.c:367
	return 0;
    5006:	e000      	b.n	500a <I2C_rece1+0x92>
E:\2017-2018\03_Graduation Project\04_Software\05_Wangshi\02_6220\06_UpdateSoftware-180714\01_UEBootloader\KL36_Bios-180714\Debug/../03_MCU/MCU_drivers/i2c/i2c.c:357
		return 1;                    //
    5008:	2001      	movs	r0, #1
E:\2017-2018\03_Graduation Project\04_Software\05_Wangshi\02_6220\06_UpdateSoftware-180714\01_UEBootloader\KL36_Bios-180714\Debug/../03_MCU/MCU_drivers/i2c/i2c.c:368
}
    500a:	bd30      	pop	{r4, r5, pc}
    500c:	00005ce4 	.word	0x00005ce4
    5010:	0000ffff 	.word	0x0000ffff

00005014 <I2C_receN>:
I2C_receN():
E:\2017-2018\03_Graduation Project\04_Software\05_Wangshi\02_6220\06_UpdateSoftware-180714\01_UEBootloader\KL36_Bios-180714\Debug/../03_MCU/MCU_drivers/i2c/i2c.c:382
//          DataNum2
// 10
//=====================================================================
uint_8 I2C_receN(uint_8 I2C_No, uint_8 slaveAddress, uint_8 *Data,\
		                                                uint_8 DataNum)
{
    5014:	b5f0      	push	{r4, r5, r6, r7, lr}
i2c_start():
E:\2017-2018\03_Graduation Project\04_Software\05_Wangshi\02_6220\06_UpdateSoftware-180714\01_UEBootloader\KL36_Bios-180714\Debug/../03_MCU/MCU_drivers/i2c/i2c.c:85
	BSET(I2C_C1_TX_SHIFT,i2c_ptr->C1);  //
    5016:	2510      	movs	r5, #16
E:\2017-2018\03_Graduation Project\04_Software\05_Wangshi\02_6220\06_UpdateSoftware-180714\01_UEBootloader\KL36_Bios-180714\Debug/../03_MCU/MCU_drivers/i2c/i2c.c:84
	I2C_MemMapPtr i2c_ptr = I2C_BASE_TABLE[I2C_No];
    5018:	4c3e      	ldr	r4, [pc, #248]	; (5114 <I2C_receN+0x100>)
    501a:	0080      	lsls	r0, r0, #2
    501c:	5904      	ldr	r4, [r0, r4]
I2C_receN():
E:\2017-2018\03_Graduation Project\04_Software\05_Wangshi\02_6220\06_UpdateSoftware-180714\01_UEBootloader\KL36_Bios-180714\Debug/../03_MCU/MCU_drivers/i2c/i2c.c:385
	uint_8 temp,i;
	i2c_start(I2C_No);             //restart
	temp = (slaveAddress << 1) | 0x01;
    501e:	0049      	lsls	r1, r1, #1
i2c_start():
E:\2017-2018\03_Graduation Project\04_Software\05_Wangshi\02_6220\06_UpdateSoftware-180714\01_UEBootloader\KL36_Bios-180714\Debug/../03_MCU/MCU_drivers/i2c/i2c.c:85
	BSET(I2C_C1_TX_SHIFT,i2c_ptr->C1);  //
    5020:	78a0      	ldrb	r0, [r4, #2]
    5022:	4328      	orrs	r0, r5
E:\2017-2018\03_Graduation Project\04_Software\05_Wangshi\02_6220\06_UpdateSoftware-180714\01_UEBootloader\KL36_Bios-180714\Debug/../03_MCU/MCU_drivers/i2c/i2c.c:86
	BSET(I2C_C1_MST_SHIFT,i2c_ptr->C1); //
    5024:	2520      	movs	r5, #32
E:\2017-2018\03_Graduation Project\04_Software\05_Wangshi\02_6220\06_UpdateSoftware-180714\01_UEBootloader\KL36_Bios-180714\Debug/../03_MCU/MCU_drivers/i2c/i2c.c:85
	BSET(I2C_C1_TX_SHIFT,i2c_ptr->C1);  //
    5026:	70a0      	strb	r0, [r4, #2]
E:\2017-2018\03_Graduation Project\04_Software\05_Wangshi\02_6220\06_UpdateSoftware-180714\01_UEBootloader\KL36_Bios-180714\Debug/../03_MCU/MCU_drivers/i2c/i2c.c:86
	BSET(I2C_C1_MST_SHIFT,i2c_ptr->C1); //
    5028:	78a0      	ldrb	r0, [r4, #2]
    502a:	4328      	orrs	r0, r5
    502c:	70a0      	strb	r0, [r4, #2]
I2C_receN():
E:\2017-2018\03_Graduation Project\04_Software\05_Wangshi\02_6220\06_UpdateSoftware-180714\01_UEBootloader\KL36_Bios-180714\Debug/../03_MCU/MCU_drivers/i2c/i2c.c:385
	temp = (slaveAddress << 1) | 0x01;
    502e:	2001      	movs	r0, #1
    5030:	4301      	orrs	r1, r0
    5032:	b2c9      	uxtb	r1, r1
i2c_write():
E:\2017-2018\03_Graduation Project\04_Software\05_Wangshi\02_6220\06_UpdateSoftware-180714\01_UEBootloader\KL36_Bios-180714\Debug/../03_MCU/MCU_drivers/i2c/i2c.c:60
	i2c_ptr->D = data;
    5034:	7121      	strb	r1, [r4, #4]
i2c_wait():
E:\2017-2018\03_Graduation Project\04_Software\05_Wangshi\02_6220\06_UpdateSoftware-180714\01_UEBootloader\KL36_Bios-180714\Debug/../03_MCU/MCU_drivers/i2c/i2c.c:26
	while(BGET(I2C_S_IICIF_SHIFT,i2c_ptr->S) == 0)
    5036:	2502      	movs	r5, #2
i2c_write():
E:\2017-2018\03_Graduation Project\04_Software\05_Wangshi\02_6220\06_UpdateSoftware-180714\01_UEBootloader\KL36_Bios-180714\Debug/../03_MCU/MCU_drivers/i2c/i2c.c:60
	i2c_ptr->D = data;
    5038:	4937      	ldr	r1, [pc, #220]	; (5118 <I2C_receN+0x104>)
    503a:	e003      	b.n	5044 <I2C_receN+0x30>
    503c:	3901      	subs	r1, #1
    503e:	b289      	uxth	r1, r1
i2c_wait():
E:\2017-2018\03_Graduation Project\04_Software\05_Wangshi\02_6220\06_UpdateSoftware-180714\01_UEBootloader\KL36_Bios-180714\Debug/../03_MCU/MCU_drivers/i2c/i2c.c:29
		if(time > time_out)
    5040:	2900      	cmp	r1, #0
    5042:	d040      	beq.n	50c6 <I2C_receN+0xb2>
E:\2017-2018\03_Graduation Project\04_Software\05_Wangshi\02_6220\06_UpdateSoftware-180714\01_UEBootloader\KL36_Bios-180714\Debug/../03_MCU/MCU_drivers/i2c/i2c.c:26
	while(BGET(I2C_S_IICIF_SHIFT,i2c_ptr->S) == 0)
    5044:	78e0      	ldrb	r0, [r4, #3]
    5046:	4205      	tst	r5, r0
    5048:	d0f8      	beq.n	503c <I2C_receN+0x28>
E:\2017-2018\03_Graduation Project\04_Software\05_Wangshi\02_6220\06_UpdateSoftware-180714\01_UEBootloader\KL36_Bios-180714\Debug/../03_MCU/MCU_drivers/i2c/i2c.c:32
	BSET(I2C_S_IICIF_SHIFT,i2c_ptr->S);
    504a:	2002      	movs	r0, #2
    504c:	78e1      	ldrb	r1, [r4, #3]
    504e:	4301      	orrs	r1, r0
    5050:	70e1      	strb	r1, [r4, #3]
i2c_get_ack():
E:\2017-2018\03_Graduation Project\04_Software\05_Wangshi\02_6220\06_UpdateSoftware-180714\01_UEBootloader\KL36_Bios-180714\Debug/../03_MCU/MCU_drivers/i2c/i2c.c:150
	ack = BGET(I2C_S_RXAK_SHIFT,i2c_ptr->S);
    5052:	2101      	movs	r1, #1
    5054:	78e0      	ldrb	r0, [r4, #3]
    5056:	4008      	ands	r0, r1
I2C_receN():
E:\2017-2018\03_Graduation Project\04_Software\05_Wangshi\02_6220\06_UpdateSoftware-180714\01_UEBootloader\KL36_Bios-180714\Debug/../03_MCU/MCU_drivers/i2c/i2c.c:389
	i2c_write(I2C_No,temp);          //
	if(i2c_wait(I2C_No) == 1)        //
		return 1;                    //
	if(i2c_get_ack(I2C_No) == 1)     //ACK
    5058:	d135      	bne.n	50c6 <I2C_receN+0xb2>
i2c_changeDir():
E:\2017-2018\03_Graduation Project\04_Software\05_Wangshi\02_6220\06_UpdateSoftware-180714\01_UEBootloader\KL36_Bios-180714\Debug/../03_MCU/MCU_drivers/i2c/i2c.c:136
	i2c_ptr->C1 &= ~I2C_C1_TX_MASK;
    505a:	2510      	movs	r5, #16
    505c:	78a1      	ldrb	r1, [r4, #2]
i2c_wait():
E:\2017-2018\03_Graduation Project\04_Software\05_Wangshi\02_6220\06_UpdateSoftware-180714\01_UEBootloader\KL36_Bios-180714\Debug/../03_MCU/MCU_drivers/i2c/i2c.c:26
	while(BGET(I2C_S_IICIF_SHIFT,i2c_ptr->S) == 0)
    505e:	2602      	movs	r6, #2
i2c_changeDir():
E:\2017-2018\03_Graduation Project\04_Software\05_Wangshi\02_6220\06_UpdateSoftware-180714\01_UEBootloader\KL36_Bios-180714\Debug/../03_MCU/MCU_drivers/i2c/i2c.c:136
	i2c_ptr->C1 &= ~I2C_C1_TX_MASK;
    5060:	43a9      	bics	r1, r5
    5062:	70a1      	strb	r1, [r4, #2]
E:\2017-2018\03_Graduation Project\04_Software\05_Wangshi\02_6220\06_UpdateSoftware-180714\01_UEBootloader\KL36_Bios-180714\Debug/../03_MCU/MCU_drivers/i2c/i2c.c:137
	i2c_ptr->C1 |= I2C_C1_TX(direction);
    5064:	78a1      	ldrb	r1, [r4, #2]
i2c_sendACK():
E:\2017-2018\03_Graduation Project\04_Software\05_Wangshi\02_6220\06_UpdateSoftware-180714\01_UEBootloader\KL36_Bios-180714\Debug/../03_MCU/MCU_drivers/i2c/i2c.c:111
	BCLR(I2C_C1_TXAK_SHIFT,i2c_ptr->C1);
    5066:	3d08      	subs	r5, #8
i2c_changeDir():
E:\2017-2018\03_Graduation Project\04_Software\05_Wangshi\02_6220\06_UpdateSoftware-180714\01_UEBootloader\KL36_Bios-180714\Debug/../03_MCU/MCU_drivers/i2c/i2c.c:137
	i2c_ptr->C1 |= I2C_C1_TX(direction);
    5068:	b2c9      	uxtb	r1, r1
    506a:	70a1      	strb	r1, [r4, #2]
i2c_sendACK():
E:\2017-2018\03_Graduation Project\04_Software\05_Wangshi\02_6220\06_UpdateSoftware-180714\01_UEBootloader\KL36_Bios-180714\Debug/../03_MCU/MCU_drivers/i2c/i2c.c:111
	BCLR(I2C_C1_TXAK_SHIFT,i2c_ptr->C1);
    506c:	78a1      	ldrb	r1, [r4, #2]
    506e:	43a9      	bics	r1, r5
    5070:	70a1      	strb	r1, [r4, #2]
i2c_read():
E:\2017-2018\03_Graduation Project\04_Software\05_Wangshi\02_6220\06_UpdateSoftware-180714\01_UEBootloader\KL36_Bios-180714\Debug/../03_MCU/MCU_drivers/i2c/i2c.c:46
	result = i2c_ptr->D;
    5072:	7921      	ldrb	r1, [r4, #4]
    5074:	4928      	ldr	r1, [pc, #160]	; (5118 <I2C_receN+0x104>)
    5076:	e003      	b.n	5080 <I2C_receN+0x6c>
    5078:	3901      	subs	r1, #1
    507a:	b289      	uxth	r1, r1
i2c_wait():
E:\2017-2018\03_Graduation Project\04_Software\05_Wangshi\02_6220\06_UpdateSoftware-180714\01_UEBootloader\KL36_Bios-180714\Debug/../03_MCU/MCU_drivers/i2c/i2c.c:29
		if(time > time_out)
    507c:	2900      	cmp	r1, #0
    507e:	d022      	beq.n	50c6 <I2C_receN+0xb2>
E:\2017-2018\03_Graduation Project\04_Software\05_Wangshi\02_6220\06_UpdateSoftware-180714\01_UEBootloader\KL36_Bios-180714\Debug/../03_MCU/MCU_drivers/i2c/i2c.c:26
	while(BGET(I2C_S_IICIF_SHIFT,i2c_ptr->S) == 0)
    5080:	78e5      	ldrb	r5, [r4, #3]
    5082:	422e      	tst	r6, r5
    5084:	d0f8      	beq.n	5078 <I2C_receN+0x64>
E:\2017-2018\03_Graduation Project\04_Software\05_Wangshi\02_6220\06_UpdateSoftware-180714\01_UEBootloader\KL36_Bios-180714\Debug/../03_MCU/MCU_drivers/i2c/i2c.c:32
	BSET(I2C_S_IICIF_SHIFT,i2c_ptr->S);
    5086:	2502      	movs	r5, #2
    5088:	78e1      	ldrb	r1, [r4, #3]
I2C_receN():
E:\2017-2018\03_Graduation Project\04_Software\05_Wangshi\02_6220\06_UpdateSoftware-180714\01_UEBootloader\KL36_Bios-180714\Debug/../03_MCU/MCU_drivers/i2c/i2c.c:396
	i2c_changeDir(I2C_No,0);         //
	i2c_sendACK(I2C_No);             //ACK
	i2c_read(I2C_No);                //
	if(i2c_wait(I2C_No) == 1)        //
		return 1;                    //
	for(i = 0; i < DataNum-2; i++)
    508a:	3b02      	subs	r3, #2
i2c_wait():
E:\2017-2018\03_Graduation Project\04_Software\05_Wangshi\02_6220\06_UpdateSoftware-180714\01_UEBootloader\KL36_Bios-180714\Debug/../03_MCU/MCU_drivers/i2c/i2c.c:32
	BSET(I2C_S_IICIF_SHIFT,i2c_ptr->S);
    508c:	4329      	orrs	r1, r5
    508e:	70e1      	strb	r1, [r4, #3]
I2C_receN():
E:\2017-2018\03_Graduation Project\04_Software\05_Wangshi\02_6220\06_UpdateSoftware-180714\01_UEBootloader\KL36_Bios-180714\Debug/../03_MCU/MCU_drivers/i2c/i2c.c:396
	for(i = 0; i < DataNum-2; i++)
    5090:	2b00      	cmp	r3, #0
    5092:	dd3c      	ble.n	510e <I2C_receN+0xfa>
i2c_wait():
E:\2017-2018\03_Graduation Project\04_Software\05_Wangshi\02_6220\06_UpdateSoftware-180714\01_UEBootloader\KL36_Bios-180714\Debug/../03_MCU/MCU_drivers/i2c/i2c.c:26
	while(BGET(I2C_S_IICIF_SHIFT,i2c_ptr->S) == 0)
    5094:	2102      	movs	r1, #2
I2C_receN():
E:\2017-2018\03_Graduation Project\04_Software\05_Wangshi\02_6220\06_UpdateSoftware-180714\01_UEBootloader\KL36_Bios-180714\Debug/../03_MCU/MCU_drivers/i2c/i2c.c:396
	for(i = 0; i < DataNum-2; i++)
    5096:	2700      	movs	r7, #0
i2c_wait():
E:\2017-2018\03_Graduation Project\04_Software\05_Wangshi\02_6220\06_UpdateSoftware-180714\01_UEBootloader\KL36_Bios-180714\Debug/../03_MCU/MCU_drivers/i2c/i2c.c:26
	while(BGET(I2C_S_IICIF_SHIFT,i2c_ptr->S) == 0)
    5098:	468c      	mov	ip, r1
    509a:	2602      	movs	r6, #2
i2c_read():
E:\2017-2018\03_Graduation Project\04_Software\05_Wangshi\02_6220\06_UpdateSoftware-180714\01_UEBootloader\KL36_Bios-180714\Debug/../03_MCU/MCU_drivers/i2c/i2c.c:46 (discriminator 3)
	result = i2c_ptr->D;
    509c:	7921      	ldrb	r1, [r4, #4]
I2C_receN():
E:\2017-2018\03_Graduation Project\04_Software\05_Wangshi\02_6220\06_UpdateSoftware-180714\01_UEBootloader\KL36_Bios-180714\Debug/../03_MCU/MCU_drivers/i2c/i2c.c:398 (discriminator 3)
	{
		Data[i] = i2c_read(I2C_No);
    509e:	55d1      	strb	r1, [r2, r7]
    50a0:	491d      	ldr	r1, [pc, #116]	; (5118 <I2C_receN+0x104>)
    50a2:	e003      	b.n	50ac <I2C_receN+0x98>
    50a4:	3901      	subs	r1, #1
    50a6:	b289      	uxth	r1, r1
i2c_wait():
E:\2017-2018\03_Graduation Project\04_Software\05_Wangshi\02_6220\06_UpdateSoftware-180714\01_UEBootloader\KL36_Bios-180714\Debug/../03_MCU/MCU_drivers/i2c/i2c.c:29
		if(time > time_out)
    50a8:	2900      	cmp	r1, #0
    50aa:	d006      	beq.n	50ba <I2C_receN+0xa6>
E:\2017-2018\03_Graduation Project\04_Software\05_Wangshi\02_6220\06_UpdateSoftware-180714\01_UEBootloader\KL36_Bios-180714\Debug/../03_MCU/MCU_drivers/i2c/i2c.c:26
	while(BGET(I2C_S_IICIF_SHIFT,i2c_ptr->S) == 0)
    50ac:	78e5      	ldrb	r5, [r4, #3]
    50ae:	422e      	tst	r6, r5
    50b0:	d0f8      	beq.n	50a4 <I2C_receN+0x90>
E:\2017-2018\03_Graduation Project\04_Software\05_Wangshi\02_6220\06_UpdateSoftware-180714\01_UEBootloader\KL36_Bios-180714\Debug/../03_MCU/MCU_drivers/i2c/i2c.c:32
	BSET(I2C_S_IICIF_SHIFT,i2c_ptr->S);
    50b2:	4665      	mov	r5, ip
    50b4:	78e1      	ldrb	r1, [r4, #3]
    50b6:	4329      	orrs	r1, r5
    50b8:	70e1      	strb	r1, [r4, #3]
I2C_receN():
E:\2017-2018\03_Graduation Project\04_Software\05_Wangshi\02_6220\06_UpdateSoftware-180714\01_UEBootloader\KL36_Bios-180714\Debug/../03_MCU/MCU_drivers/i2c/i2c.c:396
	for(i = 0; i < DataNum-2; i++)
    50ba:	1c79      	adds	r1, r7, #1
    50bc:	b2c9      	uxtb	r1, r1
    50be:	4299      	cmp	r1, r3
    50c0:	da03      	bge.n	50ca <I2C_receN+0xb6>
    50c2:	000f      	movs	r7, r1
    50c4:	e7ea      	b.n	509c <I2C_receN+0x88>
E:\2017-2018\03_Graduation Project\04_Software\05_Wangshi\02_6220\06_UpdateSoftware-180714\01_UEBootloader\KL36_Bios-180714\Debug/../03_MCU/MCU_drivers/i2c/i2c.c:388
		return 1;                    //
    50c6:	2001      	movs	r0, #1
E:\2017-2018\03_Graduation Project\04_Software\05_Wangshi\02_6220\06_UpdateSoftware-180714\01_UEBootloader\KL36_Bios-180714\Debug/../03_MCU/MCU_drivers/i2c/i2c.c:408
	if(i2c_wait(I2C_No) == 1)        //
		return 1;                    //
	i2c_stop(I2C_No);                //
	Data[i] = i2c_read(I2C_No); //
	return 0;
}
    50c8:	bdf0      	pop	{r4, r5, r6, r7, pc}
    50ca:	3702      	adds	r7, #2
    50cc:	1851      	adds	r1, r2, r1
    50ce:	b2ff      	uxtb	r7, r7
i2c_sendNACK():
E:\2017-2018\03_Graduation Project\04_Software\05_Wangshi\02_6220\06_UpdateSoftware-180714\01_UEBootloader\KL36_Bios-180714\Debug/../03_MCU/MCU_drivers/i2c/i2c.c:123
	BSET(I2C_C1_TXAK_SHIFT,i2c_ptr->C1);
    50d0:	2508      	movs	r5, #8
    50d2:	78a3      	ldrb	r3, [r4, #2]
    50d4:	432b      	orrs	r3, r5
    50d6:	70a3      	strb	r3, [r4, #2]
i2c_read():
E:\2017-2018\03_Graduation Project\04_Software\05_Wangshi\02_6220\06_UpdateSoftware-180714\01_UEBootloader\KL36_Bios-180714\Debug/../03_MCU/MCU_drivers/i2c/i2c.c:46
	result = i2c_ptr->D;
    50d8:	7923      	ldrb	r3, [r4, #4]
i2c_wait():
E:\2017-2018\03_Graduation Project\04_Software\05_Wangshi\02_6220\06_UpdateSoftware-180714\01_UEBootloader\KL36_Bios-180714\Debug/../03_MCU/MCU_drivers/i2c/i2c.c:26
	while(BGET(I2C_S_IICIF_SHIFT,i2c_ptr->S) == 0)
    50da:	2502      	movs	r5, #2
I2C_receN():
E:\2017-2018\03_Graduation Project\04_Software\05_Wangshi\02_6220\06_UpdateSoftware-180714\01_UEBootloader\KL36_Bios-180714\Debug/../03_MCU/MCU_drivers/i2c/i2c.c:402
	Data[i++] = i2c_read(I2C_No);
    50dc:	700b      	strb	r3, [r1, #0]
    50de:	4b0e      	ldr	r3, [pc, #56]	; (5118 <I2C_receN+0x104>)
    50e0:	e003      	b.n	50ea <I2C_receN+0xd6>
    50e2:	3b01      	subs	r3, #1
    50e4:	b29b      	uxth	r3, r3
i2c_wait():
E:\2017-2018\03_Graduation Project\04_Software\05_Wangshi\02_6220\06_UpdateSoftware-180714\01_UEBootloader\KL36_Bios-180714\Debug/../03_MCU/MCU_drivers/i2c/i2c.c:29
		if(time > time_out)
    50e6:	2b00      	cmp	r3, #0
    50e8:	d0ed      	beq.n	50c6 <I2C_receN+0xb2>
E:\2017-2018\03_Graduation Project\04_Software\05_Wangshi\02_6220\06_UpdateSoftware-180714\01_UEBootloader\KL36_Bios-180714\Debug/../03_MCU/MCU_drivers/i2c/i2c.c:26
	while(BGET(I2C_S_IICIF_SHIFT,i2c_ptr->S) == 0)
    50ea:	78e1      	ldrb	r1, [r4, #3]
    50ec:	420d      	tst	r5, r1
    50ee:	d0f8      	beq.n	50e2 <I2C_receN+0xce>
E:\2017-2018\03_Graduation Project\04_Software\05_Wangshi\02_6220\06_UpdateSoftware-180714\01_UEBootloader\KL36_Bios-180714\Debug/../03_MCU/MCU_drivers/i2c/i2c.c:32
	BSET(I2C_S_IICIF_SHIFT,i2c_ptr->S);
    50f0:	2102      	movs	r1, #2
    50f2:	78e3      	ldrb	r3, [r4, #3]
    50f4:	430b      	orrs	r3, r1
i2c_stop():
E:\2017-2018\03_Graduation Project\04_Software\05_Wangshi\02_6220\06_UpdateSoftware-180714\01_UEBootloader\KL36_Bios-180714\Debug/../03_MCU/MCU_drivers/i2c/i2c.c:72
	BCLR(I2C_C1_MST_SHIFT,i2c_ptr->C1); //
    50f6:	2120      	movs	r1, #32
i2c_wait():
E:\2017-2018\03_Graduation Project\04_Software\05_Wangshi\02_6220\06_UpdateSoftware-180714\01_UEBootloader\KL36_Bios-180714\Debug/../03_MCU/MCU_drivers/i2c/i2c.c:32
	BSET(I2C_S_IICIF_SHIFT,i2c_ptr->S);
    50f8:	70e3      	strb	r3, [r4, #3]
i2c_stop():
E:\2017-2018\03_Graduation Project\04_Software\05_Wangshi\02_6220\06_UpdateSoftware-180714\01_UEBootloader\KL36_Bios-180714\Debug/../03_MCU/MCU_drivers/i2c/i2c.c:72
	BCLR(I2C_C1_MST_SHIFT,i2c_ptr->C1); //
    50fa:	78a3      	ldrb	r3, [r4, #2]
    50fc:	438b      	bics	r3, r1
    50fe:	70a3      	strb	r3, [r4, #2]
E:\2017-2018\03_Graduation Project\04_Software\05_Wangshi\02_6220\06_UpdateSoftware-180714\01_UEBootloader\KL36_Bios-180714\Debug/../03_MCU/MCU_drivers/i2c/i2c.c:73
	BCLR(I2C_C1_TX_SHIFT,i2c_ptr->C1);  //
    5100:	78a3      	ldrb	r3, [r4, #2]
    5102:	3910      	subs	r1, #16
    5104:	438b      	bics	r3, r1
    5106:	70a3      	strb	r3, [r4, #2]
i2c_read():
E:\2017-2018\03_Graduation Project\04_Software\05_Wangshi\02_6220\06_UpdateSoftware-180714\01_UEBootloader\KL36_Bios-180714\Debug/../03_MCU/MCU_drivers/i2c/i2c.c:46
	result = i2c_ptr->D;
    5108:	7923      	ldrb	r3, [r4, #4]
I2C_receN():
E:\2017-2018\03_Graduation Project\04_Software\05_Wangshi\02_6220\06_UpdateSoftware-180714\01_UEBootloader\KL36_Bios-180714\Debug/../03_MCU/MCU_drivers/i2c/i2c.c:406
	Data[i] = i2c_read(I2C_No); //
    510a:	55d3      	strb	r3, [r2, r7]
E:\2017-2018\03_Graduation Project\04_Software\05_Wangshi\02_6220\06_UpdateSoftware-180714\01_UEBootloader\KL36_Bios-180714\Debug/../03_MCU/MCU_drivers/i2c/i2c.c:407
	return 0;
    510c:	e7dc      	b.n	50c8 <I2C_receN+0xb4>
E:\2017-2018\03_Graduation Project\04_Software\05_Wangshi\02_6220\06_UpdateSoftware-180714\01_UEBootloader\KL36_Bios-180714\Debug/../03_MCU/MCU_drivers/i2c/i2c.c:396
	for(i = 0; i < DataNum-2; i++)
    510e:	0011      	movs	r1, r2
    5110:	2701      	movs	r7, #1
    5112:	e7dd      	b.n	50d0 <I2C_receN+0xbc>
    5114:	00005ce4 	.word	0x00005ce4
    5118:	0000ffff 	.word	0x0000ffff

0000511c <I2C_write1>:
I2C_write1():
E:\2017-2018\03_Graduation Project\04_Software\05_Wangshi\02_6220\06_UpdateSoftware-180714\01_UEBootloader\KL36_Bios-180714\Debug/../03_MCU/MCU_drivers/i2c/i2c.c:420
//          Data:1
// 0,;1,
//:  10
//======================================================================
uint_8 I2C_write1(uint_8 I2C_No, uint_8 slaveAddress, uint_8 Data)
{
    511c:	b510      	push	{r4, lr}
i2c_start():
E:\2017-2018\03_Graduation Project\04_Software\05_Wangshi\02_6220\06_UpdateSoftware-180714\01_UEBootloader\KL36_Bios-180714\Debug/../03_MCU/MCU_drivers/i2c/i2c.c:85
	BSET(I2C_C1_TX_SHIFT,i2c_ptr->C1);  //
    511e:	2410      	movs	r4, #16
E:\2017-2018\03_Graduation Project\04_Software\05_Wangshi\02_6220\06_UpdateSoftware-180714\01_UEBootloader\KL36_Bios-180714\Debug/../03_MCU/MCU_drivers/i2c/i2c.c:84
	I2C_MemMapPtr i2c_ptr = I2C_BASE_TABLE[I2C_No];
    5120:	4b1b      	ldr	r3, [pc, #108]	; (5190 <I2C_write1+0x74>)
    5122:	0080      	lsls	r0, r0, #2
    5124:	58c0      	ldr	r0, [r0, r3]
I2C_write1():
E:\2017-2018\03_Graduation Project\04_Software\05_Wangshi\02_6220\06_UpdateSoftware-180714\01_UEBootloader\KL36_Bios-180714\Debug/../03_MCU/MCU_drivers/i2c/i2c.c:422
	i2c_start(I2C_No);               //
	slaveAddress = (slaveAddress << 1) & 0xfe;
    5126:	0049      	lsls	r1, r1, #1
i2c_start():
E:\2017-2018\03_Graduation Project\04_Software\05_Wangshi\02_6220\06_UpdateSoftware-180714\01_UEBootloader\KL36_Bios-180714\Debug/../03_MCU/MCU_drivers/i2c/i2c.c:85
	BSET(I2C_C1_TX_SHIFT,i2c_ptr->C1);  //
    5128:	7883      	ldrb	r3, [r0, #2]
I2C_write1():
E:\2017-2018\03_Graduation Project\04_Software\05_Wangshi\02_6220\06_UpdateSoftware-180714\01_UEBootloader\KL36_Bios-180714\Debug/../03_MCU/MCU_drivers/i2c/i2c.c:422
	slaveAddress = (slaveAddress << 1) & 0xfe;
    512a:	b2c9      	uxtb	r1, r1
i2c_start():
E:\2017-2018\03_Graduation Project\04_Software\05_Wangshi\02_6220\06_UpdateSoftware-180714\01_UEBootloader\KL36_Bios-180714\Debug/../03_MCU/MCU_drivers/i2c/i2c.c:85
	BSET(I2C_C1_TX_SHIFT,i2c_ptr->C1);  //
    512c:	4323      	orrs	r3, r4
E:\2017-2018\03_Graduation Project\04_Software\05_Wangshi\02_6220\06_UpdateSoftware-180714\01_UEBootloader\KL36_Bios-180714\Debug/../03_MCU/MCU_drivers/i2c/i2c.c:86
	BSET(I2C_C1_MST_SHIFT,i2c_ptr->C1); //
    512e:	2420      	movs	r4, #32
E:\2017-2018\03_Graduation Project\04_Software\05_Wangshi\02_6220\06_UpdateSoftware-180714\01_UEBootloader\KL36_Bios-180714\Debug/../03_MCU/MCU_drivers/i2c/i2c.c:85
	BSET(I2C_C1_TX_SHIFT,i2c_ptr->C1);  //
    5130:	7083      	strb	r3, [r0, #2]
E:\2017-2018\03_Graduation Project\04_Software\05_Wangshi\02_6220\06_UpdateSoftware-180714\01_UEBootloader\KL36_Bios-180714\Debug/../03_MCU/MCU_drivers/i2c/i2c.c:86
	BSET(I2C_C1_MST_SHIFT,i2c_ptr->C1); //
    5132:	7883      	ldrb	r3, [r0, #2]
    5134:	4323      	orrs	r3, r4
    5136:	7083      	strb	r3, [r0, #2]
i2c_wait():
E:\2017-2018\03_Graduation Project\04_Software\05_Wangshi\02_6220\06_UpdateSoftware-180714\01_UEBootloader\KL36_Bios-180714\Debug/../03_MCU/MCU_drivers/i2c/i2c.c:26
	while(BGET(I2C_S_IICIF_SHIFT,i2c_ptr->S) == 0)
    5138:	2402      	movs	r4, #2
i2c_write():
E:\2017-2018\03_Graduation Project\04_Software\05_Wangshi\02_6220\06_UpdateSoftware-180714\01_UEBootloader\KL36_Bios-180714\Debug/../03_MCU/MCU_drivers/i2c/i2c.c:60
	i2c_ptr->D = data;
    513a:	7101      	strb	r1, [r0, #4]
    513c:	4b15      	ldr	r3, [pc, #84]	; (5194 <I2C_write1+0x78>)
    513e:	e003      	b.n	5148 <I2C_write1+0x2c>
    5140:	3b01      	subs	r3, #1
    5142:	b29b      	uxth	r3, r3
i2c_wait():
E:\2017-2018\03_Graduation Project\04_Software\05_Wangshi\02_6220\06_UpdateSoftware-180714\01_UEBootloader\KL36_Bios-180714\Debug/../03_MCU/MCU_drivers/i2c/i2c.c:29
		if(time > time_out)
    5144:	2b00      	cmp	r3, #0
    5146:	d021      	beq.n	518c <I2C_write1+0x70>
E:\2017-2018\03_Graduation Project\04_Software\05_Wangshi\02_6220\06_UpdateSoftware-180714\01_UEBootloader\KL36_Bios-180714\Debug/../03_MCU/MCU_drivers/i2c/i2c.c:26
	while(BGET(I2C_S_IICIF_SHIFT,i2c_ptr->S) == 0)
    5148:	78c1      	ldrb	r1, [r0, #3]
    514a:	420c      	tst	r4, r1
    514c:	d0f8      	beq.n	5140 <I2C_write1+0x24>
E:\2017-2018\03_Graduation Project\04_Software\05_Wangshi\02_6220\06_UpdateSoftware-180714\01_UEBootloader\KL36_Bios-180714\Debug/../03_MCU/MCU_drivers/i2c/i2c.c:32
	BSET(I2C_S_IICIF_SHIFT,i2c_ptr->S);
    514e:	2102      	movs	r1, #2
    5150:	78c3      	ldrb	r3, [r0, #3]
    5152:	430b      	orrs	r3, r1
    5154:	70c3      	strb	r3, [r0, #3]
i2c_get_ack():
E:\2017-2018\03_Graduation Project\04_Software\05_Wangshi\02_6220\06_UpdateSoftware-180714\01_UEBootloader\KL36_Bios-180714\Debug/../03_MCU/MCU_drivers/i2c/i2c.c:150
	ack = BGET(I2C_S_RXAK_SHIFT,i2c_ptr->S);
    5156:	78c3      	ldrb	r3, [r0, #3]
I2C_write1():
E:\2017-2018\03_Graduation Project\04_Software\05_Wangshi\02_6220\06_UpdateSoftware-180714\01_UEBootloader\KL36_Bios-180714\Debug/../03_MCU/MCU_drivers/i2c/i2c.c:426
	i2c_write(I2C_No,slaveAddress);  //
	if(i2c_wait(I2C_No) == 1)        //
		return 1;                    //
	if(i2c_get_ack(I2C_No) == 1)     //ACK
    5158:	07db      	lsls	r3, r3, #31
    515a:	d417      	bmi.n	518c <I2C_write1+0x70>
i2c_write():
E:\2017-2018\03_Graduation Project\04_Software\05_Wangshi\02_6220\06_UpdateSoftware-180714\01_UEBootloader\KL36_Bios-180714\Debug/../03_MCU/MCU_drivers/i2c/i2c.c:60
	i2c_ptr->D = data;
    515c:	7102      	strb	r2, [r0, #4]
    515e:	4b0d      	ldr	r3, [pc, #52]	; (5194 <I2C_write1+0x78>)
i2c_wait():
E:\2017-2018\03_Graduation Project\04_Software\05_Wangshi\02_6220\06_UpdateSoftware-180714\01_UEBootloader\KL36_Bios-180714\Debug/../03_MCU/MCU_drivers/i2c/i2c.c:26
	while(BGET(I2C_S_IICIF_SHIFT,i2c_ptr->S) == 0)
    5160:	2102      	movs	r1, #2
    5162:	e003      	b.n	516c <I2C_write1+0x50>
    5164:	3b01      	subs	r3, #1
    5166:	b29b      	uxth	r3, r3
E:\2017-2018\03_Graduation Project\04_Software\05_Wangshi\02_6220\06_UpdateSoftware-180714\01_UEBootloader\KL36_Bios-180714\Debug/../03_MCU/MCU_drivers/i2c/i2c.c:29
		if(time > time_out)
    5168:	2b00      	cmp	r3, #0
    516a:	d00f      	beq.n	518c <I2C_write1+0x70>
E:\2017-2018\03_Graduation Project\04_Software\05_Wangshi\02_6220\06_UpdateSoftware-180714\01_UEBootloader\KL36_Bios-180714\Debug/../03_MCU/MCU_drivers/i2c/i2c.c:26
	while(BGET(I2C_S_IICIF_SHIFT,i2c_ptr->S) == 0)
    516c:	78c2      	ldrb	r2, [r0, #3]
    516e:	4211      	tst	r1, r2
    5170:	d0f8      	beq.n	5164 <I2C_write1+0x48>
E:\2017-2018\03_Graduation Project\04_Software\05_Wangshi\02_6220\06_UpdateSoftware-180714\01_UEBootloader\KL36_Bios-180714\Debug/../03_MCU/MCU_drivers/i2c/i2c.c:32
	BSET(I2C_S_IICIF_SHIFT,i2c_ptr->S);
    5172:	2202      	movs	r2, #2
    5174:	78c3      	ldrb	r3, [r0, #3]
    5176:	4313      	orrs	r3, r2
i2c_stop():
E:\2017-2018\03_Graduation Project\04_Software\05_Wangshi\02_6220\06_UpdateSoftware-180714\01_UEBootloader\KL36_Bios-180714\Debug/../03_MCU/MCU_drivers/i2c/i2c.c:72
	BCLR(I2C_C1_MST_SHIFT,i2c_ptr->C1); //
    5178:	2220      	movs	r2, #32
i2c_wait():
E:\2017-2018\03_Graduation Project\04_Software\05_Wangshi\02_6220\06_UpdateSoftware-180714\01_UEBootloader\KL36_Bios-180714\Debug/../03_MCU/MCU_drivers/i2c/i2c.c:32
	BSET(I2C_S_IICIF_SHIFT,i2c_ptr->S);
    517a:	70c3      	strb	r3, [r0, #3]
i2c_stop():
E:\2017-2018\03_Graduation Project\04_Software\05_Wangshi\02_6220\06_UpdateSoftware-180714\01_UEBootloader\KL36_Bios-180714\Debug/../03_MCU/MCU_drivers/i2c/i2c.c:72
	BCLR(I2C_C1_MST_SHIFT,i2c_ptr->C1); //
    517c:	7883      	ldrb	r3, [r0, #2]
    517e:	4393      	bics	r3, r2
    5180:	7083      	strb	r3, [r0, #2]
E:\2017-2018\03_Graduation Project\04_Software\05_Wangshi\02_6220\06_UpdateSoftware-180714\01_UEBootloader\KL36_Bios-180714\Debug/../03_MCU/MCU_drivers/i2c/i2c.c:73
	BCLR(I2C_C1_TX_SHIFT,i2c_ptr->C1);  //
    5182:	7883      	ldrb	r3, [r0, #2]
    5184:	3a10      	subs	r2, #16
    5186:	4393      	bics	r3, r2
    5188:	7083      	strb	r3, [r0, #2]
I2C_write1():
E:\2017-2018\03_Graduation Project\04_Software\05_Wangshi\02_6220\06_UpdateSoftware-180714\01_UEBootloader\KL36_Bios-180714\Debug/../03_MCU/MCU_drivers/i2c/i2c.c:432
		return 1;                    //
	i2c_write(I2C_No,Data);          //
	if(i2c_wait(I2C_No) == 1)        //
		return 1;                    //
	i2c_stop(I2C_No);                //
}
    518a:	e000      	b.n	518e <I2C_write1+0x72>
    518c:	2001      	movs	r0, #1
    518e:	bd10      	pop	{r4, pc}
    5190:	00005ce4 	.word	0x00005ce4
    5194:	0000ffff 	.word	0x0000ffff

00005198 <I2C_writeN>:
I2C_writeN():
E:\2017-2018\03_Graduation Project\04_Software\05_Wangshi\02_6220\06_UpdateSoftware-180714\01_UEBootloader\KL36_Bios-180714\Debug/../03_MCU/MCU_drivers/i2c/i2c.c:445
// 0,;1,
//: 10
//======================================================================
uint_8 I2C_writeN(uint_8 I2C_No, uint_8 slaveAddress, uint_8 *Data, \
		                                                uint_8 DataNum)
{
    5198:	b5f0      	push	{r4, r5, r6, r7, lr}
i2c_start():
E:\2017-2018\03_Graduation Project\04_Software\05_Wangshi\02_6220\06_UpdateSoftware-180714\01_UEBootloader\KL36_Bios-180714\Debug/../03_MCU/MCU_drivers/i2c/i2c.c:85
	BSET(I2C_C1_TX_SHIFT,i2c_ptr->C1);  //
    519a:	2510      	movs	r5, #16
E:\2017-2018\03_Graduation Project\04_Software\05_Wangshi\02_6220\06_UpdateSoftware-180714\01_UEBootloader\KL36_Bios-180714\Debug/../03_MCU/MCU_drivers/i2c/i2c.c:84
	I2C_MemMapPtr i2c_ptr = I2C_BASE_TABLE[I2C_No];
    519c:	4c21      	ldr	r4, [pc, #132]	; (5224 <I2C_writeN+0x8c>)
    519e:	0080      	lsls	r0, r0, #2
    51a0:	5904      	ldr	r4, [r0, r4]
I2C_writeN():
E:\2017-2018\03_Graduation Project\04_Software\05_Wangshi\02_6220\06_UpdateSoftware-180714\01_UEBootloader\KL36_Bios-180714\Debug/../03_MCU/MCU_drivers/i2c/i2c.c:448
	uint_8 i;
	i2c_start(I2C_No);               //
	slaveAddress = (slaveAddress << 1) & 0xfe;
    51a2:	0049      	lsls	r1, r1, #1
i2c_start():
E:\2017-2018\03_Graduation Project\04_Software\05_Wangshi\02_6220\06_UpdateSoftware-180714\01_UEBootloader\KL36_Bios-180714\Debug/../03_MCU/MCU_drivers/i2c/i2c.c:85
	BSET(I2C_C1_TX_SHIFT,i2c_ptr->C1);  //
    51a4:	78a0      	ldrb	r0, [r4, #2]
I2C_writeN():
E:\2017-2018\03_Graduation Project\04_Software\05_Wangshi\02_6220\06_UpdateSoftware-180714\01_UEBootloader\KL36_Bios-180714\Debug/../03_MCU/MCU_drivers/i2c/i2c.c:448
	slaveAddress = (slaveAddress << 1) & 0xfe;
    51a6:	b2c9      	uxtb	r1, r1
i2c_start():
E:\2017-2018\03_Graduation Project\04_Software\05_Wangshi\02_6220\06_UpdateSoftware-180714\01_UEBootloader\KL36_Bios-180714\Debug/../03_MCU/MCU_drivers/i2c/i2c.c:85
	BSET(I2C_C1_TX_SHIFT,i2c_ptr->C1);  //
    51a8:	4328      	orrs	r0, r5
E:\2017-2018\03_Graduation Project\04_Software\05_Wangshi\02_6220\06_UpdateSoftware-180714\01_UEBootloader\KL36_Bios-180714\Debug/../03_MCU/MCU_drivers/i2c/i2c.c:86
	BSET(I2C_C1_MST_SHIFT,i2c_ptr->C1); //
    51aa:	2520      	movs	r5, #32
E:\2017-2018\03_Graduation Project\04_Software\05_Wangshi\02_6220\06_UpdateSoftware-180714\01_UEBootloader\KL36_Bios-180714\Debug/../03_MCU/MCU_drivers/i2c/i2c.c:85
	BSET(I2C_C1_TX_SHIFT,i2c_ptr->C1);  //
    51ac:	70a0      	strb	r0, [r4, #2]
E:\2017-2018\03_Graduation Project\04_Software\05_Wangshi\02_6220\06_UpdateSoftware-180714\01_UEBootloader\KL36_Bios-180714\Debug/../03_MCU/MCU_drivers/i2c/i2c.c:86
	BSET(I2C_C1_MST_SHIFT,i2c_ptr->C1); //
    51ae:	78a0      	ldrb	r0, [r4, #2]
    51b0:	4328      	orrs	r0, r5
    51b2:	70a0      	strb	r0, [r4, #2]
i2c_wait():
E:\2017-2018\03_Graduation Project\04_Software\05_Wangshi\02_6220\06_UpdateSoftware-180714\01_UEBootloader\KL36_Bios-180714\Debug/../03_MCU/MCU_drivers/i2c/i2c.c:26
	while(BGET(I2C_S_IICIF_SHIFT,i2c_ptr->S) == 0)
    51b4:	2502      	movs	r5, #2
i2c_write():
E:\2017-2018\03_Graduation Project\04_Software\05_Wangshi\02_6220\06_UpdateSoftware-180714\01_UEBootloader\KL36_Bios-180714\Debug/../03_MCU/MCU_drivers/i2c/i2c.c:60
	i2c_ptr->D = data;
    51b6:	7121      	strb	r1, [r4, #4]
    51b8:	491b      	ldr	r1, [pc, #108]	; (5228 <I2C_writeN+0x90>)
    51ba:	e003      	b.n	51c4 <I2C_writeN+0x2c>
    51bc:	3901      	subs	r1, #1
    51be:	b289      	uxth	r1, r1
i2c_wait():
E:\2017-2018\03_Graduation Project\04_Software\05_Wangshi\02_6220\06_UpdateSoftware-180714\01_UEBootloader\KL36_Bios-180714\Debug/../03_MCU/MCU_drivers/i2c/i2c.c:29
		if(time > time_out)
    51c0:	2900      	cmp	r1, #0
    51c2:	d02c      	beq.n	521e <I2C_writeN+0x86>
E:\2017-2018\03_Graduation Project\04_Software\05_Wangshi\02_6220\06_UpdateSoftware-180714\01_UEBootloader\KL36_Bios-180714\Debug/../03_MCU/MCU_drivers/i2c/i2c.c:26
	while(BGET(I2C_S_IICIF_SHIFT,i2c_ptr->S) == 0)
    51c4:	78e0      	ldrb	r0, [r4, #3]
    51c6:	4205      	tst	r5, r0
    51c8:	d0f8      	beq.n	51bc <I2C_writeN+0x24>
E:\2017-2018\03_Graduation Project\04_Software\05_Wangshi\02_6220\06_UpdateSoftware-180714\01_UEBootloader\KL36_Bios-180714\Debug/../03_MCU/MCU_drivers/i2c/i2c.c:32
	BSET(I2C_S_IICIF_SHIFT,i2c_ptr->S);
    51ca:	2002      	movs	r0, #2
    51cc:	78e1      	ldrb	r1, [r4, #3]
    51ce:	4301      	orrs	r1, r0
    51d0:	70e1      	strb	r1, [r4, #3]
i2c_get_ack():
E:\2017-2018\03_Graduation Project\04_Software\05_Wangshi\02_6220\06_UpdateSoftware-180714\01_UEBootloader\KL36_Bios-180714\Debug/../03_MCU/MCU_drivers/i2c/i2c.c:150
	ack = BGET(I2C_S_RXAK_SHIFT,i2c_ptr->S);
    51d2:	2101      	movs	r1, #1
    51d4:	78e0      	ldrb	r0, [r4, #3]
    51d6:	4008      	ands	r0, r1
I2C_writeN():
E:\2017-2018\03_Graduation Project\04_Software\05_Wangshi\02_6220\06_UpdateSoftware-180714\01_UEBootloader\KL36_Bios-180714\Debug/../03_MCU/MCU_drivers/i2c/i2c.c:452
	i2c_write(I2C_No,slaveAddress);  //
	if(i2c_wait(I2C_No) == 1)        //
		return 1;                    //
	if(i2c_get_ack(I2C_No) == 1)     //ACK
    51d8:	d121      	bne.n	521e <I2C_writeN+0x86>
E:\2017-2018\03_Graduation Project\04_Software\05_Wangshi\02_6220\06_UpdateSoftware-180714\01_UEBootloader\KL36_Bios-180714\Debug/../03_MCU/MCU_drivers/i2c/i2c.c:454
		return 1;                    //
	for(i = 0; i < DataNum; i++)
    51da:	2b00      	cmp	r3, #0
    51dc:	d016      	beq.n	520c <I2C_writeN+0x74>
i2c_wait():
E:\2017-2018\03_Graduation Project\04_Software\05_Wangshi\02_6220\06_UpdateSoftware-180714\01_UEBootloader\KL36_Bios-180714\Debug/../03_MCU/MCU_drivers/i2c/i2c.c:26
	while(BGET(I2C_S_IICIF_SHIFT,i2c_ptr->S) == 0)
    51de:	2702      	movs	r7, #2
    51e0:	2502      	movs	r5, #2
    51e2:	3b01      	subs	r3, #1
    51e4:	1c56      	adds	r6, r2, #1
    51e6:	b2db      	uxtb	r3, r3
    51e8:	18f6      	adds	r6, r6, r3
I2C_writeN():
E:\2017-2018\03_Graduation Project\04_Software\05_Wangshi\02_6220\06_UpdateSoftware-180714\01_UEBootloader\KL36_Bios-180714\Debug/../03_MCU/MCU_drivers/i2c/i2c.c:456
	{
		i2c_write(I2C_No,Data[i]);   //
    51ea:	7813      	ldrb	r3, [r2, #0]
i2c_write():
E:\2017-2018\03_Graduation Project\04_Software\05_Wangshi\02_6220\06_UpdateSoftware-180714\01_UEBootloader\KL36_Bios-180714\Debug/../03_MCU/MCU_drivers/i2c/i2c.c:60
	i2c_ptr->D = data;
    51ec:	7123      	strb	r3, [r4, #4]
    51ee:	4b0e      	ldr	r3, [pc, #56]	; (5228 <I2C_writeN+0x90>)
    51f0:	e003      	b.n	51fa <I2C_writeN+0x62>
    51f2:	3b01      	subs	r3, #1
    51f4:	b29b      	uxth	r3, r3
i2c_wait():
E:\2017-2018\03_Graduation Project\04_Software\05_Wangshi\02_6220\06_UpdateSoftware-180714\01_UEBootloader\KL36_Bios-180714\Debug/../03_MCU/MCU_drivers/i2c/i2c.c:29
		if(time > time_out)
    51f6:	2b00      	cmp	r3, #0
    51f8:	d011      	beq.n	521e <I2C_writeN+0x86>
E:\2017-2018\03_Graduation Project\04_Software\05_Wangshi\02_6220\06_UpdateSoftware-180714\01_UEBootloader\KL36_Bios-180714\Debug/../03_MCU/MCU_drivers/i2c/i2c.c:26
	while(BGET(I2C_S_IICIF_SHIFT,i2c_ptr->S) == 0)
    51fa:	78e1      	ldrb	r1, [r4, #3]
    51fc:	420d      	tst	r5, r1
    51fe:	d0f8      	beq.n	51f2 <I2C_writeN+0x5a>
E:\2017-2018\03_Graduation Project\04_Software\05_Wangshi\02_6220\06_UpdateSoftware-180714\01_UEBootloader\KL36_Bios-180714\Debug/../03_MCU/MCU_drivers/i2c/i2c.c:32
	BSET(I2C_S_IICIF_SHIFT,i2c_ptr->S);
    5200:	78e3      	ldrb	r3, [r4, #3]
    5202:	3201      	adds	r2, #1
    5204:	433b      	orrs	r3, r7
    5206:	70e3      	strb	r3, [r4, #3]
I2C_writeN():
E:\2017-2018\03_Graduation Project\04_Software\05_Wangshi\02_6220\06_UpdateSoftware-180714\01_UEBootloader\KL36_Bios-180714\Debug/../03_MCU/MCU_drivers/i2c/i2c.c:454
	for(i = 0; i < DataNum; i++)
    5208:	42b2      	cmp	r2, r6
    520a:	d1ee      	bne.n	51ea <I2C_writeN+0x52>
i2c_stop():
E:\2017-2018\03_Graduation Project\04_Software\05_Wangshi\02_6220\06_UpdateSoftware-180714\01_UEBootloader\KL36_Bios-180714\Debug/../03_MCU/MCU_drivers/i2c/i2c.c:72
	BCLR(I2C_C1_MST_SHIFT,i2c_ptr->C1); //
    520c:	2220      	movs	r2, #32
    520e:	78a3      	ldrb	r3, [r4, #2]
    5210:	4393      	bics	r3, r2
    5212:	70a3      	strb	r3, [r4, #2]
E:\2017-2018\03_Graduation Project\04_Software\05_Wangshi\02_6220\06_UpdateSoftware-180714\01_UEBootloader\KL36_Bios-180714\Debug/../03_MCU/MCU_drivers/i2c/i2c.c:73
	BCLR(I2C_C1_TX_SHIFT,i2c_ptr->C1);  //
    5214:	78a3      	ldrb	r3, [r4, #2]
    5216:	3a10      	subs	r2, #16
    5218:	4393      	bics	r3, r2
    521a:	70a3      	strb	r3, [r4, #2]
I2C_writeN():
E:\2017-2018\03_Graduation Project\04_Software\05_Wangshi\02_6220\06_UpdateSoftware-180714\01_UEBootloader\KL36_Bios-180714\Debug/../03_MCU/MCU_drivers/i2c/i2c.c:461
		if(i2c_wait(I2C_No) == 1)    //
			return 1;                //
	}
	i2c_stop(I2C_No);                //
	return 0;                        //
    521c:	e000      	b.n	5220 <I2C_writeN+0x88>
E:\2017-2018\03_Graduation Project\04_Software\05_Wangshi\02_6220\06_UpdateSoftware-180714\01_UEBootloader\KL36_Bios-180714\Debug/../03_MCU/MCU_drivers/i2c/i2c.c:451
		return 1;                    //
    521e:	2001      	movs	r0, #1
E:\2017-2018\03_Graduation Project\04_Software\05_Wangshi\02_6220\06_UpdateSoftware-180714\01_UEBootloader\KL36_Bios-180714\Debug/../03_MCU/MCU_drivers/i2c/i2c.c:462
}
    5220:	bdf0      	pop	{r4, r5, r6, r7, pc}
    5222:	46c0      	nop			; (mov r8, r8)
    5224:	00005ce4 	.word	0x00005ce4
    5228:	0000ffff 	.word	0x0000ffff

0000522c <I2C_enable_re_int>:
I2C_enable_re_int():
E:\2017-2018\03_Graduation Project\04_Software\05_Wangshi\02_6220\06_UpdateSoftware-180714\01_UEBootloader\KL36_Bios-180714\Debug/../03_MCU/MCU_drivers/i2c/i2c.c:473
//
//==============================================================================
void I2C_enable_re_int(uint_8 I2C_No)
{
	I2C_MemMapPtr i2c_ptr = I2C_BASE_TABLE[I2C_No];
	i2c_ptr->S |= I2C_S_IICIF_MASK;
    522c:	2102      	movs	r1, #2
E:\2017-2018\03_Graduation Project\04_Software\05_Wangshi\02_6220\06_UpdateSoftware-180714\01_UEBootloader\KL36_Bios-180714\Debug/../03_MCU/MCU_drivers/i2c/i2c.c:471
{
    522e:	b510      	push	{r4, lr}
E:\2017-2018\03_Graduation Project\04_Software\05_Wangshi\02_6220\06_UpdateSoftware-180714\01_UEBootloader\KL36_Bios-180714\Debug/../03_MCU/MCU_drivers/i2c/i2c.c:472
	I2C_MemMapPtr i2c_ptr = I2C_BASE_TABLE[I2C_No];
    5230:	4b07      	ldr	r3, [pc, #28]	; (5250 <I2C_enable_re_int+0x24>)
    5232:	0082      	lsls	r2, r0, #2
    5234:	58d3      	ldr	r3, [r2, r3]
E:\2017-2018\03_Graduation Project\04_Software\05_Wangshi\02_6220\06_UpdateSoftware-180714\01_UEBootloader\KL36_Bios-180714\Debug/../03_MCU/MCU_drivers/i2c/i2c.c:473
	i2c_ptr->S |= I2C_S_IICIF_MASK;
    5236:	78da      	ldrb	r2, [r3, #3]
    5238:	430a      	orrs	r2, r1
E:\2017-2018\03_Graduation Project\04_Software\05_Wangshi\02_6220\06_UpdateSoftware-180714\01_UEBootloader\KL36_Bios-180714\Debug/../03_MCU/MCU_drivers/i2c/i2c.c:474
	i2c_ptr->C1 |= I2C_C1_IICIE_MASK;
    523a:	2140      	movs	r1, #64	; 0x40
E:\2017-2018\03_Graduation Project\04_Software\05_Wangshi\02_6220\06_UpdateSoftware-180714\01_UEBootloader\KL36_Bios-180714\Debug/../03_MCU/MCU_drivers/i2c/i2c.c:473
	i2c_ptr->S |= I2C_S_IICIF_MASK;
    523c:	70da      	strb	r2, [r3, #3]
E:\2017-2018\03_Graduation Project\04_Software\05_Wangshi\02_6220\06_UpdateSoftware-180714\01_UEBootloader\KL36_Bios-180714\Debug/../03_MCU/MCU_drivers/i2c/i2c.c:474
	i2c_ptr->C1 |= I2C_C1_IICIE_MASK;
    523e:	789a      	ldrb	r2, [r3, #2]
    5240:	430a      	orrs	r2, r1
    5242:	709a      	strb	r2, [r3, #2]
E:\2017-2018\03_Graduation Project\04_Software\05_Wangshi\02_6220\06_UpdateSoftware-180714\01_UEBootloader\KL36_Bios-180714\Debug/../03_MCU/MCU_drivers/i2c/i2c.c:475
	enable_irq (I2C_IRQ_TABLE[I2C_No]);
    5244:	4b03      	ldr	r3, [pc, #12]	; (5254 <I2C_enable_re_int+0x28>)
    5246:	5618      	ldrsb	r0, [r3, r0]
    5248:	f7fd fd20 	bl	2c8c <enable_irq>
E:\2017-2018\03_Graduation Project\04_Software\05_Wangshi\02_6220\06_UpdateSoftware-180714\01_UEBootloader\KL36_Bios-180714\Debug/../03_MCU/MCU_drivers/i2c/i2c.c:476
}
    524c:	bd10      	pop	{r4, pc}
    524e:	46c0      	nop			; (mov r8, r8)
    5250:	00005ce4 	.word	0x00005ce4
    5254:	00005cec 	.word	0x00005cec

00005258 <I2C_disable_re_int>:
I2C_disable_re_int():
E:\2017-2018\03_Graduation Project\04_Software\05_Wangshi\02_6220\06_UpdateSoftware-180714\01_UEBootloader\KL36_Bios-180714\Debug/../03_MCU/MCU_drivers/i2c/i2c.c:487
//
//==============================================================================
void I2C_disable_re_int(uint_8 I2C_No)
{
	I2C_MemMapPtr i2c_ptr = I2C_BASE_TABLE[I2C_No];
	i2c_ptr->C1 &= ~I2C_C1_IICIE_MASK;
    5258:	2140      	movs	r1, #64	; 0x40
E:\2017-2018\03_Graduation Project\04_Software\05_Wangshi\02_6220\06_UpdateSoftware-180714\01_UEBootloader\KL36_Bios-180714\Debug/../03_MCU/MCU_drivers/i2c/i2c.c:485
{
    525a:	b510      	push	{r4, lr}
E:\2017-2018\03_Graduation Project\04_Software\05_Wangshi\02_6220\06_UpdateSoftware-180714\01_UEBootloader\KL36_Bios-180714\Debug/../03_MCU/MCU_drivers/i2c/i2c.c:486
	I2C_MemMapPtr i2c_ptr = I2C_BASE_TABLE[I2C_No];
    525c:	4b05      	ldr	r3, [pc, #20]	; (5274 <I2C_disable_re_int+0x1c>)
    525e:	0082      	lsls	r2, r0, #2
    5260:	58d2      	ldr	r2, [r2, r3]
E:\2017-2018\03_Graduation Project\04_Software\05_Wangshi\02_6220\06_UpdateSoftware-180714\01_UEBootloader\KL36_Bios-180714\Debug/../03_MCU/MCU_drivers/i2c/i2c.c:487
	i2c_ptr->C1 &= ~I2C_C1_IICIE_MASK;
    5262:	7893      	ldrb	r3, [r2, #2]
    5264:	438b      	bics	r3, r1
    5266:	7093      	strb	r3, [r2, #2]
E:\2017-2018\03_Graduation Project\04_Software\05_Wangshi\02_6220\06_UpdateSoftware-180714\01_UEBootloader\KL36_Bios-180714\Debug/../03_MCU/MCU_drivers/i2c/i2c.c:488
	disable_irq (I2C_IRQ_TABLE[I2C_No]);
    5268:	4b03      	ldr	r3, [pc, #12]	; (5278 <I2C_disable_re_int+0x20>)
    526a:	5618      	ldrsb	r0, [r3, r0]
    526c:	f7fd fd1c 	bl	2ca8 <disable_irq>
E:\2017-2018\03_Graduation Project\04_Software\05_Wangshi\02_6220\06_UpdateSoftware-180714\01_UEBootloader\KL36_Bios-180714\Debug/../03_MCU/MCU_drivers/i2c/i2c.c:489
}
    5270:	bd10      	pop	{r4, pc}
    5272:	46c0      	nop			; (mov r8, r8)
    5274:	00005ce4 	.word	0x00005ce4
    5278:	00005cec 	.word	0x00005cec

0000527c <gpio_init>:
gpio_init():
E:\2017-2018\03_Graduation Project\04_Software\05_Wangshi\02_6220\06_UpdateSoftware-180714\01_UEBootloader\KL36_Bios-180714\Debug/../03_MCU/MCU_drivers/gpio/gpio.c:27
//          state0=1=
//GPIO
//          
//=====================================================================
void gpio_init(uint_16 port_pin, uint_8 dir, uint_8 state)
{
    527c:	b570      	push	{r4, r5, r6, lr}
E:\2017-2018\03_Graduation Project\04_Software\05_Wangshi\02_6220\06_UpdateSoftware-180714\01_UEBootloader\KL36_Bios-180714\Debug/../03_MCU/MCU_drivers/gpio/gpio.c:36
	uint_8 port,pin;                           //portpin
	//port_pinport,pin
	gpio_get_port_pin(port_pin,&port,&pin);
	//portport_ptrgpio_ptr
	port_ptr = PORT_ARR[port];                 //PORT
	gpio_ptr = GPIO_ARR[port];                 //GPIO
    527e:	4b13      	ldr	r3, [pc, #76]	; (52cc <gpio_init+0x50>)
gpio_get_port_pin():
E:\2017-2018\03_Graduation Project\04_Software\05_Wangshi\02_6220\06_UpdateSoftware-180714\01_UEBootloader\KL36_Bios-180714\Debug/../03_MCU/MCU_drivers/gpio/gpio.c:350
//       (PTB_NUM)|(9)PORTB9portpin
//=====================================================================
void gpio_get_port_pin(uint_16 port_pin,uint_8* port,uint_8* pin)
{
	*port = (port_pin>>8);
	*pin = port_pin;
    5280:	b2c5      	uxtb	r5, r0
gpio_init():
E:\2017-2018\03_Graduation Project\04_Software\05_Wangshi\02_6220\06_UpdateSoftware-180714\01_UEBootloader\KL36_Bios-180714\Debug/../03_MCU/MCU_drivers/gpio/gpio.c:35
	port_ptr = PORT_ARR[port];                 //PORT
    5282:	0a00      	lsrs	r0, r0, #8
E:\2017-2018\03_Graduation Project\04_Software\05_Wangshi\02_6220\06_UpdateSoftware-180714\01_UEBootloader\KL36_Bios-180714\Debug/../03_MCU/MCU_drivers/gpio/gpio.c:36
	gpio_ptr = GPIO_ARR[port];                 //GPIO
    5284:	0080      	lsls	r0, r0, #2
    5286:	58c4      	ldr	r4, [r0, r3]
    5288:	4b11      	ldr	r3, [pc, #68]	; (52d0 <gpio_init+0x54>)
    528a:	00ae      	lsls	r6, r5, #2
    528c:	58c3      	ldr	r3, [r0, r3]
    528e:	199b      	adds	r3, r3, r6
E:\2017-2018\03_Graduation Project\04_Software\05_Wangshi\02_6220\06_UpdateSoftware-180714\01_UEBootloader\KL36_Bios-180714\Debug/../03_MCU/MCU_drivers/gpio/gpio.c:39
	PORT_PCR_REG(port_ptr,pin) &= ~PORT_PCR_MUX_MASK;//D10-D8=000
    5290:	6818      	ldr	r0, [r3, #0]
    5292:	4e10      	ldr	r6, [pc, #64]	; (52d4 <gpio_init+0x58>)
    5294:	4030      	ands	r0, r6
    5296:	6018      	str	r0, [r3, #0]
E:\2017-2018\03_Graduation Project\04_Software\05_Wangshi\02_6220\06_UpdateSoftware-180714\01_UEBootloader\KL36_Bios-180714\Debug/../03_MCU/MCU_drivers/gpio/gpio.c:40
	PORT_PCR_REG(port_ptr,pin) |= PORT_PCR_MUX(1);//D10-D8=001
    5298:	2080      	movs	r0, #128	; 0x80
    529a:	681e      	ldr	r6, [r3, #0]
    529c:	0040      	lsls	r0, r0, #1
    529e:	4330      	orrs	r0, r6
    52a0:	6018      	str	r0, [r3, #0]
    52a2:	2301      	movs	r3, #1
    52a4:	40ab      	lsls	r3, r5
E:\2017-2018\03_Graduation Project\04_Software\05_Wangshi\02_6220\06_UpdateSoftware-180714\01_UEBootloader\KL36_Bios-180714\Debug/../03_MCU/MCU_drivers/gpio/gpio.c:43
	if(dir == 1)  //
    52a6:	2901      	cmp	r1, #1
    52a8:	d003      	beq.n	52b2 <gpio_init+0x36>
E:\2017-2018\03_Graduation Project\04_Software\05_Wangshi\02_6220\06_UpdateSoftware-180714\01_UEBootloader\KL36_Bios-180714\Debug/../03_MCU/MCU_drivers/gpio/gpio.c:50
		BCLR(pin,GPIO_PDDR_REG(gpio_ptr));//pin=0
    52aa:	6962      	ldr	r2, [r4, #20]
    52ac:	439a      	bics	r2, r3
    52ae:	6162      	str	r2, [r4, #20]
E:\2017-2018\03_Graduation Project\04_Software\05_Wangshi\02_6220\06_UpdateSoftware-180714\01_UEBootloader\KL36_Bios-180714\Debug/../03_MCU/MCU_drivers/gpio/gpio.c:52
}
    52b0:	bd70      	pop	{r4, r5, r6, pc}
E:\2017-2018\03_Graduation Project\04_Software\05_Wangshi\02_6220\06_UpdateSoftware-180714\01_UEBootloader\KL36_Bios-180714\Debug/../03_MCU/MCU_drivers/gpio/gpio.c:45
		BSET(pin,GPIO_PDDR_REG(gpio_ptr));//pin=1
    52b2:	6961      	ldr	r1, [r4, #20]
    52b4:	4319      	orrs	r1, r3
    52b6:	6161      	str	r1, [r4, #20]
gpio_set():
E:\2017-2018\03_Graduation Project\04_Software\05_Wangshi\02_6220\06_UpdateSoftware-180714\01_UEBootloader\KL36_Bios-180714\Debug/../03_MCU/MCU_drivers/gpio/gpio.c:73
	if(state == 1)
    52b8:	2a01      	cmp	r2, #1
    52ba:	d003      	beq.n	52c4 <gpio_init+0x48>
E:\2017-2018\03_Graduation Project\04_Software\05_Wangshi\02_6220\06_UpdateSoftware-180714\01_UEBootloader\KL36_Bios-180714\Debug/../03_MCU/MCU_drivers/gpio/gpio.c:79
		BCLR(pin,GPIO_PDOR_REG(gpio_ptr));
    52bc:	6822      	ldr	r2, [r4, #0]
    52be:	439a      	bics	r2, r3
    52c0:	6022      	str	r2, [r4, #0]
    52c2:	e7f5      	b.n	52b0 <gpio_init+0x34>
E:\2017-2018\03_Graduation Project\04_Software\05_Wangshi\02_6220\06_UpdateSoftware-180714\01_UEBootloader\KL36_Bios-180714\Debug/../03_MCU/MCU_drivers/gpio/gpio.c:75
		BSET(pin,GPIO_PDOR_REG(gpio_ptr));
    52c4:	6822      	ldr	r2, [r4, #0]
    52c6:	4313      	orrs	r3, r2
    52c8:	6023      	str	r3, [r4, #0]
    52ca:	e7f1      	b.n	52b0 <gpio_init+0x34>
    52cc:	00005cf0 	.word	0x00005cf0
    52d0:	00005d04 	.word	0x00005d04
    52d4:	fffff8ff 	.word	0xfffff8ff

000052d8 <gpio_set>:
E:\2017-2018\03_Graduation Project\04_Software\05_Wangshi\02_6220\06_UpdateSoftware-180714\01_UEBootloader\KL36_Bios-180714\Debug/../03_MCU/MCU_drivers/gpio/gpio.c:70
	gpio_ptr = GPIO_ARR[port];
    52d8:	0a03      	lsrs	r3, r0, #8
    52da:	4a08      	ldr	r2, [pc, #32]	; (52fc <gpio_set+0x24>)
    52dc:	009b      	lsls	r3, r3, #2
    52de:	589a      	ldr	r2, [r3, r2]
    52e0:	2301      	movs	r3, #1
    52e2:	b2c0      	uxtb	r0, r0
    52e4:	4083      	lsls	r3, r0
E:\2017-2018\03_Graduation Project\04_Software\05_Wangshi\02_6220\06_UpdateSoftware-180714\01_UEBootloader\KL36_Bios-180714\Debug/../03_MCU/MCU_drivers/gpio/gpio.c:73
	if(state == 1)
    52e6:	2901      	cmp	r1, #1
    52e8:	d003      	beq.n	52f2 <gpio_set+0x1a>
E:\2017-2018\03_Graduation Project\04_Software\05_Wangshi\02_6220\06_UpdateSoftware-180714\01_UEBootloader\KL36_Bios-180714\Debug/../03_MCU/MCU_drivers/gpio/gpio.c:79
		BCLR(pin,GPIO_PDOR_REG(gpio_ptr));
    52ea:	6811      	ldr	r1, [r2, #0]
    52ec:	4399      	bics	r1, r3
    52ee:	6011      	str	r1, [r2, #0]
E:\2017-2018\03_Graduation Project\04_Software\05_Wangshi\02_6220\06_UpdateSoftware-180714\01_UEBootloader\KL36_Bios-180714\Debug/../03_MCU/MCU_drivers/gpio/gpio.c:81
}
    52f0:	4770      	bx	lr
E:\2017-2018\03_Graduation Project\04_Software\05_Wangshi\02_6220\06_UpdateSoftware-180714\01_UEBootloader\KL36_Bios-180714\Debug/../03_MCU/MCU_drivers/gpio/gpio.c:75
		BSET(pin,GPIO_PDOR_REG(gpio_ptr));
    52f2:	6811      	ldr	r1, [r2, #0]
    52f4:	430b      	orrs	r3, r1
    52f6:	6013      	str	r3, [r2, #0]
    52f8:	e7fa      	b.n	52f0 <gpio_set+0x18>
    52fa:	46c0      	nop			; (mov r8, r8)
    52fc:	00005cf0 	.word	0x00005cf0

00005300 <gpio_get>:
gpio_get():
E:\2017-2018\03_Graduation Project\04_Software\05_Wangshi\02_6220\06_UpdateSoftware-180714\01_UEBootloader\KL36_Bios-180714\Debug/../03_MCU/MCU_drivers/gpio/gpio.c:98
	gpio_ptr = GPIO_ARR[port];
    5300:	0a03      	lsrs	r3, r0, #8
    5302:	4a04      	ldr	r2, [pc, #16]	; (5314 <gpio_get+0x14>)
    5304:	009b      	lsls	r3, r3, #2
    5306:	589b      	ldr	r3, [r3, r2]
E:\2017-2018\03_Graduation Project\04_Software\05_Wangshi\02_6220\06_UpdateSoftware-180714\01_UEBootloader\KL36_Bios-180714\Debug/../03_MCU/MCU_drivers/gpio/gpio.c:101
	return (BGET(pin,GPIO_PDIR_REG(gpio_ptr)) >=1 ? 1:0);
    5308:	b2c0      	uxtb	r0, r0
    530a:	691b      	ldr	r3, [r3, #16]
    530c:	40c3      	lsrs	r3, r0
    530e:	2001      	movs	r0, #1
    5310:	4018      	ands	r0, r3
E:\2017-2018\03_Graduation Project\04_Software\05_Wangshi\02_6220\06_UpdateSoftware-180714\01_UEBootloader\KL36_Bios-180714\Debug/../03_MCU/MCU_drivers/gpio/gpio.c:102
}
    5312:	4770      	bx	lr
    5314:	00005cf0 	.word	0x00005cf0

00005318 <gpio_reverse>:
gpio_reverse():
E:\2017-2018\03_Graduation Project\04_Software\05_Wangshi\02_6220\06_UpdateSoftware-180714\01_UEBootloader\KL36_Bios-180714\Debug/../03_MCU/MCU_drivers/gpio/gpio.c:119
	gpio_ptr = GPIO_ARR[port];
    5318:	0a03      	lsrs	r3, r0, #8
    531a:	4a05      	ldr	r2, [pc, #20]	; (5330 <gpio_reverse+0x18>)
    531c:	009b      	lsls	r3, r3, #2
    531e:	589a      	ldr	r2, [r3, r2]
E:\2017-2018\03_Graduation Project\04_Software\05_Wangshi\02_6220\06_UpdateSoftware-180714\01_UEBootloader\KL36_Bios-180714\Debug/../03_MCU/MCU_drivers/gpio/gpio.c:122
	BSET(pin,GPIO_PTOR_REG(gpio_ptr));
    5320:	2301      	movs	r3, #1
    5322:	b2c0      	uxtb	r0, r0
    5324:	4083      	lsls	r3, r0
    5326:	68d1      	ldr	r1, [r2, #12]
    5328:	430b      	orrs	r3, r1
    532a:	60d3      	str	r3, [r2, #12]
E:\2017-2018\03_Graduation Project\04_Software\05_Wangshi\02_6220\06_UpdateSoftware-180714\01_UEBootloader\KL36_Bios-180714\Debug/../03_MCU/MCU_drivers/gpio/gpio.c:123
}
    532c:	4770      	bx	lr
    532e:	46c0      	nop			; (mov r8, r8)
    5330:	00005cf0 	.word	0x00005cf0

00005334 <gpio_pull>:
gpio_pull():
E:\2017-2018\03_Graduation Project\04_Software\05_Wangshi\02_6220\06_UpdateSoftware-180714\01_UEBootloader\KL36_Bios-180714\Debug/../03_MCU/MCU_drivers/gpio/gpio.c:141
	port_ptr = PORT_ARR[port];               //PORT
    5334:	0a02      	lsrs	r2, r0, #8
    5336:	b2c3      	uxtb	r3, r0
    5338:	480b      	ldr	r0, [pc, #44]	; (5368 <gpio_pull+0x34>)
    533a:	0092      	lsls	r2, r2, #2
    533c:	5810      	ldr	r0, [r2, r0]
E:\2017-2018\03_Graduation Project\04_Software\05_Wangshi\02_6220\06_UpdateSoftware-180714\01_UEBootloader\KL36_Bios-180714\Debug/../03_MCU/MCU_drivers/gpio/gpio.c:144
	BCLR(PORT_PCR_DSE_SHIFT,PORT_PCR_REG(port_ptr,pin));
    533e:	2240      	movs	r2, #64	; 0x40
    5340:	009b      	lsls	r3, r3, #2
    5342:	18c0      	adds	r0, r0, r3
    5344:	6803      	ldr	r3, [r0, #0]
    5346:	4393      	bics	r3, r2
    5348:	6003      	str	r3, [r0, #0]
E:\2017-2018\03_Graduation Project\04_Software\05_Wangshi\02_6220\06_UpdateSoftware-180714\01_UEBootloader\KL36_Bios-180714\Debug/../03_MCU/MCU_drivers/gpio/gpio.c:146
	BSET(PORT_PCR_PE_SHIFT,PORT_PCR_REG(port_ptr,pin));
    534a:	6803      	ldr	r3, [r0, #0]
    534c:	3a3e      	subs	r2, #62	; 0x3e
    534e:	4313      	orrs	r3, r2
    5350:	6003      	str	r3, [r0, #0]
E:\2017-2018\03_Graduation Project\04_Software\05_Wangshi\02_6220\06_UpdateSoftware-180714\01_UEBootloader\KL36_Bios-180714\Debug/../03_MCU/MCU_drivers/gpio/gpio.c:150
		BSET(PORT_PCR_PS_SHIFT,PORT_PCR_REG(port_ptr,pin));
    5352:	6803      	ldr	r3, [r0, #0]
E:\2017-2018\03_Graduation Project\04_Software\05_Wangshi\02_6220\06_UpdateSoftware-180714\01_UEBootloader\KL36_Bios-180714\Debug/../03_MCU/MCU_drivers/gpio/gpio.c:148
	if(pullselect == 1)
    5354:	2901      	cmp	r1, #1
    5356:	d003      	beq.n	5360 <gpio_pull+0x2c>
E:\2017-2018\03_Graduation Project\04_Software\05_Wangshi\02_6220\06_UpdateSoftware-180714\01_UEBootloader\KL36_Bios-180714\Debug/../03_MCU/MCU_drivers/gpio/gpio.c:154
		BCLR(PORT_PCR_PS_SHIFT,PORT_PCR_REG(port_ptr,pin));
    5358:	2201      	movs	r2, #1
    535a:	4393      	bics	r3, r2
    535c:	6003      	str	r3, [r0, #0]
E:\2017-2018\03_Graduation Project\04_Software\05_Wangshi\02_6220\06_UpdateSoftware-180714\01_UEBootloader\KL36_Bios-180714\Debug/../03_MCU/MCU_drivers/gpio/gpio.c:156
}
    535e:	4770      	bx	lr
E:\2017-2018\03_Graduation Project\04_Software\05_Wangshi\02_6220\06_UpdateSoftware-180714\01_UEBootloader\KL36_Bios-180714\Debug/../03_MCU/MCU_drivers/gpio/gpio.c:150
		BSET(PORT_PCR_PS_SHIFT,PORT_PCR_REG(port_ptr,pin));
    5360:	4319      	orrs	r1, r3
    5362:	6001      	str	r1, [r0, #0]
    5364:	e7fb      	b.n	535e <gpio_pull+0x2a>
    5366:	46c0      	nop			; (mov r8, r8)
    5368:	00005d04 	.word	0x00005d04

0000536c <gpio_enable_int>:
gpio_get_port_pin():
E:\2017-2018\03_Graduation Project\04_Software\05_Wangshi\02_6220\06_UpdateSoftware-180714\01_UEBootloader\KL36_Bios-180714\Debug/../03_MCU/MCU_drivers/gpio/gpio.c:349
	*port = (port_pin>>8);
    536c:	0a02      	lsrs	r2, r0, #8
    536e:	b2c3      	uxtb	r3, r0
    5370:	4810      	ldr	r0, [pc, #64]	; (53b4 <gpio_enable_int+0x48>)
gpio_enable_int():
E:\2017-2018\03_Graduation Project\04_Software\05_Wangshi\02_6220\06_UpdateSoftware-180714\01_UEBootloader\KL36_Bios-180714\Debug/../03_MCU/MCU_drivers/gpio/gpio.c:175
{
    5372:	b510      	push	{r4, lr}
E:\2017-2018\03_Graduation Project\04_Software\05_Wangshi\02_6220\06_UpdateSoftware-180714\01_UEBootloader\KL36_Bios-180714\Debug/../03_MCU/MCU_drivers/gpio/gpio.c:183
	port_ptr = PORT_ARR[port];
    5374:	0094      	lsls	r4, r2, #2
    5376:	5820      	ldr	r0, [r4, r0]
    5378:	009b      	lsls	r3, r3, #2
    537a:	18c0      	adds	r0, r0, r3
E:\2017-2018\03_Graduation Project\04_Software\05_Wangshi\02_6220\06_UpdateSoftware-180714\01_UEBootloader\KL36_Bios-180714\Debug/../03_MCU/MCU_drivers/gpio/gpio.c:185
	PORT_PCR_REG(port_ptr,pin) |= PORT_PCR_ISF_MASK;//
    537c:	2380      	movs	r3, #128	; 0x80
    537e:	6804      	ldr	r4, [r0, #0]
    5380:	045b      	lsls	r3, r3, #17
    5382:	4323      	orrs	r3, r4
E:\2017-2018\03_Graduation Project\04_Software\05_Wangshi\02_6220\06_UpdateSoftware-180714\01_UEBootloader\KL36_Bios-180714\Debug/../03_MCU/MCU_drivers/gpio/gpio.c:186
	PORT_PCR_REG(port_ptr,pin) |= PORT_PCR_IRQC(irqtype);//
    5384:	24f0      	movs	r4, #240	; 0xf0
E:\2017-2018\03_Graduation Project\04_Software\05_Wangshi\02_6220\06_UpdateSoftware-180714\01_UEBootloader\KL36_Bios-180714\Debug/../03_MCU/MCU_drivers/gpio/gpio.c:185
	PORT_PCR_REG(port_ptr,pin) |= PORT_PCR_ISF_MASK;//
    5386:	6003      	str	r3, [r0, #0]
E:\2017-2018\03_Graduation Project\04_Software\05_Wangshi\02_6220\06_UpdateSoftware-180714\01_UEBootloader\KL36_Bios-180714\Debug/../03_MCU/MCU_drivers/gpio/gpio.c:186
	PORT_PCR_REG(port_ptr,pin) |= PORT_PCR_IRQC(irqtype);//
    5388:	6803      	ldr	r3, [r0, #0]
    538a:	0409      	lsls	r1, r1, #16
    538c:	0324      	lsls	r4, r4, #12
    538e:	4021      	ands	r1, r4
    5390:	4319      	orrs	r1, r3
    5392:	6001      	str	r1, [r0, #0]
E:\2017-2018\03_Graduation Project\04_Software\05_Wangshi\02_6220\06_UpdateSoftware-180714\01_UEBootloader\KL36_Bios-180714\Debug/../03_MCU/MCU_drivers/gpio/gpio.c:188
	switch(port)
    5394:	2a00      	cmp	r2, #0
    5396:	d008      	beq.n	53aa <gpio_enable_int+0x3e>
    5398:	3a02      	subs	r2, #2
    539a:	2a01      	cmp	r2, #1
    539c:	d900      	bls.n	53a0 <gpio_enable_int+0x34>
E:\2017-2018\03_Graduation Project\04_Software\05_Wangshi\02_6220\06_UpdateSoftware-180714\01_UEBootloader\KL36_Bios-180714\Debug/../03_MCU/MCU_drivers/gpio/gpio.c:199
}
    539e:	bd10      	pop	{r4, pc}
NVIC_EnableIRQ():
E:\2017-2018\03_Graduation Project\04_Software\05_Wangshi\02_6220\06_UpdateSoftware-180714\01_UEBootloader\KL36_Bios-180714\02_Core/core_cm0plus.h:685
  NVIC->ISER[0] = (uint32_t)(1UL << (((uint32_t)(int32_t)IRQn) & 0x1FUL));
    53a0:	2280      	movs	r2, #128	; 0x80
    53a2:	4b05      	ldr	r3, [pc, #20]	; (53b8 <gpio_enable_int+0x4c>)
    53a4:	0612      	lsls	r2, r2, #24
    53a6:	601a      	str	r2, [r3, #0]
gpio_enable_int():
E:\2017-2018\03_Graduation Project\04_Software\05_Wangshi\02_6220\06_UpdateSoftware-180714\01_UEBootloader\KL36_Bios-180714\Debug/../03_MCU/MCU_drivers/gpio/gpio.c:199
    53a8:	e7f9      	b.n	539e <gpio_enable_int+0x32>
NVIC_EnableIRQ():
E:\2017-2018\03_Graduation Project\04_Software\05_Wangshi\02_6220\06_UpdateSoftware-180714\01_UEBootloader\KL36_Bios-180714\02_Core/core_cm0plus.h:685
    53aa:	2280      	movs	r2, #128	; 0x80
    53ac:	4b02      	ldr	r3, [pc, #8]	; (53b8 <gpio_enable_int+0x4c>)
    53ae:	05d2      	lsls	r2, r2, #23
    53b0:	601a      	str	r2, [r3, #0]
    53b2:	e7f4      	b.n	539e <gpio_enable_int+0x32>
    53b4:	00005d04 	.word	0x00005d04
    53b8:	e000e100 	.word	0xe000e100

000053bc <gpio_disable_int>:
gpio_get_port_pin():
E:\2017-2018\03_Graduation Project\04_Software\05_Wangshi\02_6220\06_UpdateSoftware-180714\01_UEBootloader\KL36_Bios-180714\Debug/../03_MCU/MCU_drivers/gpio/gpio.c:349
	*port = (port_pin>>8);
    53bc:	0a02      	lsrs	r2, r0, #8
    53be:	4b0e      	ldr	r3, [pc, #56]	; (53f8 <gpio_disable_int+0x3c>)
gpio_disable_int():
E:\2017-2018\03_Graduation Project\04_Software\05_Wangshi\02_6220\06_UpdateSoftware-180714\01_UEBootloader\KL36_Bios-180714\Debug/../03_MCU/MCU_drivers/gpio/gpio.c:219
	port_ptr = PORT_ARR[port];
    53c0:	0091      	lsls	r1, r2, #2
    53c2:	58cb      	ldr	r3, [r1, r3]
    53c4:	b2c0      	uxtb	r0, r0
    53c6:	0080      	lsls	r0, r0, #2
    53c8:	1818      	adds	r0, r3, r0
E:\2017-2018\03_Graduation Project\04_Software\05_Wangshi\02_6220\06_UpdateSoftware-180714\01_UEBootloader\KL36_Bios-180714\Debug/../03_MCU/MCU_drivers/gpio/gpio.c:221
	PORT_PCR_REG(port_ptr,pin) &= ~PORT_PCR_IRQC_MASK;  //
    53ca:	6803      	ldr	r3, [r0, #0]
    53cc:	490b      	ldr	r1, [pc, #44]	; (53fc <gpio_disable_int+0x40>)
    53ce:	400b      	ands	r3, r1
    53d0:	6003      	str	r3, [r0, #0]
E:\2017-2018\03_Graduation Project\04_Software\05_Wangshi\02_6220\06_UpdateSoftware-180714\01_UEBootloader\KL36_Bios-180714\Debug/../03_MCU/MCU_drivers/gpio/gpio.c:223
	switch(port)
    53d2:	2a00      	cmp	r2, #0
    53d4:	d009      	beq.n	53ea <gpio_disable_int+0x2e>
    53d6:	3a02      	subs	r2, #2
    53d8:	2a01      	cmp	r2, #1
    53da:	d900      	bls.n	53de <gpio_disable_int+0x22>
E:\2017-2018\03_Graduation Project\04_Software\05_Wangshi\02_6220\06_UpdateSoftware-180714\01_UEBootloader\KL36_Bios-180714\Debug/../03_MCU/MCU_drivers/gpio/gpio.c:234
}
    53dc:	4770      	bx	lr
NVIC_DisableIRQ():
E:\2017-2018\03_Graduation Project\04_Software\05_Wangshi\02_6220\06_UpdateSoftware-180714\01_UEBootloader\KL36_Bios-180714\02_Core/core_cm0plus.h:697
  NVIC->ICER[0] = (uint32_t)(1UL << (((uint32_t)(int32_t)IRQn) & 0x1FUL));
    53de:	2180      	movs	r1, #128	; 0x80
    53e0:	2380      	movs	r3, #128	; 0x80
    53e2:	4a07      	ldr	r2, [pc, #28]	; (5400 <gpio_disable_int+0x44>)
    53e4:	0609      	lsls	r1, r1, #24
    53e6:	50d1      	str	r1, [r2, r3]
gpio_disable_int():
E:\2017-2018\03_Graduation Project\04_Software\05_Wangshi\02_6220\06_UpdateSoftware-180714\01_UEBootloader\KL36_Bios-180714\Debug/../03_MCU/MCU_drivers/gpio/gpio.c:234
    53e8:	e7f8      	b.n	53dc <gpio_disable_int+0x20>
NVIC_DisableIRQ():
E:\2017-2018\03_Graduation Project\04_Software\05_Wangshi\02_6220\06_UpdateSoftware-180714\01_UEBootloader\KL36_Bios-180714\02_Core/core_cm0plus.h:697
    53ea:	2180      	movs	r1, #128	; 0x80
    53ec:	2380      	movs	r3, #128	; 0x80
    53ee:	4a04      	ldr	r2, [pc, #16]	; (5400 <gpio_disable_int+0x44>)
    53f0:	05c9      	lsls	r1, r1, #23
    53f2:	50d1      	str	r1, [r2, r3]
    53f4:	e7f2      	b.n	53dc <gpio_disable_int+0x20>
    53f6:	46c0      	nop			; (mov r8, r8)
    53f8:	00005d04 	.word	0x00005d04
    53fc:	fff0ffff 	.word	0xfff0ffff
    5400:	e000e100 	.word	0xe000e100

00005404 <gpio_get_int>:
gpio_get_int():
E:\2017-2018\03_Graduation Project\04_Software\05_Wangshi\02_6220\06_UpdateSoftware-180714\01_UEBootloader\KL36_Bios-180714\Debug/../03_MCU/MCU_drivers/gpio/gpio.c:254
	port_ptr = PORT_ARR[port];
    5404:	0a03      	lsrs	r3, r0, #8
    5406:	4a04      	ldr	r2, [pc, #16]	; (5418 <gpio_get_int+0x14>)
    5408:	009b      	lsls	r3, r3, #2
    540a:	589b      	ldr	r3, [r3, r2]
E:\2017-2018\03_Graduation Project\04_Software\05_Wangshi\02_6220\06_UpdateSoftware-180714\01_UEBootloader\KL36_Bios-180714\Debug/../03_MCU/MCU_drivers/gpio/gpio.c:257
	return (BGET(PORT_PCR_ISF_SHIFT,PORT_PCR_REG(port_ptr,pin)) >= 1 ? 1:0);
    540c:	b2c0      	uxtb	r0, r0
    540e:	0080      	lsls	r0, r0, #2
    5410:	58c0      	ldr	r0, [r0, r3]
    5412:	01c0      	lsls	r0, r0, #7
    5414:	0fc0      	lsrs	r0, r0, #31
E:\2017-2018\03_Graduation Project\04_Software\05_Wangshi\02_6220\06_UpdateSoftware-180714\01_UEBootloader\KL36_Bios-180714\Debug/../03_MCU/MCU_drivers/gpio/gpio.c:258
}
    5416:	4770      	bx	lr
    5418:	00005d04 	.word	0x00005d04

0000541c <gpio_clear_int>:
gpio_clear_int():
E:\2017-2018\03_Graduation Project\04_Software\05_Wangshi\02_6220\06_UpdateSoftware-180714\01_UEBootloader\KL36_Bios-180714\Debug/../03_MCU/MCU_drivers/gpio/gpio.c:270
{
    541c:	4a06      	ldr	r2, [pc, #24]	; (5438 <gpio_clear_int+0x1c>)
E:\2017-2018\03_Graduation Project\04_Software\05_Wangshi\02_6220\06_UpdateSoftware-180714\01_UEBootloader\KL36_Bios-180714\Debug/../03_MCU/MCU_drivers/gpio/gpio.c:278
	port_ptr = PORT_ARR[port];
    541e:	0a03      	lsrs	r3, r0, #8
    5420:	009b      	lsls	r3, r3, #2
    5422:	589b      	ldr	r3, [r3, r2]
    5424:	b2c0      	uxtb	r0, r0
    5426:	0080      	lsls	r0, r0, #2
    5428:	1818      	adds	r0, r3, r0
E:\2017-2018\03_Graduation Project\04_Software\05_Wangshi\02_6220\06_UpdateSoftware-180714\01_UEBootloader\KL36_Bios-180714\Debug/../03_MCU/MCU_drivers/gpio/gpio.c:280
	PORT_PCR_REG(port_ptr,pin) |= PORT_PCR_ISF_MASK;
    542a:	2380      	movs	r3, #128	; 0x80
    542c:	6802      	ldr	r2, [r0, #0]
    542e:	045b      	lsls	r3, r3, #17
    5430:	4313      	orrs	r3, r2
    5432:	6003      	str	r3, [r0, #0]
E:\2017-2018\03_Graduation Project\04_Software\05_Wangshi\02_6220\06_UpdateSoftware-180714\01_UEBootloader\KL36_Bios-180714\Debug/../03_MCU/MCU_drivers/gpio/gpio.c:281
}
    5434:	4770      	bx	lr
    5436:	46c0      	nop			; (mov r8, r8)
    5438:	00005d04 	.word	0x00005d04

0000543c <gpio_clear_allint>:
gpio_clear_allint():
E:\2017-2018\03_Graduation Project\04_Software\05_Wangshi\02_6220\06_UpdateSoftware-180714\01_UEBootloader\KL36_Bios-180714\Debug/../03_MCU/MCU_drivers/gpio/gpio.c:299
		PORT_ISFR_REG(PORT_ARR[i]) = PORT_ISFR_ISF_MASK;
    543c:	2201      	movs	r2, #1
    543e:	23a0      	movs	r3, #160	; 0xa0
    5440:	4905      	ldr	r1, [pc, #20]	; (5458 <gpio_clear_allint+0x1c>)
    5442:	4252      	negs	r2, r2
    5444:	50ca      	str	r2, [r1, r3]
    5446:	4905      	ldr	r1, [pc, #20]	; (545c <gpio_clear_allint+0x20>)
    5448:	50ca      	str	r2, [r1, r3]
    544a:	4905      	ldr	r1, [pc, #20]	; (5460 <gpio_clear_allint+0x24>)
    544c:	50ca      	str	r2, [r1, r3]
    544e:	4905      	ldr	r1, [pc, #20]	; (5464 <gpio_clear_allint+0x28>)
    5450:	50ca      	str	r2, [r1, r3]
    5452:	4905      	ldr	r1, [pc, #20]	; (5468 <gpio_clear_allint+0x2c>)
    5454:	50ca      	str	r2, [r1, r3]
E:\2017-2018\03_Graduation Project\04_Software\05_Wangshi\02_6220\06_UpdateSoftware-180714\01_UEBootloader\KL36_Bios-180714\Debug/../03_MCU/MCU_drivers/gpio/gpio.c:301
}
    5456:	4770      	bx	lr
    5458:	40049000 	.word	0x40049000
    545c:	4004a000 	.word	0x4004a000
    5460:	4004b000 	.word	0x4004b000
    5464:	4004c000 	.word	0x4004c000
    5468:	4004d000 	.word	0x4004d000

0000546c <gpio_drive_strength>:
gpio_get_port_pin():
E:\2017-2018\03_Graduation Project\04_Software\05_Wangshi\02_6220\06_UpdateSoftware-180714\01_UEBootloader\KL36_Bios-180714\Debug/../03_MCU/MCU_drivers/gpio/gpio.c:350
	*pin = port_pin;
    546c:	b2c2      	uxtb	r2, r0
gpio_drive_strength():
E:\2017-2018\03_Graduation Project\04_Software\05_Wangshi\02_6220\06_UpdateSoftware-180714\01_UEBootloader\KL36_Bios-180714\Debug/../03_MCU/MCU_drivers/gpio/gpio.c:324
	port_ptr = PORT_ARR[port];
    546e:	4b08      	ldr	r3, [pc, #32]	; (5490 <gpio_drive_strength+0x24>)
    5470:	0a00      	lsrs	r0, r0, #8
    5472:	0080      	lsls	r0, r0, #2
    5474:	58c3      	ldr	r3, [r0, r3]
    5476:	0092      	lsls	r2, r2, #2
    5478:	189b      	adds	r3, r3, r2
E:\2017-2018\03_Graduation Project\04_Software\05_Wangshi\02_6220\06_UpdateSoftware-180714\01_UEBootloader\KL36_Bios-180714\Debug/../03_MCU/MCU_drivers/gpio/gpio.c:329
		BSET(PORT_PCR_DSE_SHIFT,PORT_PCR_REG(port_ptr,pin));
    547a:	681a      	ldr	r2, [r3, #0]
E:\2017-2018\03_Graduation Project\04_Software\05_Wangshi\02_6220\06_UpdateSoftware-180714\01_UEBootloader\KL36_Bios-180714\Debug/../03_MCU/MCU_drivers/gpio/gpio.c:327
	if(control == 1)
    547c:	2901      	cmp	r1, #1
    547e:	d003      	beq.n	5488 <gpio_drive_strength+0x1c>
E:\2017-2018\03_Graduation Project\04_Software\05_Wangshi\02_6220\06_UpdateSoftware-180714\01_UEBootloader\KL36_Bios-180714\Debug/../03_MCU/MCU_drivers/gpio/gpio.c:333
		BCLR(PORT_PCR_DSE_SHIFT,PORT_PCR_REG(port_ptr,pin));
    5480:	2140      	movs	r1, #64	; 0x40
    5482:	438a      	bics	r2, r1
    5484:	601a      	str	r2, [r3, #0]
E:\2017-2018\03_Graduation Project\04_Software\05_Wangshi\02_6220\06_UpdateSoftware-180714\01_UEBootloader\KL36_Bios-180714\Debug/../03_MCU/MCU_drivers/gpio/gpio.c:335
}
    5486:	4770      	bx	lr
E:\2017-2018\03_Graduation Project\04_Software\05_Wangshi\02_6220\06_UpdateSoftware-180714\01_UEBootloader\KL36_Bios-180714\Debug/../03_MCU/MCU_drivers/gpio/gpio.c:329
		BSET(PORT_PCR_DSE_SHIFT,PORT_PCR_REG(port_ptr,pin));
    5488:	313f      	adds	r1, #63	; 0x3f
    548a:	430a      	orrs	r2, r1
    548c:	601a      	str	r2, [r3, #0]
    548e:	e7fa      	b.n	5486 <gpio_drive_strength+0x1a>
    5490:	00005d04 	.word	0x00005d04

00005494 <flash_init>:
flash_init():
E:\2017-2018\03_Graduation Project\04_Software\05_Wangshi\02_6220\06_UpdateSoftware-180714\01_UEBootloader\KL36_Bios-180714\Debug/../03_MCU/MCU_drivers/flash/flash.c:25
//flash
//======================================================================
void flash_init(void)
{   
    // 
    while(!(FTFA_FSTAT & CCIF));
    5494:	4a06      	ldr	r2, [pc, #24]	; (54b0 <flash_init+0x1c>)
E:\2017-2018\03_Graduation Project\04_Software\05_Wangshi\02_6220\06_UpdateSoftware-180714\01_UEBootloader\KL36_Bios-180714\Debug/../03_MCU/MCU_drivers/flash/flash.c:25 (discriminator 1)
    5496:	7813      	ldrb	r3, [r2, #0]
    5498:	b25b      	sxtb	r3, r3
    549a:	2b00      	cmp	r3, #0
    549c:	dafb      	bge.n	5496 <flash_init+0x2>
E:\2017-2018\03_Graduation Project\04_Software\05_Wangshi\02_6220\06_UpdateSoftware-180714\01_UEBootloader\KL36_Bios-180714\Debug/../03_MCU/MCU_drivers/flash/flash.c:28
    
  // 
    FTFA_FSTAT = ACCERR | FPVIOL;
    549e:	2330      	movs	r3, #48	; 0x30
    54a0:	7013      	strb	r3, [r2, #0]
E:\2017-2018\03_Graduation Project\04_Software\05_Wangshi\02_6220\06_UpdateSoftware-180714\01_UEBootloader\KL36_Bios-180714\Debug/../03_MCU/MCU_drivers/flash/flash.c:30
    //PLACR_ESFCFlash
    BSET(MCM_PLACR_ESFC_SHIFT,MCM_PLACR);
    54a2:	2380      	movs	r3, #128	; 0x80
    54a4:	4a03      	ldr	r2, [pc, #12]	; (54b4 <flash_init+0x20>)
    54a6:	025b      	lsls	r3, r3, #9
    54a8:	68d1      	ldr	r1, [r2, #12]
    54aa:	430b      	orrs	r3, r1
    54ac:	60d3      	str	r3, [r2, #12]
E:\2017-2018\03_Graduation Project\04_Software\05_Wangshi\02_6220\06_UpdateSoftware-180714\01_UEBootloader\KL36_Bios-180714\Debug/../03_MCU/MCU_drivers/flash/flash.c:35
    /*
    //PLACR_ESFCFlash
    BCLR(MCM_PLACR_ESFC_SHIFT,MCM_PLACR);   //
    */
}
    54ae:	4770      	bx	lr
    54b0:	40020000 	.word	0x40020000
    54b4:	f0003000 	.word	0xf0003000

000054b8 <flash_erase>:
flash_erase():
E:\2017-2018\03_Graduation Project\04_Software\05_Wangshi\02_6220\06_UpdateSoftware-180714\01_UEBootloader\KL36_Bios-180714\Debug/../03_MCU/MCU_drivers/flash/flash.c:53
    } dest;
    
    dest.word    = (uint_32)(sect*(1<<10));

    // 
    FTFA_FCCOB0 = ERSSCR; // 
    54b8:	2309      	movs	r3, #9
    54ba:	4a1d      	ldr	r2, [pc, #116]	; (5530 <flash_erase+0x78>)
E:\2017-2018\03_Graduation Project\04_Software\05_Wangshi\02_6220\06_UpdateSoftware-180714\01_UEBootloader\KL36_Bios-180714\Debug/../03_MCU/MCU_drivers/flash/flash.c:50
    dest.word    = (uint_32)(sect*(1<<10));
    54bc:	0281      	lsls	r1, r0, #10
E:\2017-2018\03_Graduation Project\04_Software\05_Wangshi\02_6220\06_UpdateSoftware-180714\01_UEBootloader\KL36_Bios-180714\Debug/../03_MCU/MCU_drivers/flash/flash.c:53
    FTFA_FCCOB0 = ERSSCR; // 
    54be:	71d3      	strb	r3, [r2, #7]
    54c0:	0483      	lsls	r3, r0, #18
    54c2:	0e1b      	lsrs	r3, r3, #24
E:\2017-2018\03_Graduation Project\04_Software\05_Wangshi\02_6220\06_UpdateSoftware-180714\01_UEBootloader\KL36_Bios-180714\Debug/../03_MCU/MCU_drivers/flash/flash.c:56
    
    // 
    FTFA_FCCOB1 = dest.byte[2];
    54c4:	7193      	strb	r3, [r2, #6]
E:\2017-2018\03_Graduation Project\04_Software\05_Wangshi\02_6220\06_UpdateSoftware-180714\01_UEBootloader\KL36_Bios-180714\Debug/../03_MCU/MCU_drivers/flash/flash.c:58
    FTFA_FCCOB2 = dest.byte[1];
    FTFA_FCCOB3 = dest.byte[0];
    54c6:	2300      	movs	r3, #0
    54c8:	0680      	lsls	r0, r0, #26
    54ca:	0e00      	lsrs	r0, r0, #24
E:\2017-2018\03_Graduation Project\04_Software\05_Wangshi\02_6220\06_UpdateSoftware-180714\01_UEBootloader\KL36_Bios-180714\Debug/../03_MCU/MCU_drivers/flash/flash.c:57
    FTFA_FCCOB2 = dest.byte[1];
    54cc:	7150      	strb	r0, [r2, #5]
E:\2017-2018\03_Graduation Project\04_Software\05_Wangshi\02_6220\06_UpdateSoftware-180714\01_UEBootloader\KL36_Bios-180714\Debug/../03_MCU/MCU_drivers/flash/flash.c:58
    FTFA_FCCOB3 = dest.byte[0];
    54ce:	7113      	strb	r3, [r2, #4]
flash_cmd_launch():
E:\2017-2018\03_Graduation Project\04_Software\05_Wangshi\02_6220\06_UpdateSoftware-180714\01_UEBootloader\KL36_Bios-180714\Debug/../03_MCU/MCU_drivers/flash/flash.c:233
//Flash
//======================================================================
uint_32 flash_cmd_launch(void)
{
    // 
    FTFA_FSTAT = ACCERR | FPVIOL;
    54d0:	3330      	adds	r3, #48	; 0x30
    54d2:	7013      	strb	r3, [r2, #0]
E:\2017-2018\03_Graduation Project\04_Software\05_Wangshi\02_6220\06_UpdateSoftware-180714\01_UEBootloader\KL36_Bios-180714\Debug/../03_MCU/MCU_drivers/flash/flash.c:238
    
    //__disable_irq();  //

    // 
    FTFA_FSTAT = CCIF;
    54d4:	3350      	adds	r3, #80	; 0x50
    54d6:	7013      	strb	r3, [r2, #0]
E:\2017-2018\03_Graduation Project\04_Software\05_Wangshi\02_6220\06_UpdateSoftware-180714\01_UEBootloader\KL36_Bios-180714\Debug/../03_MCU/MCU_drivers/flash/flash.c:241

    // 
    while(!(FTFA_FSTAT & CCIF));
    54d8:	7813      	ldrb	r3, [r2, #0]
    54da:	b25b      	sxtb	r3, r3
    54dc:	2b00      	cmp	r3, #0
    54de:	dafb      	bge.n	54d8 <flash_erase+0x20>
E:\2017-2018\03_Graduation Project\04_Software\05_Wangshi\02_6220\06_UpdateSoftware-180714\01_UEBootloader\KL36_Bios-180714\Debug/../03_MCU/MCU_drivers/flash/flash.c:246

    //__enable_irq();  //

    // 
    if(FTFA_FSTAT & (ACCERR | FPVIOL | MGSTAT0))
    54e0:	2331      	movs	r3, #49	; 0x31
    54e2:	7810      	ldrb	r0, [r2, #0]
    54e4:	4003      	ands	r3, r0
flash_erase():
E:\2017-2018\03_Graduation Project\04_Software\05_Wangshi\02_6220\06_UpdateSoftware-180714\01_UEBootloader\KL36_Bios-180714\Debug/../03_MCU/MCU_drivers/flash/flash.c:62
        return 1;     //
    54e6:	2001      	movs	r0, #1
flash_cmd_launch():
E:\2017-2018\03_Graduation Project\04_Software\05_Wangshi\02_6220\06_UpdateSoftware-180714\01_UEBootloader\KL36_Bios-180714\Debug/../03_MCU/MCU_drivers/flash/flash.c:246
    if(FTFA_FSTAT & (ACCERR | FPVIOL | MGSTAT0))
    54e8:	2b00      	cmp	r3, #0
    54ea:	d11d      	bne.n	5528 <flash_erase+0x70>
flash_erase():
E:\2017-2018\03_Graduation Project\04_Software\05_Wangshi\02_6220\06_UpdateSoftware-180714\01_UEBootloader\KL36_Bios-180714\Debug/../03_MCU/MCU_drivers/flash/flash.c:66
    if(dest.word < 0x400)
    54ec:	4811      	ldr	r0, [pc, #68]	; (5534 <flash_erase+0x7c>)
    54ee:	4281      	cmp	r1, r0
    54f0:	dc19      	bgt.n	5526 <flash_erase+0x6e>
E:\2017-2018\03_Graduation Project\04_Software\05_Wangshi\02_6220\06_UpdateSoftware-180714\01_UEBootloader\KL36_Bios-180714\Debug/../03_MCU/MCU_drivers/flash/flash.c:69
        FTFA_FCCOB0 = PGM4; 
    54f2:	2106      	movs	r1, #6
    54f4:	71d1      	strb	r1, [r2, #7]
E:\2017-2018\03_Graduation Project\04_Software\05_Wangshi\02_6220\06_UpdateSoftware-180714\01_UEBootloader\KL36_Bios-180714\Debug/../03_MCU/MCU_drivers/flash/flash.c:71
        FTFA_FCCOB1 = 0x00;
    54f6:	7193      	strb	r3, [r2, #6]
E:\2017-2018\03_Graduation Project\04_Software\05_Wangshi\02_6220\06_UpdateSoftware-180714\01_UEBootloader\KL36_Bios-180714\Debug/../03_MCU/MCU_drivers/flash/flash.c:72
        FTFA_FCCOB2 = 0x04;
    54f8:	3304      	adds	r3, #4
    54fa:	7153      	strb	r3, [r2, #5]
E:\2017-2018\03_Graduation Project\04_Software\05_Wangshi\02_6220\06_UpdateSoftware-180714\01_UEBootloader\KL36_Bios-180714\Debug/../03_MCU/MCU_drivers/flash/flash.c:73
        FTFA_FCCOB3 = 0x0C;
    54fc:	3308      	adds	r3, #8
    54fe:	7113      	strb	r3, [r2, #4]
E:\2017-2018\03_Graduation Project\04_Software\05_Wangshi\02_6220\06_UpdateSoftware-180714\01_UEBootloader\KL36_Bios-180714\Debug/../03_MCU/MCU_drivers/flash/flash.c:75
        FTFA_FCCOB4 = 0xFF;
    5500:	33f3      	adds	r3, #243	; 0xf3
    5502:	72d3      	strb	r3, [r2, #11]
E:\2017-2018\03_Graduation Project\04_Software\05_Wangshi\02_6220\06_UpdateSoftware-180714\01_UEBootloader\KL36_Bios-180714\Debug/../03_MCU/MCU_drivers/flash/flash.c:76
        FTFA_FCCOB5 = 0xFF;
    5504:	7293      	strb	r3, [r2, #10]
E:\2017-2018\03_Graduation Project\04_Software\05_Wangshi\02_6220\06_UpdateSoftware-180714\01_UEBootloader\KL36_Bios-180714\Debug/../03_MCU/MCU_drivers/flash/flash.c:77
        FTFA_FCCOB6 = 0xFF;
    5506:	7253      	strb	r3, [r2, #9]
E:\2017-2018\03_Graduation Project\04_Software\05_Wangshi\02_6220\06_UpdateSoftware-180714\01_UEBootloader\KL36_Bios-180714\Debug/../03_MCU/MCU_drivers/flash/flash.c:78
        FTFA_FCCOB7 = 0xFE;
    5508:	3b01      	subs	r3, #1
    550a:	7213      	strb	r3, [r2, #8]
flash_cmd_launch():
E:\2017-2018\03_Graduation Project\04_Software\05_Wangshi\02_6220\06_UpdateSoftware-180714\01_UEBootloader\KL36_Bios-180714\Debug/../03_MCU/MCU_drivers/flash/flash.c:233
    FTFA_FSTAT = ACCERR | FPVIOL;
    550c:	3bce      	subs	r3, #206	; 0xce
    550e:	7013      	strb	r3, [r2, #0]
E:\2017-2018\03_Graduation Project\04_Software\05_Wangshi\02_6220\06_UpdateSoftware-180714\01_UEBootloader\KL36_Bios-180714\Debug/../03_MCU/MCU_drivers/flash/flash.c:238
    FTFA_FSTAT = CCIF;
    5510:	3350      	adds	r3, #80	; 0x50
    5512:	7013      	strb	r3, [r2, #0]
E:\2017-2018\03_Graduation Project\04_Software\05_Wangshi\02_6220\06_UpdateSoftware-180714\01_UEBootloader\KL36_Bios-180714\Debug/../03_MCU/MCU_drivers/flash/flash.c:241
    while(!(FTFA_FSTAT & CCIF));
    5514:	4a06      	ldr	r2, [pc, #24]	; (5530 <flash_erase+0x78>)
    5516:	7813      	ldrb	r3, [r2, #0]
    5518:	b25b      	sxtb	r3, r3
    551a:	2b00      	cmp	r3, #0
    551c:	dafb      	bge.n	5516 <flash_erase+0x5e>
E:\2017-2018\03_Graduation Project\04_Software\05_Wangshi\02_6220\06_UpdateSoftware-180714\01_UEBootloader\KL36_Bios-180714\Debug/../03_MCU/MCU_drivers/flash/flash.c:246
    if(FTFA_FSTAT & (ACCERR | FPVIOL | MGSTAT0))
    551e:	7813      	ldrb	r3, [r2, #0]
    5520:	2231      	movs	r2, #49	; 0x31
    5522:	421a      	tst	r2, r3
    5524:	d101      	bne.n	552a <flash_erase+0x72>
flash_erase():
E:\2017-2018\03_Graduation Project\04_Software\05_Wangshi\02_6220\06_UpdateSoftware-180714\01_UEBootloader\KL36_Bios-180714\Debug/../03_MCU/MCU_drivers/flash/flash.c:84
    return 0;  //
    5526:	2000      	movs	r0, #0
E:\2017-2018\03_Graduation Project\04_Software\05_Wangshi\02_6220\06_UpdateSoftware-180714\01_UEBootloader\KL36_Bios-180714\Debug/../03_MCU/MCU_drivers/flash/flash.c:85
}
    5528:	4770      	bx	lr
E:\2017-2018\03_Graduation Project\04_Software\05_Wangshi\02_6220\06_UpdateSoftware-180714\01_UEBootloader\KL36_Bios-180714\Debug/../03_MCU/MCU_drivers/flash/flash.c:81
            return 2;   //
    552a:	2002      	movs	r0, #2
    552c:	e7fc      	b.n	5528 <flash_erase+0x70>
    552e:	46c0      	nop			; (mov r8, r8)
    5530:	40020000 	.word	0x40020000
    5534:	000003ff 	.word	0x000003ff

00005538 <flash_write>:
flash_write():
E:\2017-2018\03_Graduation Project\04_Software\05_Wangshi\02_6220\06_UpdateSoftware-180714\01_UEBootloader\KL36_Bios-180714\Debug/../03_MCU/MCU_drivers/flash/flash.c:96
{
    5538:	b5f0      	push	{r4, r5, r6, r7, lr}
    553a:	46c6      	mov	lr, r8
E:\2017-2018\03_Graduation Project\04_Software\05_Wangshi\02_6220\06_UpdateSoftware-180714\01_UEBootloader\KL36_Bios-180714\Debug/../03_MCU/MCU_drivers/flash/flash.c:107
        return 1;   //4
    553c:	2401      	movs	r4, #1
E:\2017-2018\03_Graduation Project\04_Software\05_Wangshi\02_6220\06_UpdateSoftware-180714\01_UEBootloader\KL36_Bios-180714\Debug/../03_MCU/MCU_drivers/flash/flash.c:96
{
    553e:	b500      	push	{lr}
E:\2017-2018\03_Graduation Project\04_Software\05_Wangshi\02_6220\06_UpdateSoftware-180714\01_UEBootloader\KL36_Bios-180714\Debug/../03_MCU/MCU_drivers/flash/flash.c:106
    if(offset%4 != 0)
    5540:	078d      	lsls	r5, r1, #30
    5542:	d12d      	bne.n	55a0 <flash_write+0x68>
E:\2017-2018\03_Graduation Project\04_Software\05_Wangshi\02_6220\06_UpdateSoftware-180714\01_UEBootloader\KL36_Bios-180714\Debug/../03_MCU/MCU_drivers/flash/flash.c:110
    FTFA_FCCOB0 = PGM4;
    5544:	4d19      	ldr	r5, [pc, #100]	; (55ac <flash_write+0x74>)
    5546:	3405      	adds	r4, #5
E:\2017-2018\03_Graduation Project\04_Software\05_Wangshi\02_6220\06_UpdateSoftware-180714\01_UEBootloader\KL36_Bios-180714\Debug/../03_MCU/MCU_drivers/flash/flash.c:111
    destaddr = (uint_32)(sect*(1<<10) + offset);//
    5548:	0280      	lsls	r0, r0, #10
E:\2017-2018\03_Graduation Project\04_Software\05_Wangshi\02_6220\06_UpdateSoftware-180714\01_UEBootloader\KL36_Bios-180714\Debug/../03_MCU/MCU_drivers/flash/flash.c:110
    FTFA_FCCOB0 = PGM4;
    554a:	71ec      	strb	r4, [r5, #7]
E:\2017-2018\03_Graduation Project\04_Software\05_Wangshi\02_6220\06_UpdateSoftware-180714\01_UEBootloader\KL36_Bios-180714\Debug/../03_MCU/MCU_drivers/flash/flash.c:111
    destaddr = (uint_32)(sect*(1<<10) + offset);//
    554c:	1841      	adds	r1, r0, r1
E:\2017-2018\03_Graduation Project\04_Software\05_Wangshi\02_6220\06_UpdateSoftware-180714\01_UEBootloader\KL36_Bios-180714\Debug/../03_MCU/MCU_drivers/flash/flash.c:113
    for(size=0; size<N; size+=4, dest.word+=4, buf+=4)
    554e:	001e      	movs	r6, r3
    5550:	2a00      	cmp	r2, #0
    5552:	d024      	beq.n	559e <flash_write+0x66>
flash_cmd_launch():
E:\2017-2018\03_Graduation Project\04_Software\05_Wangshi\02_6220\06_UpdateSoftware-180714\01_UEBootloader\KL36_Bios-180714\Debug/../03_MCU/MCU_drivers/flash/flash.c:233
    FTFA_FSTAT = ACCERR | FPVIOL;
    5554:	2030      	movs	r0, #48	; 0x30
    5556:	4680      	mov	r8, r0
E:\2017-2018\03_Graduation Project\04_Software\05_Wangshi\02_6220\06_UpdateSoftware-180714\01_UEBootloader\KL36_Bios-180714\Debug/../03_MCU/MCU_drivers/flash/flash.c:238
    FTFA_FSTAT = CCIF;
    5558:	2080      	movs	r0, #128	; 0x80
E:\2017-2018\03_Graduation Project\04_Software\05_Wangshi\02_6220\06_UpdateSoftware-180714\01_UEBootloader\KL36_Bios-180714\Debug/../03_MCU/MCU_drivers/flash/flash.c:246
    if(FTFA_FSTAT & (ACCERR | FPVIOL | MGSTAT0))
    555a:	2731      	movs	r7, #49	; 0x31
E:\2017-2018\03_Graduation Project\04_Software\05_Wangshi\02_6220\06_UpdateSoftware-180714\01_UEBootloader\KL36_Bios-180714\Debug/../03_MCU/MCU_drivers/flash/flash.c:238
    FTFA_FSTAT = CCIF;
    555c:	4684      	mov	ip, r0
flash_write():
E:\2017-2018\03_Graduation Project\04_Software\05_Wangshi\02_6220\06_UpdateSoftware-180714\01_UEBootloader\KL36_Bios-180714\Debug/../03_MCU/MCU_drivers/flash/flash.c:116
        FTFA_FCCOB1 = dest.byte[2];
    555e:	0208      	lsls	r0, r1, #8
    5560:	0e00      	lsrs	r0, r0, #24
    5562:	71a8      	strb	r0, [r5, #6]
E:\2017-2018\03_Graduation Project\04_Software\05_Wangshi\02_6220\06_UpdateSoftware-180714\01_UEBootloader\KL36_Bios-180714\Debug/../03_MCU/MCU_drivers/flash/flash.c:117
        FTFA_FCCOB2 = dest.byte[1];
    5564:	0408      	lsls	r0, r1, #16
    5566:	0e00      	lsrs	r0, r0, #24
    5568:	7168      	strb	r0, [r5, #5]
E:\2017-2018\03_Graduation Project\04_Software\05_Wangshi\02_6220\06_UpdateSoftware-180714\01_UEBootloader\KL36_Bios-180714\Debug/../03_MCU/MCU_drivers/flash/flash.c:118
        FTFA_FCCOB3 = dest.byte[0];
    556a:	b2c8      	uxtb	r0, r1
    556c:	7128      	strb	r0, [r5, #4]
E:\2017-2018\03_Graduation Project\04_Software\05_Wangshi\02_6220\06_UpdateSoftware-180714\01_UEBootloader\KL36_Bios-180714\Debug/../03_MCU/MCU_drivers/flash/flash.c:121
        FTFA_FCCOB4 = buf[3];//
    556e:	78f0      	ldrb	r0, [r6, #3]
    5570:	72e8      	strb	r0, [r5, #11]
E:\2017-2018\03_Graduation Project\04_Software\05_Wangshi\02_6220\06_UpdateSoftware-180714\01_UEBootloader\KL36_Bios-180714\Debug/../03_MCU/MCU_drivers/flash/flash.c:122
        FTFA_FCCOB5 = buf[2];
    5572:	78b0      	ldrb	r0, [r6, #2]
    5574:	72a8      	strb	r0, [r5, #10]
E:\2017-2018\03_Graduation Project\04_Software\05_Wangshi\02_6220\06_UpdateSoftware-180714\01_UEBootloader\KL36_Bios-180714\Debug/../03_MCU/MCU_drivers/flash/flash.c:123
        FTFA_FCCOB6 = buf[1];
    5576:	7870      	ldrb	r0, [r6, #1]
    5578:	7268      	strb	r0, [r5, #9]
E:\2017-2018\03_Graduation Project\04_Software\05_Wangshi\02_6220\06_UpdateSoftware-180714\01_UEBootloader\KL36_Bios-180714\Debug/../03_MCU/MCU_drivers/flash/flash.c:124
        FTFA_FCCOB7 = buf[0];
    557a:	7830      	ldrb	r0, [r6, #0]
    557c:	7228      	strb	r0, [r5, #8]
flash_cmd_launch():
E:\2017-2018\03_Graduation Project\04_Software\05_Wangshi\02_6220\06_UpdateSoftware-180714\01_UEBootloader\KL36_Bios-180714\Debug/../03_MCU/MCU_drivers/flash/flash.c:233
    FTFA_FSTAT = ACCERR | FPVIOL;
    557e:	4640      	mov	r0, r8
    5580:	7028      	strb	r0, [r5, #0]
E:\2017-2018\03_Graduation Project\04_Software\05_Wangshi\02_6220\06_UpdateSoftware-180714\01_UEBootloader\KL36_Bios-180714\Debug/../03_MCU/MCU_drivers/flash/flash.c:238
    FTFA_FSTAT = CCIF;
    5582:	4660      	mov	r0, ip
    5584:	7028      	strb	r0, [r5, #0]
E:\2017-2018\03_Graduation Project\04_Software\05_Wangshi\02_6220\06_UpdateSoftware-180714\01_UEBootloader\KL36_Bios-180714\Debug/../03_MCU/MCU_drivers/flash/flash.c:241
    while(!(FTFA_FSTAT & CCIF));
    5586:	782c      	ldrb	r4, [r5, #0]
    5588:	b264      	sxtb	r4, r4
    558a:	2c00      	cmp	r4, #0
    558c:	dafb      	bge.n	5586 <flash_write+0x4e>
E:\2017-2018\03_Graduation Project\04_Software\05_Wangshi\02_6220\06_UpdateSoftware-180714\01_UEBootloader\KL36_Bios-180714\Debug/../03_MCU/MCU_drivers/flash/flash.c:246
    if(FTFA_FSTAT & (ACCERR | FPVIOL | MGSTAT0))
    558e:	7828      	ldrb	r0, [r5, #0]
    5590:	4207      	tst	r7, r0
    5592:	d109      	bne.n	55a8 <flash_write+0x70>
flash_write():
E:\2017-2018\03_Graduation Project\04_Software\05_Wangshi\02_6220\06_UpdateSoftware-180714\01_UEBootloader\KL36_Bios-180714\Debug/../03_MCU/MCU_drivers/flash/flash.c:113
    for(size=0; size<N; size+=4, dest.word+=4, buf+=4)
    5594:	3604      	adds	r6, #4
    5596:	3104      	adds	r1, #4
    5598:	1af0      	subs	r0, r6, r3
    559a:	4290      	cmp	r0, r2
    559c:	d3df      	bcc.n	555e <flash_write+0x26>
E:\2017-2018\03_Graduation Project\04_Software\05_Wangshi\02_6220\06_UpdateSoftware-180714\01_UEBootloader\KL36_Bios-180714\Debug/../03_MCU/MCU_drivers/flash/flash.c:130
    return 0;  //
    559e:	2400      	movs	r4, #0
E:\2017-2018\03_Graduation Project\04_Software\05_Wangshi\02_6220\06_UpdateSoftware-180714\01_UEBootloader\KL36_Bios-180714\Debug/../03_MCU/MCU_drivers/flash/flash.c:131
}
    55a0:	0020      	movs	r0, r4
    55a2:	bc04      	pop	{r2}
    55a4:	4690      	mov	r8, r2
    55a6:	bdf0      	pop	{r4, r5, r6, r7, pc}
E:\2017-2018\03_Graduation Project\04_Software\05_Wangshi\02_6220\06_UpdateSoftware-180714\01_UEBootloader\KL36_Bios-180714\Debug/../03_MCU/MCU_drivers/flash/flash.c:127
            return 2;  //
    55a8:	2402      	movs	r4, #2
    55aa:	e7f9      	b.n	55a0 <flash_write+0x68>
    55ac:	40020000 	.word	0x40020000

000055b0 <flash_read_logic>:
flash_read_logic():
E:\2017-2018\03_Graduation Project\04_Software\05_Wangshi\02_6220\06_UpdateSoftware-180714\01_UEBootloader\KL36_Bios-180714\Debug/../03_MCU/MCU_drivers/flash/flash.c:143
{
    55b0:	b510      	push	{r4, lr}
E:\2017-2018\03_Graduation Project\04_Software\05_Wangshi\02_6220\06_UpdateSoftware-180714\01_UEBootloader\KL36_Bios-180714\Debug/../03_MCU/MCU_drivers/flash/flash.c:145
	src=(uint_8 *)(sect*1024+offset);
    55b2:	0289      	lsls	r1, r1, #10
    55b4:	1889      	adds	r1, r1, r2
E:\2017-2018\03_Graduation Project\04_Software\05_Wangshi\02_6220\06_UpdateSoftware-180714\01_UEBootloader\KL36_Bios-180714\Debug/../03_MCU/MCU_drivers/flash/flash.c:146
	memcpy(dest,src,N);
    55b6:	001a      	movs	r2, r3
    55b8:	f000 f928 	bl	580c <memcpy>
E:\2017-2018\03_Graduation Project\04_Software\05_Wangshi\02_6220\06_UpdateSoftware-180714\01_UEBootloader\KL36_Bios-180714\Debug/../03_MCU/MCU_drivers/flash/flash.c:147
}
    55bc:	bd10      	pop	{r4, pc}
    55be:	46c0      	nop			; (mov r8, r8)

000055c0 <flash_read_physical>:
flash_read_physical():
E:\2017-2018\03_Graduation Project\04_Software\05_Wangshi\02_6220\06_UpdateSoftware-180714\01_UEBootloader\KL36_Bios-180714\Debug/../03_MCU/MCU_drivers/flash/flash.c:159
{	uint_8 *src;
    55c0:	b510      	push	{r4, lr}
E:\2017-2018\03_Graduation Project\04_Software\05_Wangshi\02_6220\06_UpdateSoftware-180714\01_UEBootloader\KL36_Bios-180714\Debug/../03_MCU/MCU_drivers/flash/flash.c:161
	memcpy(dest,src,N);
    55c2:	f000 f923 	bl	580c <memcpy>
E:\2017-2018\03_Graduation Project\04_Software\05_Wangshi\02_6220\06_UpdateSoftware-180714\01_UEBootloader\KL36_Bios-180714\Debug/../03_MCU/MCU_drivers/flash/flash.c:162
}
    55c6:	bd10      	pop	{r4, pc}

000055c8 <flash_protect>:
flash_protect():
E:\2017-2018\03_Graduation Project\04_Software\05_Wangshi\02_6220\06_UpdateSoftware-180714\01_UEBootloader\KL36_Bios-180714\Debug/../03_MCU/MCU_drivers/flash/flash.c:181
    regionCounter=3-regionNO/8;//
    55c8:	2303      	movs	r3, #3
E:\2017-2018\03_Graduation Project\04_Software\05_Wangshi\02_6220\06_UpdateSoftware-180714\01_UEBootloader\KL36_Bios-180714\Debug/../03_MCU/MCU_drivers/flash/flash.c:179
    offset=regionNO%8;//
    55ca:	0702      	lsls	r2, r0, #28
E:\2017-2018\03_Graduation Project\04_Software\05_Wangshi\02_6220\06_UpdateSoftware-180714\01_UEBootloader\KL36_Bios-180714\Debug/../03_MCU/MCU_drivers/flash/flash.c:181
    regionCounter=3-regionNO/8;//
    55cc:	0900      	lsrs	r0, r0, #4
    55ce:	1a18      	subs	r0, r3, r0
E:\2017-2018\03_Graduation Project\04_Software\05_Wangshi\02_6220\06_UpdateSoftware-180714\01_UEBootloader\KL36_Bios-180714\Debug/../03_MCU/MCU_drivers/flash/flash.c:182
    switch(regionCounter)
    55d0:	b2c0      	uxtb	r0, r0
E:\2017-2018\03_Graduation Project\04_Software\05_Wangshi\02_6220\06_UpdateSoftware-180714\01_UEBootloader\KL36_Bios-180714\Debug/../03_MCU/MCU_drivers/flash/flash.c:179
    offset=regionNO%8;//
    55d2:	0f52      	lsrs	r2, r2, #29
E:\2017-2018\03_Graduation Project\04_Software\05_Wangshi\02_6220\06_UpdateSoftware-180714\01_UEBootloader\KL36_Bios-180714\Debug/../03_MCU/MCU_drivers/flash/flash.c:182
    switch(regionCounter)
    55d4:	2801      	cmp	r0, #1
    55d6:	d01a      	beq.n	560e <flash_protect+0x46>
    55d8:	2800      	cmp	r0, #0
    55da:	d011      	beq.n	5600 <flash_protect+0x38>
    55dc:	2802      	cmp	r0, #2
    55de:	d008      	beq.n	55f2 <flash_protect+0x2a>
    55e0:	2803      	cmp	r0, #3
    55e2:	d105      	bne.n	55f0 <flash_protect+0x28>
E:\2017-2018\03_Graduation Project\04_Software\05_Wangshi\02_6220\06_UpdateSoftware-180714\01_UEBootloader\KL36_Bios-180714\Debug/../03_MCU/MCU_drivers/flash/flash.c:185
    	BCLR(offset,FTFA_FPROT3);
    55e4:	2101      	movs	r1, #1
    55e6:	4091      	lsls	r1, r2
    55e8:	480c      	ldr	r0, [pc, #48]	; (561c <flash_protect+0x54>)
    55ea:	7c03      	ldrb	r3, [r0, #16]
    55ec:	438b      	bics	r3, r1
    55ee:	7403      	strb	r3, [r0, #16]
E:\2017-2018\03_Graduation Project\04_Software\05_Wangshi\02_6220\06_UpdateSoftware-180714\01_UEBootloader\KL36_Bios-180714\Debug/../03_MCU/MCU_drivers/flash/flash.c:199
}
    55f0:	4770      	bx	lr
E:\2017-2018\03_Graduation Project\04_Software\05_Wangshi\02_6220\06_UpdateSoftware-180714\01_UEBootloader\KL36_Bios-180714\Debug/../03_MCU/MCU_drivers/flash/flash.c:188
    	BCLR(offset,FTFA_FPROT2);
    55f2:	2101      	movs	r1, #1
    55f4:	4091      	lsls	r1, r2
    55f6:	4809      	ldr	r0, [pc, #36]	; (561c <flash_protect+0x54>)
    55f8:	7c43      	ldrb	r3, [r0, #17]
    55fa:	438b      	bics	r3, r1
    55fc:	7443      	strb	r3, [r0, #17]
E:\2017-2018\03_Graduation Project\04_Software\05_Wangshi\02_6220\06_UpdateSoftware-180714\01_UEBootloader\KL36_Bios-180714\Debug/../03_MCU/MCU_drivers/flash/flash.c:189
        break;
    55fe:	e7f7      	b.n	55f0 <flash_protect+0x28>
E:\2017-2018\03_Graduation Project\04_Software\05_Wangshi\02_6220\06_UpdateSoftware-180714\01_UEBootloader\KL36_Bios-180714\Debug/../03_MCU/MCU_drivers/flash/flash.c:194
    	BCLR(offset,FTFA_FPROT0);
    5600:	2101      	movs	r1, #1
    5602:	4091      	lsls	r1, r2
    5604:	4805      	ldr	r0, [pc, #20]	; (561c <flash_protect+0x54>)
    5606:	7cc3      	ldrb	r3, [r0, #19]
    5608:	438b      	bics	r3, r1
    560a:	74c3      	strb	r3, [r0, #19]
E:\2017-2018\03_Graduation Project\04_Software\05_Wangshi\02_6220\06_UpdateSoftware-180714\01_UEBootloader\KL36_Bios-180714\Debug/../03_MCU/MCU_drivers/flash/flash.c:199
}
    560c:	e7f0      	b.n	55f0 <flash_protect+0x28>
E:\2017-2018\03_Graduation Project\04_Software\05_Wangshi\02_6220\06_UpdateSoftware-180714\01_UEBootloader\KL36_Bios-180714\Debug/../03_MCU/MCU_drivers/flash/flash.c:191
    	BCLR(offset,FTFA_FPROT1);
    560e:	4090      	lsls	r0, r2
    5610:	4902      	ldr	r1, [pc, #8]	; (561c <flash_protect+0x54>)
    5612:	7c8b      	ldrb	r3, [r1, #18]
    5614:	4383      	bics	r3, r0
    5616:	748b      	strb	r3, [r1, #18]
E:\2017-2018\03_Graduation Project\04_Software\05_Wangshi\02_6220\06_UpdateSoftware-180714\01_UEBootloader\KL36_Bios-180714\Debug/../03_MCU/MCU_drivers/flash/flash.c:192
        break;
    5618:	e7ea      	b.n	55f0 <flash_protect+0x28>
    561a:	46c0      	nop			; (mov r8, r8)
    561c:	40020000 	.word	0x40020000

00005620 <flash_isempty>:
flash_isempty():
E:\2017-2018\03_Graduation Project\04_Software\05_Wangshi\02_6220\06_UpdateSoftware-180714\01_UEBootloader\KL36_Bios-180714\Debug/../03_MCU/MCU_drivers/flash/flash.c:212
   for(i = 0; i<N; i++)   //
    5620:	2900      	cmp	r1, #0
    5622:	d00e      	beq.n	5642 <flash_isempty+0x22>
E:\2017-2018\03_Graduation Project\04_Software\05_Wangshi\02_6220\06_UpdateSoftware-180714\01_UEBootloader\KL36_Bios-180714\Debug/../03_MCU/MCU_drivers/flash/flash.c:214
      if(buff[i]!=0xff)   //
    5624:	7803      	ldrb	r3, [r0, #0]
    5626:	2bff      	cmp	r3, #255	; 0xff
    5628:	d10d      	bne.n	5646 <flash_isempty+0x26>
    562a:	3901      	subs	r1, #1
    562c:	3001      	adds	r0, #1
    562e:	b289      	uxth	r1, r1
    5630:	1841      	adds	r1, r0, r1
    5632:	e004      	b.n	563e <flash_isempty+0x1e>
    5634:	3001      	adds	r0, #1
    5636:	1e43      	subs	r3, r0, #1
    5638:	781b      	ldrb	r3, [r3, #0]
    563a:	2bff      	cmp	r3, #255	; 0xff
    563c:	d103      	bne.n	5646 <flash_isempty+0x26>
E:\2017-2018\03_Graduation Project\04_Software\05_Wangshi\02_6220\06_UpdateSoftware-180714\01_UEBootloader\KL36_Bios-180714\Debug/../03_MCU/MCU_drivers/flash/flash.c:212 (discriminator 2)
   for(i = 0; i<N; i++)   //
    563e:	4288      	cmp	r0, r1
    5640:	d1f8      	bne.n	5634 <flash_isempty+0x14>
E:\2017-2018\03_Graduation Project\04_Software\05_Wangshi\02_6220\06_UpdateSoftware-180714\01_UEBootloader\KL36_Bios-180714\Debug/../03_MCU/MCU_drivers/flash/flash.c:212
    5642:	2001      	movs	r0, #1
E:\2017-2018\03_Graduation Project\04_Software\05_Wangshi\02_6220\06_UpdateSoftware-180714\01_UEBootloader\KL36_Bios-180714\Debug/../03_MCU/MCU_drivers/flash/flash.c:221
}
    5644:	4770      	bx	lr
    5646:	2000      	movs	r0, #0
    5648:	e7fc      	b.n	5644 <flash_isempty+0x24>
    564a:	46c0      	nop			; (mov r8, r8)

0000564c <adc_read>:
adc_read():
E:\2017-2018\03_Graduation Project\04_Software\05_Wangshi\02_6220\06_UpdateSoftware-180714\01_UEBootloader\KL36_Bios-180714\Debug/../03_MCU/MCU_drivers/adc/adc.c:85
uint_16 adc_read(uint_8 channel)
{
    uint_16 ADCResult = 0;

    //SC1A
    ADC0_SC1A = ADC_SC1_ADCH(channel);        
    564c:	231f      	movs	r3, #31
E:\2017-2018\03_Graduation Project\04_Software\05_Wangshi\02_6220\06_UpdateSoftware-180714\01_UEBootloader\KL36_Bios-180714\Debug/../03_MCU/MCU_drivers/adc/adc.c:88

    //
    while(!(ADC0_SC1A & ADC_SC1_COCO_MASK));
    564e:	2180      	movs	r1, #128	; 0x80
E:\2017-2018\03_Graduation Project\04_Software\05_Wangshi\02_6220\06_UpdateSoftware-180714\01_UEBootloader\KL36_Bios-180714\Debug/../03_MCU/MCU_drivers/adc/adc.c:85
    ADC0_SC1A = ADC_SC1_ADCH(channel);        
    5650:	4018      	ands	r0, r3
    5652:	4b05      	ldr	r3, [pc, #20]	; (5668 <adc_read+0x1c>)
    5654:	6018      	str	r0, [r3, #0]
E:\2017-2018\03_Graduation Project\04_Software\05_Wangshi\02_6220\06_UpdateSoftware-180714\01_UEBootloader\KL36_Bios-180714\Debug/../03_MCU/MCU_drivers/adc/adc.c:88 (discriminator 1)
    while(!(ADC0_SC1A & ADC_SC1_COCO_MASK));
    5656:	681a      	ldr	r2, [r3, #0]
    5658:	4211      	tst	r1, r2
    565a:	d0fc      	beq.n	5656 <adc_read+0xa>
E:\2017-2018\03_Graduation Project\04_Software\05_Wangshi\02_6220\06_UpdateSoftware-180714\01_UEBootloader\KL36_Bios-180714\Debug/../03_MCU/MCU_drivers/adc/adc.c:91

    //
    ADCResult = (uint_16)ADC0_RA;
    565c:	6918      	ldr	r0, [r3, #16]
E:\2017-2018\03_Graduation Project\04_Software\05_Wangshi\02_6220\06_UpdateSoftware-180714\01_UEBootloader\KL36_Bios-180714\Debug/../03_MCU/MCU_drivers/adc/adc.c:93
    //ADC
    ADC0_SC1A &= ~ADC_SC1_COCO_MASK;
    565e:	681a      	ldr	r2, [r3, #0]
E:\2017-2018\03_Graduation Project\04_Software\05_Wangshi\02_6220\06_UpdateSoftware-180714\01_UEBootloader\KL36_Bios-180714\Debug/../03_MCU/MCU_drivers/adc/adc.c:95
    //
    return ADCResult;
    5660:	b280      	uxth	r0, r0
E:\2017-2018\03_Graduation Project\04_Software\05_Wangshi\02_6220\06_UpdateSoftware-180714\01_UEBootloader\KL36_Bios-180714\Debug/../03_MCU/MCU_drivers/adc/adc.c:93
    ADC0_SC1A &= ~ADC_SC1_COCO_MASK;
    5662:	438a      	bics	r2, r1
    5664:	601a      	str	r2, [r3, #0]
E:\2017-2018\03_Graduation Project\04_Software\05_Wangshi\02_6220\06_UpdateSoftware-180714\01_UEBootloader\KL36_Bios-180714\Debug/../03_MCU/MCU_drivers/adc/adc.c:96
}
    5666:	4770      	bx	lr
    5668:	4003b000 	.word	0x4003b000

0000566c <adc_cal>:
adc_cal():
E:\2017-2018\03_Graduation Project\04_Software\05_Wangshi\02_6220\06_UpdateSoftware-180714\01_UEBootloader\KL36_Bios-180714\Debug/../03_MCU/MCU_drivers/adc/adc.c:110
void adc_cal(void)
{
    uint_8 cal_var;
//    uint_8 i;

    ADC0_SC2 &=  ~ADC_SC2_ADTRG_MASK ; // 
    566c:	2140      	movs	r1, #64	; 0x40
    566e:	4b1b      	ldr	r3, [pc, #108]	; (56dc <adc_cal+0x70>)
    5670:	6a1a      	ldr	r2, [r3, #32]
    5672:	438a      	bics	r2, r1
    5674:	621a      	str	r2, [r3, #32]
E:\2017-2018\03_Graduation Project\04_Software\05_Wangshi\02_6220\06_UpdateSoftware-180714\01_UEBootloader\KL36_Bios-180714\Debug/../03_MCU/MCU_drivers/adc/adc.c:111
    ADC0_SC3 &= ( ~ADC_SC3_ADCO_MASK & ~ADC_SC3_AVGS_MASK ); //
    5676:	6a5a      	ldr	r2, [r3, #36]	; 0x24
    5678:	3935      	subs	r1, #53	; 0x35
    567a:	438a      	bics	r2, r1
    567c:	625a      	str	r2, [r3, #36]	; 0x24
E:\2017-2018\03_Graduation Project\04_Software\05_Wangshi\02_6220\06_UpdateSoftware-180714\01_UEBootloader\KL36_Bios-180714\Debug/../03_MCU/MCU_drivers/adc/adc.c:112
    ADC0_SC3 |= ( ADC_SC3_AVGE_MASK | ADC_SC3_AVGS(3) );  //32
    567e:	6a5a      	ldr	r2, [r3, #36]	; 0x24
    5680:	3904      	subs	r1, #4
    5682:	430a      	orrs	r2, r1
    5684:	625a      	str	r2, [r3, #36]	; 0x24
E:\2017-2018\03_Graduation Project\04_Software\05_Wangshi\02_6220\06_UpdateSoftware-180714\01_UEBootloader\KL36_Bios-180714\Debug/../03_MCU/MCU_drivers/adc/adc.c:113
    ADC0_SC3 |= ADC_SC3_CAL_MASK ;      //
    5686:	6a5a      	ldr	r2, [r3, #36]	; 0x24
    5688:	3179      	adds	r1, #121	; 0x79
    568a:	430a      	orrs	r2, r1
    568c:	625a      	str	r2, [r3, #36]	; 0x24
E:\2017-2018\03_Graduation Project\04_Software\05_Wangshi\02_6220\06_UpdateSoftware-180714\01_UEBootloader\KL36_Bios-180714\Debug/../03_MCU/MCU_drivers/adc/adc.c:114 (discriminator 1)
    while (!(ADC0_SC1A & ADC_SC1_COCO_MASK)); // 
    568e:	681a      	ldr	r2, [r3, #0]
    5690:	4211      	tst	r1, r2
    5692:	d0fc      	beq.n	568e <adc_cal+0x22>
E:\2017-2018\03_Graduation Project\04_Software\05_Wangshi\02_6220\06_UpdateSoftware-180714\01_UEBootloader\KL36_Bios-180714\Debug/../03_MCU/MCU_drivers/adc/adc.c:116

    if (ADC0_SC3& ADC_SC3_CALF_MASK) goto adc_cal_exit; // 
    5694:	6a5a      	ldr	r2, [r3, #36]	; 0x24
    5696:	0652      	lsls	r2, r2, #25
    5698:	d41e      	bmi.n	56d8 <adc_cal+0x6c>
E:\2017-2018\03_Graduation Project\04_Software\05_Wangshi\02_6220\06_UpdateSoftware-180714\01_UEBootloader\KL36_Bios-180714\Debug/../03_MCU/MCU_drivers/adc/adc.c:120
    // 
    // 
    cal_var = 0x00;
    cal_var =  ADC0_CLP0;
    569a:	6cda      	ldr	r2, [r3, #76]	; 0x4c
E:\2017-2018\03_Graduation Project\04_Software\05_Wangshi\02_6220\06_UpdateSoftware-180714\01_UEBootloader\KL36_Bios-180714\Debug/../03_MCU/MCU_drivers/adc/adc.c:121
    cal_var += ADC0_CLP1;
    569c:	6c98      	ldr	r0, [r3, #72]	; 0x48
    569e:	1812      	adds	r2, r2, r0
E:\2017-2018\03_Graduation Project\04_Software\05_Wangshi\02_6220\06_UpdateSoftware-180714\01_UEBootloader\KL36_Bios-180714\Debug/../03_MCU/MCU_drivers/adc/adc.c:122
    cal_var += ADC0_CLP2;
    56a0:	6c58      	ldr	r0, [r3, #68]	; 0x44
    56a2:	1812      	adds	r2, r2, r0
E:\2017-2018\03_Graduation Project\04_Software\05_Wangshi\02_6220\06_UpdateSoftware-180714\01_UEBootloader\KL36_Bios-180714\Debug/../03_MCU/MCU_drivers/adc/adc.c:123
    cal_var += ADC0_CLP3;
    56a4:	6c18      	ldr	r0, [r3, #64]	; 0x40
    56a6:	1812      	adds	r2, r2, r0
E:\2017-2018\03_Graduation Project\04_Software\05_Wangshi\02_6220\06_UpdateSoftware-180714\01_UEBootloader\KL36_Bios-180714\Debug/../03_MCU/MCU_drivers/adc/adc.c:124
    cal_var += ADC0_CLP4;
    56a8:	6bd8      	ldr	r0, [r3, #60]	; 0x3c
    56aa:	1812      	adds	r2, r2, r0
E:\2017-2018\03_Graduation Project\04_Software\05_Wangshi\02_6220\06_UpdateSoftware-180714\01_UEBootloader\KL36_Bios-180714\Debug/../03_MCU/MCU_drivers/adc/adc.c:125
    cal_var += ADC0_CLPS;
    56ac:	6b98      	ldr	r0, [r3, #56]	; 0x38
    56ae:	1812      	adds	r2, r2, r0
    56b0:	b2d2      	uxtb	r2, r2
E:\2017-2018\03_Graduation Project\04_Software\05_Wangshi\02_6220\06_UpdateSoftware-180714\01_UEBootloader\KL36_Bios-180714\Debug/../03_MCU/MCU_drivers/adc/adc.c:129

    cal_var = cal_var/2;
    cal_var |= 0x8000;   //Set MSB
    ADC0_PG = ADC_PG_PG(cal_var);
    56b2:	0852      	lsrs	r2, r2, #1
    56b4:	62da      	str	r2, [r3, #44]	; 0x2c
E:\2017-2018\03_Graduation Project\04_Software\05_Wangshi\02_6220\06_UpdateSoftware-180714\01_UEBootloader\KL36_Bios-180714\Debug/../03_MCU/MCU_drivers/adc/adc.c:133

    // 
    cal_var = 0x00;
    cal_var =  ADC0_CLM0;
    56b6:	6eda      	ldr	r2, [r3, #108]	; 0x6c
E:\2017-2018\03_Graduation Project\04_Software\05_Wangshi\02_6220\06_UpdateSoftware-180714\01_UEBootloader\KL36_Bios-180714\Debug/../03_MCU/MCU_drivers/adc/adc.c:134
    cal_var += ADC0_CLM1;
    56b8:	6e98      	ldr	r0, [r3, #104]	; 0x68
    56ba:	1812      	adds	r2, r2, r0
E:\2017-2018\03_Graduation Project\04_Software\05_Wangshi\02_6220\06_UpdateSoftware-180714\01_UEBootloader\KL36_Bios-180714\Debug/../03_MCU/MCU_drivers/adc/adc.c:135
    cal_var += ADC0_CLM2;
    56bc:	6e58      	ldr	r0, [r3, #100]	; 0x64
    56be:	1812      	adds	r2, r2, r0
E:\2017-2018\03_Graduation Project\04_Software\05_Wangshi\02_6220\06_UpdateSoftware-180714\01_UEBootloader\KL36_Bios-180714\Debug/../03_MCU/MCU_drivers/adc/adc.c:136
    cal_var += ADC0_CLM3;
    56c0:	6e18      	ldr	r0, [r3, #96]	; 0x60
    56c2:	1812      	adds	r2, r2, r0
E:\2017-2018\03_Graduation Project\04_Software\05_Wangshi\02_6220\06_UpdateSoftware-180714\01_UEBootloader\KL36_Bios-180714\Debug/../03_MCU/MCU_drivers/adc/adc.c:137
    cal_var += ADC0_CLM4;
    56c4:	6dd8      	ldr	r0, [r3, #92]	; 0x5c
    56c6:	1812      	adds	r2, r2, r0
E:\2017-2018\03_Graduation Project\04_Software\05_Wangshi\02_6220\06_UpdateSoftware-180714\01_UEBootloader\KL36_Bios-180714\Debug/../03_MCU/MCU_drivers/adc/adc.c:138
    cal_var += ADC0_CLMS;
    56c8:	6d98      	ldr	r0, [r3, #88]	; 0x58
    56ca:	1812      	adds	r2, r2, r0
    56cc:	b2d2      	uxtb	r2, r2
E:\2017-2018\03_Graduation Project\04_Software\05_Wangshi\02_6220\06_UpdateSoftware-180714\01_UEBootloader\KL36_Bios-180714\Debug/../03_MCU/MCU_drivers/adc/adc.c:142

    cal_var = cal_var/2;
    cal_var |= 0x8000; // Set MSB
    ADC0_MG = ADC_MG_MG(cal_var);
    56ce:	0852      	lsrs	r2, r2, #1
    56d0:	631a      	str	r2, [r3, #48]	; 0x30
E:\2017-2018\03_Graduation Project\04_Software\05_Wangshi\02_6220\06_UpdateSoftware-180714\01_UEBootloader\KL36_Bios-180714\Debug/../03_MCU/MCU_drivers/adc/adc.c:143
    ADC0_SC3 &= ~ADC_SC3_CAL_MASK ; //CAL
    56d2:	6a5a      	ldr	r2, [r3, #36]	; 0x24
    56d4:	438a      	bics	r2, r1
    56d6:	625a      	str	r2, [r3, #36]	; 0x24
E:\2017-2018\03_Graduation Project\04_Software\05_Wangshi\02_6220\06_UpdateSoftware-180714\01_UEBootloader\KL36_Bios-180714\Debug/../03_MCU/MCU_drivers/adc/adc.c:145
adc_cal_exit:
    __asm("NOP");
    56d8:	46c0      	nop			; (mov r8, r8)
E:\2017-2018\03_Graduation Project\04_Software\05_Wangshi\02_6220\06_UpdateSoftware-180714\01_UEBootloader\KL36_Bios-180714\Debug/../03_MCU/MCU_drivers/adc/adc.c:146
}
    56da:	4770      	bx	lr
    56dc:	4003b000 	.word	0x4003b000

000056e0 <adc_init>:
adc_init():
E:\2017-2018\03_Graduation Project\04_Software\05_Wangshi\02_6220\06_UpdateSoftware-180714\01_UEBootloader\KL36_Bios-180714\Debug/../03_MCU/MCU_drivers/adc/adc.c:23
{
    56e0:	b5f8      	push	{r3, r4, r5, r6, r7, lr}
E:\2017-2018\03_Graduation Project\04_Software\05_Wangshi\02_6220\06_UpdateSoftware-180714\01_UEBootloader\KL36_Bios-180714\Debug/../03_MCU/MCU_drivers/adc/adc.c:27
    SIM_SCGC6 |= SIM_SCGC6_ADC0_MASK;
    56e2:	2480      	movs	r4, #128	; 0x80
    56e4:	4e29      	ldr	r6, [pc, #164]	; (578c <adc_init+0xac>)
    56e6:	4d2a      	ldr	r5, [pc, #168]	; (5790 <adc_init+0xb0>)
    56e8:	0524      	lsls	r4, r4, #20
    56ea:	5977      	ldr	r7, [r6, r5]
    56ec:	433c      	orrs	r4, r7
    56ee:	5174      	str	r4, [r6, r5]
    56f0:	245d      	movs	r4, #93	; 0x5d
    56f2:	2a0d      	cmp	r2, #13
    56f4:	d807      	bhi.n	5706 <adc_init+0x26>
    56f6:	3c5c      	subs	r4, #92	; 0x5c
    56f8:	4094      	lsls	r4, r2
    56fa:	25c0      	movs	r5, #192	; 0xc0
    56fc:	0022      	movs	r2, r4
    56fe:	00ad      	lsls	r5, r5, #2
    5700:	2451      	movs	r4, #81	; 0x51
    5702:	422a      	tst	r2, r5
    5704:	d021      	beq.n	574a <adc_init+0x6a>
E:\2017-2018\03_Graduation Project\04_Software\05_Wangshi\02_6220\06_UpdateSoftware-180714\01_UEBootloader\KL36_Bios-180714\Debug/../03_MCU/MCU_drivers/adc/adc.c:51
    ADC0_CFG2&=~(ADC_CFG2_ADACKEN_MASK     //
    5706:	250f      	movs	r5, #15
E:\2017-2018\03_Graduation Project\04_Software\05_Wangshi\02_6220\06_UpdateSoftware-180714\01_UEBootloader\KL36_Bios-180714\Debug/../03_MCU/MCU_drivers/adc/adc.c:48
    ADC0_CFG1 = ADCCfg1;
    5708:	4a22      	ldr	r2, [pc, #136]	; (5794 <adc_init+0xb4>)
    570a:	6094      	str	r4, [r2, #8]
E:\2017-2018\03_Graduation Project\04_Software\05_Wangshi\02_6220\06_UpdateSoftware-180714\01_UEBootloader\KL36_Bios-180714\Debug/../03_MCU/MCU_drivers/adc/adc.c:51
    ADC0_CFG2&=~(ADC_CFG2_ADACKEN_MASK     //
    570c:	68d4      	ldr	r4, [r2, #12]
    570e:	43ac      	bics	r4, r5
    5710:	60d4      	str	r4, [r2, #12]
E:\2017-2018\03_Graduation Project\04_Software\05_Wangshi\02_6220\06_UpdateSoftware-180714\01_UEBootloader\KL36_Bios-180714\Debug/../03_MCU/MCU_drivers/adc/adc.c:55
    (chnGroup==MUXSEL_B)?(ADC0_CFG2 |=(ADC_CFG2_MUXSEL(1))):(ADC0_CFG2 &=~(ADC_CFG2_MUXSEL(1)));
    5712:	2801      	cmp	r0, #1
    5714:	d02f      	beq.n	5776 <adc_init+0x96>
E:\2017-2018\03_Graduation Project\04_Software\05_Wangshi\02_6220\06_UpdateSoftware-180714\01_UEBootloader\KL36_Bios-180714\Debug/../03_MCU/MCU_drivers/adc/adc.c:55 (discriminator 2)
    5716:	2410      	movs	r4, #16
    5718:	68d0      	ldr	r0, [r2, #12]
    571a:	43a0      	bics	r0, r4
    571c:	60d0      	str	r0, [r2, #12]
E:\2017-2018\03_Graduation Project\04_Software\05_Wangshi\02_6220\06_UpdateSoftware-180714\01_UEBootloader\KL36_Bios-180714\Debug/../03_MCU/MCU_drivers/adc/adc.c:57
    ADC0_SC2 = 0;
    571e:	2200      	movs	r2, #0
E:\2017-2018\03_Graduation Project\04_Software\05_Wangshi\02_6220\06_UpdateSoftware-180714\01_UEBootloader\KL36_Bios-180714\Debug/../03_MCU/MCU_drivers/adc/adc.c:59
    ADC0_SC3 |= (ADC_SC3_ADCO_MASK | ADC_SC3_AVGE_MASK | ADC_SC3_AVGS((uint_8)HDAve));
    5720:	240c      	movs	r4, #12
E:\2017-2018\03_Graduation Project\04_Software\05_Wangshi\02_6220\06_UpdateSoftware-180714\01_UEBootloader\KL36_Bios-180714\Debug/../03_MCU/MCU_drivers/adc/adc.c:57
    ADC0_SC2 = 0;
    5722:	481c      	ldr	r0, [pc, #112]	; (5794 <adc_init+0xb4>)
    5724:	6202      	str	r2, [r0, #32]
E:\2017-2018\03_Graduation Project\04_Software\05_Wangshi\02_6220\06_UpdateSoftware-180714\01_UEBootloader\KL36_Bios-180714\Debug/../03_MCU/MCU_drivers/adc/adc.c:59
    ADC0_SC3 |= (ADC_SC3_ADCO_MASK | ADC_SC3_AVGE_MASK | ADC_SC3_AVGS((uint_8)HDAve));
    5726:	6a42      	ldr	r2, [r0, #36]	; 0x24
    5728:	4322      	orrs	r2, r4
    572a:	3c09      	subs	r4, #9
    572c:	4023      	ands	r3, r4
    572e:	4313      	orrs	r3, r2
    5730:	6243      	str	r3, [r0, #36]	; 0x24
E:\2017-2018\03_Graduation Project\04_Software\05_Wangshi\02_6220\06_UpdateSoftware-180714\01_UEBootloader\KL36_Bios-180714\Debug/../03_MCU/MCU_drivers/adc/adc.c:64
        ADC0_SC1A |= (ADC_SC1_DIFF_MASK);
    5732:	6803      	ldr	r3, [r0, #0]
    5734:	2220      	movs	r2, #32
E:\2017-2018\03_Graduation Project\04_Software\05_Wangshi\02_6220\06_UpdateSoftware-180714\01_UEBootloader\KL36_Bios-180714\Debug/../03_MCU/MCU_drivers/adc/adc.c:62
    if (AD_DIFF == diff)     //
    5736:	2901      	cmp	r1, #1
    5738:	d022      	beq.n	5780 <adc_init+0xa0>
E:\2017-2018\03_Graduation Project\04_Software\05_Wangshi\02_6220\06_UpdateSoftware-180714\01_UEBootloader\KL36_Bios-180714\Debug/../03_MCU/MCU_drivers/adc/adc.c:69
        ADC0_SC1A &= ~(ADC_SC1_DIFF_MASK );
    573a:	4393      	bics	r3, r2
    573c:	6003      	str	r3, [r0, #0]
E:\2017-2018\03_Graduation Project\04_Software\05_Wangshi\02_6220\06_UpdateSoftware-180714\01_UEBootloader\KL36_Bios-180714\Debug/../03_MCU/MCU_drivers/adc/adc.c:72
    ADC0_SC1A &= ~(ADC_SC1_AIEN_MASK);
    573e:	2140      	movs	r1, #64	; 0x40
    5740:	4a14      	ldr	r2, [pc, #80]	; (5794 <adc_init+0xb4>)
    5742:	6813      	ldr	r3, [r2, #0]
    5744:	438b      	bics	r3, r1
    5746:	6013      	str	r3, [r2, #0]
E:\2017-2018\03_Graduation Project\04_Software\05_Wangshi\02_6220\06_UpdateSoftware-180714\01_UEBootloader\KL36_Bios-180714\Debug/../03_MCU/MCU_drivers/adc/adc.c:73
}
    5748:	bdf8      	pop	{r3, r4, r5, r6, r7, pc}
    574a:	25c0      	movs	r5, #192	; 0xc0
    574c:	012d      	lsls	r5, r5, #4
E:\2017-2018\03_Graduation Project\04_Software\05_Wangshi\02_6220\06_UpdateSoftware-180714\01_UEBootloader\KL36_Bios-180714\Debug/../03_MCU/MCU_drivers/adc/adc.c:27
    SIM_SCGC6 |= SIM_SCGC6_ADC0_MASK;
    574e:	3408      	adds	r4, #8
    5750:	422a      	tst	r2, r5
    5752:	d1d8      	bne.n	5706 <adc_init+0x26>
    5754:	24c0      	movs	r4, #192	; 0xc0
    5756:	01a4      	lsls	r4, r4, #6
    5758:	4022      	ands	r2, r4
    575a:	4254      	negs	r4, r2
    575c:	4162      	adcs	r2, r4
    575e:	2408      	movs	r4, #8
E:\2017-2018\03_Graduation Project\04_Software\05_Wangshi\02_6220\06_UpdateSoftware-180714\01_UEBootloader\KL36_Bios-180714\Debug/../03_MCU/MCU_drivers/adc/adc.c:51
    ADC0_CFG2&=~(ADC_CFG2_ADACKEN_MASK     //
    5760:	250f      	movs	r5, #15
E:\2017-2018\03_Graduation Project\04_Software\05_Wangshi\02_6220\06_UpdateSoftware-180714\01_UEBootloader\KL36_Bios-180714\Debug/../03_MCU/MCU_drivers/adc/adc.c:27
    SIM_SCGC6 |= SIM_SCGC6_ADC0_MASK;
    5762:	4252      	negs	r2, r2
    5764:	4014      	ands	r4, r2
E:\2017-2018\03_Graduation Project\04_Software\05_Wangshi\02_6220\06_UpdateSoftware-180714\01_UEBootloader\KL36_Bios-180714\Debug/../03_MCU/MCU_drivers/adc/adc.c:48
    ADC0_CFG1 = ADCCfg1;
    5766:	4a0b      	ldr	r2, [pc, #44]	; (5794 <adc_init+0xb4>)
E:\2017-2018\03_Graduation Project\04_Software\05_Wangshi\02_6220\06_UpdateSoftware-180714\01_UEBootloader\KL36_Bios-180714\Debug/../03_MCU/MCU_drivers/adc/adc.c:27
    SIM_SCGC6 |= SIM_SCGC6_ADC0_MASK;
    5768:	3455      	adds	r4, #85	; 0x55
E:\2017-2018\03_Graduation Project\04_Software\05_Wangshi\02_6220\06_UpdateSoftware-180714\01_UEBootloader\KL36_Bios-180714\Debug/../03_MCU/MCU_drivers/adc/adc.c:48
    ADC0_CFG1 = ADCCfg1;
    576a:	6094      	str	r4, [r2, #8]
E:\2017-2018\03_Graduation Project\04_Software\05_Wangshi\02_6220\06_UpdateSoftware-180714\01_UEBootloader\KL36_Bios-180714\Debug/../03_MCU/MCU_drivers/adc/adc.c:51
    ADC0_CFG2&=~(ADC_CFG2_ADACKEN_MASK     //
    576c:	68d4      	ldr	r4, [r2, #12]
    576e:	43ac      	bics	r4, r5
    5770:	60d4      	str	r4, [r2, #12]
E:\2017-2018\03_Graduation Project\04_Software\05_Wangshi\02_6220\06_UpdateSoftware-180714\01_UEBootloader\KL36_Bios-180714\Debug/../03_MCU/MCU_drivers/adc/adc.c:55
    (chnGroup==MUXSEL_B)?(ADC0_CFG2 |=(ADC_CFG2_MUXSEL(1))):(ADC0_CFG2 &=~(ADC_CFG2_MUXSEL(1)));
    5772:	2801      	cmp	r0, #1
    5774:	d1cf      	bne.n	5716 <adc_init+0x36>
E:\2017-2018\03_Graduation Project\04_Software\05_Wangshi\02_6220\06_UpdateSoftware-180714\01_UEBootloader\KL36_Bios-180714\Debug/../03_MCU/MCU_drivers/adc/adc.c:55 (discriminator 1)
    5776:	2410      	movs	r4, #16
    5778:	68d0      	ldr	r0, [r2, #12]
    577a:	4320      	orrs	r0, r4
    577c:	60d0      	str	r0, [r2, #12]
    577e:	e7ce      	b.n	571e <adc_init+0x3e>
E:\2017-2018\03_Graduation Project\04_Software\05_Wangshi\02_6220\06_UpdateSoftware-180714\01_UEBootloader\KL36_Bios-180714\Debug/../03_MCU/MCU_drivers/adc/adc.c:64
        ADC0_SC1A |= (ADC_SC1_DIFF_MASK);
    5780:	4313      	orrs	r3, r2
    5782:	6003      	str	r3, [r0, #0]
E:\2017-2018\03_Graduation Project\04_Software\05_Wangshi\02_6220\06_UpdateSoftware-180714\01_UEBootloader\KL36_Bios-180714\Debug/../03_MCU/MCU_drivers/adc/adc.c:65
        adc_cal();    //
    5784:	f7ff ff72 	bl	566c <adc_cal>
    5788:	e7d9      	b.n	573e <adc_init+0x5e>
    578a:	46c0      	nop			; (mov r8, r8)
    578c:	40047000 	.word	0x40047000
    5790:	0000103c 	.word	0x0000103c
    5794:	4003b000 	.word	0x4003b000

00005798 <exit>:
exit():
    5798:	4b08      	ldr	r3, [pc, #32]	; (57bc <exit+0x24>)
    579a:	b510      	push	{r4, lr}
    579c:	0004      	movs	r4, r0
    579e:	2b00      	cmp	r3, #0
    57a0:	d002      	beq.n	57a8 <exit+0x10>
    57a2:	2100      	movs	r1, #0
    57a4:	e000      	b.n	57a8 <exit+0x10>
    57a6:	bf00      	nop
    57a8:	4b05      	ldr	r3, [pc, #20]	; (57c0 <exit+0x28>)
    57aa:	6818      	ldr	r0, [r3, #0]
    57ac:	6a83      	ldr	r3, [r0, #40]	; 0x28
    57ae:	2b00      	cmp	r3, #0
    57b0:	d000      	beq.n	57b4 <exit+0x1c>
    57b2:	4798      	blx	r3
    57b4:	0020      	movs	r0, r4
    57b6:	f000 f88f 	bl	58d8 <_exit>
    57ba:	46c0      	nop			; (mov r8, r8)
    57bc:	00000000 	.word	0x00000000
    57c0:	00005d18 	.word	0x00005d18

000057c4 <__libc_init_array>:
__libc_init_array():
    57c4:	b570      	push	{r4, r5, r6, lr}
    57c6:	2600      	movs	r6, #0
    57c8:	4d0c      	ldr	r5, [pc, #48]	; (57fc <__libc_init_array+0x38>)
    57ca:	4c0d      	ldr	r4, [pc, #52]	; (5800 <__libc_init_array+0x3c>)
    57cc:	1b64      	subs	r4, r4, r5
    57ce:	10a4      	asrs	r4, r4, #2
    57d0:	42a6      	cmp	r6, r4
    57d2:	d109      	bne.n	57e8 <__libc_init_array+0x24>
    57d4:	2600      	movs	r6, #0
    57d6:	f000 faa1 	bl	5d1c <_init>
    57da:	4d0a      	ldr	r5, [pc, #40]	; (5804 <__libc_init_array+0x40>)
    57dc:	4c0a      	ldr	r4, [pc, #40]	; (5808 <__libc_init_array+0x44>)
    57de:	1b64      	subs	r4, r4, r5
    57e0:	10a4      	asrs	r4, r4, #2
    57e2:	42a6      	cmp	r6, r4
    57e4:	d105      	bne.n	57f2 <__libc_init_array+0x2e>
    57e6:	bd70      	pop	{r4, r5, r6, pc}
    57e8:	00b3      	lsls	r3, r6, #2
    57ea:	58eb      	ldr	r3, [r5, r3]
    57ec:	4798      	blx	r3
    57ee:	3601      	adds	r6, #1
    57f0:	e7ee      	b.n	57d0 <__libc_init_array+0xc>
    57f2:	00b3      	lsls	r3, r6, #2
    57f4:	58eb      	ldr	r3, [r5, r3]
    57f6:	4798      	blx	r3
    57f8:	3601      	adds	r6, #1
    57fa:	e7f2      	b.n	57e2 <__libc_init_array+0x1e>
    57fc:	00005d3c 	.word	0x00005d3c
    5800:	00005d3c 	.word	0x00005d3c
    5804:	00005d3c 	.word	0x00005d3c
    5808:	00005d40 	.word	0x00005d40

0000580c <memcpy>:
memcpy():
    580c:	2300      	movs	r3, #0
    580e:	b510      	push	{r4, lr}
    5810:	429a      	cmp	r2, r3
    5812:	d100      	bne.n	5816 <memcpy+0xa>
    5814:	bd10      	pop	{r4, pc}
    5816:	5ccc      	ldrb	r4, [r1, r3]
    5818:	54c4      	strb	r4, [r0, r3]
    581a:	3301      	adds	r3, #1
    581c:	e7f8      	b.n	5810 <memcpy+0x4>

0000581e <memset>:
memset():
    581e:	0003      	movs	r3, r0
    5820:	1812      	adds	r2, r2, r0
    5822:	4293      	cmp	r3, r2
    5824:	d100      	bne.n	5828 <memset+0xa>
    5826:	4770      	bx	lr
    5828:	7019      	strb	r1, [r3, #0]
    582a:	3301      	adds	r3, #1
    582c:	e7f9      	b.n	5822 <memset+0x4>

0000582e <strcat>:
strcat():
    582e:	0002      	movs	r2, r0
    5830:	b510      	push	{r4, lr}
    5832:	7813      	ldrb	r3, [r2, #0]
    5834:	1c54      	adds	r4, r2, #1
    5836:	2b00      	cmp	r3, #0
    5838:	d105      	bne.n	5846 <strcat+0x18>
    583a:	5ccc      	ldrb	r4, [r1, r3]
    583c:	54d4      	strb	r4, [r2, r3]
    583e:	3301      	adds	r3, #1
    5840:	2c00      	cmp	r4, #0
    5842:	d1fa      	bne.n	583a <strcat+0xc>
    5844:	bd10      	pop	{r4, pc}
    5846:	0022      	movs	r2, r4
    5848:	e7f3      	b.n	5832 <strcat+0x4>

0000584a <strcpy>:
strcpy():
    584a:	0003      	movs	r3, r0
    584c:	780a      	ldrb	r2, [r1, #0]
    584e:	3101      	adds	r1, #1
    5850:	701a      	strb	r2, [r3, #0]
    5852:	3301      	adds	r3, #1
    5854:	2a00      	cmp	r2, #0
    5856:	d1f9      	bne.n	584c <strcpy+0x2>
    5858:	4770      	bx	lr

0000585a <strncmp>:
strncmp():
    585a:	2300      	movs	r3, #0
    585c:	b530      	push	{r4, r5, lr}
    585e:	429a      	cmp	r2, r3
    5860:	d00a      	beq.n	5878 <strncmp+0x1e>
    5862:	3a01      	subs	r2, #1
    5864:	5cc4      	ldrb	r4, [r0, r3]
    5866:	5ccd      	ldrb	r5, [r1, r3]
    5868:	42ac      	cmp	r4, r5
    586a:	d104      	bne.n	5876 <strncmp+0x1c>
    586c:	4293      	cmp	r3, r2
    586e:	d002      	beq.n	5876 <strncmp+0x1c>
    5870:	3301      	adds	r3, #1
    5872:	2c00      	cmp	r4, #0
    5874:	d1f6      	bne.n	5864 <strncmp+0xa>
    5876:	1b63      	subs	r3, r4, r5
    5878:	0018      	movs	r0, r3
    587a:	bd30      	pop	{r4, r5, pc}

0000587c <strncpy>:
strncpy():
    587c:	b530      	push	{r4, r5, lr}
    587e:	0005      	movs	r5, r0
    5880:	2a00      	cmp	r2, #0
    5882:	d100      	bne.n	5886 <strncpy+0xa>
    5884:	bd30      	pop	{r4, r5, pc}
    5886:	780c      	ldrb	r4, [r1, #0]
    5888:	3a01      	subs	r2, #1
    588a:	1c6b      	adds	r3, r5, #1
    588c:	702c      	strb	r4, [r5, #0]
    588e:	3101      	adds	r1, #1
    5890:	2c00      	cmp	r4, #0
    5892:	d105      	bne.n	58a0 <strncpy+0x24>
    5894:	189a      	adds	r2, r3, r2
    5896:	429a      	cmp	r2, r3
    5898:	d0f4      	beq.n	5884 <strncpy+0x8>
    589a:	701c      	strb	r4, [r3, #0]
    589c:	3301      	adds	r3, #1
    589e:	e7fa      	b.n	5896 <strncpy+0x1a>
    58a0:	001d      	movs	r5, r3
    58a2:	e7ed      	b.n	5880 <strncpy+0x4>

000058a4 <strstr>:
strstr():
    58a4:	b510      	push	{r4, lr}
    58a6:	7803      	ldrb	r3, [r0, #0]
    58a8:	2b00      	cmp	r3, #0
    58aa:	d10f      	bne.n	58cc <strstr+0x28>
    58ac:	780b      	ldrb	r3, [r1, #0]
    58ae:	425a      	negs	r2, r3
    58b0:	4153      	adcs	r3, r2
    58b2:	425b      	negs	r3, r3
    58b4:	4018      	ands	r0, r3
    58b6:	bd10      	pop	{r4, pc}
    58b8:	2300      	movs	r3, #0
    58ba:	5cca      	ldrb	r2, [r1, r3]
    58bc:	2a00      	cmp	r2, #0
    58be:	d0fa      	beq.n	58b6 <strstr+0x12>
    58c0:	5cc4      	ldrb	r4, [r0, r3]
    58c2:	4294      	cmp	r4, r2
    58c4:	d101      	bne.n	58ca <strstr+0x26>
    58c6:	3301      	adds	r3, #1
    58c8:	e7f7      	b.n	58ba <strstr+0x16>
    58ca:	3001      	adds	r0, #1
    58cc:	7803      	ldrb	r3, [r0, #0]
    58ce:	2b00      	cmp	r3, #0
    58d0:	d1f2      	bne.n	58b8 <strstr+0x14>
    58d2:	0018      	movs	r0, r3
    58d4:	e7ef      	b.n	58b6 <strstr+0x12>
	...

000058d8 <_exit>:
_exit():
    58d8:	e7fe      	b.n	58d8 <_exit>
    58da:	46c0      	nop			; (mov r8, r8)
    58dc:	61647075 	.word	0x61647075
    58e0:	00006574 	.word	0x00006574
	...
    58f0:	0000001f 	.word	0x0000001f
    58f4:	00000000 	.word	0x00000000
    58f8:	0000003b 	.word	0x0000003b
    58fc:	00000000 	.word	0x00000000
    5900:	0000005a 	.word	0x0000005a
    5904:	00000000 	.word	0x00000000
    5908:	00000078 	.word	0x00000078
    590c:	00000000 	.word	0x00000000
    5910:	00000097 	.word	0x00000097
    5914:	00000000 	.word	0x00000000
    5918:	000000b5 	.word	0x000000b5
    591c:	00000000 	.word	0x00000000
    5920:	000000d4 	.word	0x000000d4
    5924:	00000000 	.word	0x00000000
    5928:	000000f3 	.word	0x000000f3
    592c:	00000000 	.word	0x00000000
    5930:	00000111 	.word	0x00000111
    5934:	00000000 	.word	0x00000000
    5938:	00000130 	.word	0x00000130
    593c:	00000000 	.word	0x00000000
    5940:	0000014e 	.word	0x0000014e
    5944:	00000000 	.word	0x00000000
    5948:	0000016d 	.word	0x0000016d
    594c:	00000000 	.word	0x00000000
    5950:	482b5441 	.word	0x482b5441
    5954:	50505454 	.word	0x50505454
    5958:	3d415241 	.word	0x3d415241
    595c:	4c525522 	.word	0x4c525522
    5960:	00222c22 	.word	0x00222c22
	...
    5b44:	000012fc 	.word	0x000012fc
    5b48:	0000116e 	.word	0x0000116e
    5b4c:	000011b2 	.word	0x000011b2
    5b50:	00001116 	.word	0x00001116
    5b54:	000011b2 	.word	0x000011b2
    5b58:	000012a2 	.word	0x000012a2
    5b5c:	000011b2 	.word	0x000011b2
    5b60:	00001116 	.word	0x00001116
    5b64:	0000116e 	.word	0x0000116e
    5b68:	0000116e 	.word	0x0000116e
    5b6c:	000012a2 	.word	0x000012a2
    5b70:	00001116 	.word	0x00001116
    5b74:	0000110e 	.word	0x0000110e
    5b78:	0000110e 	.word	0x0000110e
    5b7c:	0000110e 	.word	0x0000110e
    5b80:	000012b0 	.word	0x000012b0
    5b84:	00001814 	.word	0x00001814
    5b88:	00001716 	.word	0x00001716
    5b8c:	00001716 	.word	0x00001716
    5b90:	00001a34 	.word	0x00001a34
    5b94:	00001710 	.word	0x00001710
    5b98:	00001710 	.word	0x00001710
    5b9c:	00001a1c 	.word	0x00001a1c
    5ba0:	00001a34 	.word	0x00001a34
    5ba4:	00001710 	.word	0x00001710
    5ba8:	00001a1c 	.word	0x00001a1c
    5bac:	00001710 	.word	0x00001710
    5bb0:	00001a34 	.word	0x00001a34
    5bb4:	00001a2a 	.word	0x00001a2a
    5bb8:	00001a2a 	.word	0x00001a2a
    5bbc:	00001a2a 	.word	0x00001a2a
    5bc0:	00001a38 	.word	0x00001a38
    5bc4:	68616b65 	.word	0x68616b65
    5bc8:	00000073 	.word	0x00000073
    5bcc:	6b616873 	.word	0x6b616873
    5bd0:	45473a65 	.word	0x45473a65
    5bd4:	32362d43 	.word	0x32362d43
    5bd8:	00003032 	.word	0x00003032
    5bdc:	64617465 	.word	0x64617465
    5be0:	00007570 	.word	0x00007570
    5be4:	72617453 	.word	0x72617453
    5be8:	70552074 	.word	0x70552074
    5bec:	65746164 	.word	0x65746164
    5bf0:	00000000 	.word	0x00000000
    5bf4:	61647075 	.word	0x61647075
    5bf8:	00006574 	.word	0x00006574
    5bfc:	00004208 	.word	0x00004208
    5c00:	00004212 	.word	0x00004212
    5c04:	0000421c 	.word	0x0000421c
    5c08:	00004226 	.word	0x00004226
    5c0c:	00004230 	.word	0x00004230
    5c10:	0000423a 	.word	0x0000423a
    5c14:	00004244 	.word	0x00004244
    5c18:	0000424e 	.word	0x0000424e
    5c1c:	000040f2 	.word	0x000040f2
    5c20:	00004112 	.word	0x00004112
    5c24:	0000412a 	.word	0x0000412a
    5c28:	5153432b 	.word	0x5153432b
    5c2c:	0000203a 	.word	0x0000203a
    5c30:	4543432b 	.word	0x4543432b
    5c34:	00003a44 	.word	0x00003a44
    5c38:	30303032 	.word	0x30303032
    5c3c:	31303130 	.word	0x31303130
    5c40:	30303030 	.word	0x30303030
    5c44:	00003030 	.word	0x00003030
    5c48:	5350472b 	.word	0x5350472b
    5c4c:	3a434d52 	.word	0x3a434d52
    5c50:	00000000 	.word	0x00000000
    5c54:	00002c45 	.word	0x00002c45
    5c58:	00002c57 	.word	0x00002c57
    5c5c:	000a0d22 	.word	0x000a0d22
    5c60:	5454482b 	.word	0x5454482b
    5c64:	41455250 	.word	0x41455250
    5c68:	00003a44 	.word	0x00003a44
    5c6c:	5347432b 	.word	0x5347432b
    5c70:	00203a4e 	.word	0x00203a4e
    5c74:	432b5441 	.word	0x432b5441
    5c78:	54535049 	.word	0x54535049
    5c7c:	3d545241 	.word	0x3d545241
    5c80:	50435422 	.word	0x50435422
    5c84:	00222c22 	.word	0x00222c22
    5c88:	00002c22 	.word	0x00002c22
    5c8c:	00000a0d 	.word	0x00000a0d
    5c90:	432b5441 	.word	0x432b5441
    5c94:	45535049 	.word	0x45535049
    5c98:	003d444e 	.word	0x003d444e
    5c9c:	444e4553 	.word	0x444e4553
    5ca0:	00000000 	.word	0x00000000
    5ca4:	432b5441 	.word	0x432b5441
    5ca8:	54535049 	.word	0x54535049
    5cac:	00545241 	.word	0x00545241
    5cb0:	4e4e4f43 	.word	0x4e4e4f43
    5cb4:	20544345 	.word	0x20544345
    5cb8:	00004b4f 	.word	0x00004b4f
    5cbc:	74696177 	.word	0x74696177
    5cc0:	00000000 	.word	0x00000000

00005cc4 <UART_ARR>:
    5cc4:	4006b000 4006c000 0000480e 00004808     ...@...@.H...H..
    5cd4:	00004868 00004870 00004878 00004860     hH..pH..xH..`H..

00005ce4 <I2C_BASE_TABLE>:
    5ce4:	40066000 40067000                       .`.@.p.@

00005cec <I2C_IRQ_TABLE>:
    5cec:	00000908                                ....

00005cf0 <GPIO_ARR>:
    5cf0:	400ff000 400ff040 400ff080 400ff0c0     ...@@..@...@...@
    5d00:	400ff100                                ...@

00005d04 <PORT_ARR>:
    5d04:	40049000 4004a000 4004b000 4004c000     ...@...@...@...@
    5d14:	4004d000                                ...@

00005d18 <_global_impure_ptr>:
    5d18:	1ffff930                                0...

00005d1c <_init>:
_init():
    5d1c:	b5f8      	push	{r3, r4, r5, r6, r7, lr}
    5d1e:	46c0      	nop			; (mov r8, r8)
    5d20:	bcf8      	pop	{r3, r4, r5, r6, r7}
    5d22:	bc08      	pop	{r3}
    5d24:	469e      	mov	lr, r3
    5d26:	4770      	bx	lr

00005d28 <_fini>:
_fini():
    5d28:	b5f8      	push	{r3, r4, r5, r6, r7, lr}
    5d2a:	46c0      	nop			; (mov r8, r8)
    5d2c:	bcf8      	pop	{r3, r4, r5, r6, r7}
    5d2e:	bc08      	pop	{r3}
    5d30:	469e      	mov	lr, r3
    5d32:	4770      	bx	lr
