
KL36_Bootloader.elf:     file format elf32-littlearm
KL36_Bootloader.elf
architecture: arm, flags 0x00000112:
EXEC_P, HAS_SYMS, D_PAGED
start address 0x000004d1

Program Header:
    LOAD off    0x00010000 vaddr 0x00000000 paddr 0x00000000 align 2**16
         filesz 0x000000c0 memsz 0x000000c0 flags r--
    LOAD off    0x00010400 vaddr 0x00000400 paddr 0x00000400 align 2**16
         filesz 0x00000010 memsz 0x00000010 flags r--
    LOAD off    0x00010410 vaddr 0x00000410 paddr 0x00000410 align 2**16
         filesz 0x000028d4 memsz 0x000028d4 flags rwx
    LOAD off    0x0001f800 vaddr 0x1ffff800 paddr 0x00002ce4 align 2**16
         filesz 0x00000068 memsz 0x00000068 flags rw-
    LOAD off    0x0001f868 vaddr 0x1ffff868 paddr 0x00002d50 align 2**16
         filesz 0x00000000 memsz 0x000005a8 flags rw-
private flags = 5000200: [Version5 EABI] [soft-float ABI]

Sections:
Idx Name            Size      VMA       LMA       File off  Algn  Flags
  0 .interrupts     000000c0  00000000  00000000  00010000  2**2  CONTENTS, ALLOC, LOAD, READONLY, DATA
  1 .flash_config   00000010  00000400  00000400  00010400  2**0  CONTENTS, ALLOC, LOAD, READONLY, DATA
  2 .text           000028c4  00000410  00000410  00010410  2**2  CONTENTS, ALLOC, LOAD, READONLY, CODE
  3 .ARM            00000008  00002cd4  00002cd4  00012cd4  2**2  CONTENTS, ALLOC, LOAD, READONLY, DATA
  4 .init_array     00000004  00002cdc  00002cdc  00012cdc  2**2  CONTENTS, ALLOC, LOAD, DATA
  5 .fini_array     00000004  00002ce0  00002ce0  00012ce0  2**2  CONTENTS, ALLOC, LOAD, DATA
  6 .mtb            00000000  1ffff800  1ffff800  0001f868  2**0  CONTENTS
  7 .data           00000068  1ffff800  00002ce4  0001f800  2**2  CONTENTS, ALLOC, LOAD, DATA
  8 .bss            000004a8  1ffff868  00002d50  0001f868  2**3  ALLOC
  9 .heap           00000000  1ffffd10  1ffffd10  0001f868  2**0  CONTENTS
 10 .stack          00000100  1ffffd10  000031f8  0001f868  2**0  ALLOC
 11 .ARM.attributes 00000028  00000000  00000000  0001f868  2**0  CONTENTS, READONLY
 12 .debug_info     0000567f  00000000  00000000  0001f890  2**0  CONTENTS, READONLY, DEBUGGING
 13 .debug_abbrev   00001480  00000000  00000000  00024f0f  2**0  CONTENTS, READONLY, DEBUGGING
 14 .debug_aranges  00000370  00000000  00000000  00026390  2**3  CONTENTS, READONLY, DEBUGGING
 15 .debug_ranges   000002a0  00000000  00000000  00026700  2**0  CONTENTS, READONLY, DEBUGGING
 16 .debug_macro    0000ed95  00000000  00000000  000269a0  2**0  CONTENTS, READONLY, DEBUGGING
 17 .debug_line     0000442a  00000000  00000000  00035735  2**0  CONTENTS, READONLY, DEBUGGING
 18 .debug_str      0004ea4f  00000000  00000000  00039b5f  2**0  CONTENTS, READONLY, DEBUGGING
 19 .comment        0000007e  00000000  00000000  000885ae  2**0  CONTENTS, READONLY
 20 .debug_frame    00000b18  00000000  00000000  0008862c  2**2  CONTENTS, READONLY, DEBUGGING
SYMBOL TABLE:
00000000 l    d  .interrupts	00000000 .interrupts
00000400 l    d  .flash_config	00000000 .flash_config
00000410 l    d  .text	00000000 .text
00002cd4 l    d  .ARM	00000000 .ARM
00002cdc l    d  .init_array	00000000 .init_array
00002ce0 l    d  .fini_array	00000000 .fini_array
1ffff800 l    d  .mtb	00000000 .mtb
1ffff800 l    d  .data	00000000 .data
1ffff868 l    d  .bss	00000000 .bss
1ffffd10 l    d  .heap	00000000 .heap
1ffffd10 l    d  .stack	00000000 .stack
00000000 l    d  .ARM.attributes	00000000 .ARM.attributes
00000000 l    d  .debug_info	00000000 .debug_info
00000000 l    d  .debug_abbrev	00000000 .debug_abbrev
00000000 l    d  .debug_aranges	00000000 .debug_aranges
00000000 l    d  .debug_ranges	00000000 .debug_ranges
00000000 l    d  .debug_macro	00000000 .debug_macro
00000000 l    d  .debug_line	00000000 .debug_line
00000000 l    d  .debug_str	00000000 .debug_str
00000000 l    d  .comment	00000000 .comment
00000000 l    d  .debug_frame	00000000 .debug_frame
00000000 l    df *ABS*	00000000 ./03_MCU/startup/startup_MKL36Z4.o
00000000 l    df *ABS*	00000000 crtstuff.c
00002cbc l     O .text	00000000 __EH_FRAME_BEGIN__
00000410 l     F .text	00000000 __do_global_dtors_aux
1ffff868 l       .bss	00000001 completed.8654
00002ce0 l     O .fini_array	00000000 __do_global_dtors_aux_fini_array_entry
00000438 l     F .text	00000000 frame_dummy
1ffff86c l       .bss	00000018 object.8659
00002cdc l     O .init_array	00000000 __frame_dummy_init_array_entry
00000000 l    df *ABS*	00000000 c:/program files (x86)/gnu tools arm embedded/7 2017-q4-major/bin/../lib/gcc/arm-none-eabi/7.2.1/../../../../arm-none-eabi/lib/thumb/v6-m/crt0.o
00000000 l    df *ABS*	00000000 _udivsi3.o
0000051c l       .text	00000000 .udivsi3_skip_div0_test
00000000 l    df *ABS*	00000000 _dvmd_tls.o
00000000 l    df *ABS*	00000000 lib_a-strcmp.o
00000000 l    df *ABS*	00000000 isr.c
00000648 l     F .text	00000020 NVIC_SystemReset
1ffff884 l     O .bss	00000007 buf.5175
1ffff88c l     O .bss	00000002 dataLen.5184
1ffff88e l     O .bss	00000002 frameLen.5185
00000000 l    df *ABS*	00000000 main.c
00000000 l    df *ABS*	00000000 common.c
00000000 l    df *ABS*	00000000 ueupdate.c
00000000 l    df *ABS*	00000000 light.c
00000000 l    df *ABS*	00000000 bootloader.c
00000000 l    df *ABS*	00000000 system_MKL36Z4.c
00000000 l    df *ABS*	00000000 uart.c
000017cc l     F .text	0000002c NVIC_EnableIRQ
000017f8 l     F .text	00000030 NVIC_DisableIRQ
00000000 l    df *ABS*	00000000 systick.c
00002050 l     F .text	000000dc NVIC_SetPriority
00000000 l    df *ABS*	00000000 gpio.c
000021f4 l     F .text	0000002c NVIC_EnableIRQ
00002220 l     F .text	00000030 NVIC_DisableIRQ
00000000 l    df *ABS*	00000000 flash.c
00002b54 l     F .text	00000040 flash_cmd_launch
00000000 l    df *ABS*	00000000 exit.c
00000000 l    df *ABS*	00000000 init.c
00000000 l    df *ABS*	00000000 memcpy-stub.c
00000000 l    df *ABS*	00000000 memset.c
00000000 l    df *ABS*	00000000 strncmp.c
00000000 l    df *ABS*	00000000 _exit.c
00000000 l    df *ABS*	00000000 impure.c
1ffff808 l     O .data	00000060 impure_data
00000000 l    df *ABS*	00000000 c:/program files (x86)/gnu tools arm embedded/7 2017-q4-major/bin/../lib/gcc/arm-none-eabi/7.2.1/thumb/v6-m/crti.o
00000000 l    df *ABS*	00000000 c:/program files (x86)/gnu tools arm embedded/7 2017-q4-major/bin/../lib/gcc/arm-none-eabi/7.2.1/thumb/v6-m/crtn.o
00000000 l    df *ABS*	00000000 
00002ce0 l       .init_array	00000000 __init_array_end
00002cdc l       .init_array	00000000 __preinit_array_end
00002cdc l       .init_array	00000000 __init_array_start
00002cdc l       .init_array	00000000 __preinit_array_start
000028ac g     F .text	000000d0 flash_write
1ffffd10 g       .heap	00000000 __HeapBase
00002638 g     F .text	00000050 gpio_get_int
000029c4 g     F .text	00000028 flash_read_physical
00002720 g     F .text	00000088 gpio_drive_strength
1ffff800 g       .data	00000000 __data_start__
00000100 g       *ABS*	00000000 STACK_SIZE
00000514  w    F .text	00000004 I2C0_IRQHandler
00000514  w    F .text	00000004 HardFault_Handler
00000668 g     F .text	00000024 SysTick_Handler
000015ee g     F .text	0000002a light_init
00000514  w    F .text	00000004 PendSV_Handler
00000514  w    F .text	00000004 NMI_Handler
00002cdc g       .ARM	00000000 __exidx_end
00000514  w    F .text	00000004 PORTC_PORTD_IRQHandler
00001b68 g     F .text	00000086 uart_sendN
00000eac g     F .text	00000338 ueupdate_recv
00000514  w    F .text	00000004 I2C1_IRQHandler
000006cc g     F .text	00000040 UART1_IRQHandler
00002ce4 g       .fini_array	00000000 __etext
00000514  w    F .text	00000004 DMA2_IRQHandler
00001dc4 g     F .text	0000007c uart_enable_re_int
00000514  w    F .text	00000004 TPM0_IRQHandler
00000514  w    F .text	00000004 I2S0_IRQHandler
00000514  w    F .text	00000004 LLWU_IRQHandler
00000514  w    F .text	00000004 TSI0_IRQHandler
0000068c g     F .text	00000040 UART0_IRQHandler
00002c08 g     F .text	00000012 memcpy
000029ec g     F .text	000000fc flash_protect
00002cdc g       .init_array	00000000 __DTOR_END__
1ffff800 g     O .data	00000004 SystemCoreClock
000026e0 g     F .text	00000040 gpio_clear_allint
00000514  w    F .text	00000004 ADC0_IRQHandler
0000051c g     F .text	0000010a .hidden __udivsi3
1ffff868 g       .bss	00000000 __START_BSS
1ffffd10 g       .heap	00000000 __HeapLimit
1ffff868 g       .bss	00000000 __bss_start__
00002810 g     F .text	0000009c flash_erase
00000514  w    F .text	00000004 SPI1_IRQHandler
1ffff890 g     O .bss	00000200 gRecvBuf
00000514  w    F .text	00000004 DefaultISR
00001e40 g     F .text	0000007c uart_disable_re_int
00002cd4 g       .ARM	00000000 __exidx_start
00002cb8 g     O .text	00000004 _global_impure_ptr
00002bc0 g     F .text	00000048 __libc_init_array
00001290 g     F .text	00000146 updateEncode
000027dc g     F .text	00000034 flash_init
00000458 g     F .text	00000000 _mainCRTStartup
00002cbc g     F .text	00000000 _init
00000514  w    F .text	00000004 TPM2_IRQHandler
00000514  w    F .text	00000004 RTC_IRQHandler
00002c90 g     O .text	00000014 PORT_ARR
000004d0  w    F .text	00000044 Reset_Handler
00000514  w    F .text	00000004 LCD_IRQHandler
00001ebc g     F .text	000000c4 uart_get_re_int
00001d30 g     F .text	00000094 uart_reN
00000bbc g     F .text	00000160 funToFlash
00000dac g     F .text	00000100 ueupdate_send
00000514  w    F .text	00000004 RTC_Seconds_IRQHandler
00000514  w    F .text	00000004 MCG_IRQHandler
00001bee g     F .text	0000007c uart_send_string
0000070c g     F .text	000000dc UART2_IRQHandler
1ffff868 g       .data	00000000 __data_end__
1ffffa9c g     O .bss	00000032 check
00002cdc g       .init_array	00000000 __CTOR_LIST__
00000000 g       *ABS*	00000000 HEAP_SIZE
00001828 g     F .text	000002a0 uart_init
1ffffd10 g       .bss	00000000 __bss_end__
000023b4 g     F .text	0000004c gpio_get
00000514  w    F .text	00000004 Reserved20_IRQHandler
1ffffa90 g     O .bss	00000008 gTime
00000458 g     F .text	00000000 _start
1ffffa98 g     O .bss	00000002 gRecvLen
00002c2a g     F .text	00000022 strncmp
00002c88 g     O .text	00000008 UART_ARR
0000212c g     F .text	000000c8 systick_init
00001f80 g     F .text	000000ac uart_deint
000025bc g     F .text	0000007c gpio_disable_int
000013d6 g     F .text	0000011c updateDecode
00000630  w    F .text	00000002 .hidden __aeabi_ldiv0
0000297c g     F .text	00000048 flash_read_logic
1ffff804 g     O .data	00000003 table_irq_uart
00000d1c g     F .text	0000003e Delay_ms
00001c6c g     F .text	000000c4 uart_re1
00000b38 g     F .text	00000018 getTime
00002688 g     F .text	00000058 gpio_clear_int
00001642 g     F .text	0000001e light_change
00002c1a g     F .text	00000010 memset
00000000 g       .interrupts	000000c0 __isr_vector
00000970 g     F .text	000001c8 main
00000514  w    F .text	00000004 PIT_IRQHandler
0000051c g     F .text	00000000 .hidden __aeabi_uidiv
00000514  w    F .text	00000004 SVC_Handler
1ffff800 g       .data	00000000 __DATA_RAM
000027a8 g     F .text	00000032 gpio_get_port_pin
00001660 g     F .text	00000032 bootloader_goToUserApp
1ffffd10 g       .heap	00000000 __end__
00002cdc g       .init_array	00000000 __CTOR_END__
00000514  w    F .text	00000004 DMA3_IRQHandler
00000634 g     F .text	00000014 strcmp
00002cdc g       .init_array	00000000 __DTOR_LIST__
1ffffd10 g       .bss	00000000 __END_BSS
00000d5c g     F .text	00000050 ueupdate_init
00001694 g     F .text	00000138 SystemInit
00000514  w    F .text	00000004 DMA0_IRQHandler
1fffface g     O .bss	00000002 frameNum
00002cc8 g     F .text	00000000 _fini
00000b50 g     F .text	0000006c updateJudge
00000514  w    F .text	00000004 DAC0_IRQHandler
20000400 g       .stack	00000000 __StackTop
1ffffad0 g     O .bss	00000001 userSectNo
1ffff800 g       .mtb	00000000 _mtb_end
00002d4c g       *ABS*	00000000 __DATA_END
00002ae8 g     F .text	0000006a flash_isempty
00002510 g     F .text	000000ac gpio_enable_int
00000514  w    F .text	00000004 TPM1_IRQHandler
000007e8 g     F .text	00000188 CreateFrame
00001618 g     F .text	0000002a light_control
20000400 g       *ABS*	00000000 __stack
00000628 g     F .text	00000008 .hidden __aeabi_uidivmod
00000514  w    F .text	00000004 LVD_LVW_IRQHandler
0000244c g     F .text	000000c4 gpio_pull
00000514  w    F .text	00000004 SPI0_IRQHandler
000014f4 g     F .text	000000b8 updatecrc16
00000514  w    F .text	00000004 PORTA_IRQHandler
00000000 g       .interrupts	00000000 __VECTOR_TABLE
00002ce4 g       .fini_array	00000000 __DATA_ROM
20000300 g       *ABS*	00000000 __StackLimit
00002b94 g     F .text	0000002c exit
00000514  w    F .text	00000004 FTFA_IRQHandler
00002ca4 g     O .text	00000014 GPIO_ARR
1ffff800 g       .mtb	00000000 _mtb_start
00000514  w    F .text	00000004 Reserved40_IRQHandler
00000630  w    F .text	00000002 .hidden __aeabi_idiv0
000015ac g     F .text	00000022 flagSet
00002c4c g     F .text	00000002 _exit
00000514  w    F .text	00000004 LPTMR0_IRQHandler
1ffffa9a g     O .bss	00000001 gFunFlag
1ffffad4 g     O .bss	00000053 ckdata
00001ac8 g     F .text	000000a0 uart_send1
0000202c g     F .text	00000022 uart_is_uartNo
0000233c g     F .text	00000078 gpio_set
1ffffb28 g     O .bss	000001e6 insdata
00002400 g     F .text	0000004c gpio_reverse
00002250 g     F .text	000000ec gpio_init
000011e4 g     F .text	000000ac ueupdate_check
00000514  w    F .text	00000004 CMP0_IRQHandler
000015ce g     F .text	00000020 flagGet
00000514  w    F .text	00000004 DMA1_IRQHandler



Disassembly of section .text:

00000410 <__do_global_dtors_aux>:
__do_global_dtors_aux():
     410:	b510      	push	{r4, lr}
     412:	4c06      	ldr	r4, [pc, #24]	; (42c <__do_global_dtors_aux+0x1c>)
     414:	7823      	ldrb	r3, [r4, #0]
     416:	2b00      	cmp	r3, #0
     418:	d107      	bne.n	42a <__do_global_dtors_aux+0x1a>
     41a:	4b05      	ldr	r3, [pc, #20]	; (430 <__do_global_dtors_aux+0x20>)
     41c:	2b00      	cmp	r3, #0
     41e:	d002      	beq.n	426 <__do_global_dtors_aux+0x16>
     420:	4804      	ldr	r0, [pc, #16]	; (434 <__do_global_dtors_aux+0x24>)
     422:	e000      	b.n	426 <__do_global_dtors_aux+0x16>
     424:	bf00      	nop
     426:	2301      	movs	r3, #1
     428:	7023      	strb	r3, [r4, #0]
     42a:	bd10      	pop	{r4, pc}
     42c:	1ffff868 	.word	0x1ffff868
     430:	00000000 	.word	0x00000000
     434:	00002cbc 	.word	0x00002cbc

00000438 <frame_dummy>:
frame_dummy():
     438:	4b04      	ldr	r3, [pc, #16]	; (44c <frame_dummy+0x14>)
     43a:	b510      	push	{r4, lr}
     43c:	2b00      	cmp	r3, #0
     43e:	d003      	beq.n	448 <frame_dummy+0x10>
     440:	4903      	ldr	r1, [pc, #12]	; (450 <frame_dummy+0x18>)
     442:	4804      	ldr	r0, [pc, #16]	; (454 <frame_dummy+0x1c>)
     444:	e000      	b.n	448 <frame_dummy+0x10>
     446:	bf00      	nop
     448:	bd10      	pop	{r4, pc}
     44a:	46c0      	nop			; (mov r8, r8)
     44c:	00000000 	.word	0x00000000
     450:	1ffff86c 	.word	0x1ffff86c
     454:	00002cbc 	.word	0x00002cbc

00000458 <_mainCRTStartup>:
_start():
     458:	4b16      	ldr	r3, [pc, #88]	; (4b4 <_mainCRTStartup+0x5c>)
     45a:	2b00      	cmp	r3, #0
     45c:	d100      	bne.n	460 <_mainCRTStartup+0x8>
     45e:	4b14      	ldr	r3, [pc, #80]	; (4b0 <_mainCRTStartup+0x58>)
     460:	469d      	mov	sp, r3
     462:	2240      	movs	r2, #64	; 0x40
     464:	0292      	lsls	r2, r2, #10
     466:	1a9a      	subs	r2, r3, r2
     468:	4692      	mov	sl, r2
     46a:	2100      	movs	r1, #0
     46c:	468b      	mov	fp, r1
     46e:	460f      	mov	r7, r1
     470:	4813      	ldr	r0, [pc, #76]	; (4c0 <_mainCRTStartup+0x68>)
     472:	4a14      	ldr	r2, [pc, #80]	; (4c4 <_mainCRTStartup+0x6c>)
     474:	1a12      	subs	r2, r2, r0
     476:	f002 fbd0 	bl	2c1a <memset>
     47a:	4b0f      	ldr	r3, [pc, #60]	; (4b8 <_mainCRTStartup+0x60>)
     47c:	2b00      	cmp	r3, #0
     47e:	d000      	beq.n	482 <_mainCRTStartup+0x2a>
     480:	4798      	blx	r3
     482:	4b0e      	ldr	r3, [pc, #56]	; (4bc <_mainCRTStartup+0x64>)
     484:	2b00      	cmp	r3, #0
     486:	d000      	beq.n	48a <_mainCRTStartup+0x32>
     488:	4798      	blx	r3
     48a:	2000      	movs	r0, #0
     48c:	2100      	movs	r1, #0
     48e:	0004      	movs	r4, r0
     490:	000d      	movs	r5, r1
     492:	480d      	ldr	r0, [pc, #52]	; (4c8 <_mainCRTStartup+0x70>)
     494:	2800      	cmp	r0, #0
     496:	d002      	beq.n	49e <_mainCRTStartup+0x46>
     498:	480c      	ldr	r0, [pc, #48]	; (4cc <_mainCRTStartup+0x74>)
     49a:	e000      	b.n	49e <_mainCRTStartup+0x46>
     49c:	bf00      	nop
     49e:	f002 fb8f 	bl	2bc0 <__libc_init_array>
     4a2:	0020      	movs	r0, r4
     4a4:	0029      	movs	r1, r5
     4a6:	f000 fa63 	bl	970 <main>
     4aa:	f002 fb73 	bl	2b94 <exit>
     4ae:	46c0      	nop			; (mov r8, r8)
     4b0:	00080000 	.word	0x00080000
     4b4:	20000400 	.word	0x20000400
	...
     4c0:	1ffff868 	.word	0x1ffff868
     4c4:	1ffffd10 	.word	0x1ffffd10
	...

000004d0 <Reset_Handler>:
Reset_Handler():
E:\2017-2018\03_Graduation Project\04_Software\04_wangshi\03_UpdateSoftware-180625\01_UEBootloader\KL36_BootLoader-180621\Debug/../03_MCU/startup/startup_MKL36Z4.S:118
    .align 2
    .globl   Reset_Handler
    .weak    Reset_Handler
    .type    Reset_Handler, %function
Reset_Handler:
    cpsid   i               /* Mask interrupts */
     4d0:	b672      	cpsid	i
E:\2017-2018\03_Graduation Project\04_Software\04_wangshi\03_UpdateSoftware-180625\01_UEBootloader\KL36_BootLoader-180621\Debug/../03_MCU/startup/startup_MKL36Z4.S:120
#ifndef __NO_SYSTEM_INIT
    bl SystemInit
     4d2:	f001 f8df 	bl	1694 <SystemInit>
E:\2017-2018\03_Graduation Project\04_Software\04_wangshi\03_UpdateSoftware-180625\01_UEBootloader\KL36_BootLoader-180621\Debug/../03_MCU/startup/startup_MKL36Z4.S:122
#endif
    cpsie   i               /* Unmask interrupts */
     4d6:	b662      	cpsie	i
E:\2017-2018\03_Graduation Project\04_Software\04_wangshi\03_UpdateSoftware-180625\01_UEBootloader\KL36_BootLoader-180621\Debug/../03_MCU/startup/startup_MKL36Z4.S:130
 *      linker script.
 *      __etext: End of code section, i.e., begin of data sections to copy from.
 *      __data_start__/__data_end__: RAM address range that data should be
 *      copied to. Both must be aligned to 4 bytes boundary.  */

    ldr    r1, =__etext
     4d8:	4909      	ldr	r1, [pc, #36]	; (500 <Reset_Handler+0x30>)
E:\2017-2018\03_Graduation Project\04_Software\04_wangshi\03_UpdateSoftware-180625\01_UEBootloader\KL36_BootLoader-180621\Debug/../03_MCU/startup/startup_MKL36Z4.S:131
    ldr    r2, =__data_start__
     4da:	4a0a      	ldr	r2, [pc, #40]	; (504 <Reset_Handler+0x34>)
E:\2017-2018\03_Graduation Project\04_Software\04_wangshi\03_UpdateSoftware-180625\01_UEBootloader\KL36_BootLoader-180621\Debug/../03_MCU/startup/startup_MKL36Z4.S:132
    ldr    r3, =__data_end__
     4dc:	4b0a      	ldr	r3, [pc, #40]	; (508 <Reset_Handler+0x38>)
E:\2017-2018\03_Graduation Project\04_Software\04_wangshi\03_UpdateSoftware-180625\01_UEBootloader\KL36_BootLoader-180621\Debug/../03_MCU/startup/startup_MKL36Z4.S:134

    subs    r3, r2
     4de:	1a9b      	subs	r3, r3, r2
E:\2017-2018\03_Graduation Project\04_Software\04_wangshi\03_UpdateSoftware-180625\01_UEBootloader\KL36_BootLoader-180621\Debug/../03_MCU/startup/startup_MKL36Z4.S:135
    ble     .LC0
     4e0:	dd03      	ble.n	4ea <Reset_Handler+0x1a>
E:\2017-2018\03_Graduation Project\04_Software\04_wangshi\03_UpdateSoftware-180625\01_UEBootloader\KL36_BootLoader-180621\Debug/../03_MCU/startup/startup_MKL36Z4.S:138

.LC1:
    subs    r3, 4
     4e2:	3b04      	subs	r3, #4
E:\2017-2018\03_Graduation Project\04_Software\04_wangshi\03_UpdateSoftware-180625\01_UEBootloader\KL36_BootLoader-180621\Debug/../03_MCU/startup/startup_MKL36Z4.S:139
    ldr    r0, [r1,r3]
     4e4:	58c8      	ldr	r0, [r1, r3]
E:\2017-2018\03_Graduation Project\04_Software\04_wangshi\03_UpdateSoftware-180625\01_UEBootloader\KL36_BootLoader-180621\Debug/../03_MCU/startup/startup_MKL36Z4.S:140
    str    r0, [r2,r3]
     4e6:	50d0      	str	r0, [r2, r3]
E:\2017-2018\03_Graduation Project\04_Software\04_wangshi\03_UpdateSoftware-180625\01_UEBootloader\KL36_BootLoader-180621\Debug/../03_MCU/startup/startup_MKL36Z4.S:141
    bgt    .LC1
     4e8:	dcfb      	bgt.n	4e2 <Reset_Handler+0x12>
E:\2017-2018\03_Graduation Project\04_Software\04_wangshi\03_UpdateSoftware-180625\01_UEBootloader\KL36_BootLoader-180621\Debug/../03_MCU/startup/startup_MKL36Z4.S:154
 *     Loop to zero out BSS section, which uses following symbols
 *     in linker script:
 *      __bss_start__: start of BSS section. Must align to 4
 *      __bss_end__: end of BSS section. Must align to 4
 */
    ldr r1, =__bss_start__
     4ea:	4908      	ldr	r1, [pc, #32]	; (50c <Reset_Handler+0x3c>)
E:\2017-2018\03_Graduation Project\04_Software\04_wangshi\03_UpdateSoftware-180625\01_UEBootloader\KL36_BootLoader-180621\Debug/../03_MCU/startup/startup_MKL36Z4.S:155
    ldr r2, =__bss_end__
     4ec:	4a08      	ldr	r2, [pc, #32]	; (510 <Reset_Handler+0x40>)
E:\2017-2018\03_Graduation Project\04_Software\04_wangshi\03_UpdateSoftware-180625\01_UEBootloader\KL36_BootLoader-180621\Debug/../03_MCU/startup/startup_MKL36Z4.S:157

    subs    r2, r1
     4ee:	1a52      	subs	r2, r2, r1
E:\2017-2018\03_Graduation Project\04_Software\04_wangshi\03_UpdateSoftware-180625\01_UEBootloader\KL36_BootLoader-180621\Debug/../03_MCU/startup/startup_MKL36Z4.S:158
    ble .LC3
     4f0:	dd03      	ble.n	4fa <Reset_Handler+0x2a>
E:\2017-2018\03_Graduation Project\04_Software\04_wangshi\03_UpdateSoftware-180625\01_UEBootloader\KL36_BootLoader-180621\Debug/../03_MCU/startup/startup_MKL36Z4.S:160

    movs    r0, 0
     4f2:	2000      	movs	r0, #0
E:\2017-2018\03_Graduation Project\04_Software\04_wangshi\03_UpdateSoftware-180625\01_UEBootloader\KL36_BootLoader-180621\Debug/../03_MCU/startup/startup_MKL36Z4.S:162
.LC2:
    str r0, [r1, r2]
     4f4:	5088      	str	r0, [r1, r2]
E:\2017-2018\03_Graduation Project\04_Software\04_wangshi\03_UpdateSoftware-180625\01_UEBootloader\KL36_BootLoader-180621\Debug/../03_MCU/startup/startup_MKL36Z4.S:163
    subs    r2, 4
     4f6:	3a04      	subs	r2, #4
E:\2017-2018\03_Graduation Project\04_Software\04_wangshi\03_UpdateSoftware-180625\01_UEBootloader\KL36_BootLoader-180621\Debug/../03_MCU/startup/startup_MKL36Z4.S:164
    bge .LC2
     4f8:	dafc      	bge.n	4f4 <Reset_Handler+0x24>
E:\2017-2018\03_Graduation Project\04_Software\04_wangshi\03_UpdateSoftware-180625\01_UEBootloader\KL36_BootLoader-180621\Debug/../03_MCU/startup/startup_MKL36Z4.S:170
.LC3:
#endif
#ifndef __START
#define __START _start
#endif
    bl    __START
     4fa:	f7ff ffad 	bl	458 <_mainCRTStartup>
     4fe:	0000      	.short	0x0000
E:\2017-2018\03_Graduation Project\04_Software\04_wangshi\03_UpdateSoftware-180625\01_UEBootloader\KL36_BootLoader-180621\Debug/../03_MCU/startup/startup_MKL36Z4.S:130
    ldr    r1, =__etext
     500:	00002ce4 	.word	0x00002ce4
E:\2017-2018\03_Graduation Project\04_Software\04_wangshi\03_UpdateSoftware-180625\01_UEBootloader\KL36_BootLoader-180621\Debug/../03_MCU/startup/startup_MKL36Z4.S:131
    ldr    r2, =__data_start__
     504:	1ffff800 	.word	0x1ffff800
E:\2017-2018\03_Graduation Project\04_Software\04_wangshi\03_UpdateSoftware-180625\01_UEBootloader\KL36_BootLoader-180621\Debug/../03_MCU/startup/startup_MKL36Z4.S:132
    ldr    r3, =__data_end__
     508:	1ffff868 	.word	0x1ffff868
E:\2017-2018\03_Graduation Project\04_Software\04_wangshi\03_UpdateSoftware-180625\01_UEBootloader\KL36_BootLoader-180621\Debug/../03_MCU/startup/startup_MKL36Z4.S:154
    ldr r1, =__bss_start__
     50c:	1ffff868 	.word	0x1ffff868
E:\2017-2018\03_Graduation Project\04_Software\04_wangshi\03_UpdateSoftware-180625\01_UEBootloader\KL36_BootLoader-180621\Debug/../03_MCU/startup/startup_MKL36Z4.S:155
    ldr r2, =__bss_end__
     510:	1ffffd10 	.word	0x1ffffd10

00000514 <ADC0_IRQHandler>:
DMA1_IRQHandler():
E:\2017-2018\03_Graduation Project\04_Software\04_wangshi\03_UpdateSoftware-180625\01_UEBootloader\KL36_BootLoader-180621\Debug/../03_MCU/startup/startup_MKL36Z4.S:179
    .align	1
    .thumb_func
    .weak DefaultISR
    .type DefaultISR, %function
DefaultISR:
    ldr	r0, =DefaultISR
     514:	4800      	ldr	r0, [pc, #0]	; (518 <ADC0_IRQHandler+0x4>)
E:\2017-2018\03_Graduation Project\04_Software\04_wangshi\03_UpdateSoftware-180625\01_UEBootloader\KL36_BootLoader-180621\Debug/../03_MCU/startup/startup_MKL36Z4.S:180
    bx r0
     516:	4700      	bx	r0
E:\2017-2018\03_Graduation Project\04_Software\04_wangshi\03_UpdateSoftware-180625\01_UEBootloader\KL36_BootLoader-180621\Debug/../03_MCU/startup/startup_MKL36Z4.S:179
    ldr	r0, =DefaultISR
     518:	00000515 	.word	0x00000515

0000051c <__udivsi3>:
__aeabi_uidiv():
     51c:	2200      	movs	r2, #0
     51e:	0843      	lsrs	r3, r0, #1
     520:	428b      	cmp	r3, r1
     522:	d374      	bcc.n	60e <__udivsi3+0xf2>
     524:	0903      	lsrs	r3, r0, #4
     526:	428b      	cmp	r3, r1
     528:	d35f      	bcc.n	5ea <__udivsi3+0xce>
     52a:	0a03      	lsrs	r3, r0, #8
     52c:	428b      	cmp	r3, r1
     52e:	d344      	bcc.n	5ba <__udivsi3+0x9e>
     530:	0b03      	lsrs	r3, r0, #12
     532:	428b      	cmp	r3, r1
     534:	d328      	bcc.n	588 <__udivsi3+0x6c>
     536:	0c03      	lsrs	r3, r0, #16
     538:	428b      	cmp	r3, r1
     53a:	d30d      	bcc.n	558 <__udivsi3+0x3c>
     53c:	22ff      	movs	r2, #255	; 0xff
     53e:	0209      	lsls	r1, r1, #8
     540:	ba12      	rev	r2, r2
     542:	0c03      	lsrs	r3, r0, #16
     544:	428b      	cmp	r3, r1
     546:	d302      	bcc.n	54e <__udivsi3+0x32>
     548:	1212      	asrs	r2, r2, #8
     54a:	0209      	lsls	r1, r1, #8
     54c:	d065      	beq.n	61a <__udivsi3+0xfe>
     54e:	0b03      	lsrs	r3, r0, #12
     550:	428b      	cmp	r3, r1
     552:	d319      	bcc.n	588 <__udivsi3+0x6c>
     554:	e000      	b.n	558 <__udivsi3+0x3c>
     556:	0a09      	lsrs	r1, r1, #8
     558:	0bc3      	lsrs	r3, r0, #15
     55a:	428b      	cmp	r3, r1
     55c:	d301      	bcc.n	562 <__udivsi3+0x46>
     55e:	03cb      	lsls	r3, r1, #15
     560:	1ac0      	subs	r0, r0, r3
     562:	4152      	adcs	r2, r2
     564:	0b83      	lsrs	r3, r0, #14
     566:	428b      	cmp	r3, r1
     568:	d301      	bcc.n	56e <__udivsi3+0x52>
     56a:	038b      	lsls	r3, r1, #14
     56c:	1ac0      	subs	r0, r0, r3
     56e:	4152      	adcs	r2, r2
     570:	0b43      	lsrs	r3, r0, #13
     572:	428b      	cmp	r3, r1
     574:	d301      	bcc.n	57a <__udivsi3+0x5e>
     576:	034b      	lsls	r3, r1, #13
     578:	1ac0      	subs	r0, r0, r3
     57a:	4152      	adcs	r2, r2
     57c:	0b03      	lsrs	r3, r0, #12
     57e:	428b      	cmp	r3, r1
     580:	d301      	bcc.n	586 <__udivsi3+0x6a>
     582:	030b      	lsls	r3, r1, #12
     584:	1ac0      	subs	r0, r0, r3
     586:	4152      	adcs	r2, r2
     588:	0ac3      	lsrs	r3, r0, #11
     58a:	428b      	cmp	r3, r1
     58c:	d301      	bcc.n	592 <__udivsi3+0x76>
     58e:	02cb      	lsls	r3, r1, #11
     590:	1ac0      	subs	r0, r0, r3
     592:	4152      	adcs	r2, r2
     594:	0a83      	lsrs	r3, r0, #10
     596:	428b      	cmp	r3, r1
     598:	d301      	bcc.n	59e <__udivsi3+0x82>
     59a:	028b      	lsls	r3, r1, #10
     59c:	1ac0      	subs	r0, r0, r3
     59e:	4152      	adcs	r2, r2
     5a0:	0a43      	lsrs	r3, r0, #9
     5a2:	428b      	cmp	r3, r1
     5a4:	d301      	bcc.n	5aa <__udivsi3+0x8e>
     5a6:	024b      	lsls	r3, r1, #9
     5a8:	1ac0      	subs	r0, r0, r3
     5aa:	4152      	adcs	r2, r2
     5ac:	0a03      	lsrs	r3, r0, #8
     5ae:	428b      	cmp	r3, r1
     5b0:	d301      	bcc.n	5b6 <__udivsi3+0x9a>
     5b2:	020b      	lsls	r3, r1, #8
     5b4:	1ac0      	subs	r0, r0, r3
     5b6:	4152      	adcs	r2, r2
     5b8:	d2cd      	bcs.n	556 <__udivsi3+0x3a>
     5ba:	09c3      	lsrs	r3, r0, #7
     5bc:	428b      	cmp	r3, r1
     5be:	d301      	bcc.n	5c4 <__udivsi3+0xa8>
     5c0:	01cb      	lsls	r3, r1, #7
     5c2:	1ac0      	subs	r0, r0, r3
     5c4:	4152      	adcs	r2, r2
     5c6:	0983      	lsrs	r3, r0, #6
     5c8:	428b      	cmp	r3, r1
     5ca:	d301      	bcc.n	5d0 <__udivsi3+0xb4>
     5cc:	018b      	lsls	r3, r1, #6
     5ce:	1ac0      	subs	r0, r0, r3
     5d0:	4152      	adcs	r2, r2
     5d2:	0943      	lsrs	r3, r0, #5
     5d4:	428b      	cmp	r3, r1
     5d6:	d301      	bcc.n	5dc <__udivsi3+0xc0>
     5d8:	014b      	lsls	r3, r1, #5
     5da:	1ac0      	subs	r0, r0, r3
     5dc:	4152      	adcs	r2, r2
     5de:	0903      	lsrs	r3, r0, #4
     5e0:	428b      	cmp	r3, r1
     5e2:	d301      	bcc.n	5e8 <__udivsi3+0xcc>
     5e4:	010b      	lsls	r3, r1, #4
     5e6:	1ac0      	subs	r0, r0, r3
     5e8:	4152      	adcs	r2, r2
     5ea:	08c3      	lsrs	r3, r0, #3
     5ec:	428b      	cmp	r3, r1
     5ee:	d301      	bcc.n	5f4 <__udivsi3+0xd8>
     5f0:	00cb      	lsls	r3, r1, #3
     5f2:	1ac0      	subs	r0, r0, r3
     5f4:	4152      	adcs	r2, r2
     5f6:	0883      	lsrs	r3, r0, #2
     5f8:	428b      	cmp	r3, r1
     5fa:	d301      	bcc.n	600 <__udivsi3+0xe4>
     5fc:	008b      	lsls	r3, r1, #2
     5fe:	1ac0      	subs	r0, r0, r3
     600:	4152      	adcs	r2, r2
     602:	0843      	lsrs	r3, r0, #1
     604:	428b      	cmp	r3, r1
     606:	d301      	bcc.n	60c <__udivsi3+0xf0>
     608:	004b      	lsls	r3, r1, #1
     60a:	1ac0      	subs	r0, r0, r3
     60c:	4152      	adcs	r2, r2
     60e:	1a41      	subs	r1, r0, r1
     610:	d200      	bcs.n	614 <__udivsi3+0xf8>
     612:	4601      	mov	r1, r0
     614:	4152      	adcs	r2, r2
     616:	4610      	mov	r0, r2
     618:	4770      	bx	lr
     61a:	e7ff      	b.n	61c <__udivsi3+0x100>
     61c:	b501      	push	{r0, lr}
     61e:	2000      	movs	r0, #0
     620:	f000 f806 	bl	630 <__aeabi_idiv0>
     624:	bd02      	pop	{r1, pc}
     626:	46c0      	nop			; (mov r8, r8)

00000628 <__aeabi_uidivmod>:
__aeabi_uidivmod():
     628:	2900      	cmp	r1, #0
     62a:	d0f7      	beq.n	61c <__udivsi3+0x100>
     62c:	e776      	b.n	51c <__udivsi3>
     62e:	4770      	bx	lr

00000630 <__aeabi_idiv0>:
__aeabi_idiv0():
     630:	4770      	bx	lr
     632:	46c0      	nop			; (mov r8, r8)

00000634 <strcmp>:
strcmp():
     634:	7802      	ldrb	r2, [r0, #0]
     636:	780b      	ldrb	r3, [r1, #0]
     638:	2a00      	cmp	r2, #0
     63a:	d003      	beq.n	644 <strcmp+0x10>
     63c:	3001      	adds	r0, #1
     63e:	3101      	adds	r1, #1
     640:	429a      	cmp	r2, r3
     642:	d0f7      	beq.n	634 <strcmp>
     644:	1ad0      	subs	r0, r2, r3
     646:	4770      	bx	lr

00000648 <NVIC_SystemReset>:
NVIC_SystemReset():
E:\2017-2018\03_Graduation Project\04_Software\04_wangshi\03_UpdateSoftware-180625\01_UEBootloader\KL36_BootLoader-180621\02_Core/core_cm0plus.h:791
/** \brief  System Reset

    The function initiates a system reset request to reset the MCU.
 */
__STATIC_INLINE void NVIC_SystemReset(void)
{
     648:	b580      	push	{r7, lr}
     64a:	af00      	add	r7, sp, #0
__DSB():
E:\2017-2018\03_Graduation Project\04_Software\04_wangshi\03_UpdateSoftware-180625\01_UEBootloader\KL36_BootLoader-180621\02_Core/core_cmInstr.h:473
    This function acts as a special kind of Data Memory Barrier.
    It completes when all explicit memory accesses before this instruction complete.
 */
__attribute__((always_inline)) __STATIC_INLINE void __DSB(void)
{
  __ASM volatile ("dsb 0xF":::"memory");
     64c:	f3bf 8f4f 	dsb	sy
NVIC_SystemReset():
E:\2017-2018\03_Graduation Project\04_Software\04_wangshi\03_UpdateSoftware-180625\01_UEBootloader\KL36_BootLoader-180621\02_Core/core_cm0plus.h:794
  __DSB();                                                     /* Ensure all outstanding memory accesses included
                                                                  buffered write are completed before reset */
  SCB->AIRCR  = ((0x5FAUL << SCB_AIRCR_VECTKEY_Pos) |
     650:	4b03      	ldr	r3, [pc, #12]	; (660 <NVIC_SystemReset+0x18>)
     652:	4a04      	ldr	r2, [pc, #16]	; (664 <NVIC_SystemReset+0x1c>)
     654:	60da      	str	r2, [r3, #12]
__DSB():
E:\2017-2018\03_Graduation Project\04_Software\04_wangshi\03_UpdateSoftware-180625\01_UEBootloader\KL36_BootLoader-180621\02_Core/core_cmInstr.h:473
     656:	f3bf 8f4f 	dsb	sy
__NOP():
E:\2017-2018\03_Graduation Project\04_Software\04_wangshi\03_UpdateSoftware-180625\01_UEBootloader\KL36_BootLoader-180621\02_Core/core_cmInstr.h:418 (discriminator 1)
  __ASM volatile ("nop");
     65a:	46c0      	nop			; (mov r8, r8)
NVIC_SystemReset():
E:\2017-2018\03_Graduation Project\04_Software\04_wangshi\03_UpdateSoftware-180625\01_UEBootloader\KL36_BootLoader-180621\02_Core/core_cm0plus.h:797 (discriminator 1)
                 SCB_AIRCR_SYSRESETREQ_Msk);
  __DSB();                                                     /* Ensure completion of memory access */
  while(1) { __NOP(); }                                        /* wait until reset */
     65c:	e7fd      	b.n	65a <NVIC_SystemReset+0x12>
     65e:	46c0      	nop			; (mov r8, r8)
     660:	e000ed00 	.word	0xe000ed00
     664:	05fa0004 	.word	0x05fa0004

00000668 <SysTick_Handler>:
SysTick_Handler():
E:\2017-2018\03_Graduation Project\04_Software\04_wangshi\03_UpdateSoftware-180625\01_UEBootloader\KL36_BootLoader-180621\Debug/../06_NosPrg/isr.c:17
uint_8 CreateFrame(uint_8 Data,uint_8 * buffer,uint_16 *len);

//========================中断函数服务例程===============================

void SysTick_Handler(void)
{
     668:	b590      	push	{r4, r7, lr}
     66a:	af00      	add	r7, sp, #0
E:\2017-2018\03_Graduation Project\04_Software\04_wangshi\03_UpdateSoftware-180625\01_UEBootloader\KL36_BootLoader-180621\Debug/../06_NosPrg/isr.c:18
	gTime++;
     66c:	4b06      	ldr	r3, [pc, #24]	; (688 <SysTick_Handler+0x20>)
     66e:	685c      	ldr	r4, [r3, #4]
     670:	681b      	ldr	r3, [r3, #0]
     672:	2101      	movs	r1, #1
     674:	2200      	movs	r2, #0
     676:	185b      	adds	r3, r3, r1
     678:	4154      	adcs	r4, r2
     67a:	4a03      	ldr	r2, [pc, #12]	; (688 <SysTick_Handler+0x20>)
     67c:	6013      	str	r3, [r2, #0]
     67e:	6054      	str	r4, [r2, #4]
E:\2017-2018\03_Graduation Project\04_Software\04_wangshi\03_UpdateSoftware-180625\01_UEBootloader\KL36_BootLoader-180621\Debug/../06_NosPrg/isr.c:19
}
     680:	46c0      	nop			; (mov r8, r8)
     682:	46bd      	mov	sp, r7
     684:	bd90      	pop	{r4, r7, pc}
     686:	46c0      	nop			; (mov r8, r8)
     688:	1ffffa90 	.word	0x1ffffa90

0000068c <UART0_IRQHandler>:
UART0_IRQHandler():
E:\2017-2018\03_Graduation Project\04_Software\04_wangshi\03_UpdateSoftware-180625\01_UEBootloader\KL36_BootLoader-180621\Debug/../06_NosPrg/isr.c:28
//进入条件：串口0接收到数据
//功能概要：（1）清中断标志
//       （2）串口0返回接收到的数据
//==================================================================
void UART0_IRQHandler(void)
{
     68c:	b590      	push	{r4, r7, lr}
     68e:	b083      	sub	sp, #12
     690:	af00      	add	r7, sp, #0
__disable_irq():
E:\2017-2018\03_Graduation Project\04_Software\04_wangshi\03_UpdateSoftware-180625\01_UEBootloader\KL36_BootLoader-180621\02_Core/core_cmFunc.h:344
  This function disables IRQ interrupts by setting the I-bit in the CPSR.
  Can only be executed in Privileged modes.
 */
__attribute__( ( always_inline ) ) __STATIC_INLINE void __disable_irq(void)
{
  __ASM volatile ("cpsid i" : : : "memory");
     692:	b672      	cpsid	i
UART0_IRQHandler():
E:\2017-2018\03_Graduation Project\04_Software\04_wangshi\03_UpdateSoftware-180625\01_UEBootloader\KL36_BootLoader-180621\Debug/../06_NosPrg/isr.c:33
	uint_8 ch;
	uint_8 flag;
	DISABLE_INTERRUPTS;      //关总中断
	//-------------------------------
	if(uart_get_re_int(UART_0))
     694:	2000      	movs	r0, #0
     696:	f001 fc11 	bl	1ebc <uart_get_re_int>
     69a:	1e03      	subs	r3, r0, #0
     69c:	d011      	beq.n	6c2 <UART0_IRQHandler+0x36>
E:\2017-2018\03_Graduation Project\04_Software\04_wangshi\03_UpdateSoftware-180625\01_UEBootloader\KL36_BootLoader-180621\Debug/../06_NosPrg/isr.c:35
	{
		ch = uart_re1 (UART_0, &flag);    //调用接收一个字节的函数，清接收中断位
     69e:	1dfc      	adds	r4, r7, #7
     6a0:	1dbb      	adds	r3, r7, #6
     6a2:	0019      	movs	r1, r3
     6a4:	2000      	movs	r0, #0
     6a6:	f001 fae1 	bl	1c6c <uart_re1>
     6aa:	0003      	movs	r3, r0
     6ac:	7023      	strb	r3, [r4, #0]
E:\2017-2018\03_Graduation Project\04_Software\04_wangshi\03_UpdateSoftware-180625\01_UEBootloader\KL36_BootLoader-180621\Debug/../06_NosPrg/isr.c:36
		if(flag)
     6ae:	1dbb      	adds	r3, r7, #6
     6b0:	781b      	ldrb	r3, [r3, #0]
     6b2:	2b00      	cmp	r3, #0
     6b4:	d005      	beq.n	6c2 <UART0_IRQHandler+0x36>
E:\2017-2018\03_Graduation Project\04_Software\04_wangshi\03_UpdateSoftware-180625\01_UEBootloader\KL36_BootLoader-180621\Debug/../06_NosPrg/isr.c:38
		{
			uart_send1(UART_0, ch);     //向原串口发回一个字节
     6b6:	1dfb      	adds	r3, r7, #7
     6b8:	781b      	ldrb	r3, [r3, #0]
     6ba:	0019      	movs	r1, r3
     6bc:	2000      	movs	r0, #0
     6be:	f001 fa03 	bl	1ac8 <uart_send1>
__enable_irq():
E:\2017-2018\03_Graduation Project\04_Software\04_wangshi\03_UpdateSoftware-180625\01_UEBootloader\KL36_BootLoader-180621\02_Core/core_cmFunc.h:333
  __ASM volatile ("cpsie i" : : : "memory");
     6c2:	b662      	cpsie	i
UART0_IRQHandler():
E:\2017-2018\03_Graduation Project\04_Software\04_wangshi\03_UpdateSoftware-180625\01_UEBootloader\KL36_BootLoader-180621\Debug/../06_NosPrg/isr.c:43
		}
	}
	//-------------------------------
	ENABLE_INTERRUPTS;       //开总中断
}
     6c4:	46c0      	nop			; (mov r8, r8)
     6c6:	46bd      	mov	sp, r7
     6c8:	b003      	add	sp, #12
     6ca:	bd90      	pop	{r4, r7, pc}

000006cc <UART1_IRQHandler>:
UART1_IRQHandler():
E:\2017-2018\03_Graduation Project\04_Software\04_wangshi\03_UpdateSoftware-180625\01_UEBootloader\KL36_BootLoader-180621\Debug/../06_NosPrg/isr.c:52
//进入条件：串口1接收到数据
//功能概要：（1）清中断标志
//       （2）终端UE通信模块接收管理服务器数据
//==================================================================
void UART1_IRQHandler(void)
{
     6cc:	b590      	push	{r4, r7, lr}
     6ce:	b083      	sub	sp, #12
     6d0:	af00      	add	r7, sp, #0
__disable_irq():
E:\2017-2018\03_Graduation Project\04_Software\04_wangshi\03_UpdateSoftware-180625\01_UEBootloader\KL36_BootLoader-180621\02_Core/core_cmFunc.h:344
  __ASM volatile ("cpsid i" : : : "memory");
     6d2:	b672      	cpsid	i
UART1_IRQHandler():
E:\2017-2018\03_Graduation Project\04_Software\04_wangshi\03_UpdateSoftware-180625\01_UEBootloader\KL36_BootLoader-180621\Debug/../06_NosPrg/isr.c:57
	uint_8 ch;
	uint_8 flag;
	DISABLE_INTERRUPTS;      //关总中断
	//-------------------------------
	if(uart_get_re_int(UART_1))
     6d4:	2001      	movs	r0, #1
     6d6:	f001 fbf1 	bl	1ebc <uart_get_re_int>
     6da:	1e03      	subs	r3, r0, #0
     6dc:	d011      	beq.n	702 <UART1_IRQHandler+0x36>
E:\2017-2018\03_Graduation Project\04_Software\04_wangshi\03_UpdateSoftware-180625\01_UEBootloader\KL36_BootLoader-180621\Debug/../06_NosPrg/isr.c:59
	{
		ch = uart_re1 (UART_1, &flag);    //调用接收一个字节的函数，清接收中断位
     6de:	1dfc      	adds	r4, r7, #7
     6e0:	1dbb      	adds	r3, r7, #6
     6e2:	0019      	movs	r1, r3
     6e4:	2001      	movs	r0, #1
     6e6:	f001 fac1 	bl	1c6c <uart_re1>
     6ea:	0003      	movs	r3, r0
     6ec:	7023      	strb	r3, [r4, #0]
E:\2017-2018\03_Graduation Project\04_Software\04_wangshi\03_UpdateSoftware-180625\01_UEBootloader\KL36_BootLoader-180621\Debug/../06_NosPrg/isr.c:60
		if(flag)
     6ee:	1dbb      	adds	r3, r7, #6
     6f0:	781b      	ldrb	r3, [r3, #0]
     6f2:	2b00      	cmp	r3, #0
     6f4:	d005      	beq.n	702 <UART1_IRQHandler+0x36>
E:\2017-2018\03_Graduation Project\04_Software\04_wangshi\03_UpdateSoftware-180625\01_UEBootloader\KL36_BootLoader-180621\Debug/../06_NosPrg/isr.c:62
		{
			uart_send1(UART_1, ch);     //向原串口发回一个字节
     6f6:	1dfb      	adds	r3, r7, #7
     6f8:	781b      	ldrb	r3, [r3, #0]
     6fa:	0019      	movs	r1, r3
     6fc:	2001      	movs	r0, #1
     6fe:	f001 f9e3 	bl	1ac8 <uart_send1>
__enable_irq():
E:\2017-2018\03_Graduation Project\04_Software\04_wangshi\03_UpdateSoftware-180625\01_UEBootloader\KL36_BootLoader-180621\02_Core/core_cmFunc.h:333
  __ASM volatile ("cpsie i" : : : "memory");
     702:	b662      	cpsie	i
UART1_IRQHandler():
E:\2017-2018\03_Graduation Project\04_Software\04_wangshi\03_UpdateSoftware-180625\01_UEBootloader\KL36_BootLoader-180621\Debug/../06_NosPrg/isr.c:67
		}
	}
	//-------------------------------
	ENABLE_INTERRUPTS;       //开总中断
}
     704:	46c0      	nop			; (mov r8, r8)
     706:	46bd      	mov	sp, r7
     708:	b003      	add	sp, #12
     70a:	bd90      	pop	{r4, r7, pc}

0000070c <UART2_IRQHandler>:
UART2_IRQHandler():
E:\2017-2018\03_Graduation Project\04_Software\04_wangshi\03_UpdateSoftware-180625\01_UEBootloader\KL36_BootLoader-180621\Debug/../06_NosPrg/isr.c:76
//进入条件：串口2接收到数据
//功能概要：（1）清中断标志
//       （2）串口2返回接收到的数据
//==================================================================
void UART2_IRQHandler(void)
{
     70c:	b590      	push	{r4, r7, lr}
     70e:	b083      	sub	sp, #12
     710:	af00      	add	r7, sp, #0
__disable_irq():
E:\2017-2018\03_Graduation Project\04_Software\04_wangshi\03_UpdateSoftware-180625\01_UEBootloader\KL36_BootLoader-180621\02_Core/core_cmFunc.h:344
  __ASM volatile ("cpsid i" : : : "memory");
     712:	b672      	cpsid	i
UART2_IRQHandler():
E:\2017-2018\03_Graduation Project\04_Software\04_wangshi\03_UpdateSoftware-180625\01_UEBootloader\KL36_BootLoader-180621\Debug/../06_NosPrg/isr.c:85
	static uint_8 buf[7];

	//关总中断
	DISABLE_INTERRUPTS;      //关总中断
	//-------------------------------
	if(uart_get_re_int(UART_2))
     714:	2002      	movs	r0, #2
     716:	f001 fbd1 	bl	1ebc <uart_get_re_int>
     71a:	1e03      	subs	r3, r0, #0
     71c:	d04f      	beq.n	7be <UART2_IRQHandler+0xb2>
E:\2017-2018\03_Graduation Project\04_Software\04_wangshi\03_UpdateSoftware-180625\01_UEBootloader\KL36_BootLoader-180621\Debug/../06_NosPrg/isr.c:87
	{
		ch = uart_re1 (UART_2, &flag);    //调用接收一个字节的函数，清接收中断位
     71e:	1dbc      	adds	r4, r7, #6
     720:	1d7b      	adds	r3, r7, #5
     722:	0019      	movs	r1, r3
     724:	2002      	movs	r0, #2
     726:	f001 faa1 	bl	1c6c <uart_re1>
     72a:	0003      	movs	r3, r0
     72c:	7023      	strb	r3, [r4, #0]
E:\2017-2018\03_Graduation Project\04_Software\04_wangshi\03_UpdateSoftware-180625\01_UEBootloader\KL36_BootLoader-180621\Debug/../06_NosPrg/isr.c:88
		if(flag)
     72e:	1d7b      	adds	r3, r7, #5
     730:	781b      	ldrb	r3, [r3, #0]
     732:	2b00      	cmp	r3, #0
     734:	d043      	beq.n	7be <UART2_IRQHandler+0xb2>
E:\2017-2018\03_Graduation Project\04_Software\04_wangshi\03_UpdateSoftware-180625\01_UEBootloader\KL36_BootLoader-180621\Debug/../06_NosPrg/isr.c:91
		{
			//保存最新的7个字节数据
			for(i = 6; i > 0;i--)
     736:	1dfb      	adds	r3, r7, #7
     738:	2206      	movs	r2, #6
     73a:	701a      	strb	r2, [r3, #0]
     73c:	e00d      	b.n	75a <UART2_IRQHandler+0x4e>
E:\2017-2018\03_Graduation Project\04_Software\04_wangshi\03_UpdateSoftware-180625\01_UEBootloader\KL36_BootLoader-180621\Debug/../06_NosPrg/isr.c:93 (discriminator 3)
			{
				buf[i] = buf[i-1];
     73e:	1dfb      	adds	r3, r7, #7
     740:	781b      	ldrb	r3, [r3, #0]
     742:	1e5a      	subs	r2, r3, #1
     744:	1dfb      	adds	r3, r7, #7
     746:	781b      	ldrb	r3, [r3, #0]
     748:	491f      	ldr	r1, [pc, #124]	; (7c8 <UART2_IRQHandler+0xbc>)
     74a:	5c89      	ldrb	r1, [r1, r2]
     74c:	4a1e      	ldr	r2, [pc, #120]	; (7c8 <UART2_IRQHandler+0xbc>)
     74e:	54d1      	strb	r1, [r2, r3]
E:\2017-2018\03_Graduation Project\04_Software\04_wangshi\03_UpdateSoftware-180625\01_UEBootloader\KL36_BootLoader-180621\Debug/../06_NosPrg/isr.c:91 (discriminator 3)
			for(i = 6; i > 0;i--)
     750:	1dfb      	adds	r3, r7, #7
     752:	781a      	ldrb	r2, [r3, #0]
     754:	1dfb      	adds	r3, r7, #7
     756:	3a01      	subs	r2, #1
     758:	701a      	strb	r2, [r3, #0]
E:\2017-2018\03_Graduation Project\04_Software\04_wangshi\03_UpdateSoftware-180625\01_UEBootloader\KL36_BootLoader-180621\Debug/../06_NosPrg/isr.c:91 (discriminator 1)
     75a:	1dfb      	adds	r3, r7, #7
     75c:	781b      	ldrb	r3, [r3, #0]
     75e:	2b00      	cmp	r3, #0
     760:	d1ed      	bne.n	73e <UART2_IRQHandler+0x32>
E:\2017-2018\03_Graduation Project\04_Software\04_wangshi\03_UpdateSoftware-180625\01_UEBootloader\KL36_BootLoader-180621\Debug/../06_NosPrg/isr.c:95
			}
			buf[0] = ch;
     762:	4b19      	ldr	r3, [pc, #100]	; (7c8 <UART2_IRQHandler+0xbc>)
     764:	1dba      	adds	r2, r7, #6
     766:	7812      	ldrb	r2, [r2, #0]
     768:	701a      	strb	r2, [r3, #0]
E:\2017-2018\03_Graduation Project\04_Software\04_wangshi\03_UpdateSoftware-180625\01_UEBootloader\KL36_BootLoader-180621\Debug/../06_NosPrg/isr.c:97
			//握手命令
			if(strncmp(buf,"ekahs",5) == 0)
     76a:	4918      	ldr	r1, [pc, #96]	; (7cc <UART2_IRQHandler+0xc0>)
     76c:	4b16      	ldr	r3, [pc, #88]	; (7c8 <UART2_IRQHandler+0xbc>)
     76e:	2205      	movs	r2, #5
     770:	0018      	movs	r0, r3
     772:	f002 fa5a 	bl	2c2a <strncmp>
     776:	1e03      	subs	r3, r0, #0
     778:	d105      	bne.n	786 <UART2_IRQHandler+0x7a>
E:\2017-2018\03_Graduation Project\04_Software\04_wangshi\03_UpdateSoftware-180625\01_UEBootloader\KL36_BootLoader-180621\Debug/../06_NosPrg/isr.c:99
			{
				uart_send_string(UART_2,"shake");
     77a:	4b15      	ldr	r3, [pc, #84]	; (7d0 <UART2_IRQHandler+0xc4>)
     77c:	0019      	movs	r1, r3
     77e:	2002      	movs	r0, #2
     780:	f001 fa35 	bl	1bee <uart_send_string>
     784:	e00f      	b.n	7a6 <UART2_IRQHandler+0x9a>
E:\2017-2018\03_Graduation Project\04_Software\04_wangshi\03_UpdateSoftware-180625\01_UEBootloader\KL36_BootLoader-180621\Debug/../06_NosPrg/isr.c:102
			}
			//更新命令
			else if(strncmp(buf,"etadpu",6) == 0)
     786:	4913      	ldr	r1, [pc, #76]	; (7d4 <UART2_IRQHandler+0xc8>)
     788:	4b0f      	ldr	r3, [pc, #60]	; (7c8 <UART2_IRQHandler+0xbc>)
     78a:	2206      	movs	r2, #6
     78c:	0018      	movs	r0, r3
     78e:	f002 fa4c 	bl	2c2a <strncmp>
     792:	1e03      	subs	r3, r0, #0
     794:	d107      	bne.n	7a6 <UART2_IRQHandler+0x9a>
E:\2017-2018\03_Graduation Project\04_Software\04_wangshi\03_UpdateSoftware-180625\01_UEBootloader\KL36_BootLoader-180621\Debug/../06_NosPrg/isr.c:104
			{
				flash_write(29,sizeof(struct funInfo),6,"update");
     796:	4b10      	ldr	r3, [pc, #64]	; (7d8 <UART2_IRQHandler+0xcc>)
     798:	2206      	movs	r2, #6
     79a:	2180      	movs	r1, #128	; 0x80
     79c:	201d      	movs	r0, #29
     79e:	f002 f885 	bl	28ac <flash_write>
E:\2017-2018\03_Graduation Project\04_Software\04_wangshi\03_UpdateSoftware-180625\01_UEBootloader\KL36_BootLoader-180621\Debug/../06_NosPrg/isr.c:105
				NVIC_SystemReset();
     7a2:	f7ff ff51 	bl	648 <NVIC_SystemReset>
E:\2017-2018\03_Graduation Project\04_Software\04_wangshi\03_UpdateSoftware-180625\01_UEBootloader\KL36_BootLoader-180621\Debug/../06_NosPrg/isr.c:108
			}
			//组装更新帧数据
			if(CreateFrame(ch,gRecvBuf,&gRecvLen) == 0)
     7a6:	4a0d      	ldr	r2, [pc, #52]	; (7dc <UART2_IRQHandler+0xd0>)
     7a8:	490d      	ldr	r1, [pc, #52]	; (7e0 <UART2_IRQHandler+0xd4>)
     7aa:	1dbb      	adds	r3, r7, #6
     7ac:	781b      	ldrb	r3, [r3, #0]
     7ae:	0018      	movs	r0, r3
     7b0:	f000 f81a 	bl	7e8 <CreateFrame>
     7b4:	1e03      	subs	r3, r0, #0
     7b6:	d102      	bne.n	7be <UART2_IRQHandler+0xb2>
E:\2017-2018\03_Graduation Project\04_Software\04_wangshi\03_UpdateSoftware-180625\01_UEBootloader\KL36_BootLoader-180621\Debug/../06_NosPrg/isr.c:110
			{
				gFunFlag = 2;  //接收到上位机更新数据
     7b8:	4b0a      	ldr	r3, [pc, #40]	; (7e4 <UART2_IRQHandler+0xd8>)
     7ba:	2202      	movs	r2, #2
     7bc:	701a      	strb	r2, [r3, #0]
__enable_irq():
E:\2017-2018\03_Graduation Project\04_Software\04_wangshi\03_UpdateSoftware-180625\01_UEBootloader\KL36_BootLoader-180621\02_Core/core_cmFunc.h:333
  __ASM volatile ("cpsie i" : : : "memory");
     7be:	b662      	cpsie	i
UART2_IRQHandler():
E:\2017-2018\03_Graduation Project\04_Software\04_wangshi\03_UpdateSoftware-180625\01_UEBootloader\KL36_BootLoader-180621\Debug/../06_NosPrg/isr.c:116
			}
		}
	}
	//-------------------------------
	ENABLE_INTERRUPTS;       //开总中断
}
     7c0:	46c0      	nop			; (mov r8, r8)
     7c2:	46bd      	mov	sp, r7
     7c4:	b003      	add	sp, #12
     7c6:	bd90      	pop	{r4, r7, pc}
     7c8:	1ffff884 	.word	0x1ffff884
     7cc:	00002c50 	.word	0x00002c50
     7d0:	00002c58 	.word	0x00002c58
     7d4:	00002c60 	.word	0x00002c60
     7d8:	00002c68 	.word	0x00002c68
     7dc:	1ffffa98 	.word	0x1ffffa98
     7e0:	1ffff890 	.word	0x1ffff890
     7e4:	1ffffa9a 	.word	0x1ffffa9a

000007e8 <CreateFrame>:
CreateFrame():
E:\2017-2018\03_Graduation Project\04_Software\04_wangshi\03_UpdateSoftware-180625\01_UEBootloader\KL36_BootLoader-180621\Debug/../06_NosPrg/isr.c:135
#define FrameHeadL    (0x50)         //帧头     ASCII码对应P
#define FrameTaiH     (0x43)         //帧尾     ASCII码对应C
#define FrameTaiL     (0x43)         //帧尾     ASCII码对应C

uint_8 CreateFrame(uint_8 Data,uint_8 * buffer,uint_16 *len)
{
     7e8:	b580      	push	{r7, lr}
     7ea:	b086      	sub	sp, #24
     7ec:	af00      	add	r7, sp, #0
     7ee:	60b9      	str	r1, [r7, #8]
     7f0:	607a      	str	r2, [r7, #4]
     7f2:	230f      	movs	r3, #15
     7f4:	18fb      	adds	r3, r7, r3
     7f6:	1c02      	adds	r2, r0, #0
     7f8:	701a      	strb	r2, [r3, #0]
E:\2017-2018\03_Graduation Project\04_Software\04_wangshi\03_UpdateSoftware-180625\01_UEBootloader\KL36_BootLoader-180621\Debug/../06_NosPrg/isr.c:140
	static uint_16 dataLen = 0;  //帧字节计数器
	static uint_16 frameLen = 0; //帧长
	uint_8 frameFlag;            //组帧状态

	frameFlag = 1;
     7fa:	2317      	movs	r3, #23
     7fc:	18fb      	adds	r3, r7, r3
     7fe:	2201      	movs	r2, #1
     800:	701a      	strb	r2, [r3, #0]
E:\2017-2018\03_Graduation Project\04_Software\04_wangshi\03_UpdateSoftware-180625\01_UEBootloader\KL36_BootLoader-180621\Debug/../06_NosPrg/isr.c:141
	switch(dataLen)
     802:	4b59      	ldr	r3, [pc, #356]	; (968 <CreateFrame+0x180>)
     804:	881b      	ldrh	r3, [r3, #0]
     806:	2b01      	cmp	r3, #1
     808:	d020      	beq.n	84c <CreateFrame+0x64>
     80a:	dc02      	bgt.n	812 <CreateFrame+0x2a>
     80c:	2b00      	cmp	r3, #0
     80e:	d005      	beq.n	81c <CreateFrame+0x34>
     810:	e063      	b.n	8da <CreateFrame+0xf2>
     812:	2b02      	cmp	r3, #2
     814:	d035      	beq.n	882 <CreateFrame+0x9a>
     816:	2b03      	cmp	r3, #3
     818:	d048      	beq.n	8ac <CreateFrame+0xc4>
     81a:	e05e      	b.n	8da <CreateFrame+0xf2>
E:\2017-2018\03_Graduation Project\04_Software\04_wangshi\03_UpdateSoftware-180625\01_UEBootloader\KL36_BootLoader-180621\Debug/../06_NosPrg/isr.c:144
	{
	case 0:  //第一个数据
		if(Data == FrameHeadH)
     81c:	230f      	movs	r3, #15
     81e:	18fb      	adds	r3, r7, r3
     820:	781b      	ldrb	r3, [r3, #0]
     822:	2b50      	cmp	r3, #80	; 0x50
     824:	d000      	beq.n	828 <CreateFrame+0x40>
     826:	e095      	b.n	954 <CreateFrame+0x16c>
E:\2017-2018\03_Graduation Project\04_Software\04_wangshi\03_UpdateSoftware-180625\01_UEBootloader\KL36_BootLoader-180621\Debug/../06_NosPrg/isr.c:146
		{
			buffer[dataLen++] = Data;
     828:	4b4f      	ldr	r3, [pc, #316]	; (968 <CreateFrame+0x180>)
     82a:	881b      	ldrh	r3, [r3, #0]
     82c:	1c5a      	adds	r2, r3, #1
     82e:	b291      	uxth	r1, r2
     830:	4a4d      	ldr	r2, [pc, #308]	; (968 <CreateFrame+0x180>)
     832:	8011      	strh	r1, [r2, #0]
     834:	001a      	movs	r2, r3
     836:	68bb      	ldr	r3, [r7, #8]
     838:	189b      	adds	r3, r3, r2
     83a:	220f      	movs	r2, #15
     83c:	18ba      	adds	r2, r7, r2
     83e:	7812      	ldrb	r2, [r2, #0]
     840:	701a      	strb	r2, [r3, #0]
E:\2017-2018\03_Graduation Project\04_Software\04_wangshi\03_UpdateSoftware-180625\01_UEBootloader\KL36_BootLoader-180621\Debug/../06_NosPrg/isr.c:147
			frameFlag = 1;    //开始组帧
     842:	2317      	movs	r3, #23
     844:	18fb      	adds	r3, r7, r3
     846:	2201      	movs	r2, #1
     848:	701a      	strb	r2, [r3, #0]
E:\2017-2018\03_Graduation Project\04_Software\04_wangshi\03_UpdateSoftware-180625\01_UEBootloader\KL36_BootLoader-180621\Debug/../06_NosPrg/isr.c:149
		}
		break;
     84a:	e083      	b.n	954 <CreateFrame+0x16c>
E:\2017-2018\03_Graduation Project\04_Software\04_wangshi\03_UpdateSoftware-180625\01_UEBootloader\KL36_BootLoader-180621\Debug/../06_NosPrg/isr.c:151
	case 1:  //第二个数据
		if(Data == FrameHeadL)
     84c:	230f      	movs	r3, #15
     84e:	18fb      	adds	r3, r7, r3
     850:	781b      	ldrb	r3, [r3, #0]
     852:	2b50      	cmp	r3, #80	; 0x50
     854:	d10d      	bne.n	872 <CreateFrame+0x8a>
E:\2017-2018\03_Graduation Project\04_Software\04_wangshi\03_UpdateSoftware-180625\01_UEBootloader\KL36_BootLoader-180621\Debug/../06_NosPrg/isr.c:153
		{
			buffer[dataLen++] = Data;
     856:	4b44      	ldr	r3, [pc, #272]	; (968 <CreateFrame+0x180>)
     858:	881b      	ldrh	r3, [r3, #0]
     85a:	1c5a      	adds	r2, r3, #1
     85c:	b291      	uxth	r1, r2
     85e:	4a42      	ldr	r2, [pc, #264]	; (968 <CreateFrame+0x180>)
     860:	8011      	strh	r1, [r2, #0]
     862:	001a      	movs	r2, r3
     864:	68bb      	ldr	r3, [r7, #8]
     866:	189b      	adds	r3, r3, r2
     868:	220f      	movs	r2, #15
     86a:	18ba      	adds	r2, r7, r2
     86c:	7812      	ldrb	r2, [r2, #0]
     86e:	701a      	strb	r2, [r3, #0]
E:\2017-2018\03_Graduation Project\04_Software\04_wangshi\03_UpdateSoftware-180625\01_UEBootloader\KL36_BootLoader-180621\Debug/../06_NosPrg/isr.c:160
		else
		{
			dataLen = 0;
			frameFlag = 2;    //帧头错误
		}
		break;
     870:	e073      	b.n	95a <CreateFrame+0x172>
E:\2017-2018\03_Graduation Project\04_Software\04_wangshi\03_UpdateSoftware-180625\01_UEBootloader\KL36_BootLoader-180621\Debug/../06_NosPrg/isr.c:157
			dataLen = 0;
     872:	4b3d      	ldr	r3, [pc, #244]	; (968 <CreateFrame+0x180>)
     874:	2200      	movs	r2, #0
     876:	801a      	strh	r2, [r3, #0]
E:\2017-2018\03_Graduation Project\04_Software\04_wangshi\03_UpdateSoftware-180625\01_UEBootloader\KL36_BootLoader-180621\Debug/../06_NosPrg/isr.c:158
			frameFlag = 2;    //帧头错误
     878:	2317      	movs	r3, #23
     87a:	18fb      	adds	r3, r7, r3
     87c:	2202      	movs	r2, #2
     87e:	701a      	strb	r2, [r3, #0]
E:\2017-2018\03_Graduation Project\04_Software\04_wangshi\03_UpdateSoftware-180625\01_UEBootloader\KL36_BootLoader-180621\Debug/../06_NosPrg/isr.c:160
		break;
     880:	e06b      	b.n	95a <CreateFrame+0x172>
E:\2017-2018\03_Graduation Project\04_Software\04_wangshi\03_UpdateSoftware-180625\01_UEBootloader\KL36_BootLoader-180621\Debug/../06_NosPrg/isr.c:162
	case 2:  //第三个数据
		buffer[dataLen++] = Data;
     882:	4b39      	ldr	r3, [pc, #228]	; (968 <CreateFrame+0x180>)
     884:	881b      	ldrh	r3, [r3, #0]
     886:	1c5a      	adds	r2, r3, #1
     888:	b291      	uxth	r1, r2
     88a:	4a37      	ldr	r2, [pc, #220]	; (968 <CreateFrame+0x180>)
     88c:	8011      	strh	r1, [r2, #0]
     88e:	001a      	movs	r2, r3
     890:	68bb      	ldr	r3, [r7, #8]
     892:	189b      	adds	r3, r3, r2
     894:	210f      	movs	r1, #15
     896:	187a      	adds	r2, r7, r1
     898:	7812      	ldrb	r2, [r2, #0]
     89a:	701a      	strb	r2, [r3, #0]
E:\2017-2018\03_Graduation Project\04_Software\04_wangshi\03_UpdateSoftware-180625\01_UEBootloader\KL36_BootLoader-180621\Debug/../06_NosPrg/isr.c:163
		frameLen = Data<<8;
     89c:	187b      	adds	r3, r7, r1
     89e:	781b      	ldrb	r3, [r3, #0]
     8a0:	b29b      	uxth	r3, r3
     8a2:	021b      	lsls	r3, r3, #8
     8a4:	b29a      	uxth	r2, r3
     8a6:	4b31      	ldr	r3, [pc, #196]	; (96c <CreateFrame+0x184>)
     8a8:	801a      	strh	r2, [r3, #0]
E:\2017-2018\03_Graduation Project\04_Software\04_wangshi\03_UpdateSoftware-180625\01_UEBootloader\KL36_BootLoader-180621\Debug/../06_NosPrg/isr.c:164
		break;
     8aa:	e056      	b.n	95a <CreateFrame+0x172>
E:\2017-2018\03_Graduation Project\04_Software\04_wangshi\03_UpdateSoftware-180625\01_UEBootloader\KL36_BootLoader-180621\Debug/../06_NosPrg/isr.c:166
	case 3:  //第四个数据
		buffer[dataLen++] = Data;
     8ac:	4b2e      	ldr	r3, [pc, #184]	; (968 <CreateFrame+0x180>)
     8ae:	881b      	ldrh	r3, [r3, #0]
     8b0:	1c5a      	adds	r2, r3, #1
     8b2:	b291      	uxth	r1, r2
     8b4:	4a2c      	ldr	r2, [pc, #176]	; (968 <CreateFrame+0x180>)
     8b6:	8011      	strh	r1, [r2, #0]
     8b8:	001a      	movs	r2, r3
     8ba:	68bb      	ldr	r3, [r7, #8]
     8bc:	189b      	adds	r3, r3, r2
     8be:	210f      	movs	r1, #15
     8c0:	187a      	adds	r2, r7, r1
     8c2:	7812      	ldrb	r2, [r2, #0]
     8c4:	701a      	strb	r2, [r3, #0]
E:\2017-2018\03_Graduation Project\04_Software\04_wangshi\03_UpdateSoftware-180625\01_UEBootloader\KL36_BootLoader-180621\Debug/../06_NosPrg/isr.c:167
		frameLen += Data;
     8c6:	187b      	adds	r3, r7, r1
     8c8:	781b      	ldrb	r3, [r3, #0]
     8ca:	b29a      	uxth	r2, r3
     8cc:	4b27      	ldr	r3, [pc, #156]	; (96c <CreateFrame+0x184>)
     8ce:	881b      	ldrh	r3, [r3, #0]
     8d0:	18d3      	adds	r3, r2, r3
     8d2:	b29a      	uxth	r2, r3
     8d4:	4b25      	ldr	r3, [pc, #148]	; (96c <CreateFrame+0x184>)
     8d6:	801a      	strh	r2, [r3, #0]
E:\2017-2018\03_Graduation Project\04_Software\04_wangshi\03_UpdateSoftware-180625\01_UEBootloader\KL36_BootLoader-180621\Debug/../06_NosPrg/isr.c:168
		break;
     8d8:	e03f      	b.n	95a <CreateFrame+0x172>
E:\2017-2018\03_Graduation Project\04_Software\04_wangshi\03_UpdateSoftware-180625\01_UEBootloader\KL36_BootLoader-180621\Debug/../06_NosPrg/isr.c:170
	default:
		buffer[dataLen++] = Data;
     8da:	4b23      	ldr	r3, [pc, #140]	; (968 <CreateFrame+0x180>)
     8dc:	881b      	ldrh	r3, [r3, #0]
     8de:	1c5a      	adds	r2, r3, #1
     8e0:	b291      	uxth	r1, r2
     8e2:	4a21      	ldr	r2, [pc, #132]	; (968 <CreateFrame+0x180>)
     8e4:	8011      	strh	r1, [r2, #0]
     8e6:	001a      	movs	r2, r3
     8e8:	68bb      	ldr	r3, [r7, #8]
     8ea:	189b      	adds	r3, r3, r2
     8ec:	220f      	movs	r2, #15
     8ee:	18ba      	adds	r2, r7, r2
     8f0:	7812      	ldrb	r2, [r2, #0]
     8f2:	701a      	strb	r2, [r3, #0]
E:\2017-2018\03_Graduation Project\04_Software\04_wangshi\03_UpdateSoftware-180625\01_UEBootloader\KL36_BootLoader-180621\Debug/../06_NosPrg/isr.c:171
		if(frameLen == dataLen)
     8f4:	4b1d      	ldr	r3, [pc, #116]	; (96c <CreateFrame+0x184>)
     8f6:	881a      	ldrh	r2, [r3, #0]
     8f8:	4b1b      	ldr	r3, [pc, #108]	; (968 <CreateFrame+0x180>)
     8fa:	881b      	ldrh	r3, [r3, #0]
     8fc:	429a      	cmp	r2, r3
     8fe:	d12b      	bne.n	958 <CreateFrame+0x170>
E:\2017-2018\03_Graduation Project\04_Software\04_wangshi\03_UpdateSoftware-180625\01_UEBootloader\KL36_BootLoader-180621\Debug/../06_NosPrg/isr.c:173
		{
			if(buffer[frameLen-2] == FrameTaiH && buffer[frameLen-1] == FrameTaiL)
     900:	4b1a      	ldr	r3, [pc, #104]	; (96c <CreateFrame+0x184>)
     902:	881b      	ldrh	r3, [r3, #0]
     904:	3b02      	subs	r3, #2
     906:	68ba      	ldr	r2, [r7, #8]
     908:	18d3      	adds	r3, r2, r3
     90a:	781b      	ldrb	r3, [r3, #0]
     90c:	2b43      	cmp	r3, #67	; 0x43
     90e:	d116      	bne.n	93e <CreateFrame+0x156>
E:\2017-2018\03_Graduation Project\04_Software\04_wangshi\03_UpdateSoftware-180625\01_UEBootloader\KL36_BootLoader-180621\Debug/../06_NosPrg/isr.c:173 (discriminator 1)
     910:	4b16      	ldr	r3, [pc, #88]	; (96c <CreateFrame+0x184>)
     912:	881b      	ldrh	r3, [r3, #0]
     914:	3b01      	subs	r3, #1
     916:	68ba      	ldr	r2, [r7, #8]
     918:	18d3      	adds	r3, r2, r3
     91a:	781b      	ldrb	r3, [r3, #0]
     91c:	2b43      	cmp	r3, #67	; 0x43
     91e:	d10e      	bne.n	93e <CreateFrame+0x156>
E:\2017-2018\03_Graduation Project\04_Software\04_wangshi\03_UpdateSoftware-180625\01_UEBootloader\KL36_BootLoader-180621\Debug/../06_NosPrg/isr.c:175
			{
				frameFlag = 0; //组帧成功
     920:	2317      	movs	r3, #23
     922:	18fb      	adds	r3, r7, r3
     924:	2200      	movs	r2, #0
     926:	701a      	strb	r2, [r3, #0]
E:\2017-2018\03_Graduation Project\04_Software\04_wangshi\03_UpdateSoftware-180625\01_UEBootloader\KL36_BootLoader-180621\Debug/../06_NosPrg/isr.c:176
				*len = frameLen;
     928:	4b10      	ldr	r3, [pc, #64]	; (96c <CreateFrame+0x184>)
     92a:	881a      	ldrh	r2, [r3, #0]
     92c:	687b      	ldr	r3, [r7, #4]
     92e:	801a      	strh	r2, [r3, #0]
E:\2017-2018\03_Graduation Project\04_Software\04_wangshi\03_UpdateSoftware-180625\01_UEBootloader\KL36_BootLoader-180621\Debug/../06_NosPrg/isr.c:177
				dataLen = 0;
     930:	4b0d      	ldr	r3, [pc, #52]	; (968 <CreateFrame+0x180>)
     932:	2200      	movs	r2, #0
     934:	801a      	strh	r2, [r3, #0]
E:\2017-2018\03_Graduation Project\04_Software\04_wangshi\03_UpdateSoftware-180625\01_UEBootloader\KL36_BootLoader-180621\Debug/../06_NosPrg/isr.c:178
				frameLen = 0;
     936:	4b0d      	ldr	r3, [pc, #52]	; (96c <CreateFrame+0x184>)
     938:	2200      	movs	r2, #0
     93a:	801a      	strh	r2, [r3, #0]
E:\2017-2018\03_Graduation Project\04_Software\04_wangshi\03_UpdateSoftware-180625\01_UEBootloader\KL36_BootLoader-180621\Debug/../06_NosPrg/isr.c:187
				frameFlag = 3; //组帧失败
				dataLen = 0;
				frameLen = 0;
			}
		}
		break;
     93c:	e00c      	b.n	958 <CreateFrame+0x170>
E:\2017-2018\03_Graduation Project\04_Software\04_wangshi\03_UpdateSoftware-180625\01_UEBootloader\KL36_BootLoader-180621\Debug/../06_NosPrg/isr.c:182
				frameFlag = 3; //组帧失败
     93e:	2317      	movs	r3, #23
     940:	18fb      	adds	r3, r7, r3
     942:	2203      	movs	r2, #3
     944:	701a      	strb	r2, [r3, #0]
E:\2017-2018\03_Graduation Project\04_Software\04_wangshi\03_UpdateSoftware-180625\01_UEBootloader\KL36_BootLoader-180621\Debug/../06_NosPrg/isr.c:183
				dataLen = 0;
     946:	4b08      	ldr	r3, [pc, #32]	; (968 <CreateFrame+0x180>)
     948:	2200      	movs	r2, #0
     94a:	801a      	strh	r2, [r3, #0]
E:\2017-2018\03_Graduation Project\04_Software\04_wangshi\03_UpdateSoftware-180625\01_UEBootloader\KL36_BootLoader-180621\Debug/../06_NosPrg/isr.c:184
				frameLen = 0;
     94c:	4b07      	ldr	r3, [pc, #28]	; (96c <CreateFrame+0x184>)
     94e:	2200      	movs	r2, #0
     950:	801a      	strh	r2, [r3, #0]
E:\2017-2018\03_Graduation Project\04_Software\04_wangshi\03_UpdateSoftware-180625\01_UEBootloader\KL36_BootLoader-180621\Debug/../06_NosPrg/isr.c:187
		break;
     952:	e001      	b.n	958 <CreateFrame+0x170>
E:\2017-2018\03_Graduation Project\04_Software\04_wangshi\03_UpdateSoftware-180625\01_UEBootloader\KL36_BootLoader-180621\Debug/../06_NosPrg/isr.c:149
		break;
     954:	46c0      	nop			; (mov r8, r8)
     956:	e000      	b.n	95a <CreateFrame+0x172>
E:\2017-2018\03_Graduation Project\04_Software\04_wangshi\03_UpdateSoftware-180625\01_UEBootloader\KL36_BootLoader-180621\Debug/../06_NosPrg/isr.c:187
		break;
     958:	46c0      	nop			; (mov r8, r8)
E:\2017-2018\03_Graduation Project\04_Software\04_wangshi\03_UpdateSoftware-180625\01_UEBootloader\KL36_BootLoader-180621\Debug/../06_NosPrg/isr.c:190
	}

	return frameFlag;
     95a:	2317      	movs	r3, #23
     95c:	18fb      	adds	r3, r7, r3
     95e:	781b      	ldrb	r3, [r3, #0]
E:\2017-2018\03_Graduation Project\04_Software\04_wangshi\03_UpdateSoftware-180625\01_UEBootloader\KL36_BootLoader-180621\Debug/../06_NosPrg/isr.c:191
}
     960:	0018      	movs	r0, r3
     962:	46bd      	mov	sp, r7
     964:	b006      	add	sp, #24
     966:	bd80      	pop	{r7, pc}
     968:	1ffff88c 	.word	0x1ffff88c
     96c:	1ffff88e 	.word	0x1ffff88e

00000970 <main>:
main():
E:\2017-2018\03_Graduation Project\04_Software\04_wangshi\03_UpdateSoftware-180625\01_UEBootloader\KL36_BootLoader-180621\Debug/../06_NosPrg/main.c:15
void funToFlash();

uint_64 getTime(void);

int main(void)
{
     970:	b5b0      	push	{r4, r5, r7, lr}
     972:	4c66      	ldr	r4, [pc, #408]	; (b0c <main+0x19c>)
     974:	44a5      	add	sp, r4
     976:	af00      	add	r7, sp, #0
__disable_irq():
E:\2017-2018\03_Graduation Project\04_Software\04_wangshi\03_UpdateSoftware-180625\01_UEBootloader\KL36_BootLoader-180621\02_Core/core_cmFunc.h:344
  __ASM volatile ("cpsid i" : : : "memory");
     978:	b672      	cpsid	i
main():
E:\2017-2018\03_Graduation Project\04_Software\04_wangshi\03_UpdateSoftware-180625\01_UEBootloader\KL36_BootLoader-180621\Debug/../06_NosPrg/main.c:27
	uint_8 mUpdateInfo[512];

	//（2）【不动】 关总中断
  	DISABLE_INTERRUPTS;
	//（3）【根据实际需要增删】 初始化外设模块
  	uart_init(UART_2,9600);
     97a:	2396      	movs	r3, #150	; 0x96
     97c:	019b      	lsls	r3, r3, #6
     97e:	0019      	movs	r1, r3
     980:	2002      	movs	r0, #2
     982:	f000 ff51 	bl	1828 <uart_init>
E:\2017-2018\03_Graduation Project\04_Software\04_wangshi\03_UpdateSoftware-180625\01_UEBootloader\KL36_BootLoader-180621\Debug/../06_NosPrg/main.c:28
  	systick_init(CORE_CLOCK_DIV_16,1000);
     986:	23fa      	movs	r3, #250	; 0xfa
     988:	009b      	lsls	r3, r3, #2
     98a:	0019      	movs	r1, r3
     98c:	2000      	movs	r0, #0
     98e:	f001 fbcd 	bl	212c <systick_init>
E:\2017-2018\03_Graduation Project\04_Software\04_wangshi\03_UpdateSoftware-180625\01_UEBootloader\KL36_BootLoader-180621\Debug/../06_NosPrg/main.c:29
	flash_init();
     992:	f001 ff23 	bl	27dc <flash_init>
E:\2017-2018\03_Graduation Project\04_Software\04_wangshi\03_UpdateSoftware-180625\01_UEBootloader\KL36_BootLoader-180621\Debug/../06_NosPrg/main.c:30
	light_init(LIGHT_GREEN,LIGHT_OFF);
     996:	2101      	movs	r1, #1
     998:	200c      	movs	r0, #12
     99a:	f000 fe28 	bl	15ee <light_init>
E:\2017-2018\03_Graduation Project\04_Software\04_wangshi\03_UpdateSoftware-180625\01_UEBootloader\KL36_BootLoader-180621\Debug/../06_NosPrg/main.c:31
	ueupdate_init(USERBASE/1024);
     99e:	201e      	movs	r0, #30
     9a0:	f000 f9dc 	bl	d5c <ueupdate_init>
E:\2017-2018\03_Graduation Project\04_Software\04_wangshi\03_UpdateSoftware-180625\01_UEBootloader\KL36_BootLoader-180621\Debug/../06_NosPrg/main.c:33
	//（4）【根据实际需要增删】 给有关变量赋初值
	gFunFlag = 0;
     9a4:	4b5a      	ldr	r3, [pc, #360]	; (b10 <main+0x1a0>)
     9a6:	2200      	movs	r2, #0
     9a8:	701a      	strb	r2, [r3, #0]
E:\2017-2018\03_Graduation Project\04_Software\04_wangshi\03_UpdateSoftware-180625\01_UEBootloader\KL36_BootLoader-180621\Debug/../06_NosPrg/main.c:34
	gRecvLen = 0;
     9aa:	4b5a      	ldr	r3, [pc, #360]	; (b14 <main+0x1a4>)
     9ac:	2200      	movs	r2, #0
     9ae:	801a      	strh	r2, [r3, #0]
E:\2017-2018\03_Graduation Project\04_Software\04_wangshi\03_UpdateSoftware-180625\01_UEBootloader\KL36_BootLoader-180621\Debug/../06_NosPrg/main.c:35
	gTime = 0;
     9b0:	4a59      	ldr	r2, [pc, #356]	; (b18 <main+0x1a8>)
     9b2:	2300      	movs	r3, #0
     9b4:	2400      	movs	r4, #0
     9b6:	6013      	str	r3, [r2, #0]
     9b8:	6054      	str	r4, [r2, #4]
E:\2017-2018\03_Graduation Project\04_Software\04_wangshi\03_UpdateSoftware-180625\01_UEBootloader\KL36_BootLoader-180621\Debug/../06_NosPrg/main.c:36
	mCount = 0;
     9ba:	2300      	movs	r3, #0
     9bc:	2282      	movs	r2, #130	; 0x82
     9be:	0092      	lsls	r2, r2, #2
     9c0:	18ba      	adds	r2, r7, r2
     9c2:	6013      	str	r3, [r2, #0]
E:\2017-2018\03_Graduation Project\04_Software\04_wangshi\03_UpdateSoftware-180625\01_UEBootloader\KL36_BootLoader-180621\Debug/../06_NosPrg/main.c:39

	//（5）【根据实际需要增删】 使能模块中断
	uart_enable_re_int(UART_2);
     9c4:	2002      	movs	r0, #2
     9c6:	f001 f9fd 	bl	1dc4 <uart_enable_re_int>
__enable_irq():
E:\2017-2018\03_Graduation Project\04_Software\04_wangshi\03_UpdateSoftware-180625\01_UEBootloader\KL36_BootLoader-180621\02_Core/core_cmFunc.h:333
  __ASM volatile ("cpsie i" : : : "memory");
     9ca:	b662      	cpsie	i
main():
E:\2017-2018\03_Graduation Project\04_Software\04_wangshi\03_UpdateSoftware-180625\01_UEBootloader\KL36_BootLoader-180621\Debug/../06_NosPrg/main.c:43
	//（6）【不变】开总中断
	ENABLE_INTERRUPTS;   //开总中断

	updateJudge();//判断是否需要进行更新操作
     9cc:	f000 f8c0 	bl	b50 <updateJudge>
E:\2017-2018\03_Graduation Project\04_Software\04_wangshi\03_UpdateSoftware-180625\01_UEBootloader\KL36_BootLoader-180621\Debug/../06_NosPrg/main.c:49

	//进入主循环
	//主循环开始======================================================
	for(;;)
	{
		switch(gFunFlag)
     9d0:	4b4f      	ldr	r3, [pc, #316]	; (b10 <main+0x1a0>)
     9d2:	781b      	ldrb	r3, [r3, #0]
     9d4:	2b01      	cmp	r3, #1
     9d6:	d012      	beq.n	9fe <main+0x8e>
     9d8:	2b02      	cmp	r3, #2
     9da:	d019      	beq.n	a10 <main+0xa0>
     9dc:	2b00      	cmp	r3, #0
     9de:	d000      	beq.n	9e2 <main+0x72>
     9e0:	e07b      	b.n	ada <main+0x16a>
E:\2017-2018\03_Graduation Project\04_Software\04_wangshi\03_UpdateSoftware-180625\01_UEBootloader\KL36_BootLoader-180621\Debug/../06_NosPrg/main.c:52
		{
		case 0:  //无需更新数据
			funToFlash(); //将各个函数指针写入flash
     9e2:	f000 f8eb 	bl	bbc <funToFlash>
E:\2017-2018\03_Graduation Project\04_Software\04_wangshi\03_UpdateSoftware-180625\01_UEBootloader\KL36_BootLoader-180621\Debug/../06_NosPrg/main.c:54

			light_control(LIGHT_GREEN,LIGHT_OFF);
     9e6:	2101      	movs	r1, #1
     9e8:	200c      	movs	r0, #12
     9ea:	f000 fe15 	bl	1618 <light_control>
__disable_irq():
E:\2017-2018\03_Graduation Project\04_Software\04_wangshi\03_UpdateSoftware-180625\01_UEBootloader\KL36_BootLoader-180621\02_Core/core_cmFunc.h:344
  __ASM volatile ("cpsid i" : : : "memory");
     9ee:	b672      	cpsid	i
main():
E:\2017-2018\03_Graduation Project\04_Software\04_wangshi\03_UpdateSoftware-180625\01_UEBootloader\KL36_BootLoader-180621\Debug/../06_NosPrg/main.c:58

			//跳转用户程序
			DISABLE_INTERRUPTS;
			bootloader_goToUserApp(USERBASE);
     9f0:	23f0      	movs	r3, #240	; 0xf0
     9f2:	01db      	lsls	r3, r3, #7
     9f4:	0018      	movs	r0, r3
     9f6:	f000 fe33 	bl	1660 <bootloader_goToUserApp>
__enable_irq():
E:\2017-2018\03_Graduation Project\04_Software\04_wangshi\03_UpdateSoftware-180625\01_UEBootloader\KL36_BootLoader-180621\02_Core/core_cmFunc.h:333
  __ASM volatile ("cpsie i" : : : "memory");
     9fa:	b662      	cpsie	i
main():
E:\2017-2018\03_Graduation Project\04_Software\04_wangshi\03_UpdateSoftware-180625\01_UEBootloader\KL36_BootLoader-180621\Debug/../06_NosPrg/main.c:60
			ENABLE_INTERRUPTS;   //开总中断
			break;
     9fc:	e085      	b.n	b0a <main+0x19a>
E:\2017-2018\03_Graduation Project\04_Software\04_wangshi\03_UpdateSoftware-180625\01_UEBootloader\KL36_BootLoader-180621\Debug/../06_NosPrg/main.c:62
		case 1:  //提示上位机进入bootloader程序，可接收更新数据
			uart_send_string(UART_2,"Start Update");
     9fe:	4b47      	ldr	r3, [pc, #284]	; (b1c <main+0x1ac>)
     a00:	0019      	movs	r1, r3
     a02:	2002      	movs	r0, #2
     a04:	f001 f8f3 	bl	1bee <uart_send_string>
E:\2017-2018\03_Graduation Project\04_Software\04_wangshi\03_UpdateSoftware-180625\01_UEBootloader\KL36_BootLoader-180621\Debug/../06_NosPrg/main.c:63
			gFunFlag = 10; //非0、1、2的任意数
     a08:	4b41      	ldr	r3, [pc, #260]	; (b10 <main+0x1a0>)
     a0a:	220a      	movs	r2, #10
     a0c:	701a      	strb	r2, [r3, #0]
E:\2017-2018\03_Graduation Project\04_Software\04_wangshi\03_UpdateSoftware-180625\01_UEBootloader\KL36_BootLoader-180621\Debug/../06_NosPrg/main.c:64
			break;
     a0e:	e07c      	b.n	b0a <main+0x19a>
E:\2017-2018\03_Graduation Project\04_Software\04_wangshi\03_UpdateSoftware-180625\01_UEBootloader\KL36_BootLoader-180621\Debug/../06_NosPrg/main.c:66
		case 2:  //接收到更新数据
			flag = ueupdate_recv(gRecvBuf,gRecvLen);
     a10:	4b40      	ldr	r3, [pc, #256]	; (b14 <main+0x1a4>)
     a12:	881a      	ldrh	r2, [r3, #0]
     a14:	4d42      	ldr	r5, [pc, #264]	; (b20 <main+0x1b0>)
     a16:	197c      	adds	r4, r7, r5
     a18:	4b42      	ldr	r3, [pc, #264]	; (b24 <main+0x1b4>)
     a1a:	0011      	movs	r1, r2
     a1c:	0018      	movs	r0, r3
     a1e:	f000 fa45 	bl	eac <ueupdate_recv>
     a22:	0003      	movs	r3, r0
     a24:	7023      	strb	r3, [r4, #0]
E:\2017-2018\03_Graduation Project\04_Software\04_wangshi\03_UpdateSoftware-180625\01_UEBootloader\KL36_BootLoader-180621\Debug/../06_NosPrg/main.c:67
			switch(flag)
     a26:	197b      	adds	r3, r7, r5
     a28:	781b      	ldrb	r3, [r3, #0]
     a2a:	2b01      	cmp	r3, #1
     a2c:	d100      	bne.n	a30 <main+0xc0>
     a2e:	e069      	b.n	b04 <main+0x194>
     a30:	dc02      	bgt.n	a38 <main+0xc8>
     a32:	2b00      	cmp	r3, #0
     a34:	d005      	beq.n	a42 <main+0xd2>
     a36:	e013      	b.n	a60 <main+0xf0>
     a38:	2b03      	cmp	r3, #3
     a3a:	d007      	beq.n	a4c <main+0xdc>
     a3c:	2b04      	cmp	r3, #4
     a3e:	d00a      	beq.n	a56 <main+0xe6>
     a40:	e00e      	b.n	a60 <main+0xf0>
E:\2017-2018\03_Graduation Project\04_Software\04_wangshi\03_UpdateSoftware-180625\01_UEBootloader\KL36_BootLoader-180621\Debug/../06_NosPrg/main.c:69
			{
    		case 0:  order = 4;break;  //接收数据成功
     a42:	4b39      	ldr	r3, [pc, #228]	; (b28 <main+0x1b8>)
     a44:	18fb      	adds	r3, r7, r3
     a46:	2204      	movs	r2, #4
     a48:	701a      	strb	r2, [r3, #0]
     a4a:	e00e      	b.n	a6a <main+0xfa>
E:\2017-2018\03_Graduation Project\04_Software\04_wangshi\03_UpdateSoftware-180625\01_UEBootloader\KL36_BootLoader-180621\Debug/../06_NosPrg/main.c:71
    		case 1:  continue;  //不是更新数据
    		case 3:  order = 5;break;  //当前更新过程发生错误
     a4c:	4b36      	ldr	r3, [pc, #216]	; (b28 <main+0x1b8>)
     a4e:	18fb      	adds	r3, r7, r3
     a50:	2205      	movs	r2, #5
     a52:	701a      	strb	r2, [r3, #0]
     a54:	e009      	b.n	a6a <main+0xfa>
E:\2017-2018\03_Graduation Project\04_Software\04_wangshi\03_UpdateSoftware-180625\01_UEBootloader\KL36_BootLoader-180621\Debug/../06_NosPrg/main.c:72
    		case 4:  order = 6;break;  //缺失数据
     a56:	4b34      	ldr	r3, [pc, #208]	; (b28 <main+0x1b8>)
     a58:	18fb      	adds	r3, r7, r3
     a5a:	2206      	movs	r2, #6
     a5c:	701a      	strb	r2, [r3, #0]
     a5e:	e004      	b.n	a6a <main+0xfa>
E:\2017-2018\03_Graduation Project\04_Software\04_wangshi\03_UpdateSoftware-180625\01_UEBootloader\KL36_BootLoader-180621\Debug/../06_NosPrg/main.c:73
    		default: order = 7;break;  //其他
     a60:	4b31      	ldr	r3, [pc, #196]	; (b28 <main+0x1b8>)
     a62:	18fb      	adds	r3, r7, r3
     a64:	2207      	movs	r2, #7
     a66:	701a      	strb	r2, [r3, #0]
     a68:	46c0      	nop			; (mov r8, r8)
E:\2017-2018\03_Graduation Project\04_Software\04_wangshi\03_UpdateSoftware-180625\01_UEBootloader\KL36_BootLoader-180621\Debug/../06_NosPrg/main.c:75
			}
			if(flag == 6)  //代码更新完毕，转向用户代码
     a6a:	4b2d      	ldr	r3, [pc, #180]	; (b20 <main+0x1b0>)
     a6c:	18fb      	adds	r3, r7, r3
     a6e:	781b      	ldrb	r3, [r3, #0]
     a70:	2b06      	cmp	r3, #6
     a72:	d103      	bne.n	a7c <main+0x10c>
E:\2017-2018\03_Graduation Project\04_Software\04_wangshi\03_UpdateSoftware-180625\01_UEBootloader\KL36_BootLoader-180621\Debug/../06_NosPrg/main.c:77
			{
				gFunFlag = 0;
     a74:	4b26      	ldr	r3, [pc, #152]	; (b10 <main+0x1a0>)
     a76:	2200      	movs	r2, #0
     a78:	701a      	strb	r2, [r3, #0]
E:\2017-2018\03_Graduation Project\04_Software\04_wangshi\03_UpdateSoftware-180625\01_UEBootloader\KL36_BootLoader-180621\Debug/../06_NosPrg/main.c:78
				continue;
     a7a:	e046      	b.n	b0a <main+0x19a>
E:\2017-2018\03_Graduation Project\04_Software\04_wangshi\03_UpdateSoftware-180625\01_UEBootloader\KL36_BootLoader-180621\Debug/../06_NosPrg/main.c:81
			}
			//向上位机返回数据
			ueupdate_send(order,mUpdateInfo,&mUpdateLen);
     a7c:	2381      	movs	r3, #129	; 0x81
     a7e:	009b      	lsls	r3, r3, #2
     a80:	18fa      	adds	r2, r7, r3
     a82:	1d39      	adds	r1, r7, #4
     a84:	4b28      	ldr	r3, [pc, #160]	; (b28 <main+0x1b8>)
     a86:	18fb      	adds	r3, r7, r3
     a88:	781b      	ldrb	r3, [r3, #0]
     a8a:	0018      	movs	r0, r3
     a8c:	f000 f98e 	bl	dac <ueupdate_send>
E:\2017-2018\03_Graduation Project\04_Software\04_wangshi\03_UpdateSoftware-180625\01_UEBootloader\KL36_BootLoader-180621\Debug/../06_NosPrg/main.c:82
			for(i = 0;i < mUpdateLen;i++)
     a90:	4b26      	ldr	r3, [pc, #152]	; (b2c <main+0x1bc>)
     a92:	18fb      	adds	r3, r7, r3
     a94:	2200      	movs	r2, #0
     a96:	801a      	strh	r2, [r3, #0]
     a98:	e012      	b.n	ac0 <main+0x150>
E:\2017-2018\03_Graduation Project\04_Software\04_wangshi\03_UpdateSoftware-180625\01_UEBootloader\KL36_BootLoader-180621\Debug/../06_NosPrg/main.c:84 (discriminator 3)
			{
				uart_send1(UART_2,mUpdateInfo[i]);
     a9a:	4c24      	ldr	r4, [pc, #144]	; (b2c <main+0x1bc>)
     a9c:	193b      	adds	r3, r7, r4
     a9e:	881b      	ldrh	r3, [r3, #0]
     aa0:	4a23      	ldr	r2, [pc, #140]	; (b30 <main+0x1c0>)
     aa2:	2184      	movs	r1, #132	; 0x84
     aa4:	0089      	lsls	r1, r1, #2
     aa6:	468c      	mov	ip, r1
     aa8:	44bc      	add	ip, r7
     aaa:	4462      	add	r2, ip
     aac:	5cd3      	ldrb	r3, [r2, r3]
     aae:	0019      	movs	r1, r3
     ab0:	2002      	movs	r0, #2
     ab2:	f001 f809 	bl	1ac8 <uart_send1>
E:\2017-2018\03_Graduation Project\04_Software\04_wangshi\03_UpdateSoftware-180625\01_UEBootloader\KL36_BootLoader-180621\Debug/../06_NosPrg/main.c:82 (discriminator 3)
			for(i = 0;i < mUpdateLen;i++)
     ab6:	193b      	adds	r3, r7, r4
     ab8:	881a      	ldrh	r2, [r3, #0]
     aba:	193b      	adds	r3, r7, r4
     abc:	3201      	adds	r2, #1
     abe:	801a      	strh	r2, [r3, #0]
E:\2017-2018\03_Graduation Project\04_Software\04_wangshi\03_UpdateSoftware-180625\01_UEBootloader\KL36_BootLoader-180621\Debug/../06_NosPrg/main.c:82 (discriminator 1)
     ac0:	2381      	movs	r3, #129	; 0x81
     ac2:	009b      	lsls	r3, r3, #2
     ac4:	18fb      	adds	r3, r7, r3
     ac6:	881b      	ldrh	r3, [r3, #0]
     ac8:	4a18      	ldr	r2, [pc, #96]	; (b2c <main+0x1bc>)
     aca:	18ba      	adds	r2, r7, r2
     acc:	8812      	ldrh	r2, [r2, #0]
     ace:	429a      	cmp	r2, r3
     ad0:	d3e3      	bcc.n	a9a <main+0x12a>
E:\2017-2018\03_Graduation Project\04_Software\04_wangshi\03_UpdateSoftware-180625\01_UEBootloader\KL36_BootLoader-180621\Debug/../06_NosPrg/main.c:87
			}
			//uart_sendN(UART_2,mUpdateLen,mUpdateInfo); //会发不全
			gFunFlag = 10;  //非0、1、2的任意数
     ad2:	4b0f      	ldr	r3, [pc, #60]	; (b10 <main+0x1a0>)
     ad4:	220a      	movs	r2, #10
     ad6:	701a      	strb	r2, [r3, #0]
E:\2017-2018\03_Graduation Project\04_Software\04_wangshi\03_UpdateSoftware-180625\01_UEBootloader\KL36_BootLoader-180621\Debug/../06_NosPrg/main.c:88
			break;
     ad8:	e017      	b.n	b0a <main+0x19a>
E:\2017-2018\03_Graduation Project\04_Software\04_wangshi\03_UpdateSoftware-180625\01_UEBootloader\KL36_BootLoader-180621\Debug/../06_NosPrg/main.c:90
		default:
			mCount++;
     ada:	2282      	movs	r2, #130	; 0x82
     adc:	0092      	lsls	r2, r2, #2
     ade:	18bb      	adds	r3, r7, r2
     ae0:	681b      	ldr	r3, [r3, #0]
     ae2:	3301      	adds	r3, #1
     ae4:	18b9      	adds	r1, r7, r2
     ae6:	600b      	str	r3, [r1, #0]
E:\2017-2018\03_Graduation Project\04_Software\04_wangshi\03_UpdateSoftware-180625\01_UEBootloader\KL36_BootLoader-180621\Debug/../06_NosPrg/main.c:91
			if(mCount > 0x5ffff)  //绿灯闪烁，提示处于Bootloader程序
     ae8:	18bb      	adds	r3, r7, r2
     aea:	681b      	ldr	r3, [r3, #0]
     aec:	4a11      	ldr	r2, [pc, #68]	; (b34 <main+0x1c4>)
     aee:	4293      	cmp	r3, r2
     af0:	d90a      	bls.n	b08 <main+0x198>
E:\2017-2018\03_Graduation Project\04_Software\04_wangshi\03_UpdateSoftware-180625\01_UEBootloader\KL36_BootLoader-180621\Debug/../06_NosPrg/main.c:93
			{
				mCount = 0;
     af2:	2300      	movs	r3, #0
     af4:	2282      	movs	r2, #130	; 0x82
     af6:	0092      	lsls	r2, r2, #2
     af8:	18ba      	adds	r2, r7, r2
     afa:	6013      	str	r3, [r2, #0]
E:\2017-2018\03_Graduation Project\04_Software\04_wangshi\03_UpdateSoftware-180625\01_UEBootloader\KL36_BootLoader-180621\Debug/../06_NosPrg/main.c:94
				light_change(LIGHT_GREEN);
     afc:	200c      	movs	r0, #12
     afe:	f000 fda0 	bl	1642 <light_change>
E:\2017-2018\03_Graduation Project\04_Software\04_wangshi\03_UpdateSoftware-180625\01_UEBootloader\KL36_BootLoader-180621\Debug/../06_NosPrg/main.c:96
			}
			break;
     b02:	e001      	b.n	b08 <main+0x198>
E:\2017-2018\03_Graduation Project\04_Software\04_wangshi\03_UpdateSoftware-180625\01_UEBootloader\KL36_BootLoader-180621\Debug/../06_NosPrg/main.c:70
    		case 1:  continue;  //不是更新数据
     b04:	46c0      	nop			; (mov r8, r8)
     b06:	e763      	b.n	9d0 <main+0x60>
E:\2017-2018\03_Graduation Project\04_Software\04_wangshi\03_UpdateSoftware-180625\01_UEBootloader\KL36_BootLoader-180621\Debug/../06_NosPrg/main.c:96
			break;
     b08:	46c0      	nop			; (mov r8, r8)
E:\2017-2018\03_Graduation Project\04_Software\04_wangshi\03_UpdateSoftware-180625\01_UEBootloader\KL36_BootLoader-180621\Debug/../06_NosPrg/main.c:49
		switch(gFunFlag)
     b0a:	e761      	b.n	9d0 <main+0x60>
     b0c:	fffffdf0 	.word	0xfffffdf0
     b10:	1ffffa9a 	.word	0x1ffffa9a
     b14:	1ffffa98 	.word	0x1ffffa98
     b18:	1ffffa90 	.word	0x1ffffa90
     b1c:	00002c70 	.word	0x00002c70
     b20:	00000207 	.word	0x00000207
     b24:	1ffff890 	.word	0x1ffff890
     b28:	0000020d 	.word	0x0000020d
     b2c:	0000020e 	.word	0x0000020e
     b30:	fffffdf4 	.word	0xfffffdf4
     b34:	0005ffff 	.word	0x0005ffff

00000b38 <getTime>:
getTime():
E:\2017-2018\03_Graduation Project\04_Software\04_wangshi\03_UpdateSoftware-180625\01_UEBootloader\KL36_BootLoader-180621\Debug/../06_NosPrg/main.c:103
	} //主循环end_for
	//主循环结束======================================================
}

uint_64 getTime(void)
{
     b38:	b590      	push	{r4, r7, lr}
     b3a:	af00      	add	r7, sp, #0
E:\2017-2018\03_Graduation Project\04_Software\04_wangshi\03_UpdateSoftware-180625\01_UEBootloader\KL36_BootLoader-180621\Debug/../06_NosPrg/main.c:104
	return gTime;
     b3c:	4b03      	ldr	r3, [pc, #12]	; (b4c <getTime+0x14>)
     b3e:	685c      	ldr	r4, [r3, #4]
     b40:	681b      	ldr	r3, [r3, #0]
E:\2017-2018\03_Graduation Project\04_Software\04_wangshi\03_UpdateSoftware-180625\01_UEBootloader\KL36_BootLoader-180621\Debug/../06_NosPrg/main.c:105
}
     b42:	0018      	movs	r0, r3
     b44:	0021      	movs	r1, r4
     b46:	46bd      	mov	sp, r7
     b48:	bd90      	pop	{r4, r7, pc}
     b4a:	46c0      	nop			; (mov r8, r8)
     b4c:	1ffffa90 	.word	0x1ffffa90

00000b50 <updateJudge>:
updateJudge():
E:\2017-2018\03_Graduation Project\04_Software\04_wangshi\03_UpdateSoftware-180625\01_UEBootloader\KL36_BootLoader-180621\Debug/../06_NosPrg/main.c:114
//函数返回：无
//参数说明：无
//功能概要：读取29扇区数据，判断是否需要进行更新操作
//=====================================================================
void updateJudge()
{
     b50:	b590      	push	{r4, r7, lr}
     b52:	b085      	sub	sp, #20
     b54:	af00      	add	r7, sp, #0
E:\2017-2018\03_Graduation Project\04_Software\04_wangshi\03_UpdateSoftware-180625\01_UEBootloader\KL36_BootLoader-180621\Debug/../06_NosPrg/main.c:120
	//（1）变量声明
	uint_8 str[7];
	uint_32 msp;

	//读取用户程序中断向量表首地址，若等于RAM最高地址+1则表明用户程序存在
	flash_read_logic((uint_8*)&msp,SECTORNO+1,0,4);
     b56:	1d38      	adds	r0, r7, #4
     b58:	2304      	movs	r3, #4
     b5a:	2200      	movs	r2, #0
     b5c:	211e      	movs	r1, #30
     b5e:	f001 ff0d 	bl	297c <flash_read_logic>
E:\2017-2018\03_Graduation Project\04_Software\04_wangshi\03_UpdateSoftware-180625\01_UEBootloader\KL36_BootLoader-180621\Debug/../06_NosPrg/main.c:121
	if(msp != 0x20001800) //MKL36Z64的RAM最高地址+1等于0x20001800
     b62:	687b      	ldr	r3, [r7, #4]
     b64:	4a12      	ldr	r2, [pc, #72]	; (bb0 <updateJudge+0x60>)
     b66:	4293      	cmp	r3, r2
     b68:	d003      	beq.n	b72 <updateJudge+0x22>
E:\2017-2018\03_Graduation Project\04_Software\04_wangshi\03_UpdateSoftware-180625\01_UEBootloader\KL36_BootLoader-180621\Debug/../06_NosPrg/main.c:124
	{
		//没有用户程序
		gFunFlag = 10;//非0、1、2的任意数
     b6a:	4b12      	ldr	r3, [pc, #72]	; (bb4 <updateJudge+0x64>)
     b6c:	220a      	movs	r2, #10
     b6e:	701a      	strb	r2, [r3, #0]
E:\2017-2018\03_Graduation Project\04_Software\04_wangshi\03_UpdateSoftware-180625\01_UEBootloader\KL36_BootLoader-180621\Debug/../06_NosPrg/main.c:138
		if(strcmp(str,"update") != 0)
			gFunFlag = 0;//无需更新
		else
			gFunFlag = 1;//需更新
	}
}
     b70:	e01a      	b.n	ba8 <updateJudge+0x58>
E:\2017-2018\03_Graduation Project\04_Software\04_wangshi\03_UpdateSoftware-180625\01_UEBootloader\KL36_BootLoader-180621\Debug/../06_NosPrg/main.c:129
		flash_read_logic(str,SECTORNO,sizeof(struct funInfo),6);
     b72:	2108      	movs	r1, #8
     b74:	000c      	movs	r4, r1
     b76:	1878      	adds	r0, r7, r1
     b78:	2306      	movs	r3, #6
     b7a:	2280      	movs	r2, #128	; 0x80
     b7c:	211d      	movs	r1, #29
     b7e:	f001 fefd 	bl	297c <flash_read_logic>
E:\2017-2018\03_Graduation Project\04_Software\04_wangshi\03_UpdateSoftware-180625\01_UEBootloader\KL36_BootLoader-180621\Debug/../06_NosPrg/main.c:130
		str[6] = 0;
     b82:	0021      	movs	r1, r4
     b84:	187b      	adds	r3, r7, r1
     b86:	2200      	movs	r2, #0
     b88:	719a      	strb	r2, [r3, #6]
E:\2017-2018\03_Graduation Project\04_Software\04_wangshi\03_UpdateSoftware-180625\01_UEBootloader\KL36_BootLoader-180621\Debug/../06_NosPrg/main.c:133
		if(strcmp(str,"update") != 0)
     b8a:	4a0b      	ldr	r2, [pc, #44]	; (bb8 <updateJudge+0x68>)
     b8c:	187b      	adds	r3, r7, r1
     b8e:	0011      	movs	r1, r2
     b90:	0018      	movs	r0, r3
     b92:	f7ff fd4f 	bl	634 <strcmp>
     b96:	1e03      	subs	r3, r0, #0
     b98:	d003      	beq.n	ba2 <updateJudge+0x52>
E:\2017-2018\03_Graduation Project\04_Software\04_wangshi\03_UpdateSoftware-180625\01_UEBootloader\KL36_BootLoader-180621\Debug/../06_NosPrg/main.c:134
			gFunFlag = 0;//无需更新
     b9a:	4b06      	ldr	r3, [pc, #24]	; (bb4 <updateJudge+0x64>)
     b9c:	2200      	movs	r2, #0
     b9e:	701a      	strb	r2, [r3, #0]
E:\2017-2018\03_Graduation Project\04_Software\04_wangshi\03_UpdateSoftware-180625\01_UEBootloader\KL36_BootLoader-180621\Debug/../06_NosPrg/main.c:138
}
     ba0:	e002      	b.n	ba8 <updateJudge+0x58>
E:\2017-2018\03_Graduation Project\04_Software\04_wangshi\03_UpdateSoftware-180625\01_UEBootloader\KL36_BootLoader-180621\Debug/../06_NosPrg/main.c:136
			gFunFlag = 1;//需更新
     ba2:	4b04      	ldr	r3, [pc, #16]	; (bb4 <updateJudge+0x64>)
     ba4:	2201      	movs	r2, #1
     ba6:	701a      	strb	r2, [r3, #0]
E:\2017-2018\03_Graduation Project\04_Software\04_wangshi\03_UpdateSoftware-180625\01_UEBootloader\KL36_BootLoader-180621\Debug/../06_NosPrg/main.c:138
}
     ba8:	46c0      	nop			; (mov r8, r8)
     baa:	46bd      	mov	sp, r7
     bac:	b005      	add	sp, #20
     bae:	bd90      	pop	{r4, r7, pc}
     bb0:	20001800 	.word	0x20001800
     bb4:	1ffffa9a 	.word	0x1ffffa9a
     bb8:	00002c80 	.word	0x00002c80

00000bbc <funToFlash>:
funToFlash():
E:\2017-2018\03_Graduation Project\04_Software\04_wangshi\03_UpdateSoftware-180625\01_UEBootloader\KL36_BootLoader-180621\Debug/../06_NosPrg/main.c:147
//函数返回：无
//参数说明：无
//功能概要：将各个驱动函数地址写入Flash，供用户程序函数指针调用
//=====================================================================
void funToFlash()
{
     bbc:	b580      	push	{r7, lr}
     bbe:	b0a0      	sub	sp, #128	; 0x80
     bc0:	af00      	add	r7, sp, #0
E:\2017-2018\03_Graduation Project\04_Software\04_wangshi\03_UpdateSoftware-180625\01_UEBootloader\KL36_BootLoader-180621\Debug/../06_NosPrg/main.c:153
	//（1）变量声明
	struct funInfo info;

	//（2）函数指针赋值
	//（2.1）gpio构件
	info.fun_gpio_init           = (uint_32)&gpio_init;
     bc2:	4a36      	ldr	r2, [pc, #216]	; (c9c <funToFlash+0xe0>)
     bc4:	003b      	movs	r3, r7
     bc6:	601a      	str	r2, [r3, #0]
E:\2017-2018\03_Graduation Project\04_Software\04_wangshi\03_UpdateSoftware-180625\01_UEBootloader\KL36_BootLoader-180621\Debug/../06_NosPrg/main.c:154
	info.fun_gpio_set            = (uint_32)&gpio_set;
     bc8:	4a35      	ldr	r2, [pc, #212]	; (ca0 <funToFlash+0xe4>)
     bca:	003b      	movs	r3, r7
     bcc:	605a      	str	r2, [r3, #4]
E:\2017-2018\03_Graduation Project\04_Software\04_wangshi\03_UpdateSoftware-180625\01_UEBootloader\KL36_BootLoader-180621\Debug/../06_NosPrg/main.c:155
	info.fun_gpio_get            = (uint_32)&gpio_get;
     bce:	4a35      	ldr	r2, [pc, #212]	; (ca4 <funToFlash+0xe8>)
     bd0:	003b      	movs	r3, r7
     bd2:	609a      	str	r2, [r3, #8]
E:\2017-2018\03_Graduation Project\04_Software\04_wangshi\03_UpdateSoftware-180625\01_UEBootloader\KL36_BootLoader-180621\Debug/../06_NosPrg/main.c:156
	info.fun_gpio_pull           = (uint_32)&gpio_pull;
     bd4:	4a34      	ldr	r2, [pc, #208]	; (ca8 <funToFlash+0xec>)
     bd6:	003b      	movs	r3, r7
     bd8:	611a      	str	r2, [r3, #16]
E:\2017-2018\03_Graduation Project\04_Software\04_wangshi\03_UpdateSoftware-180625\01_UEBootloader\KL36_BootLoader-180621\Debug/../06_NosPrg/main.c:157
	info.fun_gpio_reverse        = (uint_32)&gpio_reverse;
     bda:	4a34      	ldr	r2, [pc, #208]	; (cac <funToFlash+0xf0>)
     bdc:	003b      	movs	r3, r7
     bde:	60da      	str	r2, [r3, #12]
E:\2017-2018\03_Graduation Project\04_Software\04_wangshi\03_UpdateSoftware-180625\01_UEBootloader\KL36_BootLoader-180621\Debug/../06_NosPrg/main.c:158
	info.fun_gpio_enable_int     = (uint_32)&gpio_enable_int;
     be0:	4a33      	ldr	r2, [pc, #204]	; (cb0 <funToFlash+0xf4>)
     be2:	003b      	movs	r3, r7
     be4:	615a      	str	r2, [r3, #20]
E:\2017-2018\03_Graduation Project\04_Software\04_wangshi\03_UpdateSoftware-180625\01_UEBootloader\KL36_BootLoader-180621\Debug/../06_NosPrg/main.c:159
	info.fun_gpio_disable_int    = (uint_32)&gpio_disable_int;
     be6:	4a33      	ldr	r2, [pc, #204]	; (cb4 <funToFlash+0xf8>)
     be8:	003b      	movs	r3, r7
     bea:	619a      	str	r2, [r3, #24]
E:\2017-2018\03_Graduation Project\04_Software\04_wangshi\03_UpdateSoftware-180625\01_UEBootloader\KL36_BootLoader-180621\Debug/../06_NosPrg/main.c:160
	info.fun_gpio_get_int        = (uint_32)&gpio_get_int;
     bec:	4a32      	ldr	r2, [pc, #200]	; (cb8 <funToFlash+0xfc>)
     bee:	003b      	movs	r3, r7
     bf0:	61da      	str	r2, [r3, #28]
E:\2017-2018\03_Graduation Project\04_Software\04_wangshi\03_UpdateSoftware-180625\01_UEBootloader\KL36_BootLoader-180621\Debug/../06_NosPrg/main.c:161
	info.fun_gpio_clear_int      = (uint_32)&gpio_clear_int;
     bf2:	4a32      	ldr	r2, [pc, #200]	; (cbc <funToFlash+0x100>)
     bf4:	003b      	movs	r3, r7
     bf6:	621a      	str	r2, [r3, #32]
E:\2017-2018\03_Graduation Project\04_Software\04_wangshi\03_UpdateSoftware-180625\01_UEBootloader\KL36_BootLoader-180621\Debug/../06_NosPrg/main.c:162
	info.fun_gpio_clear_allint   = (uint_32)&gpio_clear_allint;
     bf8:	4a31      	ldr	r2, [pc, #196]	; (cc0 <funToFlash+0x104>)
     bfa:	003b      	movs	r3, r7
     bfc:	625a      	str	r2, [r3, #36]	; 0x24
E:\2017-2018\03_Graduation Project\04_Software\04_wangshi\03_UpdateSoftware-180625\01_UEBootloader\KL36_BootLoader-180621\Debug/../06_NosPrg/main.c:163
	info.fun_gpio_drive_strength = (uint_32)&gpio_drive_strength;
     bfe:	4a31      	ldr	r2, [pc, #196]	; (cc4 <funToFlash+0x108>)
     c00:	003b      	movs	r3, r7
     c02:	629a      	str	r2, [r3, #40]	; 0x28
E:\2017-2018\03_Graduation Project\04_Software\04_wangshi\03_UpdateSoftware-180625\01_UEBootloader\KL36_BootLoader-180621\Debug/../06_NosPrg/main.c:165
	//（2.2）uart构件
	info.fun_uart_init           = (uint_32)&uart_init;
     c04:	4a30      	ldr	r2, [pc, #192]	; (cc8 <funToFlash+0x10c>)
     c06:	003b      	movs	r3, r7
     c08:	62da      	str	r2, [r3, #44]	; 0x2c
E:\2017-2018\03_Graduation Project\04_Software\04_wangshi\03_UpdateSoftware-180625\01_UEBootloader\KL36_BootLoader-180621\Debug/../06_NosPrg/main.c:166
	info.fun_uart_send1          = (uint_32)&uart_send1;
     c0a:	4a30      	ldr	r2, [pc, #192]	; (ccc <funToFlash+0x110>)
     c0c:	003b      	movs	r3, r7
     c0e:	631a      	str	r2, [r3, #48]	; 0x30
E:\2017-2018\03_Graduation Project\04_Software\04_wangshi\03_UpdateSoftware-180625\01_UEBootloader\KL36_BootLoader-180621\Debug/../06_NosPrg/main.c:167
	info.fun_uart_sendN          = (uint_32)&uart_sendN;
     c10:	4a2f      	ldr	r2, [pc, #188]	; (cd0 <funToFlash+0x114>)
     c12:	003b      	movs	r3, r7
     c14:	635a      	str	r2, [r3, #52]	; 0x34
E:\2017-2018\03_Graduation Project\04_Software\04_wangshi\03_UpdateSoftware-180625\01_UEBootloader\KL36_BootLoader-180621\Debug/../06_NosPrg/main.c:168
	info.fun_uart_send_string    = (uint_32)&uart_send_string;
     c16:	4a2f      	ldr	r2, [pc, #188]	; (cd4 <funToFlash+0x118>)
     c18:	003b      	movs	r3, r7
     c1a:	639a      	str	r2, [r3, #56]	; 0x38
E:\2017-2018\03_Graduation Project\04_Software\04_wangshi\03_UpdateSoftware-180625\01_UEBootloader\KL36_BootLoader-180621\Debug/../06_NosPrg/main.c:169
	info.fun_uart_re1            = (uint_32)&uart_re1;
     c1c:	4a2e      	ldr	r2, [pc, #184]	; (cd8 <funToFlash+0x11c>)
     c1e:	003b      	movs	r3, r7
     c20:	63da      	str	r2, [r3, #60]	; 0x3c
E:\2017-2018\03_Graduation Project\04_Software\04_wangshi\03_UpdateSoftware-180625\01_UEBootloader\KL36_BootLoader-180621\Debug/../06_NosPrg/main.c:170
	info.fun_uart_reN            = (uint_32)&uart_reN;
     c22:	4a2e      	ldr	r2, [pc, #184]	; (cdc <funToFlash+0x120>)
     c24:	003b      	movs	r3, r7
     c26:	641a      	str	r2, [r3, #64]	; 0x40
E:\2017-2018\03_Graduation Project\04_Software\04_wangshi\03_UpdateSoftware-180625\01_UEBootloader\KL36_BootLoader-180621\Debug/../06_NosPrg/main.c:171
	info.fun_uart_enable_re_int  = (uint_32)&uart_enable_re_int;
     c28:	4a2d      	ldr	r2, [pc, #180]	; (ce0 <funToFlash+0x124>)
     c2a:	003b      	movs	r3, r7
     c2c:	645a      	str	r2, [r3, #68]	; 0x44
E:\2017-2018\03_Graduation Project\04_Software\04_wangshi\03_UpdateSoftware-180625\01_UEBootloader\KL36_BootLoader-180621\Debug/../06_NosPrg/main.c:172
	info.fun_uart_disable_re_int = (uint_32)&uart_disable_re_int;
     c2e:	4a2d      	ldr	r2, [pc, #180]	; (ce4 <funToFlash+0x128>)
     c30:	003b      	movs	r3, r7
     c32:	649a      	str	r2, [r3, #72]	; 0x48
E:\2017-2018\03_Graduation Project\04_Software\04_wangshi\03_UpdateSoftware-180625\01_UEBootloader\KL36_BootLoader-180621\Debug/../06_NosPrg/main.c:173
	info.fun_uart_get_re_int     = (uint_32)&uart_get_re_int;
     c34:	4a2c      	ldr	r2, [pc, #176]	; (ce8 <funToFlash+0x12c>)
     c36:	003b      	movs	r3, r7
     c38:	64da      	str	r2, [r3, #76]	; 0x4c
E:\2017-2018\03_Graduation Project\04_Software\04_wangshi\03_UpdateSoftware-180625\01_UEBootloader\KL36_BootLoader-180621\Debug/../06_NosPrg/main.c:174
	info.fun_uart_deint          = (uint_32)&uart_deint;
     c3a:	4a2c      	ldr	r2, [pc, #176]	; (cec <funToFlash+0x130>)
     c3c:	003b      	movs	r3, r7
     c3e:	651a      	str	r2, [r3, #80]	; 0x50
E:\2017-2018\03_Graduation Project\04_Software\04_wangshi\03_UpdateSoftware-180625\01_UEBootloader\KL36_BootLoader-180621\Debug/../06_NosPrg/main.c:176
	//（2.3）flash构件
	info.fun_flash_init          = (uint_32)&flash_init;
     c40:	4a2b      	ldr	r2, [pc, #172]	; (cf0 <funToFlash+0x134>)
     c42:	003b      	movs	r3, r7
     c44:	655a      	str	r2, [r3, #84]	; 0x54
E:\2017-2018\03_Graduation Project\04_Software\04_wangshi\03_UpdateSoftware-180625\01_UEBootloader\KL36_BootLoader-180621\Debug/../06_NosPrg/main.c:177
	info.fun_flash_erase         = (uint_32)&flash_erase;
     c46:	4a2b      	ldr	r2, [pc, #172]	; (cf4 <funToFlash+0x138>)
     c48:	003b      	movs	r3, r7
     c4a:	659a      	str	r2, [r3, #88]	; 0x58
E:\2017-2018\03_Graduation Project\04_Software\04_wangshi\03_UpdateSoftware-180625\01_UEBootloader\KL36_BootLoader-180621\Debug/../06_NosPrg/main.c:178
	info.fun_flash_write         = (uint_32)&flash_write;
     c4c:	4a2a      	ldr	r2, [pc, #168]	; (cf8 <funToFlash+0x13c>)
     c4e:	003b      	movs	r3, r7
     c50:	65da      	str	r2, [r3, #92]	; 0x5c
E:\2017-2018\03_Graduation Project\04_Software\04_wangshi\03_UpdateSoftware-180625\01_UEBootloader\KL36_BootLoader-180621\Debug/../06_NosPrg/main.c:179
	info.fun_flash_read_logic    = (uint_32)&flash_read_logic;
     c52:	4a2a      	ldr	r2, [pc, #168]	; (cfc <funToFlash+0x140>)
     c54:	003b      	movs	r3, r7
     c56:	661a      	str	r2, [r3, #96]	; 0x60
E:\2017-2018\03_Graduation Project\04_Software\04_wangshi\03_UpdateSoftware-180625\01_UEBootloader\KL36_BootLoader-180621\Debug/../06_NosPrg/main.c:180
	info.fun_flash_read_physical = (uint_32)&flash_read_physical;
     c58:	4a29      	ldr	r2, [pc, #164]	; (d00 <funToFlash+0x144>)
     c5a:	003b      	movs	r3, r7
     c5c:	665a      	str	r2, [r3, #100]	; 0x64
E:\2017-2018\03_Graduation Project\04_Software\04_wangshi\03_UpdateSoftware-180625\01_UEBootloader\KL36_BootLoader-180621\Debug/../06_NosPrg/main.c:181
	info.fun_flash_protect       = (uint_32)&flash_protect;
     c5e:	4a29      	ldr	r2, [pc, #164]	; (d04 <funToFlash+0x148>)
     c60:	003b      	movs	r3, r7
     c62:	669a      	str	r2, [r3, #104]	; 0x68
E:\2017-2018\03_Graduation Project\04_Software\04_wangshi\03_UpdateSoftware-180625\01_UEBootloader\KL36_BootLoader-180621\Debug/../06_NosPrg/main.c:182
	info.fun_flash_isempty       = (uint_32)&flash_isempty;
     c64:	4a28      	ldr	r2, [pc, #160]	; (d08 <funToFlash+0x14c>)
     c66:	003b      	movs	r3, r7
     c68:	66da      	str	r2, [r3, #108]	; 0x6c
E:\2017-2018\03_Graduation Project\04_Software\04_wangshi\03_UpdateSoftware-180625\01_UEBootloader\KL36_BootLoader-180621\Debug/../06_NosPrg/main.c:184
	//（2.4）light构件
	info.fun_light_init    = (uint_32)&light_init;
     c6a:	4a28      	ldr	r2, [pc, #160]	; (d0c <funToFlash+0x150>)
     c6c:	003b      	movs	r3, r7
     c6e:	671a      	str	r2, [r3, #112]	; 0x70
E:\2017-2018\03_Graduation Project\04_Software\04_wangshi\03_UpdateSoftware-180625\01_UEBootloader\KL36_BootLoader-180621\Debug/../06_NosPrg/main.c:185
	info.fun_light_control = (uint_32)&light_control;
     c70:	4a27      	ldr	r2, [pc, #156]	; (d10 <funToFlash+0x154>)
     c72:	003b      	movs	r3, r7
     c74:	675a      	str	r2, [r3, #116]	; 0x74
E:\2017-2018\03_Graduation Project\04_Software\04_wangshi\03_UpdateSoftware-180625\01_UEBootloader\KL36_BootLoader-180621\Debug/../06_NosPrg/main.c:186
	info.fun_light_change  = (uint_32)&light_change;
     c76:	4a27      	ldr	r2, [pc, #156]	; (d14 <funToFlash+0x158>)
     c78:	003b      	movs	r3, r7
     c7a:	679a      	str	r2, [r3, #120]	; 0x78
E:\2017-2018\03_Graduation Project\04_Software\04_wangshi\03_UpdateSoftware-180625\01_UEBootloader\KL36_BootLoader-180621\Debug/../06_NosPrg/main.c:188

	info.fun_getTime = (uint_32)&getTime;
     c7c:	4a26      	ldr	r2, [pc, #152]	; (d18 <funToFlash+0x15c>)
     c7e:	003b      	movs	r3, r7
     c80:	67da      	str	r2, [r3, #124]	; 0x7c
E:\2017-2018\03_Graduation Project\04_Software\04_wangshi\03_UpdateSoftware-180625\01_UEBootloader\KL36_BootLoader-180621\Debug/../06_NosPrg/main.c:191

	//（3）函数指针写入flash
	flash_erase(SECTORNO);
     c82:	201d      	movs	r0, #29
     c84:	f001 fdc4 	bl	2810 <flash_erase>
E:\2017-2018\03_Graduation Project\04_Software\04_wangshi\03_UpdateSoftware-180625\01_UEBootloader\KL36_BootLoader-180621\Debug/../06_NosPrg/main.c:192
	flash_write(SECTORNO,0,sizeof(struct funInfo),(uint_8*)&info);
     c88:	003b      	movs	r3, r7
     c8a:	2280      	movs	r2, #128	; 0x80
     c8c:	2100      	movs	r1, #0
     c8e:	201d      	movs	r0, #29
     c90:	f001 fe0c 	bl	28ac <flash_write>
E:\2017-2018\03_Graduation Project\04_Software\04_wangshi\03_UpdateSoftware-180625\01_UEBootloader\KL36_BootLoader-180621\Debug/../06_NosPrg/main.c:193
}
     c94:	46c0      	nop			; (mov r8, r8)
     c96:	46bd      	mov	sp, r7
     c98:	b020      	add	sp, #128	; 0x80
     c9a:	bd80      	pop	{r7, pc}
     c9c:	00002251 	.word	0x00002251
     ca0:	0000233d 	.word	0x0000233d
     ca4:	000023b5 	.word	0x000023b5
     ca8:	0000244d 	.word	0x0000244d
     cac:	00002401 	.word	0x00002401
     cb0:	00002511 	.word	0x00002511
     cb4:	000025bd 	.word	0x000025bd
     cb8:	00002639 	.word	0x00002639
     cbc:	00002689 	.word	0x00002689
     cc0:	000026e1 	.word	0x000026e1
     cc4:	00002721 	.word	0x00002721
     cc8:	00001829 	.word	0x00001829
     ccc:	00001ac9 	.word	0x00001ac9
     cd0:	00001b69 	.word	0x00001b69
     cd4:	00001bef 	.word	0x00001bef
     cd8:	00001c6d 	.word	0x00001c6d
     cdc:	00001d31 	.word	0x00001d31
     ce0:	00001dc5 	.word	0x00001dc5
     ce4:	00001e41 	.word	0x00001e41
     ce8:	00001ebd 	.word	0x00001ebd
     cec:	00001f81 	.word	0x00001f81
     cf0:	000027dd 	.word	0x000027dd
     cf4:	00002811 	.word	0x00002811
     cf8:	000028ad 	.word	0x000028ad
     cfc:	0000297d 	.word	0x0000297d
     d00:	000029c5 	.word	0x000029c5
     d04:	000029ed 	.word	0x000029ed
     d08:	00002ae9 	.word	0x00002ae9
     d0c:	000015ef 	.word	0x000015ef
     d10:	00001619 	.word	0x00001619
     d14:	00001643 	.word	0x00001643
     d18:	00000b39 	.word	0x00000b39

00000d1c <Delay_ms>:
Delay_ms():
E:\2017-2018\03_Graduation Project\04_Software\04_wangshi\03_UpdateSoftware-180625\01_UEBootloader\KL36_BootLoader-180621\Debug/../05_SoftComponent/common/common.c:134
//函数返回：无
//参数说明：无
//功能概要：延时 - 毫秒级
//======================================================================
void Delay_ms(uint16_t u16ms)
{
     d1c:	b580      	push	{r7, lr}
     d1e:	b084      	sub	sp, #16
     d20:	af00      	add	r7, sp, #0
     d22:	0002      	movs	r2, r0
     d24:	1dbb      	adds	r3, r7, #6
     d26:	801a      	strh	r2, [r3, #0]
E:\2017-2018\03_Graduation Project\04_Software\04_wangshi\03_UpdateSoftware-180625\01_UEBootloader\KL36_BootLoader-180621\Debug/../05_SoftComponent/common/common.c:142

	uint_16 i;
	uint_32 j;

	uint32_t u32ctr;
	for(u32ctr = 0; u32ctr < ((48000 / 10)*u16ms); u32ctr++)
     d28:	2300      	movs	r3, #0
     d2a:	60fb      	str	r3, [r7, #12]
     d2c:	e003      	b.n	d36 <Delay_ms+0x1a>
E:\2017-2018\03_Graduation Project\04_Software\04_wangshi\03_UpdateSoftware-180625\01_UEBootloader\KL36_BootLoader-180621\Debug/../05_SoftComponent/common/common.c:144 (discriminator 3)
	{
		__asm ("NOP");
     d2e:	46c0      	nop			; (mov r8, r8)
E:\2017-2018\03_Graduation Project\04_Software\04_wangshi\03_UpdateSoftware-180625\01_UEBootloader\KL36_BootLoader-180621\Debug/../05_SoftComponent/common/common.c:142 (discriminator 3)
	for(u32ctr = 0; u32ctr < ((48000 / 10)*u16ms); u32ctr++)
     d30:	68fb      	ldr	r3, [r7, #12]
     d32:	3301      	adds	r3, #1
     d34:	60fb      	str	r3, [r7, #12]
E:\2017-2018\03_Graduation Project\04_Software\04_wangshi\03_UpdateSoftware-180625\01_UEBootloader\KL36_BootLoader-180621\Debug/../05_SoftComponent/common/common.c:142 (discriminator 1)
     d36:	1dbb      	adds	r3, r7, #6
     d38:	881a      	ldrh	r2, [r3, #0]
     d3a:	0013      	movs	r3, r2
     d3c:	009b      	lsls	r3, r3, #2
     d3e:	189b      	adds	r3, r3, r2
     d40:	011a      	lsls	r2, r3, #4
     d42:	1ad2      	subs	r2, r2, r3
     d44:	0193      	lsls	r3, r2, #6
     d46:	001a      	movs	r2, r3
     d48:	0013      	movs	r3, r2
     d4a:	001a      	movs	r2, r3
     d4c:	68fb      	ldr	r3, [r7, #12]
     d4e:	4293      	cmp	r3, r2
     d50:	d3ed      	bcc.n	d2e <Delay_ms+0x12>
E:\2017-2018\03_Graduation Project\04_Software\04_wangshi\03_UpdateSoftware-180625\01_UEBootloader\KL36_BootLoader-180621\Debug/../05_SoftComponent/common/common.c:150
	}
	//  for(u32ctr = 0; u32ctr < ((4000 / 10)*u16ms); u32ctr++)
	//  {
	//	  __asm ("NOP");
	//  }
}
     d52:	46c0      	nop			; (mov r8, r8)
     d54:	46bd      	mov	sp, r7
     d56:	b004      	add	sp, #16
     d58:	bd80      	pop	{r7, pc}
	...

00000d5c <ueupdate_init>:
ueupdate_init():
E:\2017-2018\03_Graduation Project\04_Software\04_wangshi\03_UpdateSoftware-180625\01_UEBootloader\KL36_BootLoader-180621\Debug/../04_UserBoard/ueupdate/ueupdate.c:43
//函数返回：无
//功能概要：实现终端程序更新功能初始化，本构件使用串口作为更新方式。
//       具体操作为串口和flash模块的初始化和帧标志初始化
//======================================================================
uint_8 ueupdate_init(uint_8 userSector)
{
     d5c:	b580      	push	{r7, lr}
     d5e:	b084      	sub	sp, #16
     d60:	af00      	add	r7, sp, #0
     d62:	0002      	movs	r2, r0
     d64:	1dfb      	adds	r3, r7, #7
     d66:	701a      	strb	r2, [r3, #0]
E:\2017-2018\03_Graduation Project\04_Software\04_wangshi\03_UpdateSoftware-180625\01_UEBootloader\KL36_BootLoader-180621\Debug/../04_UserBoard/ueupdate/ueupdate.c:48
	//（1）变量声明
	uint_8 i;

	//（2）接收帧标志初始化为0
	for(i = 0;i < 50;i++)
     d68:	230f      	movs	r3, #15
     d6a:	18fb      	adds	r3, r7, r3
     d6c:	2200      	movs	r2, #0
     d6e:	701a      	strb	r2, [r3, #0]
     d70:	e00a      	b.n	d88 <ueupdate_init+0x2c>
E:\2017-2018\03_Graduation Project\04_Software\04_wangshi\03_UpdateSoftware-180625\01_UEBootloader\KL36_BootLoader-180621\Debug/../04_UserBoard/ueupdate/ueupdate.c:49 (discriminator 3)
		check[i] = 0;
     d72:	200f      	movs	r0, #15
     d74:	183b      	adds	r3, r7, r0
     d76:	781b      	ldrb	r3, [r3, #0]
     d78:	4a0a      	ldr	r2, [pc, #40]	; (da4 <ueupdate_init+0x48>)
     d7a:	2100      	movs	r1, #0
     d7c:	54d1      	strb	r1, [r2, r3]
E:\2017-2018\03_Graduation Project\04_Software\04_wangshi\03_UpdateSoftware-180625\01_UEBootloader\KL36_BootLoader-180621\Debug/../04_UserBoard/ueupdate/ueupdate.c:48 (discriminator 3)
	for(i = 0;i < 50;i++)
     d7e:	183b      	adds	r3, r7, r0
     d80:	781a      	ldrb	r2, [r3, #0]
     d82:	183b      	adds	r3, r7, r0
     d84:	3201      	adds	r2, #1
     d86:	701a      	strb	r2, [r3, #0]
E:\2017-2018\03_Graduation Project\04_Software\04_wangshi\03_UpdateSoftware-180625\01_UEBootloader\KL36_BootLoader-180621\Debug/../04_UserBoard/ueupdate/ueupdate.c:48 (discriminator 1)
     d88:	230f      	movs	r3, #15
     d8a:	18fb      	adds	r3, r7, r3
     d8c:	781b      	ldrb	r3, [r3, #0]
     d8e:	2b31      	cmp	r3, #49	; 0x31
     d90:	d9ef      	bls.n	d72 <ueupdate_init+0x16>
E:\2017-2018\03_Graduation Project\04_Software\04_wangshi\03_UpdateSoftware-180625\01_UEBootloader\KL36_BootLoader-180621\Debug/../04_UserBoard/ueupdate/ueupdate.c:52

	//（3）变量赋值
	userSectNo = userSector;  //设置用户程序起始扇区
     d92:	4b05      	ldr	r3, [pc, #20]	; (da8 <ueupdate_init+0x4c>)
     d94:	1dfa      	adds	r2, r7, #7
     d96:	7812      	ldrb	r2, [r2, #0]
     d98:	701a      	strb	r2, [r3, #0]
E:\2017-2018\03_Graduation Project\04_Software\04_wangshi\03_UpdateSoftware-180625\01_UEBootloader\KL36_BootLoader-180621\Debug/../04_UserBoard/ueupdate/ueupdate.c:53
}
     d9a:	46c0      	nop			; (mov r8, r8)
     d9c:	0018      	movs	r0, r3
     d9e:	46bd      	mov	sp, r7
     da0:	b004      	add	sp, #16
     da2:	bd80      	pop	{r7, pc}
     da4:	1ffffa9c 	.word	0x1ffffa9c
     da8:	1ffffad0 	.word	0x1ffffad0

00000dac <ueupdate_send>:
ueupdate_send():
E:\2017-2018\03_Graduation Project\04_Software\04_wangshi\03_UpdateSoftware-180625\01_UEBootloader\KL36_BootLoader-180621\Debug/../04_UserBoard/ueupdate/ueupdate.c:73
//       5            当前更新操作发生错误
//       6            检查缺失数据
//       7            其他
//======================================================================
uint_8 ueupdate_send(uint_8 order,uint_8 *senddata,uint_16 *sendLen)
{
     dac:	b590      	push	{r4, r7, lr}
     dae:	4c3a      	ldr	r4, [pc, #232]	; (e98 <ueupdate_send+0xec>)
     db0:	44a5      	add	sp, r4
     db2:	af02      	add	r7, sp, #8
     db4:	60b9      	str	r1, [r7, #8]
     db6:	607a      	str	r2, [r7, #4]
     db8:	4b38      	ldr	r3, [pc, #224]	; (e9c <ueupdate_send+0xf0>)
     dba:	2282      	movs	r2, #130	; 0x82
     dbc:	0092      	lsls	r2, r2, #2
     dbe:	4694      	mov	ip, r2
     dc0:	44bc      	add	ip, r7
     dc2:	4463      	add	r3, ip
     dc4:	1c02      	adds	r2, r0, #0
     dc6:	701a      	strb	r2, [r3, #0]
E:\2017-2018\03_Graduation Project\04_Software\04_wangshi\03_UpdateSoftware-180625\01_UEBootloader\KL36_BootLoader-180621\Debug/../04_UserBoard/ueupdate/ueupdate.c:81
	uint_8 rv;
	uint_16 dlen;
	uint_8 data[500];//待回发数据
	uint_16 flen;

	rv = 0;//返回值默认0，成功
     dc8:	4b35      	ldr	r3, [pc, #212]	; (ea0 <ueupdate_send+0xf4>)
     dca:	18fb      	adds	r3, r7, r3
     dcc:	2200      	movs	r2, #0
     dce:	701a      	strb	r2, [r3, #0]
E:\2017-2018\03_Graduation Project\04_Software\04_wangshi\03_UpdateSoftware-180625\01_UEBootloader\KL36_BootLoader-180621\Debug/../04_UserBoard/ueupdate/ueupdate.c:83
	//（2）根据命令字节来判断返还给上位机的数据
	switch(order)
     dd0:	4b32      	ldr	r3, [pc, #200]	; (e9c <ueupdate_send+0xf0>)
     dd2:	2282      	movs	r2, #130	; 0x82
     dd4:	0092      	lsls	r2, r2, #2
     dd6:	4694      	mov	ip, r2
     dd8:	44bc      	add	ip, r7
     dda:	4463      	add	r3, ip
     ddc:	781b      	ldrb	r3, [r3, #0]
     dde:	2b05      	cmp	r3, #5
     de0:	d012      	beq.n	e08 <ueupdate_send+0x5c>
     de2:	2b06      	cmp	r3, #6
     de4:	d028      	beq.n	e38 <ueupdate_send+0x8c>
     de6:	2b04      	cmp	r3, #4
     de8:	d134      	bne.n	e54 <ueupdate_send+0xa8>
E:\2017-2018\03_Graduation Project\04_Software\04_wangshi\03_UpdateSoftware-180625\01_UEBootloader\KL36_BootLoader-180621\Debug/../04_UserBoard/ueupdate/ueupdate.c:86
	{
	case 4:  //接收数据成功，原始数据返回（命令4）
		dlen = sizeof(struct insertData);
     dea:	2181      	movs	r1, #129	; 0x81
     dec:	0089      	lsls	r1, r1, #2
     dee:	187b      	adds	r3, r7, r1
     df0:	22f3      	movs	r2, #243	; 0xf3
     df2:	0052      	lsls	r2, r2, #1
     df4:	801a      	strh	r2, [r3, #0]
E:\2017-2018\03_Graduation Project\04_Software\04_wangshi\03_UpdateSoftware-180625\01_UEBootloader\KL36_BootLoader-180621\Debug/../04_UserBoard/ueupdate/ueupdate.c:87
		memcpy(data,&insdata,dlen);
     df6:	187b      	adds	r3, r7, r1
     df8:	881a      	ldrh	r2, [r3, #0]
     dfa:	492a      	ldr	r1, [pc, #168]	; (ea4 <ueupdate_send+0xf8>)
     dfc:	2310      	movs	r3, #16
     dfe:	18fb      	adds	r3, r7, r3
     e00:	0018      	movs	r0, r3
     e02:	f001 ff01 	bl	2c08 <memcpy>
E:\2017-2018\03_Graduation Project\04_Software\04_wangshi\03_UpdateSoftware-180625\01_UEBootloader\KL36_BootLoader-180621\Debug/../04_UserBoard/ueupdate/ueupdate.c:88
		break;
     e06:	e02a      	b.n	e5e <ueupdate_send+0xb2>
E:\2017-2018\03_Graduation Project\04_Software\04_wangshi\03_UpdateSoftware-180625\01_UEBootloader\KL36_BootLoader-180621\Debug/../04_UserBoard/ueupdate/ueupdate.c:90
	case 5:  //当前更新过程发生错误，重新开始（命令5）
		insdata.curFrame = 0;  //提示服务器程序，重新开始
     e08:	4b26      	ldr	r3, [pc, #152]	; (ea4 <ueupdate_send+0xf8>)
     e0a:	789a      	ldrb	r2, [r3, #2]
     e0c:	2100      	movs	r1, #0
     e0e:	400a      	ands	r2, r1
     e10:	709a      	strb	r2, [r3, #2]
     e12:	78da      	ldrb	r2, [r3, #3]
     e14:	2100      	movs	r1, #0
     e16:	400a      	ands	r2, r1
     e18:	70da      	strb	r2, [r3, #3]
E:\2017-2018\03_Graduation Project\04_Software\04_wangshi\03_UpdateSoftware-180625\01_UEBootloader\KL36_BootLoader-180621\Debug/../04_UserBoard/ueupdate/ueupdate.c:91
		dlen = sizeof(struct insertData);
     e1a:	2181      	movs	r1, #129	; 0x81
     e1c:	0089      	lsls	r1, r1, #2
     e1e:	187b      	adds	r3, r7, r1
     e20:	22f3      	movs	r2, #243	; 0xf3
     e22:	0052      	lsls	r2, r2, #1
     e24:	801a      	strh	r2, [r3, #0]
E:\2017-2018\03_Graduation Project\04_Software\04_wangshi\03_UpdateSoftware-180625\01_UEBootloader\KL36_BootLoader-180621\Debug/../04_UserBoard/ueupdate/ueupdate.c:92
		memcpy(data,&insdata,dlen);
     e26:	187b      	adds	r3, r7, r1
     e28:	881a      	ldrh	r2, [r3, #0]
     e2a:	491e      	ldr	r1, [pc, #120]	; (ea4 <ueupdate_send+0xf8>)
     e2c:	2310      	movs	r3, #16
     e2e:	18fb      	adds	r3, r7, r3
     e30:	0018      	movs	r0, r3
     e32:	f001 fee9 	bl	2c08 <memcpy>
E:\2017-2018\03_Graduation Project\04_Software\04_wangshi\03_UpdateSoftware-180625\01_UEBootloader\KL36_BootLoader-180621\Debug/../04_UserBoard/ueupdate/ueupdate.c:96
//		cpdata.curFrame = 0;  //提示服务器程序，重新开始
//		dlen = sizeof(struct copyData);
//		memcpy(data,&cpdata,dlen);
		break;
     e36:	e012      	b.n	e5e <ueupdate_send+0xb2>
E:\2017-2018\03_Graduation Project\04_Software\04_wangshi\03_UpdateSoftware-180625\01_UEBootloader\KL36_BootLoader-180621\Debug/../04_UserBoard/ueupdate/ueupdate.c:99
	case 6:  //检查时缺失帧（命令6）
		//从结构体cdata中取出数据
		dlen = sizeof(struct checkData);
     e38:	2181      	movs	r1, #129	; 0x81
     e3a:	0089      	lsls	r1, r1, #2
     e3c:	187b      	adds	r3, r7, r1
     e3e:	2253      	movs	r2, #83	; 0x53
     e40:	801a      	strh	r2, [r3, #0]
E:\2017-2018\03_Graduation Project\04_Software\04_wangshi\03_UpdateSoftware-180625\01_UEBootloader\KL36_BootLoader-180621\Debug/../04_UserBoard/ueupdate/ueupdate.c:100
		memcpy(data,&ckdata,dlen);
     e42:	187b      	adds	r3, r7, r1
     e44:	881a      	ldrh	r2, [r3, #0]
     e46:	4918      	ldr	r1, [pc, #96]	; (ea8 <ueupdate_send+0xfc>)
     e48:	2310      	movs	r3, #16
     e4a:	18fb      	adds	r3, r7, r3
     e4c:	0018      	movs	r0, r3
     e4e:	f001 fedb 	bl	2c08 <memcpy>
E:\2017-2018\03_Graduation Project\04_Software\04_wangshi\03_UpdateSoftware-180625\01_UEBootloader\KL36_BootLoader-180621\Debug/../04_UserBoard/ueupdate/ueupdate.c:101
		break;
     e52:	e004      	b.n	e5e <ueupdate_send+0xb2>
E:\2017-2018\03_Graduation Project\04_Software\04_wangshi\03_UpdateSoftware-180625\01_UEBootloader\KL36_BootLoader-180621\Debug/../04_UserBoard/ueupdate/ueupdate.c:103
	default:  //其他未知命令
		rv = 1;  //设置返回值，并退出
     e54:	4b12      	ldr	r3, [pc, #72]	; (ea0 <ueupdate_send+0xf4>)
     e56:	18fb      	adds	r3, r7, r3
     e58:	2201      	movs	r2, #1
     e5a:	701a      	strb	r2, [r3, #0]
E:\2017-2018\03_Graduation Project\04_Software\04_wangshi\03_UpdateSoftware-180625\01_UEBootloader\KL36_BootLoader-180621\Debug/../04_UserBoard/ueupdate/ueupdate.c:104
		goto ueupdate_send_EXIT;
     e5c:	e012      	b.n	e84 <ueupdate_send+0xd8>
E:\2017-2018\03_Graduation Project\04_Software\04_wangshi\03_UpdateSoftware-180625\01_UEBootloader\KL36_BootLoader-180621\Debug/../04_UserBoard/ueupdate/ueupdate.c:107
	}
	//（3）根据命令字节和待传输的数据，进行组帧操作
	updateEncode(order,data,dlen,senddata,sendLen);//返回数据使用传参的方式返回
     e5e:	68bc      	ldr	r4, [r7, #8]
     e60:	2381      	movs	r3, #129	; 0x81
     e62:	009b      	lsls	r3, r3, #2
     e64:	18fb      	adds	r3, r7, r3
     e66:	881a      	ldrh	r2, [r3, #0]
     e68:	2310      	movs	r3, #16
     e6a:	18f9      	adds	r1, r7, r3
     e6c:	4b0b      	ldr	r3, [pc, #44]	; (e9c <ueupdate_send+0xf0>)
     e6e:	2082      	movs	r0, #130	; 0x82
     e70:	0080      	lsls	r0, r0, #2
     e72:	4684      	mov	ip, r0
     e74:	44bc      	add	ip, r7
     e76:	4463      	add	r3, ip
     e78:	7818      	ldrb	r0, [r3, #0]
     e7a:	687b      	ldr	r3, [r7, #4]
     e7c:	9300      	str	r3, [sp, #0]
     e7e:	0023      	movs	r3, r4
     e80:	f000 fa06 	bl	1290 <updateEncode>
E:\2017-2018\03_Graduation Project\04_Software\04_wangshi\03_UpdateSoftware-180625\01_UEBootloader\KL36_BootLoader-180621\Debug/../04_UserBoard/ueupdate/ueupdate.c:110
	//（5）至此，ueupdate_send函数执行成功
	ueupdate_send_EXIT:
	return rv;
     e84:	4b06      	ldr	r3, [pc, #24]	; (ea0 <ueupdate_send+0xf4>)
     e86:	18fb      	adds	r3, r7, r3
     e88:	781b      	ldrb	r3, [r3, #0]
E:\2017-2018\03_Graduation Project\04_Software\04_wangshi\03_UpdateSoftware-180625\01_UEBootloader\KL36_BootLoader-180621\Debug/../04_UserBoard/ueupdate/ueupdate.c:111
}
     e8a:	0018      	movs	r0, r3
     e8c:	46bd      	mov	sp, r7
     e8e:	2383      	movs	r3, #131	; 0x83
     e90:	009b      	lsls	r3, r3, #2
     e92:	449d      	add	sp, r3
     e94:	bd90      	pop	{r4, r7, pc}
     e96:	46c0      	nop			; (mov r8, r8)
     e98:	fffffdec 	.word	0xfffffdec
     e9c:	fffffe07 	.word	0xfffffe07
     ea0:	00000207 	.word	0x00000207
     ea4:	1ffffb28 	.word	0x1ffffb28
     ea8:	1ffffad4 	.word	0x1ffffad4

00000eac <ueupdate_recv>:
ueupdate_recv():
E:\2017-2018\03_Graduation Project\04_Software\04_wangshi\03_UpdateSoftware-180625\01_UEBootloader\KL36_BootLoader-180621\Debug/../04_UserBoard/ueupdate/ueupdate.c:133
//       5            当前更新操作发生错误
//       6            检查缺失数据
//       7            其他
//======================================================================
uint_8 ueupdate_recv(uint_8 *buf,uint_16 len)
{
     eac:	b5f0      	push	{r4, r5, r6, r7, lr}
     eae:	4cbe      	ldr	r4, [pc, #760]	; (11a8 <ueupdate_recv+0x2fc>)
     eb0:	44a5      	add	sp, r4
     eb2:	af00      	add	r7, sp, #0
     eb4:	65f8      	str	r0, [r7, #92]	; 0x5c
     eb6:	000a      	movs	r2, r1
     eb8:	4bbc      	ldr	r3, [pc, #752]	; (11ac <ueupdate_recv+0x300>)
     eba:	219e      	movs	r1, #158	; 0x9e
     ebc:	0089      	lsls	r1, r1, #2
     ebe:	468c      	mov	ip, r1
     ec0:	44bc      	add	ip, r7
     ec2:	4463      	add	r3, ip
     ec4:	801a      	strh	r2, [r3, #0]
E:\2017-2018\03_Graduation Project\04_Software\04_wangshi\03_UpdateSoftware-180625\01_UEBootloader\KL36_BootLoader-180621\Debug/../04_UserBoard/ueupdate/ueupdate.c:146
	uint_16 opeLen;
	uint_16 opeSumLen;
	uint_8 opeData[512];
	uint_16 dlen;

	rv = 0;
     ec6:	4bba      	ldr	r3, [pc, #744]	; (11b0 <ueupdate_recv+0x304>)
     ec8:	18fb      	adds	r3, r7, r3
     eca:	2200      	movs	r2, #0
     ecc:	701a      	strb	r2, [r3, #0]
E:\2017-2018\03_Graduation Project\04_Software\04_wangshi\03_UpdateSoftware-180625\01_UEBootloader\KL36_BootLoader-180621\Debug/../04_UserBoard/ueupdate/ueupdate.c:149

	//（2）进行数据解帧操作
	if(updateDecode(buf,&order,opeData,&dlen))
     ece:	2366      	movs	r3, #102	; 0x66
     ed0:	18fb      	adds	r3, r7, r3
     ed2:	2268      	movs	r2, #104	; 0x68
     ed4:	18ba      	adds	r2, r7, r2
     ed6:	49b7      	ldr	r1, [pc, #732]	; (11b4 <ueupdate_recv+0x308>)
     ed8:	1879      	adds	r1, r7, r1
     eda:	6df8      	ldr	r0, [r7, #92]	; 0x5c
     edc:	f000 fa7b 	bl	13d6 <updateDecode>
     ee0:	1e03      	subs	r3, r0, #0
     ee2:	d004      	beq.n	eee <ueupdate_recv+0x42>
E:\2017-2018\03_Graduation Project\04_Software\04_wangshi\03_UpdateSoftware-180625\01_UEBootloader\KL36_BootLoader-180621\Debug/../04_UserBoard/ueupdate/ueupdate.c:151
	{
		rv = 1;                   //解帧失败
     ee4:	4bb2      	ldr	r3, [pc, #712]	; (11b0 <ueupdate_recv+0x304>)
     ee6:	18fb      	adds	r3, r7, r3
     ee8:	2201      	movs	r2, #1
     eea:	701a      	strb	r2, [r3, #0]
E:\2017-2018\03_Graduation Project\04_Software\04_wangshi\03_UpdateSoftware-180625\01_UEBootloader\KL36_BootLoader-180621\Debug/../04_UserBoard/ueupdate/ueupdate.c:152
		goto ueupdate_recv_EXIT;
     eec:	e153      	b.n	1196 <ueupdate_recv+0x2ea>
E:\2017-2018\03_Graduation Project\04_Software\04_wangshi\03_UpdateSoftware-180625\01_UEBootloader\KL36_BootLoader-180621\Debug/../04_UserBoard/ueupdate/ueupdate.c:155
	}
	//（3）根据命令进行操作
	switch(order)
     eee:	4bb1      	ldr	r3, [pc, #708]	; (11b4 <ueupdate_recv+0x308>)
     ef0:	18fb      	adds	r3, r7, r3
     ef2:	781b      	ldrb	r3, [r3, #0]
     ef4:	2b01      	cmp	r3, #1
     ef6:	d067      	beq.n	fc8 <ueupdate_recv+0x11c>
     ef8:	dc02      	bgt.n	f00 <ueupdate_recv+0x54>
     efa:	2b00      	cmp	r3, #0
     efc:	d007      	beq.n	f0e <ueupdate_recv+0x62>
     efe:	e140      	b.n	1182 <ueupdate_recv+0x2d6>
     f00:	2b02      	cmp	r3, #2
     f02:	d100      	bne.n	f06 <ueupdate_recv+0x5a>
     f04:	e0fa      	b.n	10fc <ueupdate_recv+0x250>
     f06:	2b03      	cmp	r3, #3
     f08:	d100      	bne.n	f0c <ueupdate_recv+0x60>
     f0a:	e135      	b.n	1178 <ueupdate_recv+0x2cc>
     f0c:	e139      	b.n	1182 <ueupdate_recv+0x2d6>
E:\2017-2018\03_Graduation Project\04_Software\04_wangshi\03_UpdateSoftware-180625\01_UEBootloader\KL36_BootLoader-180621\Debug/../04_UserBoard/ueupdate/ueupdate.c:159
	{
	case 0:  //（3.1）开始更新命令，擦除更新代码区数据
		//（3.1.1）擦除用户程序flash
		for(i = userSectNo;i < 64;i++)
     f0e:	4baa      	ldr	r3, [pc, #680]	; (11b8 <ueupdate_recv+0x30c>)
     f10:	18fb      	adds	r3, r7, r3
     f12:	4aaa      	ldr	r2, [pc, #680]	; (11bc <ueupdate_recv+0x310>)
     f14:	7812      	ldrb	r2, [r2, #0]
     f16:	701a      	strb	r2, [r3, #0]
     f18:	e00e      	b.n	f38 <ueupdate_recv+0x8c>
E:\2017-2018\03_Graduation Project\04_Software\04_wangshi\03_UpdateSoftware-180625\01_UEBootloader\KL36_BootLoader-180621\Debug/../04_UserBoard/ueupdate/ueupdate.c:161 (discriminator 3)
		{
			flash_erase(i);
     f1a:	4ca7      	ldr	r4, [pc, #668]	; (11b8 <ueupdate_recv+0x30c>)
     f1c:	193b      	adds	r3, r7, r4
     f1e:	781b      	ldrb	r3, [r3, #0]
     f20:	b29b      	uxth	r3, r3
     f22:	0018      	movs	r0, r3
     f24:	f001 fc74 	bl	2810 <flash_erase>
E:\2017-2018\03_Graduation Project\04_Software\04_wangshi\03_UpdateSoftware-180625\01_UEBootloader\KL36_BootLoader-180621\Debug/../04_UserBoard/ueupdate/ueupdate.c:162 (discriminator 3)
			Delay_ms(50);
     f28:	2032      	movs	r0, #50	; 0x32
     f2a:	f7ff fef7 	bl	d1c <Delay_ms>
E:\2017-2018\03_Graduation Project\04_Software\04_wangshi\03_UpdateSoftware-180625\01_UEBootloader\KL36_BootLoader-180621\Debug/../04_UserBoard/ueupdate/ueupdate.c:159 (discriminator 3)
		for(i = userSectNo;i < 64;i++)
     f2e:	193b      	adds	r3, r7, r4
     f30:	781a      	ldrb	r2, [r3, #0]
     f32:	193b      	adds	r3, r7, r4
     f34:	3201      	adds	r2, #1
     f36:	701a      	strb	r2, [r3, #0]
E:\2017-2018\03_Graduation Project\04_Software\04_wangshi\03_UpdateSoftware-180625\01_UEBootloader\KL36_BootLoader-180621\Debug/../04_UserBoard/ueupdate/ueupdate.c:159 (discriminator 1)
     f38:	4b9f      	ldr	r3, [pc, #636]	; (11b8 <ueupdate_recv+0x30c>)
     f3a:	18fb      	adds	r3, r7, r3
     f3c:	781b      	ldrb	r3, [r3, #0]
     f3e:	2b3f      	cmp	r3, #63	; 0x3f
     f40:	d9eb      	bls.n	f1a <ueupdate_recv+0x6e>
E:\2017-2018\03_Graduation Project\04_Software\04_wangshi\03_UpdateSoftware-180625\01_UEBootloader\KL36_BootLoader-180621\Debug/../04_UserBoard/ueupdate/ueupdate.c:165
		}
		//（3.1.2）初始化帧标识
		for(i = 0;i < 50;i++) check[i] = 0;
     f42:	4b9d      	ldr	r3, [pc, #628]	; (11b8 <ueupdate_recv+0x30c>)
     f44:	18fb      	adds	r3, r7, r3
     f46:	2200      	movs	r2, #0
     f48:	701a      	strb	r2, [r3, #0]
     f4a:	e00a      	b.n	f62 <ueupdate_recv+0xb6>
E:\2017-2018\03_Graduation Project\04_Software\04_wangshi\03_UpdateSoftware-180625\01_UEBootloader\KL36_BootLoader-180621\Debug/../04_UserBoard/ueupdate/ueupdate.c:165 (discriminator 3)
     f4c:	489a      	ldr	r0, [pc, #616]	; (11b8 <ueupdate_recv+0x30c>)
     f4e:	183b      	adds	r3, r7, r0
     f50:	781b      	ldrb	r3, [r3, #0]
     f52:	4a9b      	ldr	r2, [pc, #620]	; (11c0 <ueupdate_recv+0x314>)
     f54:	2100      	movs	r1, #0
     f56:	54d1      	strb	r1, [r2, r3]
     f58:	183b      	adds	r3, r7, r0
     f5a:	781a      	ldrb	r2, [r3, #0]
     f5c:	183b      	adds	r3, r7, r0
     f5e:	3201      	adds	r2, #1
     f60:	701a      	strb	r2, [r3, #0]
E:\2017-2018\03_Graduation Project\04_Software\04_wangshi\03_UpdateSoftware-180625\01_UEBootloader\KL36_BootLoader-180621\Debug/../04_UserBoard/ueupdate/ueupdate.c:165 (discriminator 1)
     f62:	4b95      	ldr	r3, [pc, #596]	; (11b8 <ueupdate_recv+0x30c>)
     f64:	18fb      	adds	r3, r7, r3
     f66:	781b      	ldrb	r3, [r3, #0]
     f68:	2b31      	cmp	r3, #49	; 0x31
     f6a:	d9ef      	bls.n	f4c <ueupdate_recv+0xa0>
E:\2017-2018\03_Graduation Project\04_Software\04_wangshi\03_UpdateSoftware-180625\01_UEBootloader\KL36_BootLoader-180621\Debug/../04_UserBoard/ueupdate/ueupdate.c:167
		//（3.1.3）接收到开始更新帧
		if(dlen == sizeof(struct insertData))
     f6c:	4b95      	ldr	r3, [pc, #596]	; (11c4 <ueupdate_recv+0x318>)
     f6e:	229e      	movs	r2, #158	; 0x9e
     f70:	0092      	lsls	r2, r2, #2
     f72:	4694      	mov	ip, r2
     f74:	44bc      	add	ip, r7
     f76:	4463      	add	r3, ip
     f78:	881a      	ldrh	r2, [r3, #0]
     f7a:	23f3      	movs	r3, #243	; 0xf3
     f7c:	005b      	lsls	r3, r3, #1
     f7e:	429a      	cmp	r2, r3
     f80:	d000      	beq.n	f84 <ueupdate_recv+0xd8>
     f82:	e103      	b.n	118c <ueupdate_recv+0x2e0>
E:\2017-2018\03_Graduation Project\04_Software\04_wangshi\03_UpdateSoftware-180625\01_UEBootloader\KL36_BootLoader-180621\Debug/../04_UserBoard/ueupdate/ueupdate.c:170
		{
			//将接收到的开始更新帧数据解析成对应的insertData结构体数据
			memcpy(&insdata,opeData,dlen);//insertData结构体变量赋值
     f84:	4b8f      	ldr	r3, [pc, #572]	; (11c4 <ueupdate_recv+0x318>)
     f86:	229e      	movs	r2, #158	; 0x9e
     f88:	0092      	lsls	r2, r2, #2
     f8a:	4694      	mov	ip, r2
     f8c:	44bc      	add	ip, r7
     f8e:	4463      	add	r3, ip
     f90:	881b      	ldrh	r3, [r3, #0]
     f92:	001a      	movs	r2, r3
     f94:	2368      	movs	r3, #104	; 0x68
     f96:	18f9      	adds	r1, r7, r3
     f98:	4b8b      	ldr	r3, [pc, #556]	; (11c8 <ueupdate_recv+0x31c>)
     f9a:	0018      	movs	r0, r3
     f9c:	f001 fe34 	bl	2c08 <memcpy>
E:\2017-2018\03_Graduation Project\04_Software\04_wangshi\03_UpdateSoftware-180625\01_UEBootloader\KL36_BootLoader-180621\Debug/../04_UserBoard/ueupdate/ueupdate.c:172
			//从结构体数据中获取当前更新总帧数
			frameNum = insdata.frameNum;
     fa0:	4b89      	ldr	r3, [pc, #548]	; (11c8 <ueupdate_recv+0x31c>)
     fa2:	781a      	ldrb	r2, [r3, #0]
     fa4:	785b      	ldrb	r3, [r3, #1]
     fa6:	021b      	lsls	r3, r3, #8
     fa8:	4313      	orrs	r3, r2
     faa:	b29a      	uxth	r2, r3
     fac:	4b87      	ldr	r3, [pc, #540]	; (11cc <ueupdate_recv+0x320>)
     fae:	801a      	strh	r2, [r3, #0]
E:\2017-2018\03_Graduation Project\04_Software\04_wangshi\03_UpdateSoftware-180625\01_UEBootloader\KL36_BootLoader-180621\Debug/../04_UserBoard/ueupdate/ueupdate.c:174
			//修改接收帧标识
			flagSet(check,insdata.curFrame);
     fb0:	4b85      	ldr	r3, [pc, #532]	; (11c8 <ueupdate_recv+0x31c>)
     fb2:	789a      	ldrb	r2, [r3, #2]
     fb4:	78db      	ldrb	r3, [r3, #3]
     fb6:	021b      	lsls	r3, r3, #8
     fb8:	4313      	orrs	r3, r2
     fba:	b29a      	uxth	r2, r3
     fbc:	4b80      	ldr	r3, [pc, #512]	; (11c0 <ueupdate_recv+0x314>)
     fbe:	0011      	movs	r1, r2
     fc0:	0018      	movs	r0, r3
     fc2:	f000 faf3 	bl	15ac <flagSet>
E:\2017-2018\03_Graduation Project\04_Software\04_wangshi\03_UpdateSoftware-180625\01_UEBootloader\KL36_BootLoader-180621\Debug/../04_UserBoard/ueupdate/ueupdate.c:176
		}
		break;
     fc6:	e0e1      	b.n	118c <ueupdate_recv+0x2e0>
E:\2017-2018\03_Graduation Project\04_Software\04_wangshi\03_UpdateSoftware-180625\01_UEBootloader\KL36_BootLoader-180621\Debug/../04_UserBoard/ueupdate/ueupdate.c:179
	case 1:  //（3.2）写flash命令，向待更新区域写入数据
		//进行是否符合结构体判断
		if(dlen == sizeof(struct insertData))  //接收到insertData数据
     fc8:	4b7e      	ldr	r3, [pc, #504]	; (11c4 <ueupdate_recv+0x318>)
     fca:	229e      	movs	r2, #158	; 0x9e
     fcc:	0092      	lsls	r2, r2, #2
     fce:	4694      	mov	ip, r2
     fd0:	44bc      	add	ip, r7
     fd2:	4463      	add	r3, ip
     fd4:	881a      	ldrh	r2, [r3, #0]
     fd6:	23f3      	movs	r3, #243	; 0xf3
     fd8:	005b      	lsls	r3, r3, #1
     fda:	429a      	cmp	r2, r3
     fdc:	d000      	beq.n	fe0 <ueupdate_recv+0x134>
     fde:	e088      	b.n	10f2 <ueupdate_recv+0x246>
E:\2017-2018\03_Graduation Project\04_Software\04_wangshi\03_UpdateSoftware-180625\01_UEBootloader\KL36_BootLoader-180621\Debug/../04_UserBoard/ueupdate/ueupdate.c:181
		{
			memcpy(&insdata,opeData,dlen);//insertData结构体变量赋值
     fe0:	4b78      	ldr	r3, [pc, #480]	; (11c4 <ueupdate_recv+0x318>)
     fe2:	229e      	movs	r2, #158	; 0x9e
     fe4:	0092      	lsls	r2, r2, #2
     fe6:	4694      	mov	ip, r2
     fe8:	44bc      	add	ip, r7
     fea:	4463      	add	r3, ip
     fec:	881b      	ldrh	r3, [r3, #0]
     fee:	001a      	movs	r2, r3
     ff0:	2368      	movs	r3, #104	; 0x68
     ff2:	18f9      	adds	r1, r7, r3
     ff4:	4b74      	ldr	r3, [pc, #464]	; (11c8 <ueupdate_recv+0x31c>)
     ff6:	0018      	movs	r0, r3
     ff8:	f001 fe06 	bl	2c08 <memcpy>
E:\2017-2018\03_Graduation Project\04_Software\04_wangshi\03_UpdateSoftware-180625\01_UEBootloader\KL36_BootLoader-180621\Debug/../04_UserBoard/ueupdate/ueupdate.c:183
			//判断总帧数是否一致
			if(insdata.frameNum != frameNum)
     ffc:	4b72      	ldr	r3, [pc, #456]	; (11c8 <ueupdate_recv+0x31c>)
     ffe:	781a      	ldrb	r2, [r3, #0]
    1000:	785b      	ldrb	r3, [r3, #1]
    1002:	021b      	lsls	r3, r3, #8
    1004:	4313      	orrs	r3, r2
    1006:	b29a      	uxth	r2, r3
    1008:	4b70      	ldr	r3, [pc, #448]	; (11cc <ueupdate_recv+0x320>)
    100a:	881b      	ldrh	r3, [r3, #0]
    100c:	429a      	cmp	r2, r3
    100e:	d004      	beq.n	101a <ueupdate_recv+0x16e>
E:\2017-2018\03_Graduation Project\04_Software\04_wangshi\03_UpdateSoftware-180625\01_UEBootloader\KL36_BootLoader-180621\Debug/../04_UserBoard/ueupdate/ueupdate.c:185
			{
				rv = 3;                   //总帧数错误
    1010:	4b67      	ldr	r3, [pc, #412]	; (11b0 <ueupdate_recv+0x304>)
    1012:	18fb      	adds	r3, r7, r3
    1014:	2203      	movs	r2, #3
    1016:	701a      	strb	r2, [r3, #0]
E:\2017-2018\03_Graduation Project\04_Software\04_wangshi\03_UpdateSoftware-180625\01_UEBootloader\KL36_BootLoader-180621\Debug/../04_UserBoard/ueupdate/ueupdate.c:186
				goto ueupdate_recv_EXIT;
    1018:	e0bd      	b.n	1196 <ueupdate_recv+0x2ea>
E:\2017-2018\03_Graduation Project\04_Software\04_wangshi\03_UpdateSoftware-180625\01_UEBootloader\KL36_BootLoader-180621\Debug/../04_UserBoard/ueupdate/ueupdate.c:189
			}
			//insertData帧operate必为1（插入）
			if(insdata.operate == 1)  //插入操作
    101a:	4b6b      	ldr	r3, [pc, #428]	; (11c8 <ueupdate_recv+0x31c>)
    101c:	791b      	ldrb	r3, [r3, #4]
    101e:	2b01      	cmp	r3, #1
    1020:	d000      	beq.n	1024 <ueupdate_recv+0x178>
    1022:	e0b5      	b.n	1190 <ueupdate_recv+0x2e4>
E:\2017-2018\03_Graduation Project\04_Software\04_wangshi\03_UpdateSoftware-180625\01_UEBootloader\KL36_BootLoader-180621\Debug/../04_UserBoard/ueupdate/ueupdate.c:191
			{
				opeSumLen = 0;  //记录插入数据长度
    1024:	239d      	movs	r3, #157	; 0x9d
    1026:	009b      	lsls	r3, r3, #2
    1028:	18fb      	adds	r3, r7, r3
    102a:	2200      	movs	r2, #0
    102c:	801a      	strh	r2, [r3, #0]
E:\2017-2018\03_Graduation Project\04_Software\04_wangshi\03_UpdateSoftware-180625\01_UEBootloader\KL36_BootLoader-180621\Debug/../04_UserBoard/ueupdate/ueupdate.c:192
				for(i = 0;i < insdata.insertNum;i++)
    102e:	4b62      	ldr	r3, [pc, #392]	; (11b8 <ueupdate_recv+0x30c>)
    1030:	18fb      	adds	r3, r7, r3
    1032:	2200      	movs	r2, #0
    1034:	701a      	strb	r2, [r3, #0]
    1036:	e049      	b.n	10cc <ueupdate_recv+0x220>
E:\2017-2018\03_Graduation Project\04_Software\04_wangshi\03_UpdateSoftware-180625\01_UEBootloader\KL36_BootLoader-180621\Debug/../04_UserBoard/ueupdate/ueupdate.c:194 (discriminator 3)
				{
					opeTo = insdata.insertInfo[i*2];
    1038:	4d5f      	ldr	r5, [pc, #380]	; (11b8 <ueupdate_recv+0x30c>)
    103a:	197b      	adds	r3, r7, r5
    103c:	781b      	ldrb	r3, [r3, #0]
    103e:	005b      	lsls	r3, r3, #1
    1040:	4c63      	ldr	r4, [pc, #396]	; (11d0 <ueupdate_recv+0x324>)
    1042:	1939      	adds	r1, r7, r4
    1044:	4a60      	ldr	r2, [pc, #384]	; (11c8 <ueupdate_recv+0x31c>)
    1046:	005b      	lsls	r3, r3, #1
    1048:	18d0      	adds	r0, r2, r3
    104a:	7980      	ldrb	r0, [r0, #6]
    104c:	18d3      	adds	r3, r2, r3
    104e:	79db      	ldrb	r3, [r3, #7]
    1050:	021b      	lsls	r3, r3, #8
    1052:	4303      	orrs	r3, r0
    1054:	800b      	strh	r3, [r1, #0]
E:\2017-2018\03_Graduation Project\04_Software\04_wangshi\03_UpdateSoftware-180625\01_UEBootloader\KL36_BootLoader-180621\Debug/../04_UserBoard/ueupdate/ueupdate.c:195 (discriminator 3)
					opeLen = insdata.insertInfo[i*2+1];
    1056:	197b      	adds	r3, r7, r5
    1058:	781b      	ldrb	r3, [r3, #0]
    105a:	005b      	lsls	r3, r3, #1
    105c:	3301      	adds	r3, #1
    105e:	269c      	movs	r6, #156	; 0x9c
    1060:	00b6      	lsls	r6, r6, #2
    1062:	19b9      	adds	r1, r7, r6
    1064:	4a58      	ldr	r2, [pc, #352]	; (11c8 <ueupdate_recv+0x31c>)
    1066:	005b      	lsls	r3, r3, #1
    1068:	18d0      	adds	r0, r2, r3
    106a:	7980      	ldrb	r0, [r0, #6]
    106c:	18d3      	adds	r3, r2, r3
    106e:	79db      	ldrb	r3, [r3, #7]
    1070:	021b      	lsls	r3, r3, #8
    1072:	4303      	orrs	r3, r0
    1074:	800b      	strh	r3, [r1, #0]
E:\2017-2018\03_Graduation Project\04_Software\04_wangshi\03_UpdateSoftware-180625\01_UEBootloader\KL36_BootLoader-180621\Debug/../04_UserBoard/ueupdate/ueupdate.c:197 (discriminator 3)
					//进行复制操作
					sect = opeTo/1024;    //扇区号
    1076:	4857      	ldr	r0, [pc, #348]	; (11d4 <ueupdate_recv+0x328>)
    1078:	183b      	adds	r3, r7, r0
    107a:	193a      	adds	r2, r7, r4
    107c:	8812      	ldrh	r2, [r2, #0]
    107e:	0a92      	lsrs	r2, r2, #10
    1080:	801a      	strh	r2, [r3, #0]
E:\2017-2018\03_Graduation Project\04_Software\04_wangshi\03_UpdateSoftware-180625\01_UEBootloader\KL36_BootLoader-180621\Debug/../04_UserBoard/ueupdate/ueupdate.c:198 (discriminator 3)
					offset = opeTo%1024;  //偏移量
    1082:	219b      	movs	r1, #155	; 0x9b
    1084:	0089      	lsls	r1, r1, #2
    1086:	187b      	adds	r3, r7, r1
    1088:	193a      	adds	r2, r7, r4
    108a:	8812      	ldrh	r2, [r2, #0]
    108c:	0592      	lsls	r2, r2, #22
    108e:	0d92      	lsrs	r2, r2, #22
    1090:	801a      	strh	r2, [r3, #0]
E:\2017-2018\03_Graduation Project\04_Software\04_wangshi\03_UpdateSoftware-180625\01_UEBootloader\KL36_BootLoader-180621\Debug/../04_UserBoard/ueupdate/ueupdate.c:199 (discriminator 3)
					flash_write(sect,offset,opeLen,insdata.data+opeSumLen);
    1092:	229d      	movs	r2, #157	; 0x9d
    1094:	0092      	lsls	r2, r2, #2
    1096:	18bb      	adds	r3, r7, r2
    1098:	881a      	ldrh	r2, [r3, #0]
    109a:	4b4f      	ldr	r3, [pc, #316]	; (11d8 <ueupdate_recv+0x32c>)
    109c:	18d4      	adds	r4, r2, r3
    109e:	19bb      	adds	r3, r7, r6
    10a0:	881a      	ldrh	r2, [r3, #0]
    10a2:	187b      	adds	r3, r7, r1
    10a4:	8819      	ldrh	r1, [r3, #0]
    10a6:	183b      	adds	r3, r7, r0
    10a8:	8818      	ldrh	r0, [r3, #0]
    10aa:	0023      	movs	r3, r4
    10ac:	f001 fbfe 	bl	28ac <flash_write>
E:\2017-2018\03_Graduation Project\04_Software\04_wangshi\03_UpdateSoftware-180625\01_UEBootloader\KL36_BootLoader-180621\Debug/../04_UserBoard/ueupdate/ueupdate.c:200 (discriminator 3)
					opeSumLen += opeLen;
    10b0:	229d      	movs	r2, #157	; 0x9d
    10b2:	0092      	lsls	r2, r2, #2
    10b4:	18bb      	adds	r3, r7, r2
    10b6:	18b9      	adds	r1, r7, r2
    10b8:	19ba      	adds	r2, r7, r6
    10ba:	8809      	ldrh	r1, [r1, #0]
    10bc:	8812      	ldrh	r2, [r2, #0]
    10be:	188a      	adds	r2, r1, r2
    10c0:	801a      	strh	r2, [r3, #0]
E:\2017-2018\03_Graduation Project\04_Software\04_wangshi\03_UpdateSoftware-180625\01_UEBootloader\KL36_BootLoader-180621\Debug/../04_UserBoard/ueupdate/ueupdate.c:192 (discriminator 3)
				for(i = 0;i < insdata.insertNum;i++)
    10c2:	197b      	adds	r3, r7, r5
    10c4:	781a      	ldrb	r2, [r3, #0]
    10c6:	197b      	adds	r3, r7, r5
    10c8:	3201      	adds	r2, #1
    10ca:	701a      	strb	r2, [r3, #0]
E:\2017-2018\03_Graduation Project\04_Software\04_wangshi\03_UpdateSoftware-180625\01_UEBootloader\KL36_BootLoader-180621\Debug/../04_UserBoard/ueupdate/ueupdate.c:192 (discriminator 1)
    10cc:	4b3e      	ldr	r3, [pc, #248]	; (11c8 <ueupdate_recv+0x31c>)
    10ce:	795b      	ldrb	r3, [r3, #5]
    10d0:	4a39      	ldr	r2, [pc, #228]	; (11b8 <ueupdate_recv+0x30c>)
    10d2:	18ba      	adds	r2, r7, r2
    10d4:	7812      	ldrb	r2, [r2, #0]
    10d6:	429a      	cmp	r2, r3
    10d8:	d3ae      	bcc.n	1038 <ueupdate_recv+0x18c>
E:\2017-2018\03_Graduation Project\04_Software\04_wangshi\03_UpdateSoftware-180625\01_UEBootloader\KL36_BootLoader-180621\Debug/../04_UserBoard/ueupdate/ueupdate.c:203
				}
				//（3.2.5）修改帧标识
				flagSet(check,insdata.curFrame);
    10da:	4b3b      	ldr	r3, [pc, #236]	; (11c8 <ueupdate_recv+0x31c>)
    10dc:	789a      	ldrb	r2, [r3, #2]
    10de:	78db      	ldrb	r3, [r3, #3]
    10e0:	021b      	lsls	r3, r3, #8
    10e2:	4313      	orrs	r3, r2
    10e4:	b29a      	uxth	r2, r3
    10e6:	4b36      	ldr	r3, [pc, #216]	; (11c0 <ueupdate_recv+0x314>)
    10e8:	0011      	movs	r1, r2
    10ea:	0018      	movs	r0, r3
    10ec:	f000 fa5e 	bl	15ac <flagSet>
E:\2017-2018\03_Graduation Project\04_Software\04_wangshi\03_UpdateSoftware-180625\01_UEBootloader\KL36_BootLoader-180621\Debug/../04_UserBoard/ueupdate/ueupdate.c:211
		else
		{
			rv = 2;                   //接收到的数据不符合结构体
			goto ueupdate_recv_EXIT;
		}
		break;
    10f0:	e04e      	b.n	1190 <ueupdate_recv+0x2e4>
E:\2017-2018\03_Graduation Project\04_Software\04_wangshi\03_UpdateSoftware-180625\01_UEBootloader\KL36_BootLoader-180621\Debug/../04_UserBoard/ueupdate/ueupdate.c:208
			rv = 2;                   //接收到的数据不符合结构体
    10f2:	4b2f      	ldr	r3, [pc, #188]	; (11b0 <ueupdate_recv+0x304>)
    10f4:	18fb      	adds	r3, r7, r3
    10f6:	2202      	movs	r2, #2
    10f8:	701a      	strb	r2, [r3, #0]
E:\2017-2018\03_Graduation Project\04_Software\04_wangshi\03_UpdateSoftware-180625\01_UEBootloader\KL36_BootLoader-180621\Debug/../04_UserBoard/ueupdate/ueupdate.c:209
			goto ueupdate_recv_EXIT;
    10fa:	e04c      	b.n	1196 <ueupdate_recv+0x2ea>
E:\2017-2018\03_Graduation Project\04_Software\04_wangshi\03_UpdateSoftware-180625\01_UEBootloader\KL36_BootLoader-180621\Debug/../04_UserBoard/ueupdate/ueupdate.c:213
	case 2:  //（3.3）更新前的检查操作
		if(dlen == sizeof(struct insertData))
    10fc:	4b31      	ldr	r3, [pc, #196]	; (11c4 <ueupdate_recv+0x318>)
    10fe:	229e      	movs	r2, #158	; 0x9e
    1100:	0092      	lsls	r2, r2, #2
    1102:	4694      	mov	ip, r2
    1104:	44bc      	add	ip, r7
    1106:	4463      	add	r3, ip
    1108:	881a      	ldrh	r2, [r3, #0]
    110a:	23f3      	movs	r3, #243	; 0xf3
    110c:	005b      	lsls	r3, r3, #1
    110e:	429a      	cmp	r2, r3
    1110:	d140      	bne.n	1194 <ueupdate_recv+0x2e8>
E:\2017-2018\03_Graduation Project\04_Software\04_wangshi\03_UpdateSoftware-180625\01_UEBootloader\KL36_BootLoader-180621\Debug/../04_UserBoard/ueupdate/ueupdate.c:215
		{
			memcpy(&insdata,opeData,dlen);//insertData结构体变量赋值
    1112:	4b2c      	ldr	r3, [pc, #176]	; (11c4 <ueupdate_recv+0x318>)
    1114:	229e      	movs	r2, #158	; 0x9e
    1116:	0092      	lsls	r2, r2, #2
    1118:	4694      	mov	ip, r2
    111a:	44bc      	add	ip, r7
    111c:	4463      	add	r3, ip
    111e:	881b      	ldrh	r3, [r3, #0]
    1120:	001a      	movs	r2, r3
    1122:	2368      	movs	r3, #104	; 0x68
    1124:	18f9      	adds	r1, r7, r3
    1126:	4b28      	ldr	r3, [pc, #160]	; (11c8 <ueupdate_recv+0x31c>)
    1128:	0018      	movs	r0, r3
    112a:	f001 fd6d 	bl	2c08 <memcpy>
E:\2017-2018\03_Graduation Project\04_Software\04_wangshi\03_UpdateSoftware-180625\01_UEBootloader\KL36_BootLoader-180621\Debug/../04_UserBoard/ueupdate/ueupdate.c:216
			flagSet(check,insdata.curFrame);
    112e:	4b26      	ldr	r3, [pc, #152]	; (11c8 <ueupdate_recv+0x31c>)
    1130:	789a      	ldrb	r2, [r3, #2]
    1132:	78db      	ldrb	r3, [r3, #3]
    1134:	021b      	lsls	r3, r3, #8
    1136:	4313      	orrs	r3, r2
    1138:	b29a      	uxth	r2, r3
    113a:	4b21      	ldr	r3, [pc, #132]	; (11c0 <ueupdate_recv+0x314>)
    113c:	0011      	movs	r1, r2
    113e:	0018      	movs	r0, r3
    1140:	f000 fa34 	bl	15ac <flagSet>
E:\2017-2018\03_Graduation Project\04_Software\04_wangshi\03_UpdateSoftware-180625\01_UEBootloader\KL36_BootLoader-180621\Debug/../04_UserBoard/ueupdate/ueupdate.c:217
			ckdata = ueupdate_check();
    1144:	4c25      	ldr	r4, [pc, #148]	; (11dc <ueupdate_recv+0x330>)
    1146:	003b      	movs	r3, r7
    1148:	0018      	movs	r0, r3
    114a:	f000 f84b 	bl	11e4 <ueupdate_check>
    114e:	4b24      	ldr	r3, [pc, #144]	; (11e0 <ueupdate_recv+0x334>)
    1150:	229e      	movs	r2, #158	; 0x9e
    1152:	0092      	lsls	r2, r2, #2
    1154:	4694      	mov	ip, r2
    1156:	44bc      	add	ip, r7
    1158:	4463      	add	r3, ip
    115a:	0020      	movs	r0, r4
    115c:	0019      	movs	r1, r3
    115e:	2353      	movs	r3, #83	; 0x53
    1160:	001a      	movs	r2, r3
    1162:	f001 fd51 	bl	2c08 <memcpy>
E:\2017-2018\03_Graduation Project\04_Software\04_wangshi\03_UpdateSoftware-180625\01_UEBootloader\KL36_BootLoader-180621\Debug/../04_UserBoard/ueupdate/ueupdate.c:219
			//若当前还有帧数据未接收到，向上位机提示
			if(ckdata.loseNum > 0)
    1166:	4b1d      	ldr	r3, [pc, #116]	; (11dc <ueupdate_recv+0x330>)
    1168:	789b      	ldrb	r3, [r3, #2]
    116a:	2b00      	cmp	r3, #0
    116c:	d012      	beq.n	1194 <ueupdate_recv+0x2e8>
E:\2017-2018\03_Graduation Project\04_Software\04_wangshi\03_UpdateSoftware-180625\01_UEBootloader\KL36_BootLoader-180621\Debug/../04_UserBoard/ueupdate/ueupdate.c:221
			{
				rv = 4;                   //还有未接收的帧
    116e:	4b10      	ldr	r3, [pc, #64]	; (11b0 <ueupdate_recv+0x304>)
    1170:	18fb      	adds	r3, r7, r3
    1172:	2204      	movs	r2, #4
    1174:	701a      	strb	r2, [r3, #0]
E:\2017-2018\03_Graduation Project\04_Software\04_wangshi\03_UpdateSoftware-180625\01_UEBootloader\KL36_BootLoader-180621\Debug/../04_UserBoard/ueupdate/ueupdate.c:222
				goto ueupdate_recv_EXIT;
    1176:	e00e      	b.n	1196 <ueupdate_recv+0x2ea>
E:\2017-2018\03_Graduation Project\04_Software\04_wangshi\03_UpdateSoftware-180625\01_UEBootloader\KL36_BootLoader-180621\Debug/../04_UserBoard/ueupdate/ueupdate.c:227
			}
		}
		break;
	case 3:  //（3.4）更新程序,
		rv = 6;  //提示代码更新完毕
    1178:	4b0d      	ldr	r3, [pc, #52]	; (11b0 <ueupdate_recv+0x304>)
    117a:	18fb      	adds	r3, r7, r3
    117c:	2206      	movs	r2, #6
    117e:	701a      	strb	r2, [r3, #0]
E:\2017-2018\03_Graduation Project\04_Software\04_wangshi\03_UpdateSoftware-180625\01_UEBootloader\KL36_BootLoader-180621\Debug/../04_UserBoard/ueupdate/ueupdate.c:228
		break;
    1180:	e009      	b.n	1196 <ueupdate_recv+0x2ea>
E:\2017-2018\03_Graduation Project\04_Software\04_wangshi\03_UpdateSoftware-180625\01_UEBootloader\KL36_BootLoader-180621\Debug/../04_UserBoard/ueupdate/ueupdate.c:230
	default:
		rv = 5;  //命令错误
    1182:	4b0b      	ldr	r3, [pc, #44]	; (11b0 <ueupdate_recv+0x304>)
    1184:	18fb      	adds	r3, r7, r3
    1186:	2205      	movs	r2, #5
    1188:	701a      	strb	r2, [r3, #0]
E:\2017-2018\03_Graduation Project\04_Software\04_wangshi\03_UpdateSoftware-180625\01_UEBootloader\KL36_BootLoader-180621\Debug/../04_UserBoard/ueupdate/ueupdate.c:231
		goto ueupdate_recv_EXIT;
    118a:	e004      	b.n	1196 <ueupdate_recv+0x2ea>
E:\2017-2018\03_Graduation Project\04_Software\04_wangshi\03_UpdateSoftware-180625\01_UEBootloader\KL36_BootLoader-180621\Debug/../04_UserBoard/ueupdate/ueupdate.c:176
		break;
    118c:	46c0      	nop			; (mov r8, r8)
    118e:	e002      	b.n	1196 <ueupdate_recv+0x2ea>
E:\2017-2018\03_Graduation Project\04_Software\04_wangshi\03_UpdateSoftware-180625\01_UEBootloader\KL36_BootLoader-180621\Debug/../04_UserBoard/ueupdate/ueupdate.c:211
		break;
    1190:	46c0      	nop			; (mov r8, r8)
    1192:	e000      	b.n	1196 <ueupdate_recv+0x2ea>
E:\2017-2018\03_Graduation Project\04_Software\04_wangshi\03_UpdateSoftware-180625\01_UEBootloader\KL36_BootLoader-180621\Debug/../04_UserBoard/ueupdate/ueupdate.c:225
		break;
    1194:	46c0      	nop			; (mov r8, r8)
E:\2017-2018\03_Graduation Project\04_Software\04_wangshi\03_UpdateSoftware-180625\01_UEBootloader\KL36_BootLoader-180621\Debug/../04_UserBoard/ueupdate/ueupdate.c:235
	}
	//（4）至此，接收数据成功
	ueupdate_recv_EXIT:
	return rv;
    1196:	4b06      	ldr	r3, [pc, #24]	; (11b0 <ueupdate_recv+0x304>)
    1198:	18fb      	adds	r3, r7, r3
    119a:	781b      	ldrb	r3, [r3, #0]
E:\2017-2018\03_Graduation Project\04_Software\04_wangshi\03_UpdateSoftware-180625\01_UEBootloader\KL36_BootLoader-180621\Debug/../04_UserBoard/ueupdate/ueupdate.c:236
}
    119c:	0018      	movs	r0, r3
    119e:	46bd      	mov	sp, r7
    11a0:	239f      	movs	r3, #159	; 0x9f
    11a2:	009b      	lsls	r3, r3, #2
    11a4:	449d      	add	sp, r3
    11a6:	bdf0      	pop	{r4, r5, r6, r7, pc}
    11a8:	fffffd84 	.word	0xfffffd84
    11ac:	fffffde2 	.word	0xfffffde2
    11b0:	00000276 	.word	0x00000276
    11b4:	0000026b 	.word	0x0000026b
    11b8:	00000277 	.word	0x00000277
    11bc:	1ffffad0 	.word	0x1ffffad0
    11c0:	1ffffa9c 	.word	0x1ffffa9c
    11c4:	fffffdee 	.word	0xfffffdee
    11c8:	1ffffb28 	.word	0x1ffffb28
    11cc:	1fffface 	.word	0x1fffface
    11d0:	00000272 	.word	0x00000272
    11d4:	0000026e 	.word	0x0000026e
    11d8:	1ffffb7e 	.word	0x1ffffb7e
    11dc:	1ffffad4 	.word	0x1ffffad4
    11e0:	fffffd88 	.word	0xfffffd88

000011e4 <ueupdate_check>:
ueupdate_check():
E:\2017-2018\03_Graduation Project\04_Software\04_wangshi\03_UpdateSoftware-180625\01_UEBootloader\KL36_BootLoader-180621\Debug/../04_UserBoard/ueupdate/ueupdate.c:246
//函数参数：无
//函数返回：checkData结构体
//功能概要：软件更新前的检查操作，若还有帧数据未更新，将具体信息写入checkData结构体供外部函数判断
//======================================================================
struct checkData ueupdate_check()
{
    11e4:	b5b0      	push	{r4, r5, r7, lr}
    11e6:	b098      	sub	sp, #96	; 0x60
    11e8:	af00      	add	r7, sp, #0
    11ea:	6078      	str	r0, [r7, #4]
E:\2017-2018\03_Graduation Project\04_Software\04_wangshi\03_UpdateSoftware-180625\01_UEBootloader\KL36_BootLoader-180621\Debug/../04_UserBoard/ueupdate/ueupdate.c:252
	//（1）变量声明
	uint_16 i;
	struct checkData cdata;

	//（2）初始化未更新帧数为0
	cdata.loseNum = 0;
    11ec:	2308      	movs	r3, #8
    11ee:	18fb      	adds	r3, r7, r3
    11f0:	2200      	movs	r2, #0
    11f2:	709a      	strb	r2, [r3, #2]
E:\2017-2018\03_Graduation Project\04_Software\04_wangshi\03_UpdateSoftware-180625\01_UEBootloader\KL36_BootLoader-180621\Debug/../04_UserBoard/ueupdate/ueupdate.c:253
	for(i = 0;i < frameNum - 1;i++)
    11f4:	235e      	movs	r3, #94	; 0x5e
    11f6:	18fb      	adds	r3, r7, r3
    11f8:	2200      	movs	r2, #0
    11fa:	801a      	strh	r2, [r3, #0]
    11fc:	e02e      	b.n	125c <ueupdate_check+0x78>
E:\2017-2018\03_Graduation Project\04_Software\04_wangshi\03_UpdateSoftware-180625\01_UEBootloader\KL36_BootLoader-180621\Debug/../04_UserBoard/ueupdate/ueupdate.c:255
	{
		if(flagGet(check,i) == 0)  //记录未接收到的帧数据信息
    11fe:	235e      	movs	r3, #94	; 0x5e
    1200:	18fb      	adds	r3, r7, r3
    1202:	881a      	ldrh	r2, [r3, #0]
    1204:	4b20      	ldr	r3, [pc, #128]	; (1288 <ueupdate_check+0xa4>)
    1206:	0011      	movs	r1, r2
    1208:	0018      	movs	r0, r3
    120a:	f000 f9e0 	bl	15ce <flagGet>
    120e:	1e03      	subs	r3, r0, #0
    1210:	d11e      	bne.n	1250 <ueupdate_check+0x6c>
E:\2017-2018\03_Graduation Project\04_Software\04_wangshi\03_UpdateSoftware-180625\01_UEBootloader\KL36_BootLoader-180621\Debug/../04_UserBoard/ueupdate/ueupdate.c:257
		{
			cdata.loseFrame[cdata.loseNum] = i;
    1212:	2508      	movs	r5, #8
    1214:	197b      	adds	r3, r7, r5
    1216:	789b      	ldrb	r3, [r3, #2]
    1218:	1979      	adds	r1, r7, r5
    121a:	005b      	lsls	r3, r3, #1
    121c:	225e      	movs	r2, #94	; 0x5e
    121e:	18ba      	adds	r2, r7, r2
    1220:	18cb      	adds	r3, r1, r3
    1222:	3303      	adds	r3, #3
    1224:	7814      	ldrb	r4, [r2, #0]
    1226:	7819      	ldrb	r1, [r3, #0]
    1228:	2000      	movs	r0, #0
    122a:	4001      	ands	r1, r0
    122c:	1c08      	adds	r0, r1, #0
    122e:	1c21      	adds	r1, r4, #0
    1230:	4301      	orrs	r1, r0
    1232:	7019      	strb	r1, [r3, #0]
    1234:	7850      	ldrb	r0, [r2, #1]
    1236:	785a      	ldrb	r2, [r3, #1]
    1238:	2100      	movs	r1, #0
    123a:	400a      	ands	r2, r1
    123c:	1c11      	adds	r1, r2, #0
    123e:	1c02      	adds	r2, r0, #0
    1240:	430a      	orrs	r2, r1
    1242:	705a      	strb	r2, [r3, #1]
E:\2017-2018\03_Graduation Project\04_Software\04_wangshi\03_UpdateSoftware-180625\01_UEBootloader\KL36_BootLoader-180621\Debug/../04_UserBoard/ueupdate/ueupdate.c:258
			cdata.loseNum++;
    1244:	197b      	adds	r3, r7, r5
    1246:	789b      	ldrb	r3, [r3, #2]
    1248:	3301      	adds	r3, #1
    124a:	b2da      	uxtb	r2, r3
    124c:	197b      	adds	r3, r7, r5
    124e:	709a      	strb	r2, [r3, #2]
E:\2017-2018\03_Graduation Project\04_Software\04_wangshi\03_UpdateSoftware-180625\01_UEBootloader\KL36_BootLoader-180621\Debug/../04_UserBoard/ueupdate/ueupdate.c:253 (discriminator 2)
	for(i = 0;i < frameNum - 1;i++)
    1250:	215e      	movs	r1, #94	; 0x5e
    1252:	187b      	adds	r3, r7, r1
    1254:	881a      	ldrh	r2, [r3, #0]
    1256:	187b      	adds	r3, r7, r1
    1258:	3201      	adds	r2, #1
    125a:	801a      	strh	r2, [r3, #0]
E:\2017-2018\03_Graduation Project\04_Software\04_wangshi\03_UpdateSoftware-180625\01_UEBootloader\KL36_BootLoader-180621\Debug/../04_UserBoard/ueupdate/ueupdate.c:253 (discriminator 1)
    125c:	235e      	movs	r3, #94	; 0x5e
    125e:	18fb      	adds	r3, r7, r3
    1260:	881a      	ldrh	r2, [r3, #0]
    1262:	4b0a      	ldr	r3, [pc, #40]	; (128c <ueupdate_check+0xa8>)
    1264:	881b      	ldrh	r3, [r3, #0]
    1266:	3b01      	subs	r3, #1
    1268:	429a      	cmp	r2, r3
    126a:	dbc8      	blt.n	11fe <ueupdate_check+0x1a>
E:\2017-2018\03_Graduation Project\04_Software\04_wangshi\03_UpdateSoftware-180625\01_UEBootloader\KL36_BootLoader-180621\Debug/../04_UserBoard/ueupdate/ueupdate.c:262
		}
	}
	//（3）返回结构体数据，供外部使用
	return cdata;
    126c:	687a      	ldr	r2, [r7, #4]
    126e:	2308      	movs	r3, #8
    1270:	18fb      	adds	r3, r7, r3
    1272:	0010      	movs	r0, r2
    1274:	0019      	movs	r1, r3
    1276:	2353      	movs	r3, #83	; 0x53
    1278:	001a      	movs	r2, r3
    127a:	f001 fcc5 	bl	2c08 <memcpy>
E:\2017-2018\03_Graduation Project\04_Software\04_wangshi\03_UpdateSoftware-180625\01_UEBootloader\KL36_BootLoader-180621\Debug/../04_UserBoard/ueupdate/ueupdate.c:263
}
    127e:	6878      	ldr	r0, [r7, #4]
    1280:	46bd      	mov	sp, r7
    1282:	b018      	add	sp, #96	; 0x60
    1284:	bdb0      	pop	{r4, r5, r7, pc}
    1286:	46c0      	nop			; (mov r8, r8)
    1288:	1ffffa9c 	.word	0x1ffffa9c
    128c:	1fffface 	.word	0x1fffface

00001290 <updateEncode>:
updateEncode():
E:\2017-2018\03_Graduation Project\04_Software\04_wangshi\03_UpdateSoftware-180625\01_UEBootloader\KL36_BootLoader-180621\Debug/../04_UserBoard/ueupdate/ueupdate.c:276
//备注：       十六进制数据帧格式
//             帧头 +帧长 + 命令 + 数据 + 校验 + 帧尾
//             2B  2B   1B   nB   2B   2B
//======================================================================
void updateEncode(uint_8 order,uint_8 *data,uint_16 dlen,uint_8 *frame,uint_16 *flen)
{
    1290:	b5f0      	push	{r4, r5, r6, r7, lr}
    1292:	b087      	sub	sp, #28
    1294:	af00      	add	r7, sp, #0
    1296:	60b9      	str	r1, [r7, #8]
    1298:	0011      	movs	r1, r2
    129a:	607b      	str	r3, [r7, #4]
    129c:	230f      	movs	r3, #15
    129e:	18fb      	adds	r3, r7, r3
    12a0:	1c02      	adds	r2, r0, #0
    12a2:	701a      	strb	r2, [r3, #0]
    12a4:	260c      	movs	r6, #12
    12a6:	19bb      	adds	r3, r7, r6
    12a8:	1c0a      	adds	r2, r1, #0
    12aa:	801a      	strh	r2, [r3, #0]
E:\2017-2018\03_Graduation Project\04_Software\04_wangshi\03_UpdateSoftware-180625\01_UEBootloader\KL36_BootLoader-180621\Debug/../04_UserBoard/ueupdate/ueupdate.c:281
	//（1）变量声明
	uint_16 crc;  //CRC校验码
	uint_16 len;  //帧长

	len = 0;
    12ac:	2416      	movs	r4, #22
    12ae:	193b      	adds	r3, r7, r4
    12b0:	2200      	movs	r2, #0
    12b2:	801a      	strh	r2, [r3, #0]
E:\2017-2018\03_Graduation Project\04_Software\04_wangshi\03_UpdateSoftware-180625\01_UEBootloader\KL36_BootLoader-180621\Debug/../04_UserBoard/ueupdate/ueupdate.c:283
	//（2）帧头操作
	frame[len++] = FrameHeadH;
    12b4:	193b      	adds	r3, r7, r4
    12b6:	881b      	ldrh	r3, [r3, #0]
    12b8:	193a      	adds	r2, r7, r4
    12ba:	1c59      	adds	r1, r3, #1
    12bc:	8011      	strh	r1, [r2, #0]
    12be:	001a      	movs	r2, r3
    12c0:	687b      	ldr	r3, [r7, #4]
    12c2:	189b      	adds	r3, r3, r2
    12c4:	2250      	movs	r2, #80	; 0x50
    12c6:	701a      	strb	r2, [r3, #0]
E:\2017-2018\03_Graduation Project\04_Software\04_wangshi\03_UpdateSoftware-180625\01_UEBootloader\KL36_BootLoader-180621\Debug/../04_UserBoard/ueupdate/ueupdate.c:284
	frame[len++] = FrameHeadL;
    12c8:	193b      	adds	r3, r7, r4
    12ca:	881b      	ldrh	r3, [r3, #0]
    12cc:	193a      	adds	r2, r7, r4
    12ce:	1c59      	adds	r1, r3, #1
    12d0:	8011      	strh	r1, [r2, #0]
    12d2:	001a      	movs	r2, r3
    12d4:	687b      	ldr	r3, [r7, #4]
    12d6:	189b      	adds	r3, r3, r2
    12d8:	2250      	movs	r2, #80	; 0x50
    12da:	701a      	strb	r2, [r3, #0]
E:\2017-2018\03_Graduation Project\04_Software\04_wangshi\03_UpdateSoftware-180625\01_UEBootloader\KL36_BootLoader-180621\Debug/../04_UserBoard/ueupdate/ueupdate.c:286
	//（3）帧长操作
	frame[len++] = (dlen + 9)>>8;
    12dc:	19bb      	adds	r3, r7, r6
    12de:	881b      	ldrh	r3, [r3, #0]
    12e0:	3309      	adds	r3, #9
    12e2:	1219      	asrs	r1, r3, #8
    12e4:	193b      	adds	r3, r7, r4
    12e6:	881b      	ldrh	r3, [r3, #0]
    12e8:	193a      	adds	r2, r7, r4
    12ea:	1c58      	adds	r0, r3, #1
    12ec:	8010      	strh	r0, [r2, #0]
    12ee:	001a      	movs	r2, r3
    12f0:	687b      	ldr	r3, [r7, #4]
    12f2:	189b      	adds	r3, r3, r2
    12f4:	b2ca      	uxtb	r2, r1
    12f6:	701a      	strb	r2, [r3, #0]
E:\2017-2018\03_Graduation Project\04_Software\04_wangshi\03_UpdateSoftware-180625\01_UEBootloader\KL36_BootLoader-180621\Debug/../04_UserBoard/ueupdate/ueupdate.c:287
	frame[len++] = dlen + 9;
    12f8:	19bb      	adds	r3, r7, r6
    12fa:	881b      	ldrh	r3, [r3, #0]
    12fc:	b2da      	uxtb	r2, r3
    12fe:	193b      	adds	r3, r7, r4
    1300:	881b      	ldrh	r3, [r3, #0]
    1302:	1939      	adds	r1, r7, r4
    1304:	1c58      	adds	r0, r3, #1
    1306:	8008      	strh	r0, [r1, #0]
    1308:	0019      	movs	r1, r3
    130a:	687b      	ldr	r3, [r7, #4]
    130c:	185b      	adds	r3, r3, r1
    130e:	3209      	adds	r2, #9
    1310:	b2d2      	uxtb	r2, r2
    1312:	701a      	strb	r2, [r3, #0]
E:\2017-2018\03_Graduation Project\04_Software\04_wangshi\03_UpdateSoftware-180625\01_UEBootloader\KL36_BootLoader-180621\Debug/../04_UserBoard/ueupdate/ueupdate.c:289
	//（4）命令操作
	frame[len++] = order;
    1314:	193b      	adds	r3, r7, r4
    1316:	881b      	ldrh	r3, [r3, #0]
    1318:	0025      	movs	r5, r4
    131a:	193a      	adds	r2, r7, r4
    131c:	1c59      	adds	r1, r3, #1
    131e:	8011      	strh	r1, [r2, #0]
    1320:	001a      	movs	r2, r3
    1322:	687b      	ldr	r3, [r7, #4]
    1324:	189b      	adds	r3, r3, r2
    1326:	220f      	movs	r2, #15
    1328:	18ba      	adds	r2, r7, r2
    132a:	7812      	ldrb	r2, [r2, #0]
    132c:	701a      	strb	r2, [r3, #0]
E:\2017-2018\03_Graduation Project\04_Software\04_wangshi\03_UpdateSoftware-180625\01_UEBootloader\KL36_BootLoader-180621\Debug/../04_UserBoard/ueupdate/ueupdate.c:291
	//（5）数据操作
	memcpy(frame+len,data,dlen);
    132e:	197b      	adds	r3, r7, r5
    1330:	881b      	ldrh	r3, [r3, #0]
    1332:	687a      	ldr	r2, [r7, #4]
    1334:	18d0      	adds	r0, r2, r3
    1336:	19bb      	adds	r3, r7, r6
    1338:	881a      	ldrh	r2, [r3, #0]
    133a:	68bb      	ldr	r3, [r7, #8]
    133c:	0019      	movs	r1, r3
    133e:	f001 fc63 	bl	2c08 <memcpy>
E:\2017-2018\03_Graduation Project\04_Software\04_wangshi\03_UpdateSoftware-180625\01_UEBootloader\KL36_BootLoader-180621\Debug/../04_UserBoard/ueupdate/ueupdate.c:292
	len += dlen;
    1342:	197b      	adds	r3, r7, r5
    1344:	1979      	adds	r1, r7, r5
    1346:	19ba      	adds	r2, r7, r6
    1348:	8809      	ldrh	r1, [r1, #0]
    134a:	8812      	ldrh	r2, [r2, #0]
    134c:	188a      	adds	r2, r1, r2
    134e:	801a      	strh	r2, [r3, #0]
E:\2017-2018\03_Graduation Project\04_Software\04_wangshi\03_UpdateSoftware-180625\01_UEBootloader\KL36_BootLoader-180621\Debug/../04_UserBoard/ueupdate/ueupdate.c:294
	//（6）CRC校验码操作
	crc = updatecrc16(data,dlen);
    1350:	2414      	movs	r4, #20
    1352:	193c      	adds	r4, r7, r4
    1354:	19bb      	adds	r3, r7, r6
    1356:	881a      	ldrh	r2, [r3, #0]
    1358:	68bb      	ldr	r3, [r7, #8]
    135a:	0011      	movs	r1, r2
    135c:	0018      	movs	r0, r3
    135e:	f000 f8c9 	bl	14f4 <updatecrc16>
    1362:	0003      	movs	r3, r0
    1364:	8023      	strh	r3, [r4, #0]
E:\2017-2018\03_Graduation Project\04_Software\04_wangshi\03_UpdateSoftware-180625\01_UEBootloader\KL36_BootLoader-180621\Debug/../04_UserBoard/ueupdate/ueupdate.c:295
	frame[len++] = crc>>8;
    1366:	2414      	movs	r4, #20
    1368:	193b      	adds	r3, r7, r4
    136a:	881b      	ldrh	r3, [r3, #0]
    136c:	0a1b      	lsrs	r3, r3, #8
    136e:	b299      	uxth	r1, r3
    1370:	197b      	adds	r3, r7, r5
    1372:	881b      	ldrh	r3, [r3, #0]
    1374:	197a      	adds	r2, r7, r5
    1376:	1c58      	adds	r0, r3, #1
    1378:	8010      	strh	r0, [r2, #0]
    137a:	001a      	movs	r2, r3
    137c:	687b      	ldr	r3, [r7, #4]
    137e:	189b      	adds	r3, r3, r2
    1380:	b2ca      	uxtb	r2, r1
    1382:	701a      	strb	r2, [r3, #0]
E:\2017-2018\03_Graduation Project\04_Software\04_wangshi\03_UpdateSoftware-180625\01_UEBootloader\KL36_BootLoader-180621\Debug/../04_UserBoard/ueupdate/ueupdate.c:296
	frame[len++] = crc;
    1384:	197b      	adds	r3, r7, r5
    1386:	881b      	ldrh	r3, [r3, #0]
    1388:	0028      	movs	r0, r5
    138a:	197a      	adds	r2, r7, r5
    138c:	1c59      	adds	r1, r3, #1
    138e:	8011      	strh	r1, [r2, #0]
    1390:	001a      	movs	r2, r3
    1392:	687b      	ldr	r3, [r7, #4]
    1394:	189b      	adds	r3, r3, r2
    1396:	193a      	adds	r2, r7, r4
    1398:	8812      	ldrh	r2, [r2, #0]
    139a:	b2d2      	uxtb	r2, r2
    139c:	701a      	strb	r2, [r3, #0]
E:\2017-2018\03_Graduation Project\04_Software\04_wangshi\03_UpdateSoftware-180625\01_UEBootloader\KL36_BootLoader-180621\Debug/../04_UserBoard/ueupdate/ueupdate.c:298
	//（7）帧尾操作
	frame[len++] = FrameTaiH;
    139e:	183b      	adds	r3, r7, r0
    13a0:	881b      	ldrh	r3, [r3, #0]
    13a2:	183a      	adds	r2, r7, r0
    13a4:	1c59      	adds	r1, r3, #1
    13a6:	8011      	strh	r1, [r2, #0]
    13a8:	001a      	movs	r2, r3
    13aa:	687b      	ldr	r3, [r7, #4]
    13ac:	189b      	adds	r3, r3, r2
    13ae:	2243      	movs	r2, #67	; 0x43
    13b0:	701a      	strb	r2, [r3, #0]
E:\2017-2018\03_Graduation Project\04_Software\04_wangshi\03_UpdateSoftware-180625\01_UEBootloader\KL36_BootLoader-180621\Debug/../04_UserBoard/ueupdate/ueupdate.c:299
	frame[len++] = FrameTaiL;
    13b2:	183b      	adds	r3, r7, r0
    13b4:	881b      	ldrh	r3, [r3, #0]
    13b6:	183a      	adds	r2, r7, r0
    13b8:	1c59      	adds	r1, r3, #1
    13ba:	8011      	strh	r1, [r2, #0]
    13bc:	001a      	movs	r2, r3
    13be:	687b      	ldr	r3, [r7, #4]
    13c0:	189b      	adds	r3, r3, r2
    13c2:	2243      	movs	r2, #67	; 0x43
    13c4:	701a      	strb	r2, [r3, #0]
E:\2017-2018\03_Graduation Project\04_Software\04_wangshi\03_UpdateSoftware-180625\01_UEBootloader\KL36_BootLoader-180621\Debug/../04_UserBoard/ueupdate/ueupdate.c:301
	//（8）帧长赋值
	*flen = len;
    13c6:	6b3b      	ldr	r3, [r7, #48]	; 0x30
    13c8:	183a      	adds	r2, r7, r0
    13ca:	8812      	ldrh	r2, [r2, #0]
    13cc:	801a      	strh	r2, [r3, #0]
E:\2017-2018\03_Graduation Project\04_Software\04_wangshi\03_UpdateSoftware-180625\01_UEBootloader\KL36_BootLoader-180621\Debug/../04_UserBoard/ueupdate/ueupdate.c:302
}
    13ce:	46c0      	nop			; (mov r8, r8)
    13d0:	46bd      	mov	sp, r7
    13d2:	b007      	add	sp, #28
    13d4:	bdf0      	pop	{r4, r5, r6, r7, pc}

000013d6 <updateDecode>:
updateDecode():
E:\2017-2018\03_Graduation Project\04_Software\04_wangshi\03_UpdateSoftware-180625\01_UEBootloader\KL36_BootLoader-180621\Debug/../04_UserBoard/ueupdate/ueupdate.c:315
//备注：       十六进制数据帧格式
//             帧头 +帧长 + 命令 + 数据 + 校验 + 帧尾
//             2B  2B   1B   nB   2B   2B
//======================================================================
uint_8 updateDecode(uint_8 *frame,uint_8 *order,uint_8 *data,uint_16 *len)
{
    13d6:	b5f0      	push	{r4, r5, r6, r7, lr}
    13d8:	b087      	sub	sp, #28
    13da:	af00      	add	r7, sp, #0
    13dc:	60f8      	str	r0, [r7, #12]
    13de:	60b9      	str	r1, [r7, #8]
    13e0:	607a      	str	r2, [r7, #4]
    13e2:	603b      	str	r3, [r7, #0]
E:\2017-2018\03_Graduation Project\04_Software\04_wangshi\03_UpdateSoftware-180625\01_UEBootloader\KL36_BootLoader-180621\Debug/../04_UserBoard/ueupdate/ueupdate.c:322
	uint_8 rv;       //返回值
	uint_8 CRC[2];
	uint_16 crc;     //16位CRC校验码
	uint_16 frameLen;//帧长

	rv = 0;  //默认成功，返回值为0
    13e4:	2317      	movs	r3, #23
    13e6:	18fb      	adds	r3, r7, r3
    13e8:	2200      	movs	r2, #0
    13ea:	701a      	strb	r2, [r3, #0]
E:\2017-2018\03_Graduation Project\04_Software\04_wangshi\03_UpdateSoftware-180625\01_UEBootloader\KL36_BootLoader-180621\Debug/../04_UserBoard/ueupdate/ueupdate.c:324
	//（2）校验帧头
	if(frame[0] != FrameHeadH || frame[1] != FrameHeadL)//帧头不对
    13ec:	68fb      	ldr	r3, [r7, #12]
    13ee:	781b      	ldrb	r3, [r3, #0]
    13f0:	2b50      	cmp	r3, #80	; 0x50
    13f2:	d104      	bne.n	13fe <updateDecode+0x28>
E:\2017-2018\03_Graduation Project\04_Software\04_wangshi\03_UpdateSoftware-180625\01_UEBootloader\KL36_BootLoader-180621\Debug/../04_UserBoard/ueupdate/ueupdate.c:324 (discriminator 1)
    13f4:	68fb      	ldr	r3, [r7, #12]
    13f6:	3301      	adds	r3, #1
    13f8:	781b      	ldrb	r3, [r3, #0]
    13fa:	2b50      	cmp	r3, #80	; 0x50
    13fc:	d004      	beq.n	1408 <updateDecode+0x32>
E:\2017-2018\03_Graduation Project\04_Software\04_wangshi\03_UpdateSoftware-180625\01_UEBootloader\KL36_BootLoader-180621\Debug/../04_UserBoard/ueupdate/ueupdate.c:326
	{
		rv = 1;
    13fe:	2317      	movs	r3, #23
    1400:	18fb      	adds	r3, r7, r3
    1402:	2201      	movs	r2, #1
    1404:	701a      	strb	r2, [r3, #0]
E:\2017-2018\03_Graduation Project\04_Software\04_wangshi\03_UpdateSoftware-180625\01_UEBootloader\KL36_BootLoader-180621\Debug/../04_UserBoard/ueupdate/ueupdate.c:327
		goto updateDecode_EXIT;
    1406:	e06d      	b.n	14e4 <updateDecode+0x10e>
E:\2017-2018\03_Graduation Project\04_Software\04_wangshi\03_UpdateSoftware-180625\01_UEBootloader\KL36_BootLoader-180621\Debug/../04_UserBoard/ueupdate/ueupdate.c:330
	}
	//（3）获取帧长
	frameLen = (frame[2]<<8) | frame[3];
    1408:	68fb      	ldr	r3, [r7, #12]
    140a:	3302      	adds	r3, #2
    140c:	781b      	ldrb	r3, [r3, #0]
    140e:	021b      	lsls	r3, r3, #8
    1410:	b21a      	sxth	r2, r3
    1412:	68fb      	ldr	r3, [r7, #12]
    1414:	3303      	adds	r3, #3
    1416:	781b      	ldrb	r3, [r3, #0]
    1418:	b21b      	sxth	r3, r3
    141a:	4313      	orrs	r3, r2
    141c:	b21a      	sxth	r2, r3
    141e:	2514      	movs	r5, #20
    1420:	197b      	adds	r3, r7, r5
    1422:	801a      	strh	r2, [r3, #0]
E:\2017-2018\03_Graduation Project\04_Software\04_wangshi\03_UpdateSoftware-180625\01_UEBootloader\KL36_BootLoader-180621\Debug/../04_UserBoard/ueupdate/ueupdate.c:332
	//（4）获取帧命令
	*order = frame[4];
    1424:	68fb      	ldr	r3, [r7, #12]
    1426:	791a      	ldrb	r2, [r3, #4]
    1428:	68bb      	ldr	r3, [r7, #8]
    142a:	701a      	strb	r2, [r3, #0]
E:\2017-2018\03_Graduation Project\04_Software\04_wangshi\03_UpdateSoftware-180625\01_UEBootloader\KL36_BootLoader-180621\Debug/../04_UserBoard/ueupdate/ueupdate.c:334
	//（5）CRC校验
	*len = frameLen-9;  //获取有效数据长度
    142c:	197b      	adds	r3, r7, r5
    142e:	881b      	ldrh	r3, [r3, #0]
    1430:	3b09      	subs	r3, #9
    1432:	b29a      	uxth	r2, r3
    1434:	683b      	ldr	r3, [r7, #0]
    1436:	801a      	strh	r2, [r3, #0]
E:\2017-2018\03_Graduation Project\04_Software\04_wangshi\03_UpdateSoftware-180625\01_UEBootloader\KL36_BootLoader-180621\Debug/../04_UserBoard/ueupdate/ueupdate.c:335
	crc = updatecrc16(frame+5,*len);
    1438:	68fb      	ldr	r3, [r7, #12]
    143a:	1d5a      	adds	r2, r3, #5
    143c:	683b      	ldr	r3, [r7, #0]
    143e:	881b      	ldrh	r3, [r3, #0]
    1440:	2112      	movs	r1, #18
    1442:	000e      	movs	r6, r1
    1444:	187c      	adds	r4, r7, r1
    1446:	0019      	movs	r1, r3
    1448:	0010      	movs	r0, r2
    144a:	f000 f853 	bl	14f4 <updatecrc16>
    144e:	0003      	movs	r3, r0
    1450:	8023      	strh	r3, [r4, #0]
E:\2017-2018\03_Graduation Project\04_Software\04_wangshi\03_UpdateSoftware-180625\01_UEBootloader\KL36_BootLoader-180621\Debug/../04_UserBoard/ueupdate/ueupdate.c:336
	CRC[0] = crc>>8;
    1452:	0031      	movs	r1, r6
    1454:	187b      	adds	r3, r7, r1
    1456:	881b      	ldrh	r3, [r3, #0]
    1458:	0a1b      	lsrs	r3, r3, #8
    145a:	b29b      	uxth	r3, r3
    145c:	b2da      	uxtb	r2, r3
    145e:	2010      	movs	r0, #16
    1460:	183b      	adds	r3, r7, r0
    1462:	701a      	strb	r2, [r3, #0]
E:\2017-2018\03_Graduation Project\04_Software\04_wangshi\03_UpdateSoftware-180625\01_UEBootloader\KL36_BootLoader-180621\Debug/../04_UserBoard/ueupdate/ueupdate.c:337
	CRC[1] = crc;
    1464:	187b      	adds	r3, r7, r1
    1466:	881b      	ldrh	r3, [r3, #0]
    1468:	b2da      	uxtb	r2, r3
    146a:	183b      	adds	r3, r7, r0
    146c:	705a      	strb	r2, [r3, #1]
E:\2017-2018\03_Graduation Project\04_Software\04_wangshi\03_UpdateSoftware-180625\01_UEBootloader\KL36_BootLoader-180621\Debug/../04_UserBoard/ueupdate/ueupdate.c:338
	if(CRC[0] != frame[frameLen-4] || CRC[1] != frame[frameLen-3])//CRC校验错误
    146e:	183b      	adds	r3, r7, r0
    1470:	781a      	ldrb	r2, [r3, #0]
    1472:	197b      	adds	r3, r7, r5
    1474:	881b      	ldrh	r3, [r3, #0]
    1476:	3b04      	subs	r3, #4
    1478:	68f9      	ldr	r1, [r7, #12]
    147a:	18cb      	adds	r3, r1, r3
    147c:	781b      	ldrb	r3, [r3, #0]
    147e:	429a      	cmp	r2, r3
    1480:	d10b      	bne.n	149a <updateDecode+0xc4>
E:\2017-2018\03_Graduation Project\04_Software\04_wangshi\03_UpdateSoftware-180625\01_UEBootloader\KL36_BootLoader-180621\Debug/../04_UserBoard/ueupdate/ueupdate.c:338 (discriminator 1)
    1482:	2310      	movs	r3, #16
    1484:	18fb      	adds	r3, r7, r3
    1486:	785a      	ldrb	r2, [r3, #1]
    1488:	2314      	movs	r3, #20
    148a:	18fb      	adds	r3, r7, r3
    148c:	881b      	ldrh	r3, [r3, #0]
    148e:	3b03      	subs	r3, #3
    1490:	68f9      	ldr	r1, [r7, #12]
    1492:	18cb      	adds	r3, r1, r3
    1494:	781b      	ldrb	r3, [r3, #0]
    1496:	429a      	cmp	r2, r3
    1498:	d004      	beq.n	14a4 <updateDecode+0xce>
E:\2017-2018\03_Graduation Project\04_Software\04_wangshi\03_UpdateSoftware-180625\01_UEBootloader\KL36_BootLoader-180621\Debug/../04_UserBoard/ueupdate/ueupdate.c:340
	{
		rv = 2;
    149a:	2317      	movs	r3, #23
    149c:	18fb      	adds	r3, r7, r3
    149e:	2202      	movs	r2, #2
    14a0:	701a      	strb	r2, [r3, #0]
E:\2017-2018\03_Graduation Project\04_Software\04_wangshi\03_UpdateSoftware-180625\01_UEBootloader\KL36_BootLoader-180621\Debug/../04_UserBoard/ueupdate/ueupdate.c:341
		goto updateDecode_EXIT;
    14a2:	e01f      	b.n	14e4 <updateDecode+0x10e>
E:\2017-2018\03_Graduation Project\04_Software\04_wangshi\03_UpdateSoftware-180625\01_UEBootloader\KL36_BootLoader-180621\Debug/../04_UserBoard/ueupdate/ueupdate.c:344
	}
	//（6）校验帧尾
	if(frame[frameLen-2] != FrameTaiH || frame[frameLen-1] != FrameTaiL)//帧尾不对
    14a4:	2314      	movs	r3, #20
    14a6:	18fb      	adds	r3, r7, r3
    14a8:	881b      	ldrh	r3, [r3, #0]
    14aa:	3b02      	subs	r3, #2
    14ac:	68fa      	ldr	r2, [r7, #12]
    14ae:	18d3      	adds	r3, r2, r3
    14b0:	781b      	ldrb	r3, [r3, #0]
    14b2:	2b43      	cmp	r3, #67	; 0x43
    14b4:	d108      	bne.n	14c8 <updateDecode+0xf2>
E:\2017-2018\03_Graduation Project\04_Software\04_wangshi\03_UpdateSoftware-180625\01_UEBootloader\KL36_BootLoader-180621\Debug/../04_UserBoard/ueupdate/ueupdate.c:344 (discriminator 1)
    14b6:	2314      	movs	r3, #20
    14b8:	18fb      	adds	r3, r7, r3
    14ba:	881b      	ldrh	r3, [r3, #0]
    14bc:	3b01      	subs	r3, #1
    14be:	68fa      	ldr	r2, [r7, #12]
    14c0:	18d3      	adds	r3, r2, r3
    14c2:	781b      	ldrb	r3, [r3, #0]
    14c4:	2b43      	cmp	r3, #67	; 0x43
    14c6:	d004      	beq.n	14d2 <updateDecode+0xfc>
E:\2017-2018\03_Graduation Project\04_Software\04_wangshi\03_UpdateSoftware-180625\01_UEBootloader\KL36_BootLoader-180621\Debug/../04_UserBoard/ueupdate/ueupdate.c:346
	{
		rv = 3;
    14c8:	2317      	movs	r3, #23
    14ca:	18fb      	adds	r3, r7, r3
    14cc:	2203      	movs	r2, #3
    14ce:	701a      	strb	r2, [r3, #0]
E:\2017-2018\03_Graduation Project\04_Software\04_wangshi\03_UpdateSoftware-180625\01_UEBootloader\KL36_BootLoader-180621\Debug/../04_UserBoard/ueupdate/ueupdate.c:347
		goto updateDecode_EXIT;
    14d0:	e008      	b.n	14e4 <updateDecode+0x10e>
E:\2017-2018\03_Graduation Project\04_Software\04_wangshi\03_UpdateSoftware-180625\01_UEBootloader\KL36_BootLoader-180621\Debug/../04_UserBoard/ueupdate/ueupdate.c:350
	}
	//（7）至此，所有校验完成，进行赋值操作
	memcpy(data,frame+5,*len);
    14d2:	68fb      	ldr	r3, [r7, #12]
    14d4:	1d59      	adds	r1, r3, #5
    14d6:	683b      	ldr	r3, [r7, #0]
    14d8:	881b      	ldrh	r3, [r3, #0]
    14da:	001a      	movs	r2, r3
    14dc:	687b      	ldr	r3, [r7, #4]
    14de:	0018      	movs	r0, r3
    14e0:	f001 fb92 	bl	2c08 <memcpy>
E:\2017-2018\03_Graduation Project\04_Software\04_wangshi\03_UpdateSoftware-180625\01_UEBootloader\KL36_BootLoader-180621\Debug/../04_UserBoard/ueupdate/ueupdate.c:353

	updateDecode_EXIT:
	return rv;
    14e4:	2317      	movs	r3, #23
    14e6:	18fb      	adds	r3, r7, r3
    14e8:	781b      	ldrb	r3, [r3, #0]
E:\2017-2018\03_Graduation Project\04_Software\04_wangshi\03_UpdateSoftware-180625\01_UEBootloader\KL36_BootLoader-180621\Debug/../04_UserBoard/ueupdate/ueupdate.c:354
}
    14ea:	0018      	movs	r0, r3
    14ec:	46bd      	mov	sp, r7
    14ee:	b007      	add	sp, #28
    14f0:	bdf0      	pop	{r4, r5, r6, r7, pc}
	...

000014f4 <updatecrc16>:
updatecrc16():
E:\2017-2018\03_Graduation Project\04_Software\04_wangshi\03_UpdateSoftware-180625\01_UEBootloader\KL36_BootLoader-180621\Debug/../04_UserBoard/ueupdate/ueupdate.c:363
//函数参数：ptr:待校验的数据;len:待校验的数据长度
//函数返回：16位CRC校验码
//功能概要：计算一段数据的CRC校验码
//======================================================================
uint_16 updatecrc16(uint_8 *ptr,uint_16 len)
{
    14f4:	b590      	push	{r4, r7, lr}
    14f6:	b085      	sub	sp, #20
    14f8:	af00      	add	r7, sp, #0
    14fa:	6078      	str	r0, [r7, #4]
    14fc:	000a      	movs	r2, r1
    14fe:	1cbb      	adds	r3, r7, #2
    1500:	801a      	strh	r2, [r3, #0]
E:\2017-2018\03_Graduation Project\04_Software\04_wangshi\03_UpdateSoftware-180625\01_UEBootloader\KL36_BootLoader-180621\Debug/../04_UserBoard/ueupdate/ueupdate.c:366
	uint_16 i,j,tmp,crc16;

	crc16 = 0xffff;
    1502:	230a      	movs	r3, #10
    1504:	18fb      	adds	r3, r7, r3
    1506:	2201      	movs	r2, #1
    1508:	4252      	negs	r2, r2
    150a:	801a      	strh	r2, [r3, #0]
E:\2017-2018\03_Graduation Project\04_Software\04_wangshi\03_UpdateSoftware-180625\01_UEBootloader\KL36_BootLoader-180621\Debug/../04_UserBoard/ueupdate/ueupdate.c:367
	for(i = 0;i < len;i++)
    150c:	230e      	movs	r3, #14
    150e:	18fb      	adds	r3, r7, r3
    1510:	2200      	movs	r2, #0
    1512:	801a      	strh	r2, [r3, #0]
    1514:	e03a      	b.n	158c <updatecrc16+0x98>
E:\2017-2018\03_Graduation Project\04_Software\04_wangshi\03_UpdateSoftware-180625\01_UEBootloader\KL36_BootLoader-180621\Debug/../04_UserBoard/ueupdate/ueupdate.c:369
	{
		crc16 = ptr[i]^crc16;
    1516:	230e      	movs	r3, #14
    1518:	18fb      	adds	r3, r7, r3
    151a:	881b      	ldrh	r3, [r3, #0]
    151c:	687a      	ldr	r2, [r7, #4]
    151e:	18d3      	adds	r3, r2, r3
    1520:	781b      	ldrb	r3, [r3, #0]
    1522:	b299      	uxth	r1, r3
    1524:	220a      	movs	r2, #10
    1526:	18bb      	adds	r3, r7, r2
    1528:	18ba      	adds	r2, r7, r2
    152a:	8812      	ldrh	r2, [r2, #0]
    152c:	404a      	eors	r2, r1
    152e:	801a      	strh	r2, [r3, #0]
E:\2017-2018\03_Graduation Project\04_Software\04_wangshi\03_UpdateSoftware-180625\01_UEBootloader\KL36_BootLoader-180621\Debug/../04_UserBoard/ueupdate/ueupdate.c:370
		for(j = 0;j < 8;j++)
    1530:	230c      	movs	r3, #12
    1532:	18fb      	adds	r3, r7, r3
    1534:	2200      	movs	r2, #0
    1536:	801a      	strh	r2, [r3, #0]
    1538:	e01d      	b.n	1576 <updatecrc16+0x82>
E:\2017-2018\03_Graduation Project\04_Software\04_wangshi\03_UpdateSoftware-180625\01_UEBootloader\KL36_BootLoader-180621\Debug/../04_UserBoard/ueupdate/ueupdate.c:372
		{
			tmp = crc16 & 0x0001;
    153a:	2408      	movs	r4, #8
    153c:	193b      	adds	r3, r7, r4
    153e:	200a      	movs	r0, #10
    1540:	183a      	adds	r2, r7, r0
    1542:	8812      	ldrh	r2, [r2, #0]
    1544:	2101      	movs	r1, #1
    1546:	400a      	ands	r2, r1
    1548:	801a      	strh	r2, [r3, #0]
E:\2017-2018\03_Graduation Project\04_Software\04_wangshi\03_UpdateSoftware-180625\01_UEBootloader\KL36_BootLoader-180621\Debug/../04_UserBoard/ueupdate/ueupdate.c:373
			crc16 = crc16>>1;
    154a:	183b      	adds	r3, r7, r0
    154c:	183a      	adds	r2, r7, r0
    154e:	8812      	ldrh	r2, [r2, #0]
    1550:	0852      	lsrs	r2, r2, #1
    1552:	801a      	strh	r2, [r3, #0]
E:\2017-2018\03_Graduation Project\04_Software\04_wangshi\03_UpdateSoftware-180625\01_UEBootloader\KL36_BootLoader-180621\Debug/../04_UserBoard/ueupdate/ueupdate.c:374
			if(tmp)
    1554:	193b      	adds	r3, r7, r4
    1556:	881b      	ldrh	r3, [r3, #0]
    1558:	2b00      	cmp	r3, #0
    155a:	d006      	beq.n	156a <updatecrc16+0x76>
E:\2017-2018\03_Graduation Project\04_Software\04_wangshi\03_UpdateSoftware-180625\01_UEBootloader\KL36_BootLoader-180621\Debug/../04_UserBoard/ueupdate/ueupdate.c:375
				crc16 = crc16^0xa001;
    155c:	220a      	movs	r2, #10
    155e:	18bb      	adds	r3, r7, r2
    1560:	18ba      	adds	r2, r7, r2
    1562:	8812      	ldrh	r2, [r2, #0]
    1564:	4910      	ldr	r1, [pc, #64]	; (15a8 <updatecrc16+0xb4>)
    1566:	404a      	eors	r2, r1
    1568:	801a      	strh	r2, [r3, #0]
E:\2017-2018\03_Graduation Project\04_Software\04_wangshi\03_UpdateSoftware-180625\01_UEBootloader\KL36_BootLoader-180621\Debug/../04_UserBoard/ueupdate/ueupdate.c:370 (discriminator 2)
		for(j = 0;j < 8;j++)
    156a:	210c      	movs	r1, #12
    156c:	187b      	adds	r3, r7, r1
    156e:	881a      	ldrh	r2, [r3, #0]
    1570:	187b      	adds	r3, r7, r1
    1572:	3201      	adds	r2, #1
    1574:	801a      	strh	r2, [r3, #0]
E:\2017-2018\03_Graduation Project\04_Software\04_wangshi\03_UpdateSoftware-180625\01_UEBootloader\KL36_BootLoader-180621\Debug/../04_UserBoard/ueupdate/ueupdate.c:370 (discriminator 1)
    1576:	230c      	movs	r3, #12
    1578:	18fb      	adds	r3, r7, r3
    157a:	881b      	ldrh	r3, [r3, #0]
    157c:	2b07      	cmp	r3, #7
    157e:	d9dc      	bls.n	153a <updatecrc16+0x46>
E:\2017-2018\03_Graduation Project\04_Software\04_wangshi\03_UpdateSoftware-180625\01_UEBootloader\KL36_BootLoader-180621\Debug/../04_UserBoard/ueupdate/ueupdate.c:367 (discriminator 2)
	for(i = 0;i < len;i++)
    1580:	210e      	movs	r1, #14
    1582:	187b      	adds	r3, r7, r1
    1584:	881a      	ldrh	r2, [r3, #0]
    1586:	187b      	adds	r3, r7, r1
    1588:	3201      	adds	r2, #1
    158a:	801a      	strh	r2, [r3, #0]
E:\2017-2018\03_Graduation Project\04_Software\04_wangshi\03_UpdateSoftware-180625\01_UEBootloader\KL36_BootLoader-180621\Debug/../04_UserBoard/ueupdate/ueupdate.c:367 (discriminator 1)
    158c:	230e      	movs	r3, #14
    158e:	18fa      	adds	r2, r7, r3
    1590:	1cbb      	adds	r3, r7, #2
    1592:	8812      	ldrh	r2, [r2, #0]
    1594:	881b      	ldrh	r3, [r3, #0]
    1596:	429a      	cmp	r2, r3
    1598:	d3bd      	bcc.n	1516 <updatecrc16+0x22>
E:\2017-2018\03_Graduation Project\04_Software\04_wangshi\03_UpdateSoftware-180625\01_UEBootloader\KL36_BootLoader-180621\Debug/../04_UserBoard/ueupdate/ueupdate.c:379
		}
	}

	return crc16;
    159a:	230a      	movs	r3, #10
    159c:	18fb      	adds	r3, r7, r3
    159e:	881b      	ldrh	r3, [r3, #0]
E:\2017-2018\03_Graduation Project\04_Software\04_wangshi\03_UpdateSoftware-180625\01_UEBootloader\KL36_BootLoader-180621\Debug/../04_UserBoard/ueupdate/ueupdate.c:380
}
    15a0:	0018      	movs	r0, r3
    15a2:	46bd      	mov	sp, r7
    15a4:	b005      	add	sp, #20
    15a6:	bd90      	pop	{r4, r7, pc}
    15a8:	ffffa001 	.word	0xffffa001

000015ac <flagSet>:
flagSet():
E:\2017-2018\03_Graduation Project\04_Software\04_wangshi\03_UpdateSoftware-180625\01_UEBootloader\KL36_BootLoader-180621\Debug/../04_UserBoard/ueupdate/ueupdate.c:390
//函数返回：无
//功能概要：按照位的方式设置标志，如flagBuf[0]中的8位分别代表0~7的状态，
//       flagBuf[1]中的8位分别代表8~15的状态，...
//======================================================================
void flagSet(uint_8 *flagBuf,uint_16 flag)
{
    15ac:	b580      	push	{r7, lr}
    15ae:	b082      	sub	sp, #8
    15b0:	af00      	add	r7, sp, #0
    15b2:	6078      	str	r0, [r7, #4]
    15b4:	000a      	movs	r2, r1
    15b6:	1cbb      	adds	r3, r7, #2
    15b8:	801a      	strh	r2, [r3, #0]
E:\2017-2018\03_Graduation Project\04_Software\04_wangshi\03_UpdateSoftware-180625\01_UEBootloader\KL36_BootLoader-180621\Debug/../04_UserBoard/ueupdate/ueupdate.c:394
	uint_16 i;
	uint_8 j;

	flagBuf[flag] = 1;
    15ba:	1cbb      	adds	r3, r7, #2
    15bc:	881b      	ldrh	r3, [r3, #0]
    15be:	687a      	ldr	r2, [r7, #4]
    15c0:	18d3      	adds	r3, r2, r3
    15c2:	2201      	movs	r2, #1
    15c4:	701a      	strb	r2, [r3, #0]
E:\2017-2018\03_Graduation Project\04_Software\04_wangshi\03_UpdateSoftware-180625\01_UEBootloader\KL36_BootLoader-180621\Debug/../04_UserBoard/ueupdate/ueupdate.c:400

//	i = flag/8;  //标志所处字节数
//	j = flag%8;  //字节内位置
//
//	flagBuf[i] &= (1 << j);  //设置标志位
}
    15c6:	46c0      	nop			; (mov r8, r8)
    15c8:	46bd      	mov	sp, r7
    15ca:	b002      	add	sp, #8
    15cc:	bd80      	pop	{r7, pc}

000015ce <flagGet>:
flagGet():
E:\2017-2018\03_Graduation Project\04_Software\04_wangshi\03_UpdateSoftware-180625\01_UEBootloader\KL36_BootLoader-180621\Debug/../04_UserBoard/ueupdate/ueupdate.c:409
//函数参数：flagBuf:标志数据;flag:标志位数
//函数返回：第flag位的标志状态
//功能概要：获取flagBuf地址开始的第flag位状态
//======================================================================
uint_8 flagGet(uint_8 *flagBuf,uint_16 flag)
{
    15ce:	b580      	push	{r7, lr}
    15d0:	b082      	sub	sp, #8
    15d2:	af00      	add	r7, sp, #0
    15d4:	6078      	str	r0, [r7, #4]
    15d6:	000a      	movs	r2, r1
    15d8:	1cbb      	adds	r3, r7, #2
    15da:	801a      	strh	r2, [r3, #0]
E:\2017-2018\03_Graduation Project\04_Software\04_wangshi\03_UpdateSoftware-180625\01_UEBootloader\KL36_BootLoader-180621\Debug/../04_UserBoard/ueupdate/ueupdate.c:417

//	i = flag/8;  //标志所处字节数
//	j = flag%8;  //字节内位置

	//flagBuf[i] & (1 << j);
	return flagBuf[flag];
    15dc:	1cbb      	adds	r3, r7, #2
    15de:	881b      	ldrh	r3, [r3, #0]
    15e0:	687a      	ldr	r2, [r7, #4]
    15e2:	18d3      	adds	r3, r2, r3
    15e4:	781b      	ldrb	r3, [r3, #0]
E:\2017-2018\03_Graduation Project\04_Software\04_wangshi\03_UpdateSoftware-180625\01_UEBootloader\KL36_BootLoader-180621\Debug/../04_UserBoard/ueupdate/ueupdate.c:418
}
    15e6:	0018      	movs	r0, r3
    15e8:	46bd      	mov	sp, r7
    15ea:	b002      	add	sp, #8
    15ec:	bd80      	pop	{r7, pc}

000015ee <light_init>:
light_init():
E:\2017-2018\03_Graduation Project\04_Software\04_wangshi\03_UpdateSoftware-180625\01_UEBootloader\KL36_BootLoader-180621\Debug/../04_UserBoard/light/light.c:16
//       state：设定小灯状态。由light.h中宏定义。
//函数返回：无
//功能概要：指示灯驱动初始化。
//=====================================================================
void light_init(uint_16 port_pin, uint_8 state)
{
    15ee:	b580      	push	{r7, lr}
    15f0:	b082      	sub	sp, #8
    15f2:	af00      	add	r7, sp, #0
    15f4:	0002      	movs	r2, r0
    15f6:	1dbb      	adds	r3, r7, #6
    15f8:	801a      	strh	r2, [r3, #0]
    15fa:	1d7b      	adds	r3, r7, #5
    15fc:	1c0a      	adds	r2, r1, #0
    15fe:	701a      	strb	r2, [r3, #0]
E:\2017-2018\03_Graduation Project\04_Software\04_wangshi\03_UpdateSoftware-180625\01_UEBootloader\KL36_BootLoader-180621\Debug/../04_UserBoard/light/light.c:17
    gpio_init(port_pin, GPIO_OUTPUT, state);
    1600:	1d7b      	adds	r3, r7, #5
    1602:	781a      	ldrb	r2, [r3, #0]
    1604:	1dbb      	adds	r3, r7, #6
    1606:	881b      	ldrh	r3, [r3, #0]
    1608:	2101      	movs	r1, #1
    160a:	0018      	movs	r0, r3
    160c:	f000 fe20 	bl	2250 <gpio_init>
E:\2017-2018\03_Graduation Project\04_Software\04_wangshi\03_UpdateSoftware-180625\01_UEBootloader\KL36_BootLoader-180621\Debug/../04_UserBoard/light/light.c:18
}
    1610:	46c0      	nop			; (mov r8, r8)
    1612:	46bd      	mov	sp, r7
    1614:	b002      	add	sp, #8
    1616:	bd80      	pop	{r7, pc}

00001618 <light_control>:
light_control():
E:\2017-2018\03_Graduation Project\04_Software\04_wangshi\03_UpdateSoftware-180625\01_UEBootloader\KL36_BootLoader-180621\Debug/../04_UserBoard/light/light.c:28
//       state：设定小灯状态。由light.h中宏定义。
//函数返回：无
//功能概要：控制指示灯亮暗。
//=====================================================================
void light_control(uint_16 port_pin, uint_8 state)
{
    1618:	b580      	push	{r7, lr}
    161a:	b082      	sub	sp, #8
    161c:	af00      	add	r7, sp, #0
    161e:	0002      	movs	r2, r0
    1620:	1dbb      	adds	r3, r7, #6
    1622:	801a      	strh	r2, [r3, #0]
    1624:	1d7b      	adds	r3, r7, #5
    1626:	1c0a      	adds	r2, r1, #0
    1628:	701a      	strb	r2, [r3, #0]
E:\2017-2018\03_Graduation Project\04_Software\04_wangshi\03_UpdateSoftware-180625\01_UEBootloader\KL36_BootLoader-180621\Debug/../04_UserBoard/light/light.c:29
    gpio_set(port_pin, state);
    162a:	1d7b      	adds	r3, r7, #5
    162c:	781a      	ldrb	r2, [r3, #0]
    162e:	1dbb      	adds	r3, r7, #6
    1630:	881b      	ldrh	r3, [r3, #0]
    1632:	0011      	movs	r1, r2
    1634:	0018      	movs	r0, r3
    1636:	f000 fe81 	bl	233c <gpio_set>
E:\2017-2018\03_Graduation Project\04_Software\04_wangshi\03_UpdateSoftware-180625\01_UEBootloader\KL36_BootLoader-180621\Debug/../04_UserBoard/light/light.c:30
}
    163a:	46c0      	nop			; (mov r8, r8)
    163c:	46bd      	mov	sp, r7
    163e:	b002      	add	sp, #8
    1640:	bd80      	pop	{r7, pc}

00001642 <light_change>:
light_change():
E:\2017-2018\03_Graduation Project\04_Software\04_wangshi\03_UpdateSoftware-180625\01_UEBootloader\KL36_BootLoader-180621\Debug/../04_UserBoard/light/light.c:39
//函数参数：port_pin：(端口号)|(引脚号)（如：(PTB_NUM)|(9) 表示为B口9号脚）
//函数返回：无
//功能概要：切换指示灯亮暗。
//=====================================================================
void light_change(uint_16 port_pin)
{
    1642:	b580      	push	{r7, lr}
    1644:	b082      	sub	sp, #8
    1646:	af00      	add	r7, sp, #0
    1648:	0002      	movs	r2, r0
    164a:	1dbb      	adds	r3, r7, #6
    164c:	801a      	strh	r2, [r3, #0]
E:\2017-2018\03_Graduation Project\04_Software\04_wangshi\03_UpdateSoftware-180625\01_UEBootloader\KL36_BootLoader-180621\Debug/../04_UserBoard/light/light.c:40
    gpio_reverse(port_pin);
    164e:	1dbb      	adds	r3, r7, #6
    1650:	881b      	ldrh	r3, [r3, #0]
    1652:	0018      	movs	r0, r3
    1654:	f000 fed4 	bl	2400 <gpio_reverse>
E:\2017-2018\03_Graduation Project\04_Software\04_wangshi\03_UpdateSoftware-180625\01_UEBootloader\KL36_BootLoader-180621\Debug/../04_UserBoard/light/light.c:41
}
    1658:	46c0      	nop			; (mov r8, r8)
    165a:	46bd      	mov	sp, r7
    165c:	b002      	add	sp, #8
    165e:	bd80      	pop	{r7, pc}

00001660 <bootloader_goToUserApp>:
bootloader_goToUserApp():
E:\2017-2018\03_Graduation Project\04_Software\04_wangshi\03_UpdateSoftware-180625\01_UEBootloader\KL36_BootLoader-180621\Debug/../04_UserBoard/bootloader/bootloader.c:11
#include "bootloader.h"

typedef  void (*pFunction)(void);  //指向用户程序复位中断

void bootloader_goToUserApp(volatile uint_32 app_start_addr)
{
    1660:	b580      	push	{r7, lr}
    1662:	b086      	sub	sp, #24
    1664:	af00      	add	r7, sp, #0
    1666:	6078      	str	r0, [r7, #4]
E:\2017-2018\03_Graduation Project\04_Software\04_wangshi\03_UpdateSoftware-180625\01_UEBootloader\KL36_BootLoader-180621\Debug/../04_UserBoard/bootloader/bootloader.c:15
    volatile pFunction jump_to_application;  //函数指针
    uint_32 jump_addr;

    jump_addr = *(volatile uint_32*)(app_start_addr + 4);  //RESET中断
    1668:	687b      	ldr	r3, [r7, #4]
    166a:	3304      	adds	r3, #4
    166c:	681b      	ldr	r3, [r3, #0]
    166e:	617b      	str	r3, [r7, #20]
E:\2017-2018\03_Graduation Project\04_Software\04_wangshi\03_UpdateSoftware-180625\01_UEBootloader\KL36_BootLoader-180621\Debug/../04_UserBoard/bootloader/bootloader.c:18

    //由于采用了bootloader, 故程序的jump_addr地址应该在 [USERBASE, UPDATEBASE)范围内
    if(app_start_addr != 0xfffffffful)
    1670:	687b      	ldr	r3, [r7, #4]
    1672:	3301      	adds	r3, #1
    1674:	d009      	beq.n	168a <bootloader_goToUserApp+0x2a>
E:\2017-2018\03_Graduation Project\04_Software\04_wangshi\03_UpdateSoftware-180625\01_UEBootloader\KL36_BootLoader-180621\Debug/../04_UserBoard/bootloader/bootloader.c:20
    {
    	jump_to_application = (pFunction)jump_addr;
    1676:	697b      	ldr	r3, [r7, #20]
    1678:	60fb      	str	r3, [r7, #12]
E:\2017-2018\03_Graduation Project\04_Software\04_wangshi\03_UpdateSoftware-180625\01_UEBootloader\KL36_BootLoader-180621\Debug/../04_UserBoard/bootloader/bootloader.c:22

        __set_MSP(*(volatile uint32_t*)app_start_addr); //设置主栈
    167a:	687b      	ldr	r3, [r7, #4]
    167c:	681b      	ldr	r3, [r3, #0]
    167e:	613b      	str	r3, [r7, #16]
__set_MSP():
E:\2017-2018\03_Graduation Project\04_Software\04_wangshi\03_UpdateSoftware-180625\01_UEBootloader\KL36_BootLoader-180621\02_Core/core_cmFunc.h:470

    \param [in]    topOfMainStack  Main Stack Pointer value to set
 */
__attribute__( ( always_inline ) ) __STATIC_INLINE void __set_MSP(uint32_t topOfMainStack)
{
  __ASM volatile ("MSR msp, %0\n" : : "r" (topOfMainStack) : "sp");
    1680:	693b      	ldr	r3, [r7, #16]
    1682:	f383 8808 	msr	MSP, r3
bootloader_goToUserApp():
E:\2017-2018\03_Graduation Project\04_Software\04_wangshi\03_UpdateSoftware-180625\01_UEBootloader\KL36_BootLoader-180621\Debug/../04_UserBoard/bootloader/bootloader.c:24

        jump_to_application();  //跳转用户程序
    1686:	68fb      	ldr	r3, [r7, #12]
    1688:	4798      	blx	r3
E:\2017-2018\03_Graduation Project\04_Software\04_wangshi\03_UpdateSoftware-180625\01_UEBootloader\KL36_BootLoader-180621\Debug/../04_UserBoard/bootloader/bootloader.c:26
    }
}
    168a:	46c0      	nop			; (mov r8, r8)
    168c:	46bd      	mov	sp, r7
    168e:	b006      	add	sp, #24
    1690:	bd80      	pop	{r7, pc}
	...

00001694 <SystemInit>:
SystemInit():
E:\2017-2018\03_Graduation Project\04_Software\04_wangshi\03_UpdateSoftware-180625\01_UEBootloader\KL36_BootLoader-180621\Debug/../03_MCU/startup/system_MKL36Z4.c:104
   -- SystemInit()
   ---------------------------------------------------------------------------- */

//

void SystemInit (void) {
    1694:	b580      	push	{r7, lr}
    1696:	b082      	sub	sp, #8
    1698:	af00      	add	r7, sp, #0
E:\2017-2018\03_Graduation Project\04_Software\04_wangshi\03_UpdateSoftware-180625\01_UEBootloader\KL36_BootLoader-180621\Debug/../03_MCU/startup/system_MKL36Z4.c:105
	unsigned int i = 0;
    169a:	2300      	movs	r3, #0
    169c:	607b      	str	r3, [r7, #4]
E:\2017-2018\03_Graduation Project\04_Software\04_wangshi\03_UpdateSoftware-180625\01_UEBootloader\KL36_BootLoader-180621\Debug/../03_MCU/startup/system_MKL36Z4.c:106
	char temp_reg = 0;
    169e:	1cfb      	adds	r3, r7, #3
    16a0:	2200      	movs	r2, #0
    16a2:	701a      	strb	r2, [r3, #0]
E:\2017-2018\03_Graduation Project\04_Software\04_wangshi\03_UpdateSoftware-180625\01_UEBootloader\KL36_BootLoader-180621\Debug/../03_MCU/startup/system_MKL36Z4.c:111

	/* Watchdog disable */
#if (DISABLE_WDOG)
	/* SIM_COPC: COPT=3,COPCLKS=0,COPW=0 */
	SIM->COPC = (uint32_t)0x00u;
    16a4:	4a3f      	ldr	r2, [pc, #252]	; (17a4 <SystemInit+0x110>)
    16a6:	2388      	movs	r3, #136	; 0x88
    16a8:	015b      	lsls	r3, r3, #5
    16aa:	2100      	movs	r1, #0
    16ac:	50d1      	str	r1, [r2, r3]
E:\2017-2018\03_Graduation Project\04_Software\04_wangshi\03_UpdateSoftware-180625\01_UEBootloader\KL36_BootLoader-180621\Debug/../03_MCU/startup/system_MKL36Z4.c:116
#endif /* (DISABLE_WDOG) */

	/* System clock initialization */
	/* SIM_CLKDIV1: OUTDIV1=0,??=0,??=0,??=0,??=0,??=0,??=0,??=0,??=0,??=0,OUTDIV4=3,??=0,??=0,??=0,??=0,??=0,??=0,??=0,??=0,??=0,??=0,??=0,??=0,??=0,??=0,??=0,??=0 */
	SIM_CLKDIV1 = (SIM_CLKDIV1_OUTDIV1(0x00) | SIM_CLKDIV1_OUTDIV4(0x03)); /* Set the system prescalers to safe value */
    16ae:	493d      	ldr	r1, [pc, #244]	; (17a4 <SystemInit+0x110>)
    16b0:	4a3d      	ldr	r2, [pc, #244]	; (17a8 <SystemInit+0x114>)
    16b2:	23c0      	movs	r3, #192	; 0xc0
    16b4:	029b      	lsls	r3, r3, #10
    16b6:	508b      	str	r3, [r1, r2]
E:\2017-2018\03_Graduation Project\04_Software\04_wangshi\03_UpdateSoftware-180625\01_UEBootloader\KL36_BootLoader-180621\Debug/../03_MCU/startup/system_MKL36Z4.c:118
	/* SIM_SCGC5: PORTA=1 */
	SIM_SCGC5 |= SIM_SCGC5_PORTA_MASK;   /* Enable clock gate for ports to enable pin routing */
    16b8:	4a3a      	ldr	r2, [pc, #232]	; (17a4 <SystemInit+0x110>)
    16ba:	4b3c      	ldr	r3, [pc, #240]	; (17ac <SystemInit+0x118>)
    16bc:	58d3      	ldr	r3, [r2, r3]
    16be:	4939      	ldr	r1, [pc, #228]	; (17a4 <SystemInit+0x110>)
    16c0:	2280      	movs	r2, #128	; 0x80
    16c2:	0092      	lsls	r2, r2, #2
    16c4:	4313      	orrs	r3, r2
    16c6:	4a39      	ldr	r2, [pc, #228]	; (17ac <SystemInit+0x118>)
    16c8:	508b      	str	r3, [r1, r2]
E:\2017-2018\03_Graduation Project\04_Software\04_wangshi\03_UpdateSoftware-180625\01_UEBootloader\KL36_BootLoader-180621\Debug/../03_MCU/startup/system_MKL36Z4.c:119
	if ((PMC_REGSC & PMC_REGSC_ACKISO_MASK) != 0x0U) {
    16ca:	4b39      	ldr	r3, [pc, #228]	; (17b0 <SystemInit+0x11c>)
    16cc:	789b      	ldrb	r3, [r3, #2]
    16ce:	b2db      	uxtb	r3, r3
    16d0:	001a      	movs	r2, r3
    16d2:	2308      	movs	r3, #8
    16d4:	4013      	ands	r3, r2
    16d6:	d007      	beq.n	16e8 <SystemInit+0x54>
E:\2017-2018\03_Graduation Project\04_Software\04_wangshi\03_UpdateSoftware-180625\01_UEBootloader\KL36_BootLoader-180621\Debug/../03_MCU/startup/system_MKL36Z4.c:121
		/* PMC_REGSC: ACKISO=1 */
		PMC_REGSC |= PMC_REGSC_ACKISO_MASK; /* Release IO pads after wakeup from VLLS mode. */
    16d8:	4b35      	ldr	r3, [pc, #212]	; (17b0 <SystemInit+0x11c>)
    16da:	789b      	ldrb	r3, [r3, #2]
    16dc:	b2db      	uxtb	r3, r3
    16de:	4a34      	ldr	r2, [pc, #208]	; (17b0 <SystemInit+0x11c>)
    16e0:	2108      	movs	r1, #8
    16e2:	430b      	orrs	r3, r1
    16e4:	b2db      	uxtb	r3, r3
    16e6:	7093      	strb	r3, [r2, #2]
E:\2017-2018\03_Graduation Project\04_Software\04_wangshi\03_UpdateSoftware-180625\01_UEBootloader\KL36_BootLoader-180621\Debug/../03_MCU/startup/system_MKL36Z4.c:124
	}
	/* SIM_CLKDIV1: OUTDIV1=0,??=0,??=0,??=0,??=0,??=0,??=0,??=0,??=0,??=0,OUTDIV4=1,??=0,??=0,??=0,??=0,??=0,??=0,??=0,??=0,??=0,??=0,??=0,??=0,??=0,??=0,??=0,??=0 */
	SIM_CLKDIV1 = (SIM_CLKDIV1_OUTDIV1(0x00) | SIM_CLKDIV1_OUTDIV4(0x01)); /* Update system prescalers */
    16e8:	492e      	ldr	r1, [pc, #184]	; (17a4 <SystemInit+0x110>)
    16ea:	4a2f      	ldr	r2, [pc, #188]	; (17a8 <SystemInit+0x114>)
    16ec:	2380      	movs	r3, #128	; 0x80
    16ee:	025b      	lsls	r3, r3, #9
    16f0:	508b      	str	r3, [r1, r2]
E:\2017-2018\03_Graduation Project\04_Software\04_wangshi\03_UpdateSoftware-180625\01_UEBootloader\KL36_BootLoader-180621\Debug/../03_MCU/startup/system_MKL36Z4.c:126
	/* SIM_SOPT2: ??=0,PLLFLLSEL=0 */
	SIM_SOPT2 &= (uint32_t)~(uint32_t)((SIM_SOPT2_PLLFLLSEL_MASK | 0x00020000U)); /* Select FLL as a clock source for various peripherals */
    16f2:	4a2c      	ldr	r2, [pc, #176]	; (17a4 <SystemInit+0x110>)
    16f4:	4b2f      	ldr	r3, [pc, #188]	; (17b4 <SystemInit+0x120>)
    16f6:	58d3      	ldr	r3, [r2, r3]
    16f8:	492a      	ldr	r1, [pc, #168]	; (17a4 <SystemInit+0x110>)
    16fa:	4a2f      	ldr	r2, [pc, #188]	; (17b8 <SystemInit+0x124>)
    16fc:	4013      	ands	r3, r2
    16fe:	4a2d      	ldr	r2, [pc, #180]	; (17b4 <SystemInit+0x120>)
    1700:	508b      	str	r3, [r1, r2]
E:\2017-2018\03_Graduation Project\04_Software\04_wangshi\03_UpdateSoftware-180625\01_UEBootloader\KL36_BootLoader-180621\Debug/../03_MCU/startup/system_MKL36Z4.c:128
	/* SIM_SOPT1: OSC32KSEL=0 */
	SIM_SOPT1 &= (uint32_t)~(uint32_t)(SIM_SOPT1_OSC32KSEL(0x03)); /* System oscillator drives 32 kHz clock for various peripherals */
    1702:	4b28      	ldr	r3, [pc, #160]	; (17a4 <SystemInit+0x110>)
    1704:	681a      	ldr	r2, [r3, #0]
    1706:	4b27      	ldr	r3, [pc, #156]	; (17a4 <SystemInit+0x110>)
    1708:	492c      	ldr	r1, [pc, #176]	; (17bc <SystemInit+0x128>)
    170a:	400a      	ands	r2, r1
    170c:	601a      	str	r2, [r3, #0]
E:\2017-2018\03_Graduation Project\04_Software\04_wangshi\03_UpdateSoftware-180625\01_UEBootloader\KL36_BootLoader-180621\Debug/../03_MCU/startup/system_MKL36Z4.c:130
	/* SIM_SOPT2: TPMSRC=1 */
	SIM_SOPT2 = (uint32_t)((SIM_SOPT2 & (uint32_t)~(uint32_t)(
    170e:	4a25      	ldr	r2, [pc, #148]	; (17a4 <SystemInit+0x110>)
    1710:	4b28      	ldr	r3, [pc, #160]	; (17b4 <SystemInit+0x120>)
    1712:	58d3      	ldr	r3, [r2, r3]
    1714:	4a2a      	ldr	r2, [pc, #168]	; (17c0 <SystemInit+0x12c>)
    1716:	4013      	ands	r3, r2
    1718:	4922      	ldr	r1, [pc, #136]	; (17a4 <SystemInit+0x110>)
    171a:	2280      	movs	r2, #128	; 0x80
    171c:	0452      	lsls	r2, r2, #17
    171e:	4313      	orrs	r3, r2
    1720:	4a24      	ldr	r2, [pc, #144]	; (17b4 <SystemInit+0x120>)
    1722:	508b      	str	r3, [r1, r2]
E:\2017-2018\03_Graduation Project\04_Software\04_wangshi\03_UpdateSoftware-180625\01_UEBootloader\KL36_BootLoader-180621\Debug/../03_MCU/startup/system_MKL36Z4.c:137
	)) | (uint32_t)(
			SIM_SOPT2_TPMSRC(0x01)
	));                      /* Set the TPM clock */
	/* Switch to FEI Mode */
	/* MCG_C1: CLKS=0,FRDIV=0,IREFS=1,IRCLKEN=1,IREFSTEN=0 */
	MCG_C1 = MCG_C1_CLKS(0x00) |
    1724:	4b27      	ldr	r3, [pc, #156]	; (17c4 <SystemInit+0x130>)
    1726:	2206      	movs	r2, #6
    1728:	701a      	strb	r2, [r3, #0]
E:\2017-2018\03_Graduation Project\04_Software\04_wangshi\03_UpdateSoftware-180625\01_UEBootloader\KL36_BootLoader-180621\Debug/../03_MCU/startup/system_MKL36Z4.c:142
			MCG_C1_FRDIV(0x00) |
			MCG_C1_IREFS_MASK |
			MCG_C1_IRCLKEN_MASK;
	/* MCG_C2: LOCRE0=0,RANGE0=0,HGO0=0,EREFS0=0,LP=0,IRCS=0 */
	MCG_C2 &= (uint8_t)~(uint8_t)(
    172a:	4b26      	ldr	r3, [pc, #152]	; (17c4 <SystemInit+0x130>)
    172c:	785b      	ldrb	r3, [r3, #1]
    172e:	b2db      	uxtb	r3, r3
    1730:	4a24      	ldr	r2, [pc, #144]	; (17c4 <SystemInit+0x130>)
    1732:	2140      	movs	r1, #64	; 0x40
    1734:	400b      	ands	r3, r1
    1736:	b2db      	uxtb	r3, r3
    1738:	7053      	strb	r3, [r2, #1]
E:\2017-2018\03_Graduation Project\04_Software\04_wangshi\03_UpdateSoftware-180625\01_UEBootloader\KL36_BootLoader-180621\Debug/../03_MCU/startup/system_MKL36Z4.c:151
			MCG_C2_EREFS0_MASK |
			MCG_C2_LP_MASK |
			MCG_C2_IRCS_MASK
	);
	/* MCG_C4: DMX32=1,DRST_DRS=1 */
	MCG_C4 = (uint8_t)((MCG_C4 & (uint8_t)~(uint8_t)(
    173a:	4b22      	ldr	r3, [pc, #136]	; (17c4 <SystemInit+0x130>)
    173c:	78db      	ldrb	r3, [r3, #3]
    173e:	b2db      	uxtb	r3, r3
    1740:	b25b      	sxtb	r3, r3
E:\2017-2018\03_Graduation Project\04_Software\04_wangshi\03_UpdateSoftware-180625\01_UEBootloader\KL36_BootLoader-180621\Debug/../03_MCU/startup/system_MKL36Z4.c:153
			MCG_C4_DRST_DRS(0x02)
	)) | (uint8_t)(
    1742:	221f      	movs	r2, #31
    1744:	4013      	ands	r3, r2
    1746:	b25b      	sxtb	r3, r3
    1748:	2260      	movs	r2, #96	; 0x60
    174a:	4252      	negs	r2, r2
    174c:	4313      	orrs	r3, r2
    174e:	b25a      	sxtb	r2, r3
E:\2017-2018\03_Graduation Project\04_Software\04_wangshi\03_UpdateSoftware-180625\01_UEBootloader\KL36_BootLoader-180621\Debug/../03_MCU/startup/system_MKL36Z4.c:151
	MCG_C4 = (uint8_t)((MCG_C4 & (uint8_t)~(uint8_t)(
    1750:	4b1c      	ldr	r3, [pc, #112]	; (17c4 <SystemInit+0x130>)
    1752:	b2d2      	uxtb	r2, r2
    1754:	70da      	strb	r2, [r3, #3]
E:\2017-2018\03_Graduation Project\04_Software\04_wangshi\03_UpdateSoftware-180625\01_UEBootloader\KL36_BootLoader-180621\Debug/../03_MCU/startup/system_MKL36Z4.c:158
			MCG_C4_DMX32_MASK |
			MCG_C4_DRST_DRS(0x01)
	));
	/* OSC0_CR: ERCLKEN=0,??=0,EREFSTEN=0,??=0,SC2P=0,SC4P=0,SC8P=0,SC16P=0 */
	OSC0_CR = 0x00U;
    1756:	4b1c      	ldr	r3, [pc, #112]	; (17c8 <SystemInit+0x134>)
    1758:	2200      	movs	r2, #0
    175a:	701a      	strb	r2, [r3, #0]
E:\2017-2018\03_Graduation Project\04_Software\04_wangshi\03_UpdateSoftware-180625\01_UEBootloader\KL36_BootLoader-180621\Debug/../03_MCU/startup/system_MKL36Z4.c:160
	/* MCG_C5: ??=0,PLLCLKEN0=0,PLLSTEN0=0,PRDIV0=0 */
	MCG_C5 = MCG_C5_PRDIV0(0x00);
    175c:	4b19      	ldr	r3, [pc, #100]	; (17c4 <SystemInit+0x130>)
    175e:	2200      	movs	r2, #0
    1760:	711a      	strb	r2, [r3, #4]
E:\2017-2018\03_Graduation Project\04_Software\04_wangshi\03_UpdateSoftware-180625\01_UEBootloader\KL36_BootLoader-180621\Debug/../03_MCU/startup/system_MKL36Z4.c:162
	/* MCG_C6: LOLIE0=0,PLLS=0,CME0=0,VDIV0=0 */
	MCG_C6 = MCG_C6_VDIV0(0x00);
    1762:	4b18      	ldr	r3, [pc, #96]	; (17c4 <SystemInit+0x130>)
    1764:	2200      	movs	r2, #0
    1766:	715a      	strb	r2, [r3, #5]
E:\2017-2018\03_Graduation Project\04_Software\04_wangshi\03_UpdateSoftware-180625\01_UEBootloader\KL36_BootLoader-180621\Debug/../03_MCU/startup/system_MKL36Z4.c:163
	while((MCG_S & MCG_S_IREFST_MASK) == 0x00U) { /* Check that the source of the FLL reference clock is the internal reference clock. */
    1768:	46c0      	nop			; (mov r8, r8)
E:\2017-2018\03_Graduation Project\04_Software\04_wangshi\03_UpdateSoftware-180625\01_UEBootloader\KL36_BootLoader-180621\Debug/../03_MCU/startup/system_MKL36Z4.c:163 (discriminator 1)
    176a:	4b16      	ldr	r3, [pc, #88]	; (17c4 <SystemInit+0x130>)
    176c:	799b      	ldrb	r3, [r3, #6]
    176e:	b2db      	uxtb	r3, r3
    1770:	001a      	movs	r2, r3
    1772:	2310      	movs	r3, #16
    1774:	4013      	ands	r3, r2
    1776:	d0f8      	beq.n	176a <SystemInit+0xd6>
E:\2017-2018\03_Graduation Project\04_Software\04_wangshi\03_UpdateSoftware-180625\01_UEBootloader\KL36_BootLoader-180621\Debug/../03_MCU/startup/system_MKL36Z4.c:165
	}
	while((MCG_S & 0x0CU) != 0x00U) {    /* Wait until output of the FLL is selected */
    1778:	46c0      	nop			; (mov r8, r8)
E:\2017-2018\03_Graduation Project\04_Software\04_wangshi\03_UpdateSoftware-180625\01_UEBootloader\KL36_BootLoader-180621\Debug/../03_MCU/startup/system_MKL36Z4.c:165 (discriminator 1)
    177a:	4b12      	ldr	r3, [pc, #72]	; (17c4 <SystemInit+0x130>)
    177c:	799b      	ldrb	r3, [r3, #6]
    177e:	b2db      	uxtb	r3, r3
    1780:	001a      	movs	r2, r3
    1782:	230c      	movs	r3, #12
    1784:	4013      	ands	r3, r2
    1786:	d1f8      	bne.n	177a <SystemInit+0xe6>
E:\2017-2018\03_Graduation Project\04_Software\04_wangshi\03_UpdateSoftware-180625\01_UEBootloader\KL36_BootLoader-180621\Debug/../03_MCU/startup/system_MKL36Z4.c:170
	}
	/*** End of PE initialization code after reset ***/

	//开启PORT模块时钟
	SIM->SCGC5 |= SIM_SCGC5_PORTA_MASK
    1788:	4a06      	ldr	r2, [pc, #24]	; (17a4 <SystemInit+0x110>)
    178a:	4b08      	ldr	r3, [pc, #32]	; (17ac <SystemInit+0x118>)
    178c:	58d3      	ldr	r3, [r2, r3]
    178e:	4905      	ldr	r1, [pc, #20]	; (17a4 <SystemInit+0x110>)
    1790:	22f8      	movs	r2, #248	; 0xf8
    1792:	0192      	lsls	r2, r2, #6
    1794:	4313      	orrs	r3, r2
    1796:	4a05      	ldr	r2, [pc, #20]	; (17ac <SystemInit+0x118>)
    1798:	508b      	str	r3, [r1, r2]
E:\2017-2018\03_Graduation Project\04_Software\04_wangshi\03_UpdateSoftware-180625\01_UEBootloader\KL36_BootLoader-180621\Debug/../03_MCU/startup/system_MKL36Z4.c:175
			| SIM_SCGC5_PORTB_MASK
			| SIM_SCGC5_PORTC_MASK
			| SIM_SCGC5_PORTD_MASK
			| SIM_SCGC5_PORTE_MASK;
}
    179a:	46c0      	nop			; (mov r8, r8)
    179c:	46bd      	mov	sp, r7
    179e:	b002      	add	sp, #8
    17a0:	bd80      	pop	{r7, pc}
    17a2:	46c0      	nop			; (mov r8, r8)
    17a4:	40047000 	.word	0x40047000
    17a8:	00001044 	.word	0x00001044
    17ac:	00001038 	.word	0x00001038
    17b0:	4007d000 	.word	0x4007d000
    17b4:	00001004 	.word	0x00001004
    17b8:	fffcffff 	.word	0xfffcffff
    17bc:	fff3ffff 	.word	0xfff3ffff
    17c0:	fcffffff 	.word	0xfcffffff
    17c4:	40064000 	.word	0x40064000
    17c8:	40065000 	.word	0x40065000

000017cc <NVIC_EnableIRQ>:
NVIC_EnableIRQ():
E:\2017-2018\03_Graduation Project\04_Software\04_wangshi\03_UpdateSoftware-180625\01_UEBootloader\KL36_BootLoader-180621\02_Core/core_cm0plus.h:684
{
    17cc:	b580      	push	{r7, lr}
    17ce:	b082      	sub	sp, #8
    17d0:	af00      	add	r7, sp, #0
    17d2:	0002      	movs	r2, r0
    17d4:	1dfb      	adds	r3, r7, #7
    17d6:	701a      	strb	r2, [r3, #0]
E:\2017-2018\03_Graduation Project\04_Software\04_wangshi\03_UpdateSoftware-180625\01_UEBootloader\KL36_BootLoader-180621\02_Core/core_cm0plus.h:685
  NVIC->ISER[0] = (uint32_t)(1UL << (((uint32_t)(int32_t)IRQn) & 0x1FUL));
    17d8:	1dfb      	adds	r3, r7, #7
    17da:	781b      	ldrb	r3, [r3, #0]
    17dc:	001a      	movs	r2, r3
    17de:	231f      	movs	r3, #31
    17e0:	401a      	ands	r2, r3
    17e2:	4b04      	ldr	r3, [pc, #16]	; (17f4 <NVIC_EnableIRQ+0x28>)
    17e4:	2101      	movs	r1, #1
    17e6:	4091      	lsls	r1, r2
    17e8:	000a      	movs	r2, r1
    17ea:	601a      	str	r2, [r3, #0]
E:\2017-2018\03_Graduation Project\04_Software\04_wangshi\03_UpdateSoftware-180625\01_UEBootloader\KL36_BootLoader-180621\02_Core/core_cm0plus.h:686
}
    17ec:	46c0      	nop			; (mov r8, r8)
    17ee:	46bd      	mov	sp, r7
    17f0:	b002      	add	sp, #8
    17f2:	bd80      	pop	{r7, pc}
    17f4:	e000e100 	.word	0xe000e100

000017f8 <NVIC_DisableIRQ>:
NVIC_DisableIRQ():
E:\2017-2018\03_Graduation Project\04_Software\04_wangshi\03_UpdateSoftware-180625\01_UEBootloader\KL36_BootLoader-180621\02_Core/core_cm0plus.h:696
{
    17f8:	b580      	push	{r7, lr}
    17fa:	b082      	sub	sp, #8
    17fc:	af00      	add	r7, sp, #0
    17fe:	0002      	movs	r2, r0
    1800:	1dfb      	adds	r3, r7, #7
    1802:	701a      	strb	r2, [r3, #0]
E:\2017-2018\03_Graduation Project\04_Software\04_wangshi\03_UpdateSoftware-180625\01_UEBootloader\KL36_BootLoader-180621\02_Core/core_cm0plus.h:697
  NVIC->ICER[0] = (uint32_t)(1UL << (((uint32_t)(int32_t)IRQn) & 0x1FUL));
    1804:	1dfb      	adds	r3, r7, #7
    1806:	781b      	ldrb	r3, [r3, #0]
    1808:	001a      	movs	r2, r3
    180a:	231f      	movs	r3, #31
    180c:	4013      	ands	r3, r2
    180e:	4905      	ldr	r1, [pc, #20]	; (1824 <NVIC_DisableIRQ+0x2c>)
    1810:	2201      	movs	r2, #1
    1812:	409a      	lsls	r2, r3
    1814:	0013      	movs	r3, r2
    1816:	2280      	movs	r2, #128	; 0x80
    1818:	508b      	str	r3, [r1, r2]
E:\2017-2018\03_Graduation Project\04_Software\04_wangshi\03_UpdateSoftware-180625\01_UEBootloader\KL36_BootLoader-180621\02_Core/core_cm0plus.h:698
}
    181a:	46c0      	nop			; (mov r8, r8)
    181c:	46bd      	mov	sp, r7
    181e:	b002      	add	sp, #8
    1820:	bd80      	pop	{r7, pc}
    1822:	46c0      	nop			; (mov r8, r8)
    1824:	e000e100 	.word	0xe000e100

00001828 <uart_init>:
uart_init():
E:\2017-2018\03_Graduation Project\04_Software\04_wangshi\03_UpdateSoftware-180625\01_UEBootloader\KL36_BootLoader-180621\Debug/../03_MCU/MCU_drivers/uart/uart.c:25
//参数说明：uartNo:串口号：UART_0、UART_1、UART_2 
//          baud:波特率：300、600、1200、2400、4800、9600、19200、115200...
//函数返回：无
//======================================================================
void uart_init(uint_8 uartNo, uint_32 baud_rate)
{
    1828:	b590      	push	{r4, r7, lr}
    182a:	b087      	sub	sp, #28
    182c:	af00      	add	r7, sp, #0
    182e:	0002      	movs	r2, r0
    1830:	6039      	str	r1, [r7, #0]
    1832:	1dfb      	adds	r3, r7, #7
    1834:	701a      	strb	r2, [r3, #0]
E:\2017-2018\03_Graduation Project\04_Software\04_wangshi\03_UpdateSoftware-180625\01_UEBootloader\KL36_BootLoader-180621\Debug/../03_MCU/MCU_drivers/uart/uart.c:29
    //局部变量声明
    uint_16 sbr;
    uint_8 temp;
    UART0_MemMapPtr uartch_0=UART0_BASE_PTR;//uartch_0为UART0_MemMapPtr类型指针
    1836:	4b9c      	ldr	r3, [pc, #624]	; (1aa8 <uart_init+0x280>)
    1838:	60fb      	str	r3, [r7, #12]
E:\2017-2018\03_Graduation Project\04_Software\04_wangshi\03_UpdateSoftware-180625\01_UEBootloader\KL36_BootLoader-180621\Debug/../03_MCU/MCU_drivers/uart/uart.c:33
    UART_MemMapPtr uartch_1_2;    //uartch_1_2为UART_MemMapPtr类型指针

    //判断传入串口号参数是否有误，有误直接退出
    if(!uart_is_uartNo(uartNo))
    183a:	1dfb      	adds	r3, r7, #7
    183c:	781b      	ldrb	r3, [r3, #0]
    183e:	0018      	movs	r0, r3
    1840:	f000 fbf4 	bl	202c <uart_is_uartNo>
    1844:	1e03      	subs	r3, r0, #0
    1846:	d100      	bne.n	184a <uart_init+0x22>
    1848:	e12a      	b.n	1aa0 <uart_init+0x278>
E:\2017-2018\03_Graduation Project\04_Software\04_wangshi\03_UpdateSoftware-180625\01_UEBootloader\KL36_BootLoader-180621\Debug/../03_MCU/MCU_drivers/uart/uart.c:39
    {
        return;
    }

    //根据带入参数uartNo，给局部变量uartch_0或uartch_1_2赋值
    if(uartNo==0)
    184a:	1dfb      	adds	r3, r7, #7
    184c:	781b      	ldrb	r3, [r3, #0]
    184e:	2b00      	cmp	r3, #0
    1850:	d000      	beq.n	1854 <uart_init+0x2c>
    1852:	e098      	b.n	1986 <uart_init+0x15e>
E:\2017-2018\03_Graduation Project\04_Software\04_wangshi\03_UpdateSoftware-180625\01_UEBootloader\KL36_BootLoader-180621\Debug/../03_MCU/MCU_drivers/uart/uart.c:42
    {
        //UART0选择MCGFLLCLK_khz=48000Khz时钟源
        SIM_SOPT2 |= SIM_SOPT2_UART0SRC(0x1);
    1854:	4a95      	ldr	r2, [pc, #596]	; (1aac <uart_init+0x284>)
    1856:	4b96      	ldr	r3, [pc, #600]	; (1ab0 <uart_init+0x288>)
    1858:	58d3      	ldr	r3, [r2, r3]
    185a:	4994      	ldr	r1, [pc, #592]	; (1aac <uart_init+0x284>)
    185c:	2280      	movs	r2, #128	; 0x80
    185e:	04d2      	lsls	r2, r2, #19
    1860:	4313      	orrs	r3, r2
    1862:	4a93      	ldr	r2, [pc, #588]	; (1ab0 <uart_init+0x288>)
    1864:	508b      	str	r3, [r1, r2]
E:\2017-2018\03_Graduation Project\04_Software\04_wangshi\03_UpdateSoftware-180625\01_UEBootloader\KL36_BootLoader-180621\Debug/../03_MCU/MCU_drivers/uart/uart.c:43
        SIM_SOPT2 &= ~SIM_SOPT2_PLLFLLSEL_MASK;
    1866:	4a91      	ldr	r2, [pc, #580]	; (1aac <uart_init+0x284>)
    1868:	4b91      	ldr	r3, [pc, #580]	; (1ab0 <uart_init+0x288>)
    186a:	58d3      	ldr	r3, [r2, r3]
    186c:	498f      	ldr	r1, [pc, #572]	; (1aac <uart_init+0x284>)
    186e:	4a91      	ldr	r2, [pc, #580]	; (1ab4 <uart_init+0x28c>)
    1870:	4013      	ands	r3, r2
    1872:	4a8f      	ldr	r2, [pc, #572]	; (1ab0 <uart_init+0x288>)
    1874:	508b      	str	r3, [r1, r2]
E:\2017-2018\03_Graduation Project\04_Software\04_wangshi\03_UpdateSoftware-180625\01_UEBootloader\KL36_BootLoader-180621\Debug/../03_MCU/MCU_drivers/uart/uart.c:49
#ifdef UART_0_GROUP
        //依据选择配置对应引脚为UART0
        switch(UART_0_GROUP)
        {
        case 0:
            PORTE_PCR20 |= PORT_PCR_MUX(0x4);    //使能UART0_TXD
    1876:	4b90      	ldr	r3, [pc, #576]	; (1ab8 <uart_init+0x290>)
    1878:	6d1a      	ldr	r2, [r3, #80]	; 0x50
    187a:	4b8f      	ldr	r3, [pc, #572]	; (1ab8 <uart_init+0x290>)
    187c:	2180      	movs	r1, #128	; 0x80
    187e:	00c9      	lsls	r1, r1, #3
    1880:	430a      	orrs	r2, r1
    1882:	651a      	str	r2, [r3, #80]	; 0x50
E:\2017-2018\03_Graduation Project\04_Software\04_wangshi\03_UpdateSoftware-180625\01_UEBootloader\KL36_BootLoader-180621\Debug/../03_MCU/MCU_drivers/uart/uart.c:50
            PORTE_PCR21 |= PORT_PCR_MUX(0x4);    //使能UART0_RXD
    1884:	4b8c      	ldr	r3, [pc, #560]	; (1ab8 <uart_init+0x290>)
    1886:	6d5a      	ldr	r2, [r3, #84]	; 0x54
    1888:	4b8b      	ldr	r3, [pc, #556]	; (1ab8 <uart_init+0x290>)
    188a:	2180      	movs	r1, #128	; 0x80
    188c:	00c9      	lsls	r1, r1, #3
    188e:	430a      	orrs	r2, r1
    1890:	655a      	str	r2, [r3, #84]	; 0x54
E:\2017-2018\03_Graduation Project\04_Software\04_wangshi\03_UpdateSoftware-180625\01_UEBootloader\KL36_BootLoader-180621\Debug/../03_MCU/MCU_drivers/uart/uart.c:51
            break;
    1892:	46c0      	nop			; (mov r8, r8)
E:\2017-2018\03_Graduation Project\04_Software\04_wangshi\03_UpdateSoftware-180625\01_UEBootloader\KL36_BootLoader-180621\Debug/../03_MCU/MCU_drivers/uart/uart.c:67
            PORTD_PCR7 |= PORT_PCR_MUX(0x3);     //使能UART0_TXD
            PORTD_PCR6 |= PORT_PCR_MUX(0x3);     //使能UART0_RXD
            break;
        }
#endif
        SIM_SCGC4 |= SIM_SCGC4_UART0_MASK;    //启动串口0时钟
    1894:	4a85      	ldr	r2, [pc, #532]	; (1aac <uart_init+0x284>)
    1896:	4b89      	ldr	r3, [pc, #548]	; (1abc <uart_init+0x294>)
    1898:	58d3      	ldr	r3, [r2, r3]
    189a:	4984      	ldr	r1, [pc, #528]	; (1aac <uart_init+0x284>)
    189c:	2280      	movs	r2, #128	; 0x80
    189e:	00d2      	lsls	r2, r2, #3
    18a0:	4313      	orrs	r3, r2
    18a2:	4a86      	ldr	r2, [pc, #536]	; (1abc <uart_init+0x294>)
    18a4:	508b      	str	r3, [r1, r2]
E:\2017-2018\03_Graduation Project\04_Software\04_wangshi\03_UpdateSoftware-180625\01_UEBootloader\KL36_BootLoader-180621\Debug/../03_MCU/MCU_drivers/uart/uart.c:70

        //暂时关闭串口0发送与接收功能
        UART0_C2_REG(uartch_0) &= ~(UART0_C2_TE_MASK | UART0_C2_RE_MASK);
    18a6:	68fb      	ldr	r3, [r7, #12]
    18a8:	78db      	ldrb	r3, [r3, #3]
    18aa:	b2db      	uxtb	r3, r3
    18ac:	220c      	movs	r2, #12
    18ae:	4393      	bics	r3, r2
    18b0:	b2da      	uxtb	r2, r3
    18b2:	68fb      	ldr	r3, [r7, #12]
    18b4:	70da      	strb	r2, [r3, #3]
E:\2017-2018\03_Graduation Project\04_Software\04_wangshi\03_UpdateSoftware-180625\01_UEBootloader\KL36_BootLoader-180621\Debug/../03_MCU/MCU_drivers/uart/uart.c:73

        //配置串口工作模式:8位无校验模式
        sbr = (uint_16)((SYSTEM_CLK_KHZ*1000)/(baud_rate * 16));
    18b6:	4b82      	ldr	r3, [pc, #520]	; (1ac0 <uart_init+0x298>)
    18b8:	681a      	ldr	r2, [r3, #0]
    18ba:	23fa      	movs	r3, #250	; 0xfa
    18bc:	0099      	lsls	r1, r3, #2
    18be:	0010      	movs	r0, r2
    18c0:	f7fe fe2c 	bl	51c <__udivsi3>
    18c4:	0003      	movs	r3, r0
    18c6:	001a      	movs	r2, r3
    18c8:	0013      	movs	r3, r2
    18ca:	015b      	lsls	r3, r3, #5
    18cc:	1a9b      	subs	r3, r3, r2
    18ce:	009b      	lsls	r3, r3, #2
    18d0:	189b      	adds	r3, r3, r2
    18d2:	00db      	lsls	r3, r3, #3
    18d4:	001a      	movs	r2, r3
    18d6:	683b      	ldr	r3, [r7, #0]
    18d8:	011b      	lsls	r3, r3, #4
    18da:	0019      	movs	r1, r3
    18dc:	0010      	movs	r0, r2
    18de:	f7fe fe1d 	bl	51c <__udivsi3>
    18e2:	0003      	movs	r3, r0
    18e4:	001a      	movs	r2, r3
    18e6:	2112      	movs	r1, #18
    18e8:	0008      	movs	r0, r1
    18ea:	187b      	adds	r3, r7, r1
    18ec:	801a      	strh	r2, [r3, #0]
E:\2017-2018\03_Graduation Project\04_Software\04_wangshi\03_UpdateSoftware-180625\01_UEBootloader\KL36_BootLoader-180621\Debug/../03_MCU/MCU_drivers/uart/uart.c:74
        temp = UART0_BDH_REG(uartch_0) & ~(UART0_BDH_SBR(0x1F));
    18ee:	68fb      	ldr	r3, [r7, #12]
    18f0:	781b      	ldrb	r3, [r3, #0]
    18f2:	b2da      	uxtb	r2, r3
    18f4:	2411      	movs	r4, #17
    18f6:	193b      	adds	r3, r7, r4
    18f8:	211f      	movs	r1, #31
    18fa:	438a      	bics	r2, r1
    18fc:	701a      	strb	r2, [r3, #0]
E:\2017-2018\03_Graduation Project\04_Software\04_wangshi\03_UpdateSoftware-180625\01_UEBootloader\KL36_BootLoader-180621\Debug/../03_MCU/MCU_drivers/uart/uart.c:75
        UART0_BDH_REG(uartch_0) = temp | UART0_BDH_SBR(((sbr & 0x1F00) >> 8));
    18fe:	0001      	movs	r1, r0
    1900:	187b      	adds	r3, r7, r1
    1902:	881b      	ldrh	r3, [r3, #0]
    1904:	121b      	asrs	r3, r3, #8
    1906:	b2db      	uxtb	r3, r3
    1908:	221f      	movs	r2, #31
    190a:	4013      	ands	r3, r2
    190c:	b2da      	uxtb	r2, r3
    190e:	193b      	adds	r3, r7, r4
    1910:	781b      	ldrb	r3, [r3, #0]
    1912:	4313      	orrs	r3, r2
    1914:	b2da      	uxtb	r2, r3
    1916:	68fb      	ldr	r3, [r7, #12]
    1918:	701a      	strb	r2, [r3, #0]
E:\2017-2018\03_Graduation Project\04_Software\04_wangshi\03_UpdateSoftware-180625\01_UEBootloader\KL36_BootLoader-180621\Debug/../03_MCU/MCU_drivers/uart/uart.c:76
        UART0_BDL_REG(uartch_0) = (uint_8)(sbr & UART0_BDL_SBR_MASK);
    191a:	187b      	adds	r3, r7, r1
    191c:	881b      	ldrh	r3, [r3, #0]
    191e:	b2da      	uxtb	r2, r3
    1920:	68fb      	ldr	r3, [r7, #12]
    1922:	705a      	strb	r2, [r3, #1]
E:\2017-2018\03_Graduation Project\04_Software\04_wangshi\03_UpdateSoftware-180625\01_UEBootloader\KL36_BootLoader-180621\Debug/../03_MCU/MCU_drivers/uart/uart.c:79

        //初始化控制寄存器、清标志位
        UART0_C4_REG(uartch_0) = 0x0F;
    1924:	68fb      	ldr	r3, [r7, #12]
    1926:	220f      	movs	r2, #15
    1928:	729a      	strb	r2, [r3, #10]
E:\2017-2018\03_Graduation Project\04_Software\04_wangshi\03_UpdateSoftware-180625\01_UEBootloader\KL36_BootLoader-180621\Debug/../03_MCU/MCU_drivers/uart/uart.c:80
        UART0_C1_REG(uartch_0) = 0x00;
    192a:	68fb      	ldr	r3, [r7, #12]
    192c:	2200      	movs	r2, #0
    192e:	709a      	strb	r2, [r3, #2]
E:\2017-2018\03_Graduation Project\04_Software\04_wangshi\03_UpdateSoftware-180625\01_UEBootloader\KL36_BootLoader-180621\Debug/../03_MCU/MCU_drivers/uart/uart.c:81
        UART0_C3_REG(uartch_0) = 0x00;
    1930:	68fb      	ldr	r3, [r7, #12]
    1932:	2200      	movs	r2, #0
    1934:	719a      	strb	r2, [r3, #6]
E:\2017-2018\03_Graduation Project\04_Software\04_wangshi\03_UpdateSoftware-180625\01_UEBootloader\KL36_BootLoader-180621\Debug/../03_MCU/MCU_drivers/uart/uart.c:82
        UART0_MA1_REG(uartch_0) = 0x00;
    1936:	68fb      	ldr	r3, [r7, #12]
    1938:	2200      	movs	r2, #0
    193a:	721a      	strb	r2, [r3, #8]
E:\2017-2018\03_Graduation Project\04_Software\04_wangshi\03_UpdateSoftware-180625\01_UEBootloader\KL36_BootLoader-180621\Debug/../03_MCU/MCU_drivers/uart/uart.c:83
        UART0_MA2_REG(uartch_0) = 0x00;
    193c:	68fb      	ldr	r3, [r7, #12]
    193e:	2200      	movs	r2, #0
    1940:	725a      	strb	r2, [r3, #9]
E:\2017-2018\03_Graduation Project\04_Software\04_wangshi\03_UpdateSoftware-180625\01_UEBootloader\KL36_BootLoader-180621\Debug/../03_MCU/MCU_drivers/uart/uart.c:84
        UART0_S1_REG(uartch_0) |= 0x1F;
    1942:	68fb      	ldr	r3, [r7, #12]
    1944:	791b      	ldrb	r3, [r3, #4]
    1946:	b2db      	uxtb	r3, r3
    1948:	221f      	movs	r2, #31
    194a:	4313      	orrs	r3, r2
    194c:	b2da      	uxtb	r2, r3
    194e:	68fb      	ldr	r3, [r7, #12]
    1950:	711a      	strb	r2, [r3, #4]
E:\2017-2018\03_Graduation Project\04_Software\04_wangshi\03_UpdateSoftware-180625\01_UEBootloader\KL36_BootLoader-180621\Debug/../03_MCU/MCU_drivers/uart/uart.c:85
        UART0_S2_REG(uartch_0) |= 0xC0;
    1952:	68fb      	ldr	r3, [r7, #12]
    1954:	795b      	ldrb	r3, [r3, #5]
    1956:	b2db      	uxtb	r3, r3
    1958:	2240      	movs	r2, #64	; 0x40
    195a:	4252      	negs	r2, r2
    195c:	4313      	orrs	r3, r2
    195e:	b2da      	uxtb	r2, r3
    1960:	68fb      	ldr	r3, [r7, #12]
    1962:	715a      	strb	r2, [r3, #5]
E:\2017-2018\03_Graduation Project\04_Software\04_wangshi\03_UpdateSoftware-180625\01_UEBootloader\KL36_BootLoader-180621\Debug/../03_MCU/MCU_drivers/uart/uart.c:87
        //禁用串口发送中断
        UART0_C2_REG(uartch_0) &= ~UART0_C2_TIE_MASK;
    1964:	68fb      	ldr	r3, [r7, #12]
    1966:	78db      	ldrb	r3, [r3, #3]
    1968:	b2db      	uxtb	r3, r3
    196a:	227f      	movs	r2, #127	; 0x7f
    196c:	4013      	ands	r3, r2
    196e:	b2da      	uxtb	r2, r3
    1970:	68fb      	ldr	r3, [r7, #12]
    1972:	70da      	strb	r2, [r3, #3]
E:\2017-2018\03_Graduation Project\04_Software\04_wangshi\03_UpdateSoftware-180625\01_UEBootloader\KL36_BootLoader-180621\Debug/../03_MCU/MCU_drivers/uart/uart.c:89
        //启动发送接收
        UART0_C2_REG(uartch_0) |= (UART0_C2_TE_MASK | UART0_C2_RE_MASK);
    1974:	68fb      	ldr	r3, [r7, #12]
    1976:	78db      	ldrb	r3, [r3, #3]
    1978:	b2db      	uxtb	r3, r3
    197a:	220c      	movs	r2, #12
    197c:	4313      	orrs	r3, r2
    197e:	b2da      	uxtb	r2, r3
    1980:	68fb      	ldr	r3, [r7, #12]
    1982:	70da      	strb	r2, [r3, #3]
    1984:	e08d      	b.n	1aa2 <uart_init+0x27a>
E:\2017-2018\03_Graduation Project\04_Software\04_wangshi\03_UpdateSoftware-180625\01_UEBootloader\KL36_BootLoader-180621\Debug/../03_MCU/MCU_drivers/uart/uart.c:93
    }
    else
    {
    	switch (uartNo)
    1986:	1dfb      	adds	r3, r7, #7
    1988:	781b      	ldrb	r3, [r3, #0]
    198a:	2b01      	cmp	r3, #1
    198c:	d002      	beq.n	1994 <uart_init+0x16c>
    198e:	2b02      	cmp	r3, #2
    1990:	d013      	beq.n	19ba <uart_init+0x192>
E:\2017-2018\03_Graduation Project\04_Software\04_wangshi\03_UpdateSoftware-180625\01_UEBootloader\KL36_BootLoader-180621\Debug/../03_MCU/MCU_drivers/uart/uart.c:141
    			}
#endif
    			SIM_SCGC4 |= SIM_SCGC4_UART2_MASK;//启动串口2时钟
    			break;
    			default:
    				break;  //传参错误，返回
    1992:	e025      	b.n	19e0 <uart_init+0x1b8>
E:\2017-2018\03_Graduation Project\04_Software\04_wangshi\03_UpdateSoftware-180625\01_UEBootloader\KL36_BootLoader-180621\Debug/../03_MCU/MCU_drivers/uart/uart.c:100
    			PORTE_PCR0 = PORT_PCR_MUX(0x3);    //使能UART1_TXD
    1994:	4b48      	ldr	r3, [pc, #288]	; (1ab8 <uart_init+0x290>)
    1996:	22c0      	movs	r2, #192	; 0xc0
    1998:	0092      	lsls	r2, r2, #2
    199a:	601a      	str	r2, [r3, #0]
E:\2017-2018\03_Graduation Project\04_Software\04_wangshi\03_UpdateSoftware-180625\01_UEBootloader\KL36_BootLoader-180621\Debug/../03_MCU/MCU_drivers/uart/uart.c:101
    			PORTE_PCR1 = PORT_PCR_MUX(0x3);    //使能UART1_RXD
    199c:	4b46      	ldr	r3, [pc, #280]	; (1ab8 <uart_init+0x290>)
    199e:	22c0      	movs	r2, #192	; 0xc0
    19a0:	0092      	lsls	r2, r2, #2
    19a2:	605a      	str	r2, [r3, #4]
E:\2017-2018\03_Graduation Project\04_Software\04_wangshi\03_UpdateSoftware-180625\01_UEBootloader\KL36_BootLoader-180621\Debug/../03_MCU/MCU_drivers/uart/uart.c:102
    			break;
    19a4:	46c0      	nop			; (mov r8, r8)
E:\2017-2018\03_Graduation Project\04_Software\04_wangshi\03_UpdateSoftware-180625\01_UEBootloader\KL36_BootLoader-180621\Debug/../03_MCU/MCU_drivers/uart/uart.c:114
    		SIM_SCGC4 |= SIM_SCGC4_UART1_MASK; //启动串口1时钟
    19a6:	4a41      	ldr	r2, [pc, #260]	; (1aac <uart_init+0x284>)
    19a8:	4b44      	ldr	r3, [pc, #272]	; (1abc <uart_init+0x294>)
    19aa:	58d3      	ldr	r3, [r2, r3]
    19ac:	493f      	ldr	r1, [pc, #252]	; (1aac <uart_init+0x284>)
    19ae:	2280      	movs	r2, #128	; 0x80
    19b0:	0112      	lsls	r2, r2, #4
    19b2:	4313      	orrs	r3, r2
    19b4:	4a41      	ldr	r2, [pc, #260]	; (1abc <uart_init+0x294>)
    19b6:	508b      	str	r3, [r1, r2]
E:\2017-2018\03_Graduation Project\04_Software\04_wangshi\03_UpdateSoftware-180625\01_UEBootloader\KL36_BootLoader-180621\Debug/../03_MCU/MCU_drivers/uart/uart.c:115
    		break;
    19b8:	e012      	b.n	19e0 <uart_init+0x1b8>
E:\2017-2018\03_Graduation Project\04_Software\04_wangshi\03_UpdateSoftware-180625\01_UEBootloader\KL36_BootLoader-180621\Debug/../03_MCU/MCU_drivers/uart/uart.c:121
    				PORTE_PCR16 = PORT_PCR_MUX(0x3); //使能UART2_TXD
    19ba:	4b3f      	ldr	r3, [pc, #252]	; (1ab8 <uart_init+0x290>)
    19bc:	22c0      	movs	r2, #192	; 0xc0
    19be:	0092      	lsls	r2, r2, #2
    19c0:	641a      	str	r2, [r3, #64]	; 0x40
E:\2017-2018\03_Graduation Project\04_Software\04_wangshi\03_UpdateSoftware-180625\01_UEBootloader\KL36_BootLoader-180621\Debug/../03_MCU/MCU_drivers/uart/uart.c:122
    				PORTE_PCR17 = PORT_PCR_MUX(0x3); //使能UART2_RXD
    19c2:	4b3d      	ldr	r3, [pc, #244]	; (1ab8 <uart_init+0x290>)
    19c4:	22c0      	movs	r2, #192	; 0xc0
    19c6:	0092      	lsls	r2, r2, #2
    19c8:	645a      	str	r2, [r3, #68]	; 0x44
E:\2017-2018\03_Graduation Project\04_Software\04_wangshi\03_UpdateSoftware-180625\01_UEBootloader\KL36_BootLoader-180621\Debug/../03_MCU/MCU_drivers/uart/uart.c:123
    				break;
    19ca:	46c0      	nop			; (mov r8, r8)
E:\2017-2018\03_Graduation Project\04_Software\04_wangshi\03_UpdateSoftware-180625\01_UEBootloader\KL36_BootLoader-180621\Debug/../03_MCU/MCU_drivers/uart/uart.c:138
    			SIM_SCGC4 |= SIM_SCGC4_UART2_MASK;//启动串口2时钟
    19cc:	4a37      	ldr	r2, [pc, #220]	; (1aac <uart_init+0x284>)
    19ce:	4b3b      	ldr	r3, [pc, #236]	; (1abc <uart_init+0x294>)
    19d0:	58d3      	ldr	r3, [r2, r3]
    19d2:	4936      	ldr	r1, [pc, #216]	; (1aac <uart_init+0x284>)
    19d4:	2280      	movs	r2, #128	; 0x80
    19d6:	0152      	lsls	r2, r2, #5
    19d8:	4313      	orrs	r3, r2
    19da:	4a38      	ldr	r2, [pc, #224]	; (1abc <uart_init+0x294>)
    19dc:	508b      	str	r3, [r1, r2]
E:\2017-2018\03_Graduation Project\04_Software\04_wangshi\03_UpdateSoftware-180625\01_UEBootloader\KL36_BootLoader-180621\Debug/../03_MCU/MCU_drivers/uart/uart.c:139
    			break;
    19de:	46c0      	nop			; (mov r8, r8)
E:\2017-2018\03_Graduation Project\04_Software\04_wangshi\03_UpdateSoftware-180625\01_UEBootloader\KL36_BootLoader-180621\Debug/../03_MCU/MCU_drivers/uart/uart.c:143
    	}
        uartch_1_2 = UART_ARR[uartNo-1]; //获得UART1、2模块相应口基地址
    19e0:	1dfb      	adds	r3, r7, #7
    19e2:	781b      	ldrb	r3, [r3, #0]
    19e4:	1e5a      	subs	r2, r3, #1
    19e6:	4b37      	ldr	r3, [pc, #220]	; (1ac4 <uart_init+0x29c>)
    19e8:	0092      	lsls	r2, r2, #2
    19ea:	58d3      	ldr	r3, [r2, r3]
    19ec:	617b      	str	r3, [r7, #20]
E:\2017-2018\03_Graduation Project\04_Software\04_wangshi\03_UpdateSoftware-180625\01_UEBootloader\KL36_BootLoader-180621\Debug/../03_MCU/MCU_drivers/uart/uart.c:146

        //暂时关闭串口1、2发送与接收功能
        UART_C2_REG(uartch_1_2) &= ~(UART_C2_TE_MASK | UART_C2_RE_MASK);
    19ee:	697b      	ldr	r3, [r7, #20]
    19f0:	78db      	ldrb	r3, [r3, #3]
    19f2:	b2db      	uxtb	r3, r3
    19f4:	220c      	movs	r2, #12
    19f6:	4393      	bics	r3, r2
    19f8:	b2da      	uxtb	r2, r3
    19fa:	697b      	ldr	r3, [r7, #20]
    19fc:	70da      	strb	r2, [r3, #3]
E:\2017-2018\03_Graduation Project\04_Software\04_wangshi\03_UpdateSoftware-180625\01_UEBootloader\KL36_BootLoader-180621\Debug/../03_MCU/MCU_drivers/uart/uart.c:151

        //配置波特率,KL25串口1、2时钟频率使用 Bus clock = 24M 总线时钟
        //配置串口工作模式,8位无校验模式
        //sbr = (uint_16)((800*1000)/(baud_rate * 16));
        sbr = (uint_16)((BUS_CLK_KHZ*1000)/(baud_rate * 16));
    19fe:	4b30      	ldr	r3, [pc, #192]	; (1ac0 <uart_init+0x298>)
    1a00:	681a      	ldr	r2, [r3, #0]
    1a02:	23fa      	movs	r3, #250	; 0xfa
    1a04:	00d9      	lsls	r1, r3, #3
    1a06:	0010      	movs	r0, r2
    1a08:	f7fe fd88 	bl	51c <__udivsi3>
    1a0c:	0003      	movs	r3, r0
    1a0e:	001a      	movs	r2, r3
    1a10:	0013      	movs	r3, r2
    1a12:	015b      	lsls	r3, r3, #5
    1a14:	1a9b      	subs	r3, r3, r2
    1a16:	009b      	lsls	r3, r3, #2
    1a18:	189b      	adds	r3, r3, r2
    1a1a:	00db      	lsls	r3, r3, #3
    1a1c:	001a      	movs	r2, r3
    1a1e:	683b      	ldr	r3, [r7, #0]
    1a20:	011b      	lsls	r3, r3, #4
    1a22:	0019      	movs	r1, r3
    1a24:	0010      	movs	r0, r2
    1a26:	f7fe fd79 	bl	51c <__udivsi3>
    1a2a:	0003      	movs	r3, r0
    1a2c:	001a      	movs	r2, r3
    1a2e:	2112      	movs	r1, #18
    1a30:	0008      	movs	r0, r1
    1a32:	187b      	adds	r3, r7, r1
    1a34:	801a      	strh	r2, [r3, #0]
E:\2017-2018\03_Graduation Project\04_Software\04_wangshi\03_UpdateSoftware-180625\01_UEBootloader\KL36_BootLoader-180621\Debug/../03_MCU/MCU_drivers/uart/uart.c:152
        temp = UART_BDH_REG(uartch_1_2) & ~(UART_BDH_SBR(0x1F));
    1a36:	697b      	ldr	r3, [r7, #20]
    1a38:	781b      	ldrb	r3, [r3, #0]
    1a3a:	b2da      	uxtb	r2, r3
    1a3c:	2411      	movs	r4, #17
    1a3e:	193b      	adds	r3, r7, r4
    1a40:	211f      	movs	r1, #31
    1a42:	438a      	bics	r2, r1
    1a44:	701a      	strb	r2, [r3, #0]
E:\2017-2018\03_Graduation Project\04_Software\04_wangshi\03_UpdateSoftware-180625\01_UEBootloader\KL36_BootLoader-180621\Debug/../03_MCU/MCU_drivers/uart/uart.c:153
        UART_BDH_REG(uartch_1_2) = temp |  UART_BDH_SBR(((sbr & 0x1F00) >> 8));
    1a46:	0001      	movs	r1, r0
    1a48:	187b      	adds	r3, r7, r1
    1a4a:	881b      	ldrh	r3, [r3, #0]
    1a4c:	121b      	asrs	r3, r3, #8
    1a4e:	b2db      	uxtb	r3, r3
    1a50:	221f      	movs	r2, #31
    1a52:	4013      	ands	r3, r2
    1a54:	b2da      	uxtb	r2, r3
    1a56:	193b      	adds	r3, r7, r4
    1a58:	781b      	ldrb	r3, [r3, #0]
    1a5a:	4313      	orrs	r3, r2
    1a5c:	b2da      	uxtb	r2, r3
    1a5e:	697b      	ldr	r3, [r7, #20]
    1a60:	701a      	strb	r2, [r3, #0]
E:\2017-2018\03_Graduation Project\04_Software\04_wangshi\03_UpdateSoftware-180625\01_UEBootloader\KL36_BootLoader-180621\Debug/../03_MCU/MCU_drivers/uart/uart.c:154
        UART_BDL_REG(uartch_1_2) = (uint_8)(sbr & UART_BDL_SBR_MASK);
    1a62:	187b      	adds	r3, r7, r1
    1a64:	881b      	ldrh	r3, [r3, #0]
    1a66:	b2da      	uxtb	r2, r3
    1a68:	697b      	ldr	r3, [r7, #20]
    1a6a:	705a      	strb	r2, [r3, #1]
E:\2017-2018\03_Graduation Project\04_Software\04_wangshi\03_UpdateSoftware-180625\01_UEBootloader\KL36_BootLoader-180621\Debug/../03_MCU/MCU_drivers/uart/uart.c:157

        //初始化控制寄存器、清标志位
        UART_C1_REG(uartch_1_2)=0x00;
    1a6c:	697b      	ldr	r3, [r7, #20]
    1a6e:	2200      	movs	r2, #0
    1a70:	709a      	strb	r2, [r3, #2]
E:\2017-2018\03_Graduation Project\04_Software\04_wangshi\03_UpdateSoftware-180625\01_UEBootloader\KL36_BootLoader-180621\Debug/../03_MCU/MCU_drivers/uart/uart.c:158
        UART_C3_REG(uartch_1_2)=0x00;
    1a72:	697b      	ldr	r3, [r7, #20]
    1a74:	2200      	movs	r2, #0
    1a76:	719a      	strb	r2, [r3, #6]
E:\2017-2018\03_Graduation Project\04_Software\04_wangshi\03_UpdateSoftware-180625\01_UEBootloader\KL36_BootLoader-180621\Debug/../03_MCU/MCU_drivers/uart/uart.c:159
        UART_S2_REG(uartch_1_2)=0x00;
    1a78:	697b      	ldr	r3, [r7, #20]
    1a7a:	2200      	movs	r2, #0
    1a7c:	715a      	strb	r2, [r3, #5]
E:\2017-2018\03_Graduation Project\04_Software\04_wangshi\03_UpdateSoftware-180625\01_UEBootloader\KL36_BootLoader-180621\Debug/../03_MCU/MCU_drivers/uart/uart.c:161
        //禁用串口发送中断
        UART_C2_REG(uartch_1_2) &= ~UART_C2_TIE_MASK;
    1a7e:	697b      	ldr	r3, [r7, #20]
    1a80:	78db      	ldrb	r3, [r3, #3]
    1a82:	b2db      	uxtb	r3, r3
    1a84:	227f      	movs	r2, #127	; 0x7f
    1a86:	4013      	ands	r3, r2
    1a88:	b2da      	uxtb	r2, r3
    1a8a:	697b      	ldr	r3, [r7, #20]
    1a8c:	70da      	strb	r2, [r3, #3]
E:\2017-2018\03_Graduation Project\04_Software\04_wangshi\03_UpdateSoftware-180625\01_UEBootloader\KL36_BootLoader-180621\Debug/../03_MCU/MCU_drivers/uart/uart.c:163
        //启动发送接收
        UART_C2_REG(uartch_1_2)|= (UART_C2_TE_MASK | UART_C2_RE_MASK);
    1a8e:	697b      	ldr	r3, [r7, #20]
    1a90:	78db      	ldrb	r3, [r3, #3]
    1a92:	b2db      	uxtb	r3, r3
    1a94:	220c      	movs	r2, #12
    1a96:	4313      	orrs	r3, r2
    1a98:	b2da      	uxtb	r2, r3
    1a9a:	697b      	ldr	r3, [r7, #20]
    1a9c:	70da      	strb	r2, [r3, #3]
    1a9e:	e000      	b.n	1aa2 <uart_init+0x27a>
E:\2017-2018\03_Graduation Project\04_Software\04_wangshi\03_UpdateSoftware-180625\01_UEBootloader\KL36_BootLoader-180621\Debug/../03_MCU/MCU_drivers/uart/uart.c:35
        return;
    1aa0:	46c0      	nop			; (mov r8, r8)
E:\2017-2018\03_Graduation Project\04_Software\04_wangshi\03_UpdateSoftware-180625\01_UEBootloader\KL36_BootLoader-180621\Debug/../03_MCU/MCU_drivers/uart/uart.c:165
    }
}
    1aa2:	46bd      	mov	sp, r7
    1aa4:	b007      	add	sp, #28
    1aa6:	bd90      	pop	{r4, r7, pc}
    1aa8:	4006a000 	.word	0x4006a000
    1aac:	40047000 	.word	0x40047000
    1ab0:	00001004 	.word	0x00001004
    1ab4:	fffeffff 	.word	0xfffeffff
    1ab8:	4004d000 	.word	0x4004d000
    1abc:	00001034 	.word	0x00001034
    1ac0:	1ffff800 	.word	0x1ffff800
    1ac4:	00002c88 	.word	0x00002c88

00001ac8 <uart_send1>:
uart_send1():
E:\2017-2018\03_Graduation Project\04_Software\04_wangshi\03_UpdateSoftware-180625\01_UEBootloader\KL36_BootLoader-180621\Debug/../03_MCU/MCU_drivers/uart/uart.c:175
//          ch:要发送的字节
//函数返回：函数执行状态：1=发送成功；0=发送失败。
//功能概要：串行发送1个字节
//======================================================================
uint_8 uart_send1(uint_8 uartNo, uint_8 ch)
{
    1ac8:	b580      	push	{r7, lr}
    1aca:	b086      	sub	sp, #24
    1acc:	af00      	add	r7, sp, #0
    1ace:	0002      	movs	r2, r0
    1ad0:	1dfb      	adds	r3, r7, #7
    1ad2:	701a      	strb	r2, [r3, #0]
    1ad4:	1dbb      	adds	r3, r7, #6
    1ad6:	1c0a      	adds	r2, r1, #0
    1ad8:	701a      	strb	r2, [r3, #0]
E:\2017-2018\03_Graduation Project\04_Software\04_wangshi\03_UpdateSoftware-180625\01_UEBootloader\KL36_BootLoader-180621\Debug/../03_MCU/MCU_drivers/uart/uart.c:177
    uint_32 t;
    UART0_MemMapPtr uartch_0=UART0_BASE_PTR; //获取UART0基地址
    1ada:	4b20      	ldr	r3, [pc, #128]	; (1b5c <uart_send1+0x94>)
    1adc:	613b      	str	r3, [r7, #16]
E:\2017-2018\03_Graduation Project\04_Software\04_wangshi\03_UpdateSoftware-180625\01_UEBootloader\KL36_BootLoader-180621\Debug/../03_MCU/MCU_drivers/uart/uart.c:178
    UART_MemMapPtr uartch_1_2 = UART_ARR[uartNo-1]; //获取UART1或者2基地址
    1ade:	1dfb      	adds	r3, r7, #7
    1ae0:	781b      	ldrb	r3, [r3, #0]
    1ae2:	1e5a      	subs	r2, r3, #1
    1ae4:	4b1e      	ldr	r3, [pc, #120]	; (1b60 <uart_send1+0x98>)
    1ae6:	0092      	lsls	r2, r2, #2
    1ae8:	58d3      	ldr	r3, [r2, r3]
    1aea:	60fb      	str	r3, [r7, #12]
E:\2017-2018\03_Graduation Project\04_Software\04_wangshi\03_UpdateSoftware-180625\01_UEBootloader\KL36_BootLoader-180621\Debug/../03_MCU/MCU_drivers/uart/uart.c:181

    //判断传入串口号参数是否有误，有误直接退出
    if(!uart_is_uartNo(uartNo))
    1aec:	1dfb      	adds	r3, r7, #7
    1aee:	781b      	ldrb	r3, [r3, #0]
    1af0:	0018      	movs	r0, r3
    1af2:	f000 fa9b 	bl	202c <uart_is_uartNo>
    1af6:	1e03      	subs	r3, r0, #0
    1af8:	d101      	bne.n	1afe <uart_send1+0x36>
E:\2017-2018\03_Graduation Project\04_Software\04_wangshi\03_UpdateSoftware-180625\01_UEBootloader\KL36_BootLoader-180621\Debug/../03_MCU/MCU_drivers/uart/uart.c:183
    {
        return 0;
    1afa:	2300      	movs	r3, #0
    1afc:	e02a      	b.n	1b54 <uart_send1+0x8c>
E:\2017-2018\03_Graduation Project\04_Software\04_wangshi\03_UpdateSoftware-180625\01_UEBootloader\KL36_BootLoader-180621\Debug/../03_MCU/MCU_drivers/uart/uart.c:186
    }

    for (t = 0; t < 0xFBBB; t++)//查询指定次数
    1afe:	2300      	movs	r3, #0
    1b00:	617b      	str	r3, [r7, #20]
    1b02:	e01c      	b.n	1b3e <uart_send1+0x76>
E:\2017-2018\03_Graduation Project\04_Software\04_wangshi\03_UpdateSoftware-180625\01_UEBootloader\KL36_BootLoader-180621\Debug/../03_MCU/MCU_drivers/uart/uart.c:188
    {
        if(0==uartNo)     //判断使用的哪个串口
    1b04:	1dfb      	adds	r3, r7, #7
    1b06:	781b      	ldrb	r3, [r3, #0]
    1b08:	2b00      	cmp	r3, #0
    1b0a:	d10a      	bne.n	1b22 <uart_send1+0x5a>
E:\2017-2018\03_Graduation Project\04_Software\04_wangshi\03_UpdateSoftware-180625\01_UEBootloader\KL36_BootLoader-180621\Debug/../03_MCU/MCU_drivers/uart/uart.c:191
        {
        	//发送缓冲区为空则发送数据
            if ( UART0_S1_REG(uartch_0) & UART0_S1_TDRE_MASK )
    1b0c:	693b      	ldr	r3, [r7, #16]
    1b0e:	791b      	ldrb	r3, [r3, #4]
    1b10:	b2db      	uxtb	r3, r3
    1b12:	b25b      	sxtb	r3, r3
    1b14:	2b00      	cmp	r3, #0
    1b16:	da0f      	bge.n	1b38 <uart_send1+0x70>
E:\2017-2018\03_Graduation Project\04_Software\04_wangshi\03_UpdateSoftware-180625\01_UEBootloader\KL36_BootLoader-180621\Debug/../03_MCU/MCU_drivers/uart/uart.c:193
            {
                UART0_D_REG(uartch_0) = ch;
    1b18:	693b      	ldr	r3, [r7, #16]
    1b1a:	1dba      	adds	r2, r7, #6
    1b1c:	7812      	ldrb	r2, [r2, #0]
    1b1e:	71da      	strb	r2, [r3, #7]
E:\2017-2018\03_Graduation Project\04_Software\04_wangshi\03_UpdateSoftware-180625\01_UEBootloader\KL36_BootLoader-180621\Debug/../03_MCU/MCU_drivers/uart/uart.c:194
                break;
    1b20:	e011      	b.n	1b46 <uart_send1+0x7e>
E:\2017-2018\03_Graduation Project\04_Software\04_wangshi\03_UpdateSoftware-180625\01_UEBootloader\KL36_BootLoader-180621\Debug/../03_MCU/MCU_drivers/uart/uart.c:200
            }
        }
        else
        {
        	//发送缓冲区为空则发送数据
            if (UART_S1_REG(uartch_1_2) & UART_S1_TDRE_MASK )
    1b22:	68fb      	ldr	r3, [r7, #12]
    1b24:	791b      	ldrb	r3, [r3, #4]
    1b26:	b2db      	uxtb	r3, r3
    1b28:	b25b      	sxtb	r3, r3
    1b2a:	2b00      	cmp	r3, #0
    1b2c:	da04      	bge.n	1b38 <uart_send1+0x70>
E:\2017-2018\03_Graduation Project\04_Software\04_wangshi\03_UpdateSoftware-180625\01_UEBootloader\KL36_BootLoader-180621\Debug/../03_MCU/MCU_drivers/uart/uart.c:202
            {
                UART_D_REG(uartch_1_2) = ch;
    1b2e:	68fb      	ldr	r3, [r7, #12]
    1b30:	1dba      	adds	r2, r7, #6
    1b32:	7812      	ldrb	r2, [r2, #0]
    1b34:	71da      	strb	r2, [r3, #7]
E:\2017-2018\03_Graduation Project\04_Software\04_wangshi\03_UpdateSoftware-180625\01_UEBootloader\KL36_BootLoader-180621\Debug/../03_MCU/MCU_drivers/uart/uart.c:203
                break;
    1b36:	e006      	b.n	1b46 <uart_send1+0x7e>
E:\2017-2018\03_Graduation Project\04_Software\04_wangshi\03_UpdateSoftware-180625\01_UEBootloader\KL36_BootLoader-180621\Debug/../03_MCU/MCU_drivers/uart/uart.c:186 (discriminator 2)
    for (t = 0; t < 0xFBBB; t++)//查询指定次数
    1b38:	697b      	ldr	r3, [r7, #20]
    1b3a:	3301      	adds	r3, #1
    1b3c:	617b      	str	r3, [r7, #20]
E:\2017-2018\03_Graduation Project\04_Software\04_wangshi\03_UpdateSoftware-180625\01_UEBootloader\KL36_BootLoader-180621\Debug/../03_MCU/MCU_drivers/uart/uart.c:186 (discriminator 1)
    1b3e:	697b      	ldr	r3, [r7, #20]
    1b40:	4a08      	ldr	r2, [pc, #32]	; (1b64 <uart_send1+0x9c>)
    1b42:	4293      	cmp	r3, r2
    1b44:	d9de      	bls.n	1b04 <uart_send1+0x3c>
E:\2017-2018\03_Graduation Project\04_Software\04_wangshi\03_UpdateSoftware-180625\01_UEBootloader\KL36_BootLoader-180621\Debug/../03_MCU/MCU_drivers/uart/uart.c:207
            }
        }
    }//end for
    if (t >= 0xFBBB)
    1b46:	697b      	ldr	r3, [r7, #20]
    1b48:	4a06      	ldr	r2, [pc, #24]	; (1b64 <uart_send1+0x9c>)
    1b4a:	4293      	cmp	r3, r2
    1b4c:	d901      	bls.n	1b52 <uart_send1+0x8a>
E:\2017-2018\03_Graduation Project\04_Software\04_wangshi\03_UpdateSoftware-180625\01_UEBootloader\KL36_BootLoader-180621\Debug/../03_MCU/MCU_drivers/uart/uart.c:208
        return 0; //发送超时，发送失败
    1b4e:	2300      	movs	r3, #0
    1b50:	e000      	b.n	1b54 <uart_send1+0x8c>
E:\2017-2018\03_Graduation Project\04_Software\04_wangshi\03_UpdateSoftware-180625\01_UEBootloader\KL36_BootLoader-180621\Debug/../03_MCU/MCU_drivers/uart/uart.c:210
    else
        return 1; //成功发送
    1b52:	2301      	movs	r3, #1
E:\2017-2018\03_Graduation Project\04_Software\04_wangshi\03_UpdateSoftware-180625\01_UEBootloader\KL36_BootLoader-180621\Debug/../03_MCU/MCU_drivers/uart/uart.c:211
}
    1b54:	0018      	movs	r0, r3
    1b56:	46bd      	mov	sp, r7
    1b58:	b006      	add	sp, #24
    1b5a:	bd80      	pop	{r7, pc}
    1b5c:	4006a000 	.word	0x4006a000
    1b60:	00002c88 	.word	0x00002c88
    1b64:	0000fbba 	.word	0x0000fbba

00001b68 <uart_sendN>:
uart_sendN():
E:\2017-2018\03_Graduation Project\04_Software\04_wangshi\03_UpdateSoftware-180625\01_UEBootloader\KL36_BootLoader-180621\Debug/../03_MCU/MCU_drivers/uart/uart.c:222
//         len:发送长度
//函数返回： 函数执行状态：1=发送成功；0=发送失败
//功能概要：串行 接收n个字节   
//======================================================================
uint_8 uart_sendN(uint_8 uartNo ,uint_16 len ,uint_8* buff)
{
    1b68:	b580      	push	{r7, lr}
    1b6a:	b084      	sub	sp, #16
    1b6c:	af00      	add	r7, sp, #0
    1b6e:	603a      	str	r2, [r7, #0]
    1b70:	1dfb      	adds	r3, r7, #7
    1b72:	1c02      	adds	r2, r0, #0
    1b74:	701a      	strb	r2, [r3, #0]
    1b76:	1d3b      	adds	r3, r7, #4
    1b78:	1c0a      	adds	r2, r1, #0
    1b7a:	801a      	strh	r2, [r3, #0]
E:\2017-2018\03_Graduation Project\04_Software\04_wangshi\03_UpdateSoftware-180625\01_UEBootloader\KL36_BootLoader-180621\Debug/../03_MCU/MCU_drivers/uart/uart.c:226
    uint_16 i;

    //判断传入串口号参数是否有误，有误直接退出
    if(!uart_is_uartNo(uartNo))
    1b7c:	1dfb      	adds	r3, r7, #7
    1b7e:	781b      	ldrb	r3, [r3, #0]
    1b80:	0018      	movs	r0, r3
    1b82:	f000 fa53 	bl	202c <uart_is_uartNo>
    1b86:	1e03      	subs	r3, r0, #0
    1b88:	d101      	bne.n	1b8e <uart_sendN+0x26>
E:\2017-2018\03_Graduation Project\04_Software\04_wangshi\03_UpdateSoftware-180625\01_UEBootloader\KL36_BootLoader-180621\Debug/../03_MCU/MCU_drivers/uart/uart.c:228
    {
        return 0;
    1b8a:	2300      	movs	r3, #0
    1b8c:	e02b      	b.n	1be6 <uart_sendN+0x7e>
E:\2017-2018\03_Graduation Project\04_Software\04_wangshi\03_UpdateSoftware-180625\01_UEBootloader\KL36_BootLoader-180621\Debug/../03_MCU/MCU_drivers/uart/uart.c:231
    }

    for (i = 0; i < len; i++)
    1b8e:	230e      	movs	r3, #14
    1b90:	18fb      	adds	r3, r7, r3
    1b92:	2200      	movs	r2, #0
    1b94:	801a      	strh	r2, [r3, #0]
    1b96:	e013      	b.n	1bc0 <uart_sendN+0x58>
E:\2017-2018\03_Graduation Project\04_Software\04_wangshi\03_UpdateSoftware-180625\01_UEBootloader\KL36_BootLoader-180621\Debug/../03_MCU/MCU_drivers/uart/uart.c:233
    {
        if (!uart_send1(uartNo, buff[i])) //发送一个字节数据，失败则跳出循环
    1b98:	230e      	movs	r3, #14
    1b9a:	18fb      	adds	r3, r7, r3
    1b9c:	881b      	ldrh	r3, [r3, #0]
    1b9e:	683a      	ldr	r2, [r7, #0]
    1ba0:	18d3      	adds	r3, r2, r3
    1ba2:	781a      	ldrb	r2, [r3, #0]
    1ba4:	1dfb      	adds	r3, r7, #7
    1ba6:	781b      	ldrb	r3, [r3, #0]
    1ba8:	0011      	movs	r1, r2
    1baa:	0018      	movs	r0, r3
    1bac:	f7ff ff8c 	bl	1ac8 <uart_send1>
    1bb0:	1e03      	subs	r3, r0, #0
    1bb2:	d00d      	beq.n	1bd0 <uart_sendN+0x68>
E:\2017-2018\03_Graduation Project\04_Software\04_wangshi\03_UpdateSoftware-180625\01_UEBootloader\KL36_BootLoader-180621\Debug/../03_MCU/MCU_drivers/uart/uart.c:231 (discriminator 2)
    for (i = 0; i < len; i++)
    1bb4:	210e      	movs	r1, #14
    1bb6:	187b      	adds	r3, r7, r1
    1bb8:	881a      	ldrh	r2, [r3, #0]
    1bba:	187b      	adds	r3, r7, r1
    1bbc:	3201      	adds	r2, #1
    1bbe:	801a      	strh	r2, [r3, #0]
E:\2017-2018\03_Graduation Project\04_Software\04_wangshi\03_UpdateSoftware-180625\01_UEBootloader\KL36_BootLoader-180621\Debug/../03_MCU/MCU_drivers/uart/uart.c:231 (discriminator 1)
    1bc0:	230e      	movs	r3, #14
    1bc2:	18fa      	adds	r2, r7, r3
    1bc4:	1d3b      	adds	r3, r7, #4
    1bc6:	8812      	ldrh	r2, [r2, #0]
    1bc8:	881b      	ldrh	r3, [r3, #0]
    1bca:	429a      	cmp	r2, r3
    1bcc:	d3e4      	bcc.n	1b98 <uart_sendN+0x30>
    1bce:	e000      	b.n	1bd2 <uart_sendN+0x6a>
E:\2017-2018\03_Graduation Project\04_Software\04_wangshi\03_UpdateSoftware-180625\01_UEBootloader\KL36_BootLoader-180621\Debug/../03_MCU/MCU_drivers/uart/uart.c:235
        {
            break;
    1bd0:	46c0      	nop			; (mov r8, r8)
E:\2017-2018\03_Graduation Project\04_Software\04_wangshi\03_UpdateSoftware-180625\01_UEBootloader\KL36_BootLoader-180621\Debug/../03_MCU/MCU_drivers/uart/uart.c:238
        }
    }
    if(i<len)
    1bd2:	230e      	movs	r3, #14
    1bd4:	18fa      	adds	r2, r7, r3
    1bd6:	1d3b      	adds	r3, r7, #4
    1bd8:	8812      	ldrh	r2, [r2, #0]
    1bda:	881b      	ldrh	r3, [r3, #0]
    1bdc:	429a      	cmp	r2, r3
    1bde:	d201      	bcs.n	1be4 <uart_sendN+0x7c>
E:\2017-2018\03_Graduation Project\04_Software\04_wangshi\03_UpdateSoftware-180625\01_UEBootloader\KL36_BootLoader-180621\Debug/../03_MCU/MCU_drivers/uart/uart.c:239
        return 0;    //发送出错
    1be0:	2300      	movs	r3, #0
    1be2:	e000      	b.n	1be6 <uart_sendN+0x7e>
E:\2017-2018\03_Graduation Project\04_Software\04_wangshi\03_UpdateSoftware-180625\01_UEBootloader\KL36_BootLoader-180621\Debug/../03_MCU/MCU_drivers/uart/uart.c:241
    else
        return 1;    //发送出错
    1be4:	2301      	movs	r3, #1
E:\2017-2018\03_Graduation Project\04_Software\04_wangshi\03_UpdateSoftware-180625\01_UEBootloader\KL36_BootLoader-180621\Debug/../03_MCU/MCU_drivers/uart/uart.c:242
}
    1be6:	0018      	movs	r0, r3
    1be8:	46bd      	mov	sp, r7
    1bea:	b004      	add	sp, #16
    1bec:	bd80      	pop	{r7, pc}

00001bee <uart_send_string>:
uart_send_string():
E:\2017-2018\03_Graduation Project\04_Software\04_wangshi\03_UpdateSoftware-180625\01_UEBootloader\KL36_BootLoader-180621\Debug/../03_MCU/MCU_drivers/uart/uart.c:252
//          buff:要发送的字符串的首地址
//函数返回： 函数执行状态：1=发送成功；0=发送失败
//功能概要：从指定UART端口发送一个以'\0'结束的字符串
//======================================================================
uint_8 uart_send_string(uint_8 uartNo, void *buff)
{
    1bee:	b580      	push	{r7, lr}
    1bf0:	b084      	sub	sp, #16
    1bf2:	af00      	add	r7, sp, #0
    1bf4:	0002      	movs	r2, r0
    1bf6:	6039      	str	r1, [r7, #0]
    1bf8:	1dfb      	adds	r3, r7, #7
    1bfa:	701a      	strb	r2, [r3, #0]
E:\2017-2018\03_Graduation Project\04_Software\04_wangshi\03_UpdateSoftware-180625\01_UEBootloader\KL36_BootLoader-180621\Debug/../03_MCU/MCU_drivers/uart/uart.c:253
    uint_16 i = 0;
    1bfc:	230e      	movs	r3, #14
    1bfe:	18fb      	adds	r3, r7, r3
    1c00:	2200      	movs	r2, #0
    1c02:	801a      	strh	r2, [r3, #0]
E:\2017-2018\03_Graduation Project\04_Software\04_wangshi\03_UpdateSoftware-180625\01_UEBootloader\KL36_BootLoader-180621\Debug/../03_MCU/MCU_drivers/uart/uart.c:254
    uint_8 *buff_ptr = (uint_8 *)buff;     //定义指针指向要发送字符串首地址
    1c04:	683b      	ldr	r3, [r7, #0]
    1c06:	60bb      	str	r3, [r7, #8]
E:\2017-2018\03_Graduation Project\04_Software\04_wangshi\03_UpdateSoftware-180625\01_UEBootloader\KL36_BootLoader-180621\Debug/../03_MCU/MCU_drivers/uart/uart.c:257

    //判断传入串口号参数是否有误，有误直接退出
    if(!uart_is_uartNo(uartNo))
    1c08:	1dfb      	adds	r3, r7, #7
    1c0a:	781b      	ldrb	r3, [r3, #0]
    1c0c:	0018      	movs	r0, r3
    1c0e:	f000 fa0d 	bl	202c <uart_is_uartNo>
    1c12:	1e03      	subs	r3, r0, #0
    1c14:	d101      	bne.n	1c1a <uart_send_string+0x2c>
E:\2017-2018\03_Graduation Project\04_Software\04_wangshi\03_UpdateSoftware-180625\01_UEBootloader\KL36_BootLoader-180621\Debug/../03_MCU/MCU_drivers/uart/uart.c:259
    {
        return 0;
    1c16:	2300      	movs	r3, #0
    1c18:	e023      	b.n	1c62 <uart_send_string+0x74>
E:\2017-2018\03_Graduation Project\04_Software\04_wangshi\03_UpdateSoftware-180625\01_UEBootloader\KL36_BootLoader-180621\Debug/../03_MCU/MCU_drivers/uart/uart.c:262
    }

    for(i = 0; buff_ptr[i] != '\0'; i++)   //遍历字符串里的字符
    1c1a:	230e      	movs	r3, #14
    1c1c:	18fb      	adds	r3, r7, r3
    1c1e:	2200      	movs	r2, #0
    1c20:	801a      	strh	r2, [r3, #0]
    1c22:	e015      	b.n	1c50 <uart_send_string+0x62>
E:\2017-2018\03_Graduation Project\04_Software\04_wangshi\03_UpdateSoftware-180625\01_UEBootloader\KL36_BootLoader-180621\Debug/../03_MCU/MCU_drivers/uart/uart.c:264
    {
        if (!uart_send1(uartNo,buff_ptr[i]))//发送指针对应的字符
    1c24:	230e      	movs	r3, #14
    1c26:	18fb      	adds	r3, r7, r3
    1c28:	881b      	ldrh	r3, [r3, #0]
    1c2a:	68ba      	ldr	r2, [r7, #8]
    1c2c:	18d3      	adds	r3, r2, r3
    1c2e:	781a      	ldrb	r2, [r3, #0]
    1c30:	1dfb      	adds	r3, r7, #7
    1c32:	781b      	ldrb	r3, [r3, #0]
    1c34:	0011      	movs	r1, r2
    1c36:	0018      	movs	r0, r3
    1c38:	f7ff ff46 	bl	1ac8 <uart_send1>
    1c3c:	1e03      	subs	r3, r0, #0
    1c3e:	d101      	bne.n	1c44 <uart_send_string+0x56>
E:\2017-2018\03_Graduation Project\04_Software\04_wangshi\03_UpdateSoftware-180625\01_UEBootloader\KL36_BootLoader-180621\Debug/../03_MCU/MCU_drivers/uart/uart.c:265
            return 0;  //发送失败,返回
    1c40:	2300      	movs	r3, #0
    1c42:	e00e      	b.n	1c62 <uart_send_string+0x74>
E:\2017-2018\03_Graduation Project\04_Software\04_wangshi\03_UpdateSoftware-180625\01_UEBootloader\KL36_BootLoader-180621\Debug/../03_MCU/MCU_drivers/uart/uart.c:262 (discriminator 2)
    for(i = 0; buff_ptr[i] != '\0'; i++)   //遍历字符串里的字符
    1c44:	210e      	movs	r1, #14
    1c46:	187b      	adds	r3, r7, r1
    1c48:	881a      	ldrh	r2, [r3, #0]
    1c4a:	187b      	adds	r3, r7, r1
    1c4c:	3201      	adds	r2, #1
    1c4e:	801a      	strh	r2, [r3, #0]
E:\2017-2018\03_Graduation Project\04_Software\04_wangshi\03_UpdateSoftware-180625\01_UEBootloader\KL36_BootLoader-180621\Debug/../03_MCU/MCU_drivers/uart/uart.c:262 (discriminator 1)
    1c50:	230e      	movs	r3, #14
    1c52:	18fb      	adds	r3, r7, r3
    1c54:	881b      	ldrh	r3, [r3, #0]
    1c56:	68ba      	ldr	r2, [r7, #8]
    1c58:	18d3      	adds	r3, r2, r3
    1c5a:	781b      	ldrb	r3, [r3, #0]
    1c5c:	2b00      	cmp	r3, #0
    1c5e:	d1e1      	bne.n	1c24 <uart_send_string+0x36>
E:\2017-2018\03_Graduation Project\04_Software\04_wangshi\03_UpdateSoftware-180625\01_UEBootloader\KL36_BootLoader-180621\Debug/../03_MCU/MCU_drivers/uart/uart.c:267
    }
    return 1;          //发送成功
    1c60:	2301      	movs	r3, #1
E:\2017-2018\03_Graduation Project\04_Software\04_wangshi\03_UpdateSoftware-180625\01_UEBootloader\KL36_BootLoader-180621\Debug/../03_MCU/MCU_drivers/uart/uart.c:268
}
    1c62:	0018      	movs	r0, r3
    1c64:	46bd      	mov	sp, r7
    1c66:	b004      	add	sp, #16
    1c68:	bd80      	pop	{r7, pc}
	...

00001c6c <uart_re1>:
uart_re1():
E:\2017-2018\03_Graduation Project\04_Software\04_wangshi\03_UpdateSoftware-180625\01_UEBootloader\KL36_BootLoader-180621\Debug/../03_MCU/MCU_drivers/uart/uart.c:278
//        *fp:接收成功标志的指针:*fp=1:接收成功；*fp=0:接收失败
//函数返回：接收返回字节
//功能概要：串行接收1个字节
//======================================================================
uint_8 uart_re1(uint_8 uartNo,uint_8 *fp)
{
    1c6c:	b580      	push	{r7, lr}
    1c6e:	b086      	sub	sp, #24
    1c70:	af00      	add	r7, sp, #0
    1c72:	0002      	movs	r2, r0
    1c74:	6039      	str	r1, [r7, #0]
    1c76:	1dfb      	adds	r3, r7, #7
    1c78:	701a      	strb	r2, [r3, #0]
E:\2017-2018\03_Graduation Project\04_Software\04_wangshi\03_UpdateSoftware-180625\01_UEBootloader\KL36_BootLoader-180621\Debug/../03_MCU/MCU_drivers/uart/uart.c:281
    uint_32 t;
    uint_8  dat;
    UART0_MemMapPtr uartch_0=UART0_BASE_PTR; //获取UART0基地址
    1c7a:	4b2a      	ldr	r3, [pc, #168]	; (1d24 <uart_re1+0xb8>)
    1c7c:	60fb      	str	r3, [r7, #12]
E:\2017-2018\03_Graduation Project\04_Software\04_wangshi\03_UpdateSoftware-180625\01_UEBootloader\KL36_BootLoader-180621\Debug/../03_MCU/MCU_drivers/uart/uart.c:282
    UART_MemMapPtr uartch_1_2 = UART_ARR[uartNo-1]; //获取UART1或者2基地址
    1c7e:	1dfb      	adds	r3, r7, #7
    1c80:	781b      	ldrb	r3, [r3, #0]
    1c82:	1e5a      	subs	r2, r3, #1
    1c84:	4b28      	ldr	r3, [pc, #160]	; (1d28 <uart_re1+0xbc>)
    1c86:	0092      	lsls	r2, r2, #2
    1c88:	58d3      	ldr	r3, [r2, r3]
    1c8a:	60bb      	str	r3, [r7, #8]
E:\2017-2018\03_Graduation Project\04_Software\04_wangshi\03_UpdateSoftware-180625\01_UEBootloader\KL36_BootLoader-180621\Debug/../03_MCU/MCU_drivers/uart/uart.c:285

    //判断传入串口号参数是否有误，有误直接退出
    if(!uart_is_uartNo(uartNo))
    1c8c:	1dfb      	adds	r3, r7, #7
    1c8e:	781b      	ldrb	r3, [r3, #0]
    1c90:	0018      	movs	r0, r3
    1c92:	f000 f9cb 	bl	202c <uart_is_uartNo>
    1c96:	1e03      	subs	r3, r0, #0
    1c98:	d104      	bne.n	1ca4 <uart_re1+0x38>
E:\2017-2018\03_Graduation Project\04_Software\04_wangshi\03_UpdateSoftware-180625\01_UEBootloader\KL36_BootLoader-180621\Debug/../03_MCU/MCU_drivers/uart/uart.c:287
    {
        *fp=0;
    1c9a:	683b      	ldr	r3, [r7, #0]
    1c9c:	2200      	movs	r2, #0
    1c9e:	701a      	strb	r2, [r3, #0]
E:\2017-2018\03_Graduation Project\04_Software\04_wangshi\03_UpdateSoftware-180625\01_UEBootloader\KL36_BootLoader-180621\Debug/../03_MCU/MCU_drivers/uart/uart.c:288
        return 0;
    1ca0:	2300      	movs	r3, #0
    1ca2:	e03b      	b.n	1d1c <uart_re1+0xb0>
E:\2017-2018\03_Graduation Project\04_Software\04_wangshi\03_UpdateSoftware-180625\01_UEBootloader\KL36_BootLoader-180621\Debug/../03_MCU/MCU_drivers/uart/uart.c:291
    }

    for (t = 0; t < 0xFBBB; t++)//查询指定次数
    1ca4:	2300      	movs	r3, #0
    1ca6:	617b      	str	r3, [r7, #20]
    1ca8:	e026      	b.n	1cf8 <uart_re1+0x8c>
E:\2017-2018\03_Graduation Project\04_Software\04_wangshi\03_UpdateSoftware-180625\01_UEBootloader\KL36_BootLoader-180621\Debug/../03_MCU/MCU_drivers/uart/uart.c:293
    {
        if(0==uartNo)  //判断使用的哪个串口
    1caa:	1dfb      	adds	r3, r7, #7
    1cac:	781b      	ldrb	r3, [r3, #0]
    1cae:	2b00      	cmp	r3, #0
    1cb0:	d10f      	bne.n	1cd2 <uart_re1+0x66>
E:\2017-2018\03_Graduation Project\04_Software\04_wangshi\03_UpdateSoftware-180625\01_UEBootloader\KL36_BootLoader-180621\Debug/../03_MCU/MCU_drivers/uart/uart.c:296
        {
        //判断接收缓冲区是否满
        if (UART0_S1_REG(uartch_0) & UART0_S1_RDRF_MASK)
    1cb2:	68fb      	ldr	r3, [r7, #12]
    1cb4:	791b      	ldrb	r3, [r3, #4]
    1cb6:	b2db      	uxtb	r3, r3
    1cb8:	001a      	movs	r2, r3
    1cba:	2320      	movs	r3, #32
    1cbc:	4013      	ands	r3, r2
    1cbe:	d018      	beq.n	1cf2 <uart_re1+0x86>
E:\2017-2018\03_Graduation Project\04_Software\04_wangshi\03_UpdateSoftware-180625\01_UEBootloader\KL36_BootLoader-180621\Debug/../03_MCU/MCU_drivers/uart/uart.c:298
            {
                dat=UART0_D_REG(uartch_0);    //获取数据,清接收中断位
    1cc0:	2313      	movs	r3, #19
    1cc2:	18fb      	adds	r3, r7, r3
    1cc4:	68fa      	ldr	r2, [r7, #12]
    1cc6:	79d2      	ldrb	r2, [r2, #7]
    1cc8:	701a      	strb	r2, [r3, #0]
E:\2017-2018\03_Graduation Project\04_Software\04_wangshi\03_UpdateSoftware-180625\01_UEBootloader\KL36_BootLoader-180621\Debug/../03_MCU/MCU_drivers/uart/uart.c:299
                *fp = 1;  //接收成功
    1cca:	683b      	ldr	r3, [r7, #0]
    1ccc:	2201      	movs	r2, #1
    1cce:	701a      	strb	r2, [r3, #0]
E:\2017-2018\03_Graduation Project\04_Software\04_wangshi\03_UpdateSoftware-180625\01_UEBootloader\KL36_BootLoader-180621\Debug/../03_MCU/MCU_drivers/uart/uart.c:300
                break;
    1cd0:	e016      	b.n	1d00 <uart_re1+0x94>
E:\2017-2018\03_Graduation Project\04_Software\04_wangshi\03_UpdateSoftware-180625\01_UEBootloader\KL36_BootLoader-180621\Debug/../03_MCU/MCU_drivers/uart/uart.c:306
            }
        }
        else
        {
            //判断接收缓冲区是否满
            if(UART_S1_REG(uartch_1_2) & UART_S1_RDRF_MASK)
    1cd2:	68bb      	ldr	r3, [r7, #8]
    1cd4:	791b      	ldrb	r3, [r3, #4]
    1cd6:	b2db      	uxtb	r3, r3
    1cd8:	001a      	movs	r2, r3
    1cda:	2320      	movs	r3, #32
    1cdc:	4013      	ands	r3, r2
    1cde:	d008      	beq.n	1cf2 <uart_re1+0x86>
E:\2017-2018\03_Graduation Project\04_Software\04_wangshi\03_UpdateSoftware-180625\01_UEBootloader\KL36_BootLoader-180621\Debug/../03_MCU/MCU_drivers/uart/uart.c:308
            {
                dat=UART_D_REG(uartch_1_2);    //获取数据,清接收中断位
    1ce0:	2313      	movs	r3, #19
    1ce2:	18fb      	adds	r3, r7, r3
    1ce4:	68ba      	ldr	r2, [r7, #8]
    1ce6:	79d2      	ldrb	r2, [r2, #7]
    1ce8:	701a      	strb	r2, [r3, #0]
E:\2017-2018\03_Graduation Project\04_Software\04_wangshi\03_UpdateSoftware-180625\01_UEBootloader\KL36_BootLoader-180621\Debug/../03_MCU/MCU_drivers/uart/uart.c:309
                *fp= 1;  //接收成功
    1cea:	683b      	ldr	r3, [r7, #0]
    1cec:	2201      	movs	r2, #1
    1cee:	701a      	strb	r2, [r3, #0]
E:\2017-2018\03_Graduation Project\04_Software\04_wangshi\03_UpdateSoftware-180625\01_UEBootloader\KL36_BootLoader-180621\Debug/../03_MCU/MCU_drivers/uart/uart.c:310
                break;
    1cf0:	e006      	b.n	1d00 <uart_re1+0x94>
E:\2017-2018\03_Graduation Project\04_Software\04_wangshi\03_UpdateSoftware-180625\01_UEBootloader\KL36_BootLoader-180621\Debug/../03_MCU/MCU_drivers/uart/uart.c:291 (discriminator 2)
    for (t = 0; t < 0xFBBB; t++)//查询指定次数
    1cf2:	697b      	ldr	r3, [r7, #20]
    1cf4:	3301      	adds	r3, #1
    1cf6:	617b      	str	r3, [r7, #20]
E:\2017-2018\03_Graduation Project\04_Software\04_wangshi\03_UpdateSoftware-180625\01_UEBootloader\KL36_BootLoader-180621\Debug/../03_MCU/MCU_drivers/uart/uart.c:291 (discriminator 1)
    1cf8:	697b      	ldr	r3, [r7, #20]
    1cfa:	4a0c      	ldr	r2, [pc, #48]	; (1d2c <uart_re1+0xc0>)
    1cfc:	4293      	cmp	r3, r2
    1cfe:	d9d4      	bls.n	1caa <uart_re1+0x3e>
E:\2017-2018\03_Graduation Project\04_Software\04_wangshi\03_UpdateSoftware-180625\01_UEBootloader\KL36_BootLoader-180621\Debug/../03_MCU/MCU_drivers/uart/uart.c:314
            }
        }
    }//end for
    if(t >= 0xFBBB) 
    1d00:	697b      	ldr	r3, [r7, #20]
    1d02:	4a0a      	ldr	r2, [pc, #40]	; (1d2c <uart_re1+0xc0>)
    1d04:	4293      	cmp	r3, r2
    1d06:	d906      	bls.n	1d16 <uart_re1+0xaa>
E:\2017-2018\03_Graduation Project\04_Software\04_wangshi\03_UpdateSoftware-180625\01_UEBootloader\KL36_BootLoader-180621\Debug/../03_MCU/MCU_drivers/uart/uart.c:316
    {
        dat = 0xFF; 
    1d08:	2313      	movs	r3, #19
    1d0a:	18fb      	adds	r3, r7, r3
    1d0c:	22ff      	movs	r2, #255	; 0xff
    1d0e:	701a      	strb	r2, [r3, #0]
E:\2017-2018\03_Graduation Project\04_Software\04_wangshi\03_UpdateSoftware-180625\01_UEBootloader\KL36_BootLoader-180621\Debug/../03_MCU/MCU_drivers/uart/uart.c:317
        *fp = 0;    //未收到数据
    1d10:	683b      	ldr	r3, [r7, #0]
    1d12:	2200      	movs	r2, #0
    1d14:	701a      	strb	r2, [r3, #0]
E:\2017-2018\03_Graduation Project\04_Software\04_wangshi\03_UpdateSoftware-180625\01_UEBootloader\KL36_BootLoader-180621\Debug/../03_MCU/MCU_drivers/uart/uart.c:319
    }
    return dat;    //返回接收到的数据
    1d16:	2313      	movs	r3, #19
    1d18:	18fb      	adds	r3, r7, r3
    1d1a:	781b      	ldrb	r3, [r3, #0]
E:\2017-2018\03_Graduation Project\04_Software\04_wangshi\03_UpdateSoftware-180625\01_UEBootloader\KL36_BootLoader-180621\Debug/../03_MCU/MCU_drivers/uart/uart.c:320
}
    1d1c:	0018      	movs	r0, r3
    1d1e:	46bd      	mov	sp, r7
    1d20:	b006      	add	sp, #24
    1d22:	bd80      	pop	{r7, pc}
    1d24:	4006a000 	.word	0x4006a000
    1d28:	00002c88 	.word	0x00002c88
    1d2c:	0000fbba 	.word	0x0000fbba

00001d30 <uart_reN>:
uart_reN():
E:\2017-2018\03_Graduation Project\04_Software\04_wangshi\03_UpdateSoftware-180625\01_UEBootloader\KL36_BootLoader-180621\Debug/../03_MCU/MCU_drivers/uart/uart.c:331
//          len:接收长度
//函数返回：函数执行状态 1=接收成功;0=接收失败
//功能概要：串行 接收n个字节,放入buff中
//======================================================================
uint_8 uart_reN(uint_8 uartNo ,uint_16 len ,uint_8* buff)
{
    1d30:	b5b0      	push	{r4, r5, r7, lr}
    1d32:	b084      	sub	sp, #16
    1d34:	af00      	add	r7, sp, #0
    1d36:	603a      	str	r2, [r7, #0]
    1d38:	1dfb      	adds	r3, r7, #7
    1d3a:	1c02      	adds	r2, r0, #0
    1d3c:	701a      	strb	r2, [r3, #0]
    1d3e:	1d3b      	adds	r3, r7, #4
    1d40:	1c0a      	adds	r2, r1, #0
    1d42:	801a      	strh	r2, [r3, #0]
E:\2017-2018\03_Graduation Project\04_Software\04_wangshi\03_UpdateSoftware-180625\01_UEBootloader\KL36_BootLoader-180621\Debug/../03_MCU/MCU_drivers/uart/uart.c:333
    uint_16 i;
    uint_8 flag = 0;
    1d44:	230d      	movs	r3, #13
    1d46:	18fb      	adds	r3, r7, r3
    1d48:	2200      	movs	r2, #0
    1d4a:	701a      	strb	r2, [r3, #0]
E:\2017-2018\03_Graduation Project\04_Software\04_wangshi\03_UpdateSoftware-180625\01_UEBootloader\KL36_BootLoader-180621\Debug/../03_MCU/MCU_drivers/uart/uart.c:336

    //判断传入串口号参数是否有误，有误直接退出
    if(!uart_is_uartNo(uartNo))
    1d4c:	1dfb      	adds	r3, r7, #7
    1d4e:	781b      	ldrb	r3, [r3, #0]
    1d50:	0018      	movs	r0, r3
    1d52:	f000 f96b 	bl	202c <uart_is_uartNo>
    1d56:	1e03      	subs	r3, r0, #0
    1d58:	d101      	bne.n	1d5e <uart_reN+0x2e>
E:\2017-2018\03_Graduation Project\04_Software\04_wangshi\03_UpdateSoftware-180625\01_UEBootloader\KL36_BootLoader-180621\Debug/../03_MCU/MCU_drivers/uart/uart.c:338
    {
        return 0;
    1d5a:	2300      	movs	r3, #0
    1d5c:	e02e      	b.n	1dbc <uart_reN+0x8c>
E:\2017-2018\03_Graduation Project\04_Software\04_wangshi\03_UpdateSoftware-180625\01_UEBootloader\KL36_BootLoader-180621\Debug/../03_MCU/MCU_drivers/uart/uart.c:342
    }

    //判断是否能接受数据
    for (i = 0; i < len && flag==1; i++)
    1d5e:	230e      	movs	r3, #14
    1d60:	18fb      	adds	r3, r7, r3
    1d62:	2200      	movs	r2, #0
    1d64:	801a      	strh	r2, [r3, #0]
    1d66:	e013      	b.n	1d90 <uart_reN+0x60>
E:\2017-2018\03_Graduation Project\04_Software\04_wangshi\03_UpdateSoftware-180625\01_UEBootloader\KL36_BootLoader-180621\Debug/../03_MCU/MCU_drivers/uart/uart.c:344 (discriminator 4)
    {
        buff[i] = uart_re1(uartNo, &flag); //接受数据
    1d68:	250e      	movs	r5, #14
    1d6a:	197b      	adds	r3, r7, r5
    1d6c:	881b      	ldrh	r3, [r3, #0]
    1d6e:	683a      	ldr	r2, [r7, #0]
    1d70:	18d4      	adds	r4, r2, r3
    1d72:	230d      	movs	r3, #13
    1d74:	18fa      	adds	r2, r7, r3
    1d76:	1dfb      	adds	r3, r7, #7
    1d78:	781b      	ldrb	r3, [r3, #0]
    1d7a:	0011      	movs	r1, r2
    1d7c:	0018      	movs	r0, r3
    1d7e:	f7ff ff75 	bl	1c6c <uart_re1>
    1d82:	0003      	movs	r3, r0
    1d84:	7023      	strb	r3, [r4, #0]
E:\2017-2018\03_Graduation Project\04_Software\04_wangshi\03_UpdateSoftware-180625\01_UEBootloader\KL36_BootLoader-180621\Debug/../03_MCU/MCU_drivers/uart/uart.c:342 (discriminator 4)
    for (i = 0; i < len && flag==1; i++)
    1d86:	197b      	adds	r3, r7, r5
    1d88:	881a      	ldrh	r2, [r3, #0]
    1d8a:	197b      	adds	r3, r7, r5
    1d8c:	3201      	adds	r2, #1
    1d8e:	801a      	strh	r2, [r3, #0]
E:\2017-2018\03_Graduation Project\04_Software\04_wangshi\03_UpdateSoftware-180625\01_UEBootloader\KL36_BootLoader-180621\Debug/../03_MCU/MCU_drivers/uart/uart.c:342 (discriminator 1)
    1d90:	230e      	movs	r3, #14
    1d92:	18fa      	adds	r2, r7, r3
    1d94:	1d3b      	adds	r3, r7, #4
    1d96:	8812      	ldrh	r2, [r2, #0]
    1d98:	881b      	ldrh	r3, [r3, #0]
    1d9a:	429a      	cmp	r2, r3
    1d9c:	d204      	bcs.n	1da8 <uart_reN+0x78>
E:\2017-2018\03_Graduation Project\04_Software\04_wangshi\03_UpdateSoftware-180625\01_UEBootloader\KL36_BootLoader-180621\Debug/../03_MCU/MCU_drivers/uart/uart.c:342 (discriminator 3)
    1d9e:	230d      	movs	r3, #13
    1da0:	18fb      	adds	r3, r7, r3
    1da2:	781b      	ldrb	r3, [r3, #0]
    1da4:	2b01      	cmp	r3, #1
    1da6:	d0df      	beq.n	1d68 <uart_reN+0x38>
E:\2017-2018\03_Graduation Project\04_Software\04_wangshi\03_UpdateSoftware-180625\01_UEBootloader\KL36_BootLoader-180621\Debug/../03_MCU/MCU_drivers/uart/uart.c:346
    }
    if (i < len)
    1da8:	230e      	movs	r3, #14
    1daa:	18fa      	adds	r2, r7, r3
    1dac:	1d3b      	adds	r3, r7, #4
    1dae:	8812      	ldrh	r2, [r2, #0]
    1db0:	881b      	ldrh	r3, [r3, #0]
    1db2:	429a      	cmp	r2, r3
    1db4:	d201      	bcs.n	1dba <uart_reN+0x8a>
E:\2017-2018\03_Graduation Project\04_Software\04_wangshi\03_UpdateSoftware-180625\01_UEBootloader\KL36_BootLoader-180621\Debug/../03_MCU/MCU_drivers/uart/uart.c:347
        return 0; //接收失败
    1db6:	2300      	movs	r3, #0
    1db8:	e000      	b.n	1dbc <uart_reN+0x8c>
E:\2017-2018\03_Graduation Project\04_Software\04_wangshi\03_UpdateSoftware-180625\01_UEBootloader\KL36_BootLoader-180621\Debug/../03_MCU/MCU_drivers/uart/uart.c:349
    else
        return 1; //接收成功
    1dba:	2301      	movs	r3, #1
E:\2017-2018\03_Graduation Project\04_Software\04_wangshi\03_UpdateSoftware-180625\01_UEBootloader\KL36_BootLoader-180621\Debug/../03_MCU/MCU_drivers/uart/uart.c:350 (discriminator 1)
}
    1dbc:	0018      	movs	r0, r3
    1dbe:	46bd      	mov	sp, r7
    1dc0:	b004      	add	sp, #16
    1dc2:	bdb0      	pop	{r4, r5, r7, pc}

00001dc4 <uart_enable_re_int>:
uart_enable_re_int():
E:\2017-2018\03_Graduation Project\04_Software\04_wangshi\03_UpdateSoftware-180625\01_UEBootloader\KL36_BootLoader-180621\Debug/../03_MCU/MCU_drivers/uart/uart.c:359
//参数说明：uartNo: 串口号:UART_0、UART_1、UART_2 
//函数返回：无
//功能概要：开串口接收中断
//======================================================================
void uart_enable_re_int(uint_8 uartNo)
{
    1dc4:	b580      	push	{r7, lr}
    1dc6:	b084      	sub	sp, #16
    1dc8:	af00      	add	r7, sp, #0
    1dca:	0002      	movs	r2, r0
    1dcc:	1dfb      	adds	r3, r7, #7
    1dce:	701a      	strb	r2, [r3, #0]
E:\2017-2018\03_Graduation Project\04_Software\04_wangshi\03_UpdateSoftware-180625\01_UEBootloader\KL36_BootLoader-180621\Debug/../03_MCU/MCU_drivers/uart/uart.c:360
    UART0_MemMapPtr uartch_0=UART0_BASE_PTR; //获取UART0基地址
    1dd0:	4b18      	ldr	r3, [pc, #96]	; (1e34 <uart_enable_re_int+0x70>)
    1dd2:	60fb      	str	r3, [r7, #12]
E:\2017-2018\03_Graduation Project\04_Software\04_wangshi\03_UpdateSoftware-180625\01_UEBootloader\KL36_BootLoader-180621\Debug/../03_MCU/MCU_drivers/uart/uart.c:361
    UART_MemMapPtr uartch_1_2 = UART_ARR[uartNo-1]; //获取UART1或者2基地址
    1dd4:	1dfb      	adds	r3, r7, #7
    1dd6:	781b      	ldrb	r3, [r3, #0]
    1dd8:	1e5a      	subs	r2, r3, #1
    1dda:	4b17      	ldr	r3, [pc, #92]	; (1e38 <uart_enable_re_int+0x74>)
    1ddc:	0092      	lsls	r2, r2, #2
    1dde:	58d3      	ldr	r3, [r2, r3]
    1de0:	60bb      	str	r3, [r7, #8]
E:\2017-2018\03_Graduation Project\04_Software\04_wangshi\03_UpdateSoftware-180625\01_UEBootloader\KL36_BootLoader-180621\Debug/../03_MCU/MCU_drivers/uart/uart.c:364

    //判断传入串口号参数是否有误，有误直接退出
    if(!uart_is_uartNo(uartNo))
    1de2:	1dfb      	adds	r3, r7, #7
    1de4:	781b      	ldrb	r3, [r3, #0]
    1de6:	0018      	movs	r0, r3
    1de8:	f000 f920 	bl	202c <uart_is_uartNo>
    1dec:	1e03      	subs	r3, r0, #0
    1dee:	d01c      	beq.n	1e2a <uart_enable_re_int+0x66>
E:\2017-2018\03_Graduation Project\04_Software\04_wangshi\03_UpdateSoftware-180625\01_UEBootloader\KL36_BootLoader-180621\Debug/../03_MCU/MCU_drivers/uart/uart.c:369
    {
        return;
    }

    if(0 == uartNo)
    1df0:	1dfb      	adds	r3, r7, #7
    1df2:	781b      	ldrb	r3, [r3, #0]
    1df4:	2b00      	cmp	r3, #0
    1df6:	d108      	bne.n	1e0a <uart_enable_re_int+0x46>
E:\2017-2018\03_Graduation Project\04_Software\04_wangshi\03_UpdateSoftware-180625\01_UEBootloader\KL36_BootLoader-180621\Debug/../03_MCU/MCU_drivers/uart/uart.c:370
        UART0_C2_REG(uartch_0) |= UART0_C2_RIE_MASK;    //开放UART接收中断
    1df8:	68fb      	ldr	r3, [r7, #12]
    1dfa:	78db      	ldrb	r3, [r3, #3]
    1dfc:	b2db      	uxtb	r3, r3
    1dfe:	2220      	movs	r2, #32
    1e00:	4313      	orrs	r3, r2
    1e02:	b2da      	uxtb	r2, r3
    1e04:	68fb      	ldr	r3, [r7, #12]
    1e06:	70da      	strb	r2, [r3, #3]
    1e08:	e007      	b.n	1e1a <uart_enable_re_int+0x56>
E:\2017-2018\03_Graduation Project\04_Software\04_wangshi\03_UpdateSoftware-180625\01_UEBootloader\KL36_BootLoader-180621\Debug/../03_MCU/MCU_drivers/uart/uart.c:372
    else 
        UART_C2_REG(uartch_1_2) |= UART_C2_RIE_MASK;    //开放UART接收中断
    1e0a:	68bb      	ldr	r3, [r7, #8]
    1e0c:	78db      	ldrb	r3, [r3, #3]
    1e0e:	b2db      	uxtb	r3, r3
    1e10:	2220      	movs	r2, #32
    1e12:	4313      	orrs	r3, r2
    1e14:	b2da      	uxtb	r2, r3
    1e16:	68bb      	ldr	r3, [r7, #8]
    1e18:	70da      	strb	r2, [r3, #3]
E:\2017-2018\03_Graduation Project\04_Software\04_wangshi\03_UpdateSoftware-180625\01_UEBootloader\KL36_BootLoader-180621\Debug/../03_MCU/MCU_drivers/uart/uart.c:373
    NVIC_EnableIRQ(table_irq_uart[uartNo]);    //开中断控制器IRQ中断
    1e1a:	1dfb      	adds	r3, r7, #7
    1e1c:	781b      	ldrb	r3, [r3, #0]
    1e1e:	4a07      	ldr	r2, [pc, #28]	; (1e3c <uart_enable_re_int+0x78>)
    1e20:	56d3      	ldrsb	r3, [r2, r3]
    1e22:	0018      	movs	r0, r3
    1e24:	f7ff fcd2 	bl	17cc <NVIC_EnableIRQ>
    1e28:	e000      	b.n	1e2c <uart_enable_re_int+0x68>
E:\2017-2018\03_Graduation Project\04_Software\04_wangshi\03_UpdateSoftware-180625\01_UEBootloader\KL36_BootLoader-180621\Debug/../03_MCU/MCU_drivers/uart/uart.c:366
        return;
    1e2a:	46c0      	nop			; (mov r8, r8)
E:\2017-2018\03_Graduation Project\04_Software\04_wangshi\03_UpdateSoftware-180625\01_UEBootloader\KL36_BootLoader-180621\Debug/../03_MCU/MCU_drivers/uart/uart.c:374
}
    1e2c:	46bd      	mov	sp, r7
    1e2e:	b004      	add	sp, #16
    1e30:	bd80      	pop	{r7, pc}
    1e32:	46c0      	nop			; (mov r8, r8)
    1e34:	4006a000 	.word	0x4006a000
    1e38:	00002c88 	.word	0x00002c88
    1e3c:	1ffff804 	.word	0x1ffff804

00001e40 <uart_disable_re_int>:
uart_disable_re_int():
E:\2017-2018\03_Graduation Project\04_Software\04_wangshi\03_UpdateSoftware-180625\01_UEBootloader\KL36_BootLoader-180621\Debug/../03_MCU/MCU_drivers/uart/uart.c:383
//参数说明：uartNo: 串口号 :UART_0、UART_1、UART_2 
//函数返回：无
//功能概要：关串口接收中断
//======================================================================
void uart_disable_re_int(uint_8 uartNo)
{
    1e40:	b580      	push	{r7, lr}
    1e42:	b084      	sub	sp, #16
    1e44:	af00      	add	r7, sp, #0
    1e46:	0002      	movs	r2, r0
    1e48:	1dfb      	adds	r3, r7, #7
    1e4a:	701a      	strb	r2, [r3, #0]
E:\2017-2018\03_Graduation Project\04_Software\04_wangshi\03_UpdateSoftware-180625\01_UEBootloader\KL36_BootLoader-180621\Debug/../03_MCU/MCU_drivers/uart/uart.c:384
    UART0_MemMapPtr uartch_0 = UART0_BASE_PTR; //获取UART0基地址
    1e4c:	4b18      	ldr	r3, [pc, #96]	; (1eb0 <uart_disable_re_int+0x70>)
    1e4e:	60fb      	str	r3, [r7, #12]
E:\2017-2018\03_Graduation Project\04_Software\04_wangshi\03_UpdateSoftware-180625\01_UEBootloader\KL36_BootLoader-180621\Debug/../03_MCU/MCU_drivers/uart/uart.c:385
    UART_MemMapPtr uartch_1_2 = UART_ARR[uartNo-1]; //获取UART1或者2基地址
    1e50:	1dfb      	adds	r3, r7, #7
    1e52:	781b      	ldrb	r3, [r3, #0]
    1e54:	1e5a      	subs	r2, r3, #1
    1e56:	4b17      	ldr	r3, [pc, #92]	; (1eb4 <uart_disable_re_int+0x74>)
    1e58:	0092      	lsls	r2, r2, #2
    1e5a:	58d3      	ldr	r3, [r2, r3]
    1e5c:	60bb      	str	r3, [r7, #8]
E:\2017-2018\03_Graduation Project\04_Software\04_wangshi\03_UpdateSoftware-180625\01_UEBootloader\KL36_BootLoader-180621\Debug/../03_MCU/MCU_drivers/uart/uart.c:388

    //判断传入串口号参数是否有误，有误直接退出
    if(!uart_is_uartNo(uartNo))
    1e5e:	1dfb      	adds	r3, r7, #7
    1e60:	781b      	ldrb	r3, [r3, #0]
    1e62:	0018      	movs	r0, r3
    1e64:	f000 f8e2 	bl	202c <uart_is_uartNo>
    1e68:	1e03      	subs	r3, r0, #0
    1e6a:	d01c      	beq.n	1ea6 <uart_disable_re_int+0x66>
E:\2017-2018\03_Graduation Project\04_Software\04_wangshi\03_UpdateSoftware-180625\01_UEBootloader\KL36_BootLoader-180621\Debug/../03_MCU/MCU_drivers/uart/uart.c:393
    {
        return;
    }

    if(0==uartNo)
    1e6c:	1dfb      	adds	r3, r7, #7
    1e6e:	781b      	ldrb	r3, [r3, #0]
    1e70:	2b00      	cmp	r3, #0
    1e72:	d108      	bne.n	1e86 <uart_disable_re_int+0x46>
E:\2017-2018\03_Graduation Project\04_Software\04_wangshi\03_UpdateSoftware-180625\01_UEBootloader\KL36_BootLoader-180621\Debug/../03_MCU/MCU_drivers/uart/uart.c:394
        UART0_C2_REG(uartch_0) &= ~UART0_C2_RIE_MASK;    //禁止UART接收中断
    1e74:	68fb      	ldr	r3, [r7, #12]
    1e76:	78db      	ldrb	r3, [r3, #3]
    1e78:	b2db      	uxtb	r3, r3
    1e7a:	2220      	movs	r2, #32
    1e7c:	4393      	bics	r3, r2
    1e7e:	b2da      	uxtb	r2, r3
    1e80:	68fb      	ldr	r3, [r7, #12]
    1e82:	70da      	strb	r2, [r3, #3]
    1e84:	e007      	b.n	1e96 <uart_disable_re_int+0x56>
E:\2017-2018\03_Graduation Project\04_Software\04_wangshi\03_UpdateSoftware-180625\01_UEBootloader\KL36_BootLoader-180621\Debug/../03_MCU/MCU_drivers/uart/uart.c:396
    else
        UART_C2_REG(uartch_1_2) &= ~UART_C2_RIE_MASK;    //禁止UART接收中断
    1e86:	68bb      	ldr	r3, [r7, #8]
    1e88:	78db      	ldrb	r3, [r3, #3]
    1e8a:	b2db      	uxtb	r3, r3
    1e8c:	2220      	movs	r2, #32
    1e8e:	4393      	bics	r3, r2
    1e90:	b2da      	uxtb	r2, r3
    1e92:	68bb      	ldr	r3, [r7, #8]
    1e94:	70da      	strb	r2, [r3, #3]
E:\2017-2018\03_Graduation Project\04_Software\04_wangshi\03_UpdateSoftware-180625\01_UEBootloader\KL36_BootLoader-180621\Debug/../03_MCU/MCU_drivers/uart/uart.c:397
    NVIC_DisableIRQ(table_irq_uart[uartNo]);
    1e96:	1dfb      	adds	r3, r7, #7
    1e98:	781b      	ldrb	r3, [r3, #0]
    1e9a:	4a07      	ldr	r2, [pc, #28]	; (1eb8 <uart_disable_re_int+0x78>)
    1e9c:	56d3      	ldrsb	r3, [r2, r3]
    1e9e:	0018      	movs	r0, r3
    1ea0:	f7ff fcaa 	bl	17f8 <NVIC_DisableIRQ>
    1ea4:	e000      	b.n	1ea8 <uart_disable_re_int+0x68>
E:\2017-2018\03_Graduation Project\04_Software\04_wangshi\03_UpdateSoftware-180625\01_UEBootloader\KL36_BootLoader-180621\Debug/../03_MCU/MCU_drivers/uart/uart.c:390
        return;
    1ea6:	46c0      	nop			; (mov r8, r8)
E:\2017-2018\03_Graduation Project\04_Software\04_wangshi\03_UpdateSoftware-180625\01_UEBootloader\KL36_BootLoader-180621\Debug/../03_MCU/MCU_drivers/uart/uart.c:398
}
    1ea8:	46bd      	mov	sp, r7
    1eaa:	b004      	add	sp, #16
    1eac:	bd80      	pop	{r7, pc}
    1eae:	46c0      	nop			; (mov r8, r8)
    1eb0:	4006a000 	.word	0x4006a000
    1eb4:	00002c88 	.word	0x00002c88
    1eb8:	1ffff804 	.word	0x1ffff804

00001ebc <uart_get_re_int>:
uart_get_re_int():
E:\2017-2018\03_Graduation Project\04_Software\04_wangshi\03_UpdateSoftware-180625\01_UEBootloader\KL36_BootLoader-180621\Debug/../03_MCU/MCU_drivers/uart/uart.c:407
//参数说明：uartNo: 串口号 :UART_0、UART_1、UART_2
//函数返回：接收中断标志 1=有接收中断;0=无接收中断
//功能概要：获取串口接收中断标志,同时禁用发送中断
//======================================================================
uint_8 uart_get_re_int(uint_8 uartNo)
{
    1ebc:	b580      	push	{r7, lr}
    1ebe:	b086      	sub	sp, #24
    1ec0:	af00      	add	r7, sp, #0
    1ec2:	0002      	movs	r2, r0
    1ec4:	1dfb      	adds	r3, r7, #7
    1ec6:	701a      	strb	r2, [r3, #0]
E:\2017-2018\03_Graduation Project\04_Software\04_wangshi\03_UpdateSoftware-180625\01_UEBootloader\KL36_BootLoader-180621\Debug/../03_MCU/MCU_drivers/uart/uart.c:409
    uint_8 flag;
    UART0_MemMapPtr uartch_0=UART0_BASE_PTR; //获取UART0基地址
    1ec8:	4b2b      	ldr	r3, [pc, #172]	; (1f78 <uart_get_re_int+0xbc>)
    1eca:	617b      	str	r3, [r7, #20]
E:\2017-2018\03_Graduation Project\04_Software\04_wangshi\03_UpdateSoftware-180625\01_UEBootloader\KL36_BootLoader-180621\Debug/../03_MCU/MCU_drivers/uart/uart.c:410
    UART_MemMapPtr uartch_1_2 = UART_ARR[uartNo-1]; //获取UART1或者2基地址
    1ecc:	1dfb      	adds	r3, r7, #7
    1ece:	781b      	ldrb	r3, [r3, #0]
    1ed0:	1e5a      	subs	r2, r3, #1
    1ed2:	4b2a      	ldr	r3, [pc, #168]	; (1f7c <uart_get_re_int+0xc0>)
    1ed4:	0092      	lsls	r2, r2, #2
    1ed6:	58d3      	ldr	r3, [r2, r3]
    1ed8:	613b      	str	r3, [r7, #16]
E:\2017-2018\03_Graduation Project\04_Software\04_wangshi\03_UpdateSoftware-180625\01_UEBootloader\KL36_BootLoader-180621\Debug/../03_MCU/MCU_drivers/uart/uart.c:413

    //判断传入串口号参数是否有误，有误直接退出
    if(!uart_is_uartNo(uartNo))
    1eda:	1dfb      	adds	r3, r7, #7
    1edc:	781b      	ldrb	r3, [r3, #0]
    1ede:	0018      	movs	r0, r3
    1ee0:	f000 f8a4 	bl	202c <uart_is_uartNo>
    1ee4:	1e03      	subs	r3, r0, #0
    1ee6:	d101      	bne.n	1eec <uart_get_re_int+0x30>
E:\2017-2018\03_Graduation Project\04_Software\04_wangshi\03_UpdateSoftware-180625\01_UEBootloader\KL36_BootLoader-180621\Debug/../03_MCU/MCU_drivers/uart/uart.c:415
    {
        return 0;
    1ee8:	2300      	movs	r3, #0
    1eea:	e040      	b.n	1f6e <uart_get_re_int+0xb2>
E:\2017-2018\03_Graduation Project\04_Software\04_wangshi\03_UpdateSoftware-180625\01_UEBootloader\KL36_BootLoader-180621\Debug/../03_MCU/MCU_drivers/uart/uart.c:418
    }

    if(0==uartNo)
    1eec:	1dfb      	adds	r3, r7, #7
    1eee:	781b      	ldrb	r3, [r3, #0]
    1ef0:	2b00      	cmp	r3, #0
    1ef2:	d11e      	bne.n	1f32 <uart_get_re_int+0x76>
E:\2017-2018\03_Graduation Project\04_Software\04_wangshi\03_UpdateSoftware-180625\01_UEBootloader\KL36_BootLoader-180621\Debug/../03_MCU/MCU_drivers/uart/uart.c:421
    {
        //禁用串口发送中断，防止误中断
        UART0_C2_REG(uartch_0) &= (~UART0_C2_TIE_MASK);
    1ef4:	697b      	ldr	r3, [r7, #20]
    1ef6:	78db      	ldrb	r3, [r3, #3]
    1ef8:	b2db      	uxtb	r3, r3
    1efa:	227f      	movs	r2, #127	; 0x7f
    1efc:	4013      	ands	r3, r2
    1efe:	b2da      	uxtb	r2, r3
    1f00:	697b      	ldr	r3, [r7, #20]
    1f02:	70da      	strb	r2, [r3, #3]
E:\2017-2018\03_Graduation Project\04_Software\04_wangshi\03_UpdateSoftware-180625\01_UEBootloader\KL36_BootLoader-180621\Debug/../03_MCU/MCU_drivers/uart/uart.c:423
        //获取接收中断标志，需同时判断RDRF和RIE
        flag= UART0_S1_REG(uartch_0) & (UART0_S1_RDRF_MASK);
    1f04:	697b      	ldr	r3, [r7, #20]
    1f06:	791b      	ldrb	r3, [r3, #4]
    1f08:	b2da      	uxtb	r2, r3
    1f0a:	200f      	movs	r0, #15
    1f0c:	183b      	adds	r3, r7, r0
    1f0e:	2120      	movs	r1, #32
    1f10:	400a      	ands	r2, r1
    1f12:	701a      	strb	r2, [r3, #0]
E:\2017-2018\03_Graduation Project\04_Software\04_wangshi\03_UpdateSoftware-180625\01_UEBootloader\KL36_BootLoader-180621\Debug/../03_MCU/MCU_drivers/uart/uart.c:425
        return(BGET(UART0_S1_RDRF_SHIFT,flag)
                & BGET(UART0_C2_RIE_SHIFT,UART0_C2_REG(uartch_0)));
    1f14:	183b      	adds	r3, r7, r0
    1f16:	781b      	ldrb	r3, [r3, #0]
    1f18:	095b      	lsrs	r3, r3, #5
    1f1a:	b2db      	uxtb	r3, r3
    1f1c:	697a      	ldr	r2, [r7, #20]
    1f1e:	78d2      	ldrb	r2, [r2, #3]
    1f20:	b2d2      	uxtb	r2, r2
    1f22:	0952      	lsrs	r2, r2, #5
    1f24:	b2d2      	uxtb	r2, r2
    1f26:	4013      	ands	r3, r2
    1f28:	b2db      	uxtb	r3, r3
    1f2a:	2201      	movs	r2, #1
    1f2c:	4013      	ands	r3, r2
    1f2e:	b2db      	uxtb	r3, r3
    1f30:	e01d      	b.n	1f6e <uart_get_re_int+0xb2>
E:\2017-2018\03_Graduation Project\04_Software\04_wangshi\03_UpdateSoftware-180625\01_UEBootloader\KL36_BootLoader-180621\Debug/../03_MCU/MCU_drivers/uart/uart.c:430
    }
    else
    {
        //禁用串口发送中断，防止误中断
        UART_C2_REG(uartch_1_2) &= (~UART_C2_TIE_MASK);
    1f32:	693b      	ldr	r3, [r7, #16]
    1f34:	78db      	ldrb	r3, [r3, #3]
    1f36:	b2db      	uxtb	r3, r3
    1f38:	227f      	movs	r2, #127	; 0x7f
    1f3a:	4013      	ands	r3, r2
    1f3c:	b2da      	uxtb	r2, r3
    1f3e:	693b      	ldr	r3, [r7, #16]
    1f40:	70da      	strb	r2, [r3, #3]
E:\2017-2018\03_Graduation Project\04_Software\04_wangshi\03_UpdateSoftware-180625\01_UEBootloader\KL36_BootLoader-180621\Debug/../03_MCU/MCU_drivers/uart/uart.c:432
        //获取接收中断标志，需同时判断RDRF和RIE
        flag= UART_S1_REG(uartch_1_2) & (UART_S1_RDRF_MASK);
    1f42:	693b      	ldr	r3, [r7, #16]
    1f44:	791b      	ldrb	r3, [r3, #4]
    1f46:	b2da      	uxtb	r2, r3
    1f48:	200f      	movs	r0, #15
    1f4a:	183b      	adds	r3, r7, r0
    1f4c:	2120      	movs	r1, #32
    1f4e:	400a      	ands	r2, r1
    1f50:	701a      	strb	r2, [r3, #0]
E:\2017-2018\03_Graduation Project\04_Software\04_wangshi\03_UpdateSoftware-180625\01_UEBootloader\KL36_BootLoader-180621\Debug/../03_MCU/MCU_drivers/uart/uart.c:434
        return(BGET(UART_S1_RDRF_SHIFT,flag)
                & BGET(UART_C2_RIE_SHIFT,UART_C2_REG(uartch_1_2)));
    1f52:	183b      	adds	r3, r7, r0
    1f54:	781b      	ldrb	r3, [r3, #0]
    1f56:	095b      	lsrs	r3, r3, #5
    1f58:	b2db      	uxtb	r3, r3
    1f5a:	693a      	ldr	r2, [r7, #16]
    1f5c:	78d2      	ldrb	r2, [r2, #3]
    1f5e:	b2d2      	uxtb	r2, r2
    1f60:	0952      	lsrs	r2, r2, #5
    1f62:	b2d2      	uxtb	r2, r2
    1f64:	4013      	ands	r3, r2
    1f66:	b2db      	uxtb	r3, r3
    1f68:	2201      	movs	r2, #1
    1f6a:	4013      	ands	r3, r2
    1f6c:	b2db      	uxtb	r3, r3
E:\2017-2018\03_Graduation Project\04_Software\04_wangshi\03_UpdateSoftware-180625\01_UEBootloader\KL36_BootLoader-180621\Debug/../03_MCU/MCU_drivers/uart/uart.c:436
    }
}
    1f6e:	0018      	movs	r0, r3
    1f70:	46bd      	mov	sp, r7
    1f72:	b006      	add	sp, #24
    1f74:	bd80      	pop	{r7, pc}
    1f76:	46c0      	nop			; (mov r8, r8)
    1f78:	4006a000 	.word	0x4006a000
    1f7c:	00002c88 	.word	0x00002c88

00001f80 <uart_deint>:
uart_deint():
E:\2017-2018\03_Graduation Project\04_Software\04_wangshi\03_UpdateSoftware-180625\01_UEBootloader\KL36_BootLoader-180621\Debug/../03_MCU/MCU_drivers/uart/uart.c:445
//参数说明：uartNo: 串口号 :UART_0、UART_1、UART_2
//函数返回：无
//功能概要：uart反初始化
//======================================================================
void uart_deint(uint_8 uartNo)
{
    1f80:	b580      	push	{r7, lr}
    1f82:	b084      	sub	sp, #16
    1f84:	af00      	add	r7, sp, #0
    1f86:	0002      	movs	r2, r0
    1f88:	1dfb      	adds	r3, r7, #7
    1f8a:	701a      	strb	r2, [r3, #0]
E:\2017-2018\03_Graduation Project\04_Software\04_wangshi\03_UpdateSoftware-180625\01_UEBootloader\KL36_BootLoader-180621\Debug/../03_MCU/MCU_drivers/uart/uart.c:446
	UART0_MemMapPtr uartch_0=UART0_BASE_PTR;//uartch_0为UART0_MemMapPtr类型指针
    1f8c:	4b20      	ldr	r3, [pc, #128]	; (2010 <uart_deint+0x90>)
    1f8e:	60fb      	str	r3, [r7, #12]
E:\2017-2018\03_Graduation Project\04_Software\04_wangshi\03_UpdateSoftware-180625\01_UEBootloader\KL36_BootLoader-180621\Debug/../03_MCU/MCU_drivers/uart/uart.c:449
	UART_MemMapPtr uartch_1_2;    //uartch_1_2为UART_MemMapPtr类型指针

	switch(uartNo)
    1f90:	1dfb      	adds	r3, r7, #7
    1f92:	781b      	ldrb	r3, [r3, #0]
    1f94:	2b01      	cmp	r3, #1
    1f96:	d016      	beq.n	1fc6 <uart_deint+0x46>
    1f98:	2b02      	cmp	r3, #2
    1f9a:	d024      	beq.n	1fe6 <uart_deint+0x66>
    1f9c:	2b00      	cmp	r3, #0
    1f9e:	d000      	beq.n	1fa2 <uart_deint+0x22>
E:\2017-2018\03_Graduation Project\04_Software\04_wangshi\03_UpdateSoftware-180625\01_UEBootloader\KL36_BootLoader-180621\Debug/../03_MCU/MCU_drivers/uart/uart.c:525
#endif
		SIM_SCGC4 &= ~SIM_SCGC4_UART2_MASK;//启动串口2时钟

		break;
	default:
		break;  //传参错误，返回
    1fa0:	e031      	b.n	2006 <uart_deint+0x86>
E:\2017-2018\03_Graduation Project\04_Software\04_wangshi\03_UpdateSoftware-180625\01_UEBootloader\KL36_BootLoader-180621\Debug/../03_MCU/MCU_drivers/uart/uart.c:456
			PORTE_PCR20 |= PORT_PCR_MUX(0x0);    //使能UART0_TXD
    1fa2:	4a1c      	ldr	r2, [pc, #112]	; (2014 <uart_deint+0x94>)
    1fa4:	4b1b      	ldr	r3, [pc, #108]	; (2014 <uart_deint+0x94>)
    1fa6:	6d12      	ldr	r2, [r2, #80]	; 0x50
    1fa8:	651a      	str	r2, [r3, #80]	; 0x50
E:\2017-2018\03_Graduation Project\04_Software\04_wangshi\03_UpdateSoftware-180625\01_UEBootloader\KL36_BootLoader-180621\Debug/../03_MCU/MCU_drivers/uart/uart.c:457
			PORTE_PCR21 |= PORT_PCR_MUX(0x0);    //使能UART0_RXD
    1faa:	4a1a      	ldr	r2, [pc, #104]	; (2014 <uart_deint+0x94>)
    1fac:	4b19      	ldr	r3, [pc, #100]	; (2014 <uart_deint+0x94>)
    1fae:	6d52      	ldr	r2, [r2, #84]	; 0x54
    1fb0:	655a      	str	r2, [r3, #84]	; 0x54
E:\2017-2018\03_Graduation Project\04_Software\04_wangshi\03_UpdateSoftware-180625\01_UEBootloader\KL36_BootLoader-180621\Debug/../03_MCU/MCU_drivers/uart/uart.c:458
			break;
    1fb2:	46c0      	nop			; (mov r8, r8)
E:\2017-2018\03_Graduation Project\04_Software\04_wangshi\03_UpdateSoftware-180625\01_UEBootloader\KL36_BootLoader-180621\Debug/../03_MCU/MCU_drivers/uart/uart.c:474
		SIM_SCGC4 &= ~SIM_SCGC4_UART0_MASK;    //关闭串口0时钟
    1fb4:	4a18      	ldr	r2, [pc, #96]	; (2018 <uart_deint+0x98>)
    1fb6:	4b19      	ldr	r3, [pc, #100]	; (201c <uart_deint+0x9c>)
    1fb8:	58d3      	ldr	r3, [r2, r3]
    1fba:	4917      	ldr	r1, [pc, #92]	; (2018 <uart_deint+0x98>)
    1fbc:	4a18      	ldr	r2, [pc, #96]	; (2020 <uart_deint+0xa0>)
    1fbe:	4013      	ands	r3, r2
    1fc0:	4a16      	ldr	r2, [pc, #88]	; (201c <uart_deint+0x9c>)
    1fc2:	508b      	str	r3, [r1, r2]
E:\2017-2018\03_Graduation Project\04_Software\04_wangshi\03_UpdateSoftware-180625\01_UEBootloader\KL36_BootLoader-180621\Debug/../03_MCU/MCU_drivers/uart/uart.c:476
		break;
    1fc4:	e01f      	b.n	2006 <uart_deint+0x86>
E:\2017-2018\03_Graduation Project\04_Software\04_wangshi\03_UpdateSoftware-180625\01_UEBootloader\KL36_BootLoader-180621\Debug/../03_MCU/MCU_drivers/uart/uart.c:482
			PORTE_PCR0 = PORT_PCR_MUX(0x0);    //使能UART1_TXD
    1fc6:	4b13      	ldr	r3, [pc, #76]	; (2014 <uart_deint+0x94>)
    1fc8:	2200      	movs	r2, #0
    1fca:	601a      	str	r2, [r3, #0]
E:\2017-2018\03_Graduation Project\04_Software\04_wangshi\03_UpdateSoftware-180625\01_UEBootloader\KL36_BootLoader-180621\Debug/../03_MCU/MCU_drivers/uart/uart.c:483
			PORTE_PCR1 = PORT_PCR_MUX(0x0);    //使能UART1_RXD
    1fcc:	4b11      	ldr	r3, [pc, #68]	; (2014 <uart_deint+0x94>)
    1fce:	2200      	movs	r2, #0
    1fd0:	605a      	str	r2, [r3, #4]
E:\2017-2018\03_Graduation Project\04_Software\04_wangshi\03_UpdateSoftware-180625\01_UEBootloader\KL36_BootLoader-180621\Debug/../03_MCU/MCU_drivers/uart/uart.c:484
			break;
    1fd2:	46c0      	nop			; (mov r8, r8)
E:\2017-2018\03_Graduation Project\04_Software\04_wangshi\03_UpdateSoftware-180625\01_UEBootloader\KL36_BootLoader-180621\Debug/../03_MCU/MCU_drivers/uart/uart.c:496
		SIM_SCGC4 &= ~SIM_SCGC4_UART1_MASK; //启动串口1时钟
    1fd4:	4a10      	ldr	r2, [pc, #64]	; (2018 <uart_deint+0x98>)
    1fd6:	4b11      	ldr	r3, [pc, #68]	; (201c <uart_deint+0x9c>)
    1fd8:	58d3      	ldr	r3, [r2, r3]
    1fda:	490f      	ldr	r1, [pc, #60]	; (2018 <uart_deint+0x98>)
    1fdc:	4a11      	ldr	r2, [pc, #68]	; (2024 <uart_deint+0xa4>)
    1fde:	4013      	ands	r3, r2
    1fe0:	4a0e      	ldr	r2, [pc, #56]	; (201c <uart_deint+0x9c>)
    1fe2:	508b      	str	r3, [r1, r2]
E:\2017-2018\03_Graduation Project\04_Software\04_wangshi\03_UpdateSoftware-180625\01_UEBootloader\KL36_BootLoader-180621\Debug/../03_MCU/MCU_drivers/uart/uart.c:498
		break;
    1fe4:	e00f      	b.n	2006 <uart_deint+0x86>
E:\2017-2018\03_Graduation Project\04_Software\04_wangshi\03_UpdateSoftware-180625\01_UEBootloader\KL36_BootLoader-180621\Debug/../03_MCU/MCU_drivers/uart/uart.c:504
			PORTE_PCR16 = PORT_PCR_MUX(0x0); //使能UART2_TXD
    1fe6:	4b0b      	ldr	r3, [pc, #44]	; (2014 <uart_deint+0x94>)
    1fe8:	2200      	movs	r2, #0
    1fea:	641a      	str	r2, [r3, #64]	; 0x40
E:\2017-2018\03_Graduation Project\04_Software\04_wangshi\03_UpdateSoftware-180625\01_UEBootloader\KL36_BootLoader-180621\Debug/../03_MCU/MCU_drivers/uart/uart.c:505
			PORTE_PCR17 = PORT_PCR_MUX(0x0); //使能UART2_RXD
    1fec:	4b09      	ldr	r3, [pc, #36]	; (2014 <uart_deint+0x94>)
    1fee:	2200      	movs	r2, #0
    1ff0:	645a      	str	r2, [r3, #68]	; 0x44
E:\2017-2018\03_Graduation Project\04_Software\04_wangshi\03_UpdateSoftware-180625\01_UEBootloader\KL36_BootLoader-180621\Debug/../03_MCU/MCU_drivers/uart/uart.c:506
			break;
    1ff2:	46c0      	nop			; (mov r8, r8)
E:\2017-2018\03_Graduation Project\04_Software\04_wangshi\03_UpdateSoftware-180625\01_UEBootloader\KL36_BootLoader-180621\Debug/../03_MCU/MCU_drivers/uart/uart.c:521
		SIM_SCGC4 &= ~SIM_SCGC4_UART2_MASK;//启动串口2时钟
    1ff4:	4a08      	ldr	r2, [pc, #32]	; (2018 <uart_deint+0x98>)
    1ff6:	4b09      	ldr	r3, [pc, #36]	; (201c <uart_deint+0x9c>)
    1ff8:	58d3      	ldr	r3, [r2, r3]
    1ffa:	4907      	ldr	r1, [pc, #28]	; (2018 <uart_deint+0x98>)
    1ffc:	4a0a      	ldr	r2, [pc, #40]	; (2028 <uart_deint+0xa8>)
    1ffe:	4013      	ands	r3, r2
    2000:	4a06      	ldr	r2, [pc, #24]	; (201c <uart_deint+0x9c>)
    2002:	508b      	str	r3, [r1, r2]
E:\2017-2018\03_Graduation Project\04_Software\04_wangshi\03_UpdateSoftware-180625\01_UEBootloader\KL36_BootLoader-180621\Debug/../03_MCU/MCU_drivers/uart/uart.c:523
		break;
    2004:	46c0      	nop			; (mov r8, r8)
E:\2017-2018\03_Graduation Project\04_Software\04_wangshi\03_UpdateSoftware-180625\01_UEBootloader\KL36_BootLoader-180621\Debug/../03_MCU/MCU_drivers/uart/uart.c:527
	}
}
    2006:	46c0      	nop			; (mov r8, r8)
    2008:	46bd      	mov	sp, r7
    200a:	b004      	add	sp, #16
    200c:	bd80      	pop	{r7, pc}
    200e:	46c0      	nop			; (mov r8, r8)
    2010:	4006a000 	.word	0x4006a000
    2014:	4004d000 	.word	0x4004d000
    2018:	40047000 	.word	0x40047000
    201c:	00001034 	.word	0x00001034
    2020:	fffffbff 	.word	0xfffffbff
    2024:	fffff7ff 	.word	0xfffff7ff
    2028:	ffffefff 	.word	0xffffefff

0000202c <uart_is_uartNo>:
uart_is_uartNo():
E:\2017-2018\03_Graduation Project\04_Software\04_wangshi\03_UpdateSoftware-180625\01_UEBootloader\KL36_BootLoader-180621\Debug/../03_MCU/MCU_drivers/uart/uart.c:537
//函数返回：1:串口号在合理范围内，0：串口号不合理
//参数说明：串口号uartNo  :UART_0、UART_1、UART_2
//功能概要：为程序健壮性而判断uartNo是否在串口数字范围内
//=====================================================================
uint_8 uart_is_uartNo(uint_8 uartNo)
{
    202c:	b580      	push	{r7, lr}
    202e:	b082      	sub	sp, #8
    2030:	af00      	add	r7, sp, #0
    2032:	0002      	movs	r2, r0
    2034:	1dfb      	adds	r3, r7, #7
    2036:	701a      	strb	r2, [r3, #0]
E:\2017-2018\03_Graduation Project\04_Software\04_wangshi\03_UpdateSoftware-180625\01_UEBootloader\KL36_BootLoader-180621\Debug/../03_MCU/MCU_drivers/uart/uart.c:538
    if(uartNo < UART_0 || uartNo > UART_2)
    2038:	1dfb      	adds	r3, r7, #7
    203a:	781b      	ldrb	r3, [r3, #0]
    203c:	2b02      	cmp	r3, #2
    203e:	d901      	bls.n	2044 <uart_is_uartNo+0x18>
E:\2017-2018\03_Graduation Project\04_Software\04_wangshi\03_UpdateSoftware-180625\01_UEBootloader\KL36_BootLoader-180621\Debug/../03_MCU/MCU_drivers/uart/uart.c:539
        return 0;
    2040:	2300      	movs	r3, #0
    2042:	e000      	b.n	2046 <uart_is_uartNo+0x1a>
E:\2017-2018\03_Graduation Project\04_Software\04_wangshi\03_UpdateSoftware-180625\01_UEBootloader\KL36_BootLoader-180621\Debug/../03_MCU/MCU_drivers/uart/uart.c:541
    else
        return 1;
    2044:	2301      	movs	r3, #1
E:\2017-2018\03_Graduation Project\04_Software\04_wangshi\03_UpdateSoftware-180625\01_UEBootloader\KL36_BootLoader-180621\Debug/../03_MCU/MCU_drivers/uart/uart.c:542
}
    2046:	0018      	movs	r0, r3
    2048:	46bd      	mov	sp, r7
    204a:	b002      	add	sp, #8
    204c:	bd80      	pop	{r7, pc}
	...

00002050 <NVIC_SetPriority>:
NVIC_SetPriority():
E:\2017-2018\03_Graduation Project\04_Software\04_wangshi\03_UpdateSoftware-180625\01_UEBootloader\KL36_BootLoader-180621\02_Core/core_cm0plus.h:751
{
    2050:	b590      	push	{r4, r7, lr}
    2052:	b083      	sub	sp, #12
    2054:	af00      	add	r7, sp, #0
    2056:	0002      	movs	r2, r0
    2058:	6039      	str	r1, [r7, #0]
    205a:	1dfb      	adds	r3, r7, #7
    205c:	701a      	strb	r2, [r3, #0]
E:\2017-2018\03_Graduation Project\04_Software\04_wangshi\03_UpdateSoftware-180625\01_UEBootloader\KL36_BootLoader-180621\02_Core/core_cm0plus.h:752
  if((int32_t)(IRQn) < 0) {
    205e:	1dfb      	adds	r3, r7, #7
    2060:	781b      	ldrb	r3, [r3, #0]
    2062:	2b7f      	cmp	r3, #127	; 0x7f
    2064:	d932      	bls.n	20cc <NVIC_SetPriority+0x7c>
E:\2017-2018\03_Graduation Project\04_Software\04_wangshi\03_UpdateSoftware-180625\01_UEBootloader\KL36_BootLoader-180621\02_Core/core_cm0plus.h:753
    SCB->SHP[_SHP_IDX(IRQn)] = ((uint32_t)(SCB->SHP[_SHP_IDX(IRQn)] & ~(0xFFUL << _BIT_SHIFT(IRQn))) |
    2066:	4a2f      	ldr	r2, [pc, #188]	; (2124 <NVIC_SetPriority+0xd4>)
    2068:	1dfb      	adds	r3, r7, #7
    206a:	781b      	ldrb	r3, [r3, #0]
    206c:	0019      	movs	r1, r3
    206e:	230f      	movs	r3, #15
    2070:	400b      	ands	r3, r1
    2072:	3b08      	subs	r3, #8
    2074:	089b      	lsrs	r3, r3, #2
    2076:	3306      	adds	r3, #6
    2078:	009b      	lsls	r3, r3, #2
    207a:	18d3      	adds	r3, r2, r3
    207c:	3304      	adds	r3, #4
    207e:	681b      	ldr	r3, [r3, #0]
    2080:	1dfa      	adds	r2, r7, #7
    2082:	7812      	ldrb	r2, [r2, #0]
    2084:	0011      	movs	r1, r2
    2086:	2203      	movs	r2, #3
    2088:	400a      	ands	r2, r1
    208a:	00d2      	lsls	r2, r2, #3
    208c:	21ff      	movs	r1, #255	; 0xff
    208e:	4091      	lsls	r1, r2
    2090:	000a      	movs	r2, r1
    2092:	43d2      	mvns	r2, r2
    2094:	401a      	ands	r2, r3
    2096:	0011      	movs	r1, r2
E:\2017-2018\03_Graduation Project\04_Software\04_wangshi\03_UpdateSoftware-180625\01_UEBootloader\KL36_BootLoader-180621\02_Core/core_cm0plus.h:754
       (((priority << (8 - __NVIC_PRIO_BITS)) & (uint32_t)0xFFUL) << _BIT_SHIFT(IRQn)));
    2098:	683b      	ldr	r3, [r7, #0]
    209a:	019b      	lsls	r3, r3, #6
    209c:	22ff      	movs	r2, #255	; 0xff
    209e:	401a      	ands	r2, r3
    20a0:	1dfb      	adds	r3, r7, #7
    20a2:	781b      	ldrb	r3, [r3, #0]
    20a4:	0018      	movs	r0, r3
    20a6:	2303      	movs	r3, #3
    20a8:	4003      	ands	r3, r0
    20aa:	00db      	lsls	r3, r3, #3
    20ac:	409a      	lsls	r2, r3
E:\2017-2018\03_Graduation Project\04_Software\04_wangshi\03_UpdateSoftware-180625\01_UEBootloader\KL36_BootLoader-180621\02_Core/core_cm0plus.h:753
    SCB->SHP[_SHP_IDX(IRQn)] = ((uint32_t)(SCB->SHP[_SHP_IDX(IRQn)] & ~(0xFFUL << _BIT_SHIFT(IRQn))) |
    20ae:	481d      	ldr	r0, [pc, #116]	; (2124 <NVIC_SetPriority+0xd4>)
    20b0:	1dfb      	adds	r3, r7, #7
    20b2:	781b      	ldrb	r3, [r3, #0]
    20b4:	001c      	movs	r4, r3
    20b6:	230f      	movs	r3, #15
    20b8:	4023      	ands	r3, r4
    20ba:	3b08      	subs	r3, #8
    20bc:	089b      	lsrs	r3, r3, #2
    20be:	430a      	orrs	r2, r1
    20c0:	3306      	adds	r3, #6
    20c2:	009b      	lsls	r3, r3, #2
    20c4:	18c3      	adds	r3, r0, r3
    20c6:	3304      	adds	r3, #4
    20c8:	601a      	str	r2, [r3, #0]
E:\2017-2018\03_Graduation Project\04_Software\04_wangshi\03_UpdateSoftware-180625\01_UEBootloader\KL36_BootLoader-180621\02_Core/core_cm0plus.h:760
}
    20ca:	e027      	b.n	211c <NVIC_SetPriority+0xcc>
E:\2017-2018\03_Graduation Project\04_Software\04_wangshi\03_UpdateSoftware-180625\01_UEBootloader\KL36_BootLoader-180621\02_Core/core_cm0plus.h:757
    NVIC->IP[_IP_IDX(IRQn)]  = ((uint32_t)(NVIC->IP[_IP_IDX(IRQn)]  & ~(0xFFUL << _BIT_SHIFT(IRQn))) |
    20cc:	4a16      	ldr	r2, [pc, #88]	; (2128 <NVIC_SetPriority+0xd8>)
    20ce:	1dfb      	adds	r3, r7, #7
    20d0:	781b      	ldrb	r3, [r3, #0]
    20d2:	b25b      	sxtb	r3, r3
    20d4:	089b      	lsrs	r3, r3, #2
    20d6:	33c0      	adds	r3, #192	; 0xc0
    20d8:	009b      	lsls	r3, r3, #2
    20da:	589b      	ldr	r3, [r3, r2]
    20dc:	1dfa      	adds	r2, r7, #7
    20de:	7812      	ldrb	r2, [r2, #0]
    20e0:	0011      	movs	r1, r2
    20e2:	2203      	movs	r2, #3
    20e4:	400a      	ands	r2, r1
    20e6:	00d2      	lsls	r2, r2, #3
    20e8:	21ff      	movs	r1, #255	; 0xff
    20ea:	4091      	lsls	r1, r2
    20ec:	000a      	movs	r2, r1
    20ee:	43d2      	mvns	r2, r2
    20f0:	401a      	ands	r2, r3
    20f2:	0011      	movs	r1, r2
E:\2017-2018\03_Graduation Project\04_Software\04_wangshi\03_UpdateSoftware-180625\01_UEBootloader\KL36_BootLoader-180621\02_Core/core_cm0plus.h:758
       (((priority << (8 - __NVIC_PRIO_BITS)) & (uint32_t)0xFFUL) << _BIT_SHIFT(IRQn)));
    20f4:	683b      	ldr	r3, [r7, #0]
    20f6:	019b      	lsls	r3, r3, #6
    20f8:	22ff      	movs	r2, #255	; 0xff
    20fa:	401a      	ands	r2, r3
    20fc:	1dfb      	adds	r3, r7, #7
    20fe:	781b      	ldrb	r3, [r3, #0]
    2100:	0018      	movs	r0, r3
    2102:	2303      	movs	r3, #3
    2104:	4003      	ands	r3, r0
    2106:	00db      	lsls	r3, r3, #3
    2108:	409a      	lsls	r2, r3
E:\2017-2018\03_Graduation Project\04_Software\04_wangshi\03_UpdateSoftware-180625\01_UEBootloader\KL36_BootLoader-180621\02_Core/core_cm0plus.h:757
    NVIC->IP[_IP_IDX(IRQn)]  = ((uint32_t)(NVIC->IP[_IP_IDX(IRQn)]  & ~(0xFFUL << _BIT_SHIFT(IRQn))) |
    210a:	4807      	ldr	r0, [pc, #28]	; (2128 <NVIC_SetPriority+0xd8>)
    210c:	1dfb      	adds	r3, r7, #7
    210e:	781b      	ldrb	r3, [r3, #0]
    2110:	b25b      	sxtb	r3, r3
    2112:	089b      	lsrs	r3, r3, #2
    2114:	430a      	orrs	r2, r1
    2116:	33c0      	adds	r3, #192	; 0xc0
    2118:	009b      	lsls	r3, r3, #2
    211a:	501a      	str	r2, [r3, r0]
E:\2017-2018\03_Graduation Project\04_Software\04_wangshi\03_UpdateSoftware-180625\01_UEBootloader\KL36_BootLoader-180621\02_Core/core_cm0plus.h:760
}
    211c:	46c0      	nop			; (mov r8, r8)
    211e:	46bd      	mov	sp, r7
    2120:	b003      	add	sp, #12
    2122:	bd90      	pop	{r4, r7, pc}
    2124:	e000ed00 	.word	0xe000ed00
    2128:	e000e100 	.word	0xe000e100

0000212c <systick_init>:
systick_init():
E:\2017-2018\03_Graduation Project\04_Software\04_wangshi\03_UpdateSoftware-180625\01_UEBootloader\KL36_BootLoader-180621\Debug/../03_MCU/MCU_drivers/systick/systick.c:24
//KL25的SysTick时钟源可以是内核时钟，也可设置为内核时钟的16分频。
//24位计数器，减1计数
//时间范围：1ms~349ms（内核时钟）;1ms~5592ms（内核时钟的16分频）
//===========================================================================
void systick_init(uint_8 clk_src_sel, uint_16 int_ms)
{
    212c:	b580      	push	{r7, lr}
    212e:	b082      	sub	sp, #8
    2130:	af00      	add	r7, sp, #0
    2132:	0002      	movs	r2, r0
    2134:	1dfb      	adds	r3, r7, #7
    2136:	701a      	strb	r2, [r3, #0]
    2138:	1d3b      	adds	r3, r7, #4
    213a:	1c0a      	adds	r2, r1, #0
    213c:	801a      	strh	r2, [r3, #0]
E:\2017-2018\03_Graduation Project\04_Software\04_wangshi\03_UpdateSoftware-180625\01_UEBootloader\KL36_BootLoader-180621\Debug/../03_MCU/MCU_drivers/systick/systick.c:25
    SysTick->CTRL = 0;   //设置前先关闭systick
    213e:	4b2a      	ldr	r3, [pc, #168]	; (21e8 <systick_init+0xbc>)
    2140:	2200      	movs	r2, #0
    2142:	601a      	str	r2, [r3, #0]
E:\2017-2018\03_Graduation Project\04_Software\04_wangshi\03_UpdateSoftware-180625\01_UEBootloader\KL36_BootLoader-180621\Debug/../03_MCU/MCU_drivers/systick/systick.c:26
    SysTick->VAL  = 0;   //清除计数器
    2144:	4b28      	ldr	r3, [pc, #160]	; (21e8 <systick_init+0xbc>)
    2146:	2200      	movs	r2, #0
    2148:	609a      	str	r2, [r3, #8]
E:\2017-2018\03_Graduation Project\04_Software\04_wangshi\03_UpdateSoftware-180625\01_UEBootloader\KL36_BootLoader-180621\Debug/../03_MCU/MCU_drivers/systick/systick.c:29

    //根据计数频率，确定并设置重载寄存器的值
    if(0==clk_src_sel)              //0:内核时钟/16
    214a:	1dfb      	adds	r3, r7, #7
    214c:	781b      	ldrb	r3, [r3, #0]
    214e:	2b00      	cmp	r3, #0
    2150:	d11b      	bne.n	218a <systick_init+0x5e>
E:\2017-2018\03_Graduation Project\04_Software\04_wangshi\03_UpdateSoftware-180625\01_UEBootloader\KL36_BootLoader-180621\Debug/../03_MCU/MCU_drivers/systick/systick.c:31
    {
        if((int_ms<1)&&(int_ms>5592))
    2152:	1d3b      	adds	r3, r7, #4
    2154:	881b      	ldrh	r3, [r3, #0]
    2156:	2b00      	cmp	r3, #0
    2158:	d107      	bne.n	216a <systick_init+0x3e>
E:\2017-2018\03_Graduation Project\04_Software\04_wangshi\03_UpdateSoftware-180625\01_UEBootloader\KL36_BootLoader-180621\Debug/../03_MCU/MCU_drivers/systick/systick.c:31 (discriminator 1)
    215a:	1d3b      	adds	r3, r7, #4
    215c:	881b      	ldrh	r3, [r3, #0]
    215e:	4a23      	ldr	r2, [pc, #140]	; (21ec <systick_init+0xc0>)
    2160:	4293      	cmp	r3, r2
    2162:	d902      	bls.n	216a <systick_init+0x3e>
E:\2017-2018\03_Graduation Project\04_Software\04_wangshi\03_UpdateSoftware-180625\01_UEBootloader\KL36_BootLoader-180621\Debug/../03_MCU/MCU_drivers/systick/systick.c:33
        {
            int_ms = 10;
    2164:	1d3b      	adds	r3, r7, #4
    2166:	220a      	movs	r2, #10
    2168:	801a      	strh	r2, [r3, #0]
E:\2017-2018\03_Graduation Project\04_Software\04_wangshi\03_UpdateSoftware-180625\01_UEBootloader\KL36_BootLoader-180621\Debug/../03_MCU/MCU_drivers/systick/systick.c:35
        }
        SysTick->LOAD = SYSTEM_CLK_KHZ*int_ms/16;
    216a:	4b21      	ldr	r3, [pc, #132]	; (21f0 <systick_init+0xc4>)
    216c:	681a      	ldr	r2, [r3, #0]
    216e:	23fa      	movs	r3, #250	; 0xfa
    2170:	0099      	lsls	r1, r3, #2
    2172:	0010      	movs	r0, r2
    2174:	f7fe f9d2 	bl	51c <__udivsi3>
    2178:	0003      	movs	r3, r0
    217a:	001a      	movs	r2, r3
    217c:	1d3b      	adds	r3, r7, #4
    217e:	881b      	ldrh	r3, [r3, #0]
    2180:	435a      	muls	r2, r3
    2182:	4b19      	ldr	r3, [pc, #100]	; (21e8 <systick_init+0xbc>)
    2184:	0912      	lsrs	r2, r2, #4
    2186:	605a      	str	r2, [r3, #4]
    2188:	e01d      	b.n	21c6 <systick_init+0x9a>
E:\2017-2018\03_Graduation Project\04_Software\04_wangshi\03_UpdateSoftware-180625\01_UEBootloader\KL36_BootLoader-180621\Debug/../03_MCU/MCU_drivers/systick/systick.c:39
    }
    else                            //1:内核时钟
    {
        if((int_ms<1)&&(int_ms>349))
    218a:	1d3b      	adds	r3, r7, #4
    218c:	881b      	ldrh	r3, [r3, #0]
    218e:	2b00      	cmp	r3, #0
    2190:	d108      	bne.n	21a4 <systick_init+0x78>
E:\2017-2018\03_Graduation Project\04_Software\04_wangshi\03_UpdateSoftware-180625\01_UEBootloader\KL36_BootLoader-180621\Debug/../03_MCU/MCU_drivers/systick/systick.c:39 (discriminator 1)
    2192:	1d3b      	adds	r3, r7, #4
    2194:	881a      	ldrh	r2, [r3, #0]
    2196:	235e      	movs	r3, #94	; 0x5e
    2198:	33ff      	adds	r3, #255	; 0xff
    219a:	429a      	cmp	r2, r3
    219c:	d902      	bls.n	21a4 <systick_init+0x78>
E:\2017-2018\03_Graduation Project\04_Software\04_wangshi\03_UpdateSoftware-180625\01_UEBootloader\KL36_BootLoader-180621\Debug/../03_MCU/MCU_drivers/systick/systick.c:41
        {
            int_ms = 10;
    219e:	1d3b      	adds	r3, r7, #4
    21a0:	220a      	movs	r2, #10
    21a2:	801a      	strh	r2, [r3, #0]
E:\2017-2018\03_Graduation Project\04_Software\04_wangshi\03_UpdateSoftware-180625\01_UEBootloader\KL36_BootLoader-180621\Debug/../03_MCU/MCU_drivers/systick/systick.c:43
        }
        SysTick->LOAD = SYSTEM_CLK_KHZ*int_ms;
    21a4:	4b12      	ldr	r3, [pc, #72]	; (21f0 <systick_init+0xc4>)
    21a6:	681a      	ldr	r2, [r3, #0]
    21a8:	23fa      	movs	r3, #250	; 0xfa
    21aa:	0099      	lsls	r1, r3, #2
    21ac:	0010      	movs	r0, r2
    21ae:	f7fe f9b5 	bl	51c <__udivsi3>
    21b2:	0003      	movs	r3, r0
    21b4:	0019      	movs	r1, r3
    21b6:	1d3b      	adds	r3, r7, #4
    21b8:	881a      	ldrh	r2, [r3, #0]
    21ba:	4b0b      	ldr	r3, [pc, #44]	; (21e8 <systick_init+0xbc>)
    21bc:	434a      	muls	r2, r1
    21be:	605a      	str	r2, [r3, #4]
E:\2017-2018\03_Graduation Project\04_Software\04_wangshi\03_UpdateSoftware-180625\01_UEBootloader\KL36_BootLoader-180621\Debug/../03_MCU/MCU_drivers/systick/systick.c:44
        SysTick->CTRL = (SysTick_CTRL_CLKSOURCE_Msk);
    21c0:	4b09      	ldr	r3, [pc, #36]	; (21e8 <systick_init+0xbc>)
    21c2:	2204      	movs	r2, #4
    21c4:	601a      	str	r2, [r3, #0]
E:\2017-2018\03_Graduation Project\04_Software\04_wangshi\03_UpdateSoftware-180625\01_UEBootloader\KL36_BootLoader-180621\Debug/../03_MCU/MCU_drivers/systick/systick.c:47
    }
    //设定 SysTick优先级为3(SHPR3寄存器的最高字节=0xC0)
    NVIC_SetPriority (SysTick_IRQn, (1UL << __NVIC_PRIO_BITS) - 1UL);
    21c6:	2301      	movs	r3, #1
    21c8:	425b      	negs	r3, r3
    21ca:	2103      	movs	r1, #3
    21cc:	0018      	movs	r0, r3
    21ce:	f7ff ff3f 	bl	2050 <NVIC_SetPriority>
E:\2017-2018\03_Graduation Project\04_Software\04_wangshi\03_UpdateSoftware-180625\01_UEBootloader\KL36_BootLoader-180621\Debug/../03_MCU/MCU_drivers/systick/systick.c:49
    //设置时钟源,允许中断,使能该模块,开始计数
    SysTick->CTRL |= ( SysTick_CTRL_ENABLE_Msk|SysTick_CTRL_TICKINT_Msk );
    21d2:	4b05      	ldr	r3, [pc, #20]	; (21e8 <systick_init+0xbc>)
    21d4:	681a      	ldr	r2, [r3, #0]
    21d6:	4b04      	ldr	r3, [pc, #16]	; (21e8 <systick_init+0xbc>)
    21d8:	2103      	movs	r1, #3
    21da:	430a      	orrs	r2, r1
    21dc:	601a      	str	r2, [r3, #0]
E:\2017-2018\03_Graduation Project\04_Software\04_wangshi\03_UpdateSoftware-180625\01_UEBootloader\KL36_BootLoader-180621\Debug/../03_MCU/MCU_drivers/systick/systick.c:50
}
    21de:	46c0      	nop			; (mov r8, r8)
    21e0:	46bd      	mov	sp, r7
    21e2:	b002      	add	sp, #8
    21e4:	bd80      	pop	{r7, pc}
    21e6:	46c0      	nop			; (mov r8, r8)
    21e8:	e000e010 	.word	0xe000e010
    21ec:	000015d8 	.word	0x000015d8
    21f0:	1ffff800 	.word	0x1ffff800

000021f4 <NVIC_EnableIRQ>:
NVIC_EnableIRQ():
E:\2017-2018\03_Graduation Project\04_Software\04_wangshi\03_UpdateSoftware-180625\01_UEBootloader\KL36_BootLoader-180621\02_Core/core_cm0plus.h:684
{
    21f4:	b580      	push	{r7, lr}
    21f6:	b082      	sub	sp, #8
    21f8:	af00      	add	r7, sp, #0
    21fa:	0002      	movs	r2, r0
    21fc:	1dfb      	adds	r3, r7, #7
    21fe:	701a      	strb	r2, [r3, #0]
E:\2017-2018\03_Graduation Project\04_Software\04_wangshi\03_UpdateSoftware-180625\01_UEBootloader\KL36_BootLoader-180621\02_Core/core_cm0plus.h:685
  NVIC->ISER[0] = (uint32_t)(1UL << (((uint32_t)(int32_t)IRQn) & 0x1FUL));
    2200:	1dfb      	adds	r3, r7, #7
    2202:	781b      	ldrb	r3, [r3, #0]
    2204:	001a      	movs	r2, r3
    2206:	231f      	movs	r3, #31
    2208:	401a      	ands	r2, r3
    220a:	4b04      	ldr	r3, [pc, #16]	; (221c <NVIC_EnableIRQ+0x28>)
    220c:	2101      	movs	r1, #1
    220e:	4091      	lsls	r1, r2
    2210:	000a      	movs	r2, r1
    2212:	601a      	str	r2, [r3, #0]
E:\2017-2018\03_Graduation Project\04_Software\04_wangshi\03_UpdateSoftware-180625\01_UEBootloader\KL36_BootLoader-180621\02_Core/core_cm0plus.h:686
}
    2214:	46c0      	nop			; (mov r8, r8)
    2216:	46bd      	mov	sp, r7
    2218:	b002      	add	sp, #8
    221a:	bd80      	pop	{r7, pc}
    221c:	e000e100 	.word	0xe000e100

00002220 <NVIC_DisableIRQ>:
NVIC_DisableIRQ():
E:\2017-2018\03_Graduation Project\04_Software\04_wangshi\03_UpdateSoftware-180625\01_UEBootloader\KL36_BootLoader-180621\02_Core/core_cm0plus.h:696
{
    2220:	b580      	push	{r7, lr}
    2222:	b082      	sub	sp, #8
    2224:	af00      	add	r7, sp, #0
    2226:	0002      	movs	r2, r0
    2228:	1dfb      	adds	r3, r7, #7
    222a:	701a      	strb	r2, [r3, #0]
E:\2017-2018\03_Graduation Project\04_Software\04_wangshi\03_UpdateSoftware-180625\01_UEBootloader\KL36_BootLoader-180621\02_Core/core_cm0plus.h:697
  NVIC->ICER[0] = (uint32_t)(1UL << (((uint32_t)(int32_t)IRQn) & 0x1FUL));
    222c:	1dfb      	adds	r3, r7, #7
    222e:	781b      	ldrb	r3, [r3, #0]
    2230:	001a      	movs	r2, r3
    2232:	231f      	movs	r3, #31
    2234:	4013      	ands	r3, r2
    2236:	4905      	ldr	r1, [pc, #20]	; (224c <NVIC_DisableIRQ+0x2c>)
    2238:	2201      	movs	r2, #1
    223a:	409a      	lsls	r2, r3
    223c:	0013      	movs	r3, r2
    223e:	2280      	movs	r2, #128	; 0x80
    2240:	508b      	str	r3, [r1, r2]
E:\2017-2018\03_Graduation Project\04_Software\04_wangshi\03_UpdateSoftware-180625\01_UEBootloader\KL36_BootLoader-180621\02_Core/core_cm0plus.h:698
}
    2242:	46c0      	nop			; (mov r8, r8)
    2244:	46bd      	mov	sp, r7
    2246:	b002      	add	sp, #8
    2248:	bd80      	pop	{r7, pc}
    224a:	46c0      	nop			; (mov r8, r8)
    224c:	e000e100 	.word	0xe000e100

00002250 <gpio_init>:
gpio_init():
E:\2017-2018\03_Graduation Project\04_Software\04_wangshi\03_UpdateSoftware-180625\01_UEBootloader\KL36_BootLoader-180621\Debug/../03_MCU/MCU_drivers/gpio/gpio.c:27
//          state：端口引脚初始状态（0=低电平，1=高电平）
//功能概要：初始化指定端口引脚作为GPIO引脚功能，并定义为输入或输出，若是输出，
//          还指定初始状态是低电平或高电平
//=====================================================================
void gpio_init(uint_16 port_pin, uint_8 dir, uint_8 state)
{
    2250:	b5b0      	push	{r4, r5, r7, lr}
    2252:	b086      	sub	sp, #24
    2254:	af00      	add	r7, sp, #0
    2256:	0004      	movs	r4, r0
    2258:	0008      	movs	r0, r1
    225a:	0011      	movs	r1, r2
    225c:	1dbb      	adds	r3, r7, #6
    225e:	1c22      	adds	r2, r4, #0
    2260:	801a      	strh	r2, [r3, #0]
    2262:	1d7b      	adds	r3, r7, #5
    2264:	1c02      	adds	r2, r0, #0
    2266:	701a      	strb	r2, [r3, #0]
    2268:	1d3b      	adds	r3, r7, #4
    226a:	1c0a      	adds	r2, r1, #0
    226c:	701a      	strb	r2, [r3, #0]
E:\2017-2018\03_Graduation Project\04_Software\04_wangshi\03_UpdateSoftware-180625\01_UEBootloader\KL36_BootLoader-180621\Debug/../03_MCU/MCU_drivers/gpio/gpio.c:33
	//局部变量声明
	PORT_Type *port_ptr;                       //声明port_ptr为PORT结构体类型指针
	GPIO_Type *gpio_ptr;                       //声明gpio_ptr为GPIO结构体类型指针
	uint_8 port,pin;                           //声明端口port、引脚pin变量
	//根据带入参数port_pin，解析出端口与引脚分别赋给port,pin
	gpio_get_port_pin(port_pin,&port,&pin);
    226e:	240e      	movs	r4, #14
    2270:	193a      	adds	r2, r7, r4
    2272:	210f      	movs	r1, #15
    2274:	000d      	movs	r5, r1
    2276:	1879      	adds	r1, r7, r1
    2278:	1dbb      	adds	r3, r7, #6
    227a:	881b      	ldrh	r3, [r3, #0]
    227c:	0018      	movs	r0, r3
    227e:	f000 fa93 	bl	27a8 <gpio_get_port_pin>
E:\2017-2018\03_Graduation Project\04_Software\04_wangshi\03_UpdateSoftware-180625\01_UEBootloader\KL36_BootLoader-180621\Debug/../03_MCU/MCU_drivers/gpio/gpio.c:35
	//根据port，给局部变量port_ptr、gpio_ptr赋值（获得两个基地址）
	port_ptr = PORT_ARR[port];                 //获得PORT模块相应口基地址
    2282:	0029      	movs	r1, r5
    2284:	187b      	adds	r3, r7, r1
    2286:	781b      	ldrb	r3, [r3, #0]
    2288:	001a      	movs	r2, r3
    228a:	4b29      	ldr	r3, [pc, #164]	; (2330 <gpio_init+0xe0>)
    228c:	0092      	lsls	r2, r2, #2
    228e:	58d3      	ldr	r3, [r2, r3]
    2290:	617b      	str	r3, [r7, #20]
E:\2017-2018\03_Graduation Project\04_Software\04_wangshi\03_UpdateSoftware-180625\01_UEBootloader\KL36_BootLoader-180621\Debug/../03_MCU/MCU_drivers/gpio/gpio.c:36
	gpio_ptr = GPIO_ARR[port];                 //获得GPIO模块相应口基地址
    2292:	187b      	adds	r3, r7, r1
    2294:	781b      	ldrb	r3, [r3, #0]
    2296:	001a      	movs	r2, r3
    2298:	4b26      	ldr	r3, [pc, #152]	; (2334 <gpio_init+0xe4>)
    229a:	0092      	lsls	r2, r2, #2
    229c:	58d3      	ldr	r3, [r2, r3]
    229e:	613b      	str	r3, [r7, #16]
E:\2017-2018\03_Graduation Project\04_Software\04_wangshi\03_UpdateSoftware-180625\01_UEBootloader\KL36_BootLoader-180621\Debug/../03_MCU/MCU_drivers/gpio/gpio.c:39

	//设定相应端口的相应引脚功port能为GPIO（即令引脚控制寄存器的MUX=0b001）
	PORT_PCR_REG(port_ptr,pin) &= ~PORT_PCR_MUX_MASK;//置D10-D8=000
    22a0:	193b      	adds	r3, r7, r4
    22a2:	781b      	ldrb	r3, [r3, #0]
    22a4:	001a      	movs	r2, r3
    22a6:	697b      	ldr	r3, [r7, #20]
    22a8:	0092      	lsls	r2, r2, #2
    22aa:	58d3      	ldr	r3, [r2, r3]
    22ac:	193a      	adds	r2, r7, r4
    22ae:	7812      	ldrb	r2, [r2, #0]
    22b0:	0010      	movs	r0, r2
    22b2:	4a21      	ldr	r2, [pc, #132]	; (2338 <gpio_init+0xe8>)
    22b4:	4013      	ands	r3, r2
    22b6:	0019      	movs	r1, r3
    22b8:	697b      	ldr	r3, [r7, #20]
    22ba:	0082      	lsls	r2, r0, #2
    22bc:	50d1      	str	r1, [r2, r3]
E:\2017-2018\03_Graduation Project\04_Software\04_wangshi\03_UpdateSoftware-180625\01_UEBootloader\KL36_BootLoader-180621\Debug/../03_MCU/MCU_drivers/gpio/gpio.c:40
	PORT_PCR_REG(port_ptr,pin) |= PORT_PCR_MUX(1);//置D10-D8=001
    22be:	193b      	adds	r3, r7, r4
    22c0:	781b      	ldrb	r3, [r3, #0]
    22c2:	001a      	movs	r2, r3
    22c4:	697b      	ldr	r3, [r7, #20]
    22c6:	0092      	lsls	r2, r2, #2
    22c8:	58d3      	ldr	r3, [r2, r3]
    22ca:	193a      	adds	r2, r7, r4
    22cc:	7812      	ldrb	r2, [r2, #0]
    22ce:	0010      	movs	r0, r2
    22d0:	2280      	movs	r2, #128	; 0x80
    22d2:	0052      	lsls	r2, r2, #1
    22d4:	431a      	orrs	r2, r3
    22d6:	0011      	movs	r1, r2
    22d8:	697b      	ldr	r3, [r7, #20]
    22da:	0082      	lsls	r2, r0, #2
    22dc:	50d1      	str	r1, [r2, r3]
E:\2017-2018\03_Graduation Project\04_Software\04_wangshi\03_UpdateSoftware-180625\01_UEBootloader\KL36_BootLoader-180621\Debug/../03_MCU/MCU_drivers/gpio/gpio.c:43

	//根据带入参数dir，决定引脚为输出还是输入
	if(dir == 1)  //输出引脚
    22de:	1d7b      	adds	r3, r7, #5
    22e0:	781b      	ldrb	r3, [r3, #0]
    22e2:	2b01      	cmp	r3, #1
    22e4:	d113      	bne.n	230e <gpio_init+0xbe>
E:\2017-2018\03_Graduation Project\04_Software\04_wangshi\03_UpdateSoftware-180625\01_UEBootloader\KL36_BootLoader-180621\Debug/../03_MCU/MCU_drivers/gpio/gpio.c:45
	{
		BSET(pin,GPIO_PDDR_REG(gpio_ptr));//数据方向寄存器的pin位=1，定义为输出
    22e6:	693b      	ldr	r3, [r7, #16]
    22e8:	695b      	ldr	r3, [r3, #20]
    22ea:	220e      	movs	r2, #14
    22ec:	18ba      	adds	r2, r7, r2
    22ee:	7812      	ldrb	r2, [r2, #0]
    22f0:	0011      	movs	r1, r2
    22f2:	2201      	movs	r2, #1
    22f4:	408a      	lsls	r2, r1
    22f6:	431a      	orrs	r2, r3
    22f8:	693b      	ldr	r3, [r7, #16]
    22fa:	615a      	str	r2, [r3, #20]
E:\2017-2018\03_Graduation Project\04_Software\04_wangshi\03_UpdateSoftware-180625\01_UEBootloader\KL36_BootLoader-180621\Debug/../03_MCU/MCU_drivers/gpio/gpio.c:46
		gpio_set(port_pin,state);              //调用gpio_set函数，设定引脚初始状态
    22fc:	1d3b      	adds	r3, r7, #4
    22fe:	781a      	ldrb	r2, [r3, #0]
    2300:	1dbb      	adds	r3, r7, #6
    2302:	881b      	ldrh	r3, [r3, #0]
    2304:	0011      	movs	r1, r2
    2306:	0018      	movs	r0, r3
    2308:	f000 f818 	bl	233c <gpio_set>
E:\2017-2018\03_Graduation Project\04_Software\04_wangshi\03_UpdateSoftware-180625\01_UEBootloader\KL36_BootLoader-180621\Debug/../03_MCU/MCU_drivers/gpio/gpio.c:52
	}
	else          //输入引脚
	{
		BCLR(pin,GPIO_PDDR_REG(gpio_ptr));//数据方向寄存器的pin位=0，定义为输入
	}
}
    230c:	e00b      	b.n	2326 <gpio_init+0xd6>
E:\2017-2018\03_Graduation Project\04_Software\04_wangshi\03_UpdateSoftware-180625\01_UEBootloader\KL36_BootLoader-180621\Debug/../03_MCU/MCU_drivers/gpio/gpio.c:50
		BCLR(pin,GPIO_PDDR_REG(gpio_ptr));//数据方向寄存器的pin位=0，定义为输入
    230e:	693b      	ldr	r3, [r7, #16]
    2310:	695b      	ldr	r3, [r3, #20]
    2312:	220e      	movs	r2, #14
    2314:	18ba      	adds	r2, r7, r2
    2316:	7812      	ldrb	r2, [r2, #0]
    2318:	0011      	movs	r1, r2
    231a:	2201      	movs	r2, #1
    231c:	408a      	lsls	r2, r1
    231e:	43d2      	mvns	r2, r2
    2320:	401a      	ands	r2, r3
    2322:	693b      	ldr	r3, [r7, #16]
    2324:	615a      	str	r2, [r3, #20]
E:\2017-2018\03_Graduation Project\04_Software\04_wangshi\03_UpdateSoftware-180625\01_UEBootloader\KL36_BootLoader-180621\Debug/../03_MCU/MCU_drivers/gpio/gpio.c:52
}
    2326:	46c0      	nop			; (mov r8, r8)
    2328:	46bd      	mov	sp, r7
    232a:	b006      	add	sp, #24
    232c:	bdb0      	pop	{r4, r5, r7, pc}
    232e:	46c0      	nop			; (mov r8, r8)
    2330:	00002c90 	.word	0x00002c90
    2334:	00002ca4 	.word	0x00002ca4
    2338:	fffff8ff 	.word	0xfffff8ff

0000233c <gpio_set>:
gpio_set():
E:\2017-2018\03_Graduation Project\04_Software\04_wangshi\03_UpdateSoftware-180625\01_UEBootloader\KL36_BootLoader-180621\Debug/../03_MCU/MCU_drivers/gpio/gpio.c:62
//参数说明：port_pin：端口号|引脚号（如：(PTB_NUM)|(9) 表示为B口9号脚）
//       state：引脚初始状态（0=低电平，1=高电平）
//功能概要：设定引脚状态为低电平或高电平
//=====================================================================
void gpio_set(uint_16 port_pin, uint_8 state)
{
    233c:	b590      	push	{r4, r7, lr}
    233e:	b085      	sub	sp, #20
    2340:	af00      	add	r7, sp, #0
    2342:	0002      	movs	r2, r0
    2344:	1dbb      	adds	r3, r7, #6
    2346:	801a      	strh	r2, [r3, #0]
    2348:	1d7b      	adds	r3, r7, #5
    234a:	1c0a      	adds	r2, r1, #0
    234c:	701a      	strb	r2, [r3, #0]
E:\2017-2018\03_Graduation Project\04_Software\04_wangshi\03_UpdateSoftware-180625\01_UEBootloader\KL36_BootLoader-180621\Debug/../03_MCU/MCU_drivers/gpio/gpio.c:67
	//局部变量声明
	GPIO_Type *gpio_ptr;                      //声明port_ptr为GPIO结构体类型指针（首地址）
	uint_8 port,pin;                          //声明端口port、引脚pin变量
	//根据带入参数port_pin，解析出端口与引脚分别赋给port,pin
	gpio_get_port_pin(port_pin,&port,&pin);
    234e:	230a      	movs	r3, #10
    2350:	18fa      	adds	r2, r7, r3
    2352:	240b      	movs	r4, #11
    2354:	1939      	adds	r1, r7, r4
    2356:	1dbb      	adds	r3, r7, #6
    2358:	881b      	ldrh	r3, [r3, #0]
    235a:	0018      	movs	r0, r3
    235c:	f000 fa24 	bl	27a8 <gpio_get_port_pin>
E:\2017-2018\03_Graduation Project\04_Software\04_wangshi\03_UpdateSoftware-180625\01_UEBootloader\KL36_BootLoader-180621\Debug/../03_MCU/MCU_drivers/gpio/gpio.c:70

	//根据port，给局部变量gpio_ptr赋值（GPIO基地址）
	gpio_ptr = GPIO_ARR[port];
    2360:	193b      	adds	r3, r7, r4
    2362:	781b      	ldrb	r3, [r3, #0]
    2364:	001a      	movs	r2, r3
    2366:	4b12      	ldr	r3, [pc, #72]	; (23b0 <gpio_set+0x74>)
    2368:	0092      	lsls	r2, r2, #2
    236a:	58d3      	ldr	r3, [r2, r3]
    236c:	60fb      	str	r3, [r7, #12]
E:\2017-2018\03_Graduation Project\04_Software\04_wangshi\03_UpdateSoftware-180625\01_UEBootloader\KL36_BootLoader-180621\Debug/../03_MCU/MCU_drivers/gpio/gpio.c:73

	//根据带入参数state，决定引脚为输出1还是0
	if(state == 1)
    236e:	1d7b      	adds	r3, r7, #5
    2370:	781b      	ldrb	r3, [r3, #0]
    2372:	2b01      	cmp	r3, #1
    2374:	d10b      	bne.n	238e <gpio_set+0x52>
E:\2017-2018\03_Graduation Project\04_Software\04_wangshi\03_UpdateSoftware-180625\01_UEBootloader\KL36_BootLoader-180621\Debug/../03_MCU/MCU_drivers/gpio/gpio.c:75
	{
		BSET(pin,GPIO_PDOR_REG(gpio_ptr));
    2376:	68fb      	ldr	r3, [r7, #12]
    2378:	681b      	ldr	r3, [r3, #0]
    237a:	220a      	movs	r2, #10
    237c:	18ba      	adds	r2, r7, r2
    237e:	7812      	ldrb	r2, [r2, #0]
    2380:	0011      	movs	r1, r2
    2382:	2201      	movs	r2, #1
    2384:	408a      	lsls	r2, r1
    2386:	431a      	orrs	r2, r3
    2388:	68fb      	ldr	r3, [r7, #12]
    238a:	601a      	str	r2, [r3, #0]
E:\2017-2018\03_Graduation Project\04_Software\04_wangshi\03_UpdateSoftware-180625\01_UEBootloader\KL36_BootLoader-180621\Debug/../03_MCU/MCU_drivers/gpio/gpio.c:81
	}
	else
	{
		BCLR(pin,GPIO_PDOR_REG(gpio_ptr));
	}
}
    238c:	e00b      	b.n	23a6 <gpio_set+0x6a>
E:\2017-2018\03_Graduation Project\04_Software\04_wangshi\03_UpdateSoftware-180625\01_UEBootloader\KL36_BootLoader-180621\Debug/../03_MCU/MCU_drivers/gpio/gpio.c:79
		BCLR(pin,GPIO_PDOR_REG(gpio_ptr));
    238e:	68fb      	ldr	r3, [r7, #12]
    2390:	681b      	ldr	r3, [r3, #0]
    2392:	220a      	movs	r2, #10
    2394:	18ba      	adds	r2, r7, r2
    2396:	7812      	ldrb	r2, [r2, #0]
    2398:	0011      	movs	r1, r2
    239a:	2201      	movs	r2, #1
    239c:	408a      	lsls	r2, r1
    239e:	43d2      	mvns	r2, r2
    23a0:	401a      	ands	r2, r3
    23a2:	68fb      	ldr	r3, [r7, #12]
    23a4:	601a      	str	r2, [r3, #0]
E:\2017-2018\03_Graduation Project\04_Software\04_wangshi\03_UpdateSoftware-180625\01_UEBootloader\KL36_BootLoader-180621\Debug/../03_MCU/MCU_drivers/gpio/gpio.c:81
}
    23a6:	46c0      	nop			; (mov r8, r8)
    23a8:	46bd      	mov	sp, r7
    23aa:	b005      	add	sp, #20
    23ac:	bd90      	pop	{r4, r7, pc}
    23ae:	46c0      	nop			; (mov r8, r8)
    23b0:	00002ca4 	.word	0x00002ca4

000023b4 <gpio_get>:
gpio_get():
E:\2017-2018\03_Graduation Project\04_Software\04_wangshi\03_UpdateSoftware-180625\01_UEBootloader\KL36_BootLoader-180621\Debug/../03_MCU/MCU_drivers/gpio/gpio.c:90
//函数返回：指定引脚的状态（1或0）
//参数说明：port_pin：端口号|引脚号（如：(PTB_NUM)|(9) 表示为B口9号脚）
//功能概要：获取指定引脚的状态（1或0）
//=====================================================================
uint_8 gpio_get(uint_16 port_pin)
{
    23b4:	b5b0      	push	{r4, r5, r7, lr}
    23b6:	b084      	sub	sp, #16
    23b8:	af00      	add	r7, sp, #0
    23ba:	0002      	movs	r2, r0
    23bc:	1dbb      	adds	r3, r7, #6
    23be:	801a      	strh	r2, [r3, #0]
E:\2017-2018\03_Graduation Project\04_Software\04_wangshi\03_UpdateSoftware-180625\01_UEBootloader\KL36_BootLoader-180621\Debug/../03_MCU/MCU_drivers/gpio/gpio.c:95
	//局部变量声明
	GPIO_Type *gpio_ptr;                      //声明port_ptr为GPIO结构体类型指针（首地址）
	uint_8 port,pin;                          //声明端口port、引脚pin变量
	//根据带入参数port_pin，解析出端口与引脚分别赋给port,pin
	gpio_get_port_pin(port_pin,&port,&pin);
    23c0:	240a      	movs	r4, #10
    23c2:	193a      	adds	r2, r7, r4
    23c4:	250b      	movs	r5, #11
    23c6:	1979      	adds	r1, r7, r5
    23c8:	1dbb      	adds	r3, r7, #6
    23ca:	881b      	ldrh	r3, [r3, #0]
    23cc:	0018      	movs	r0, r3
    23ce:	f000 f9eb 	bl	27a8 <gpio_get_port_pin>
E:\2017-2018\03_Graduation Project\04_Software\04_wangshi\03_UpdateSoftware-180625\01_UEBootloader\KL36_BootLoader-180621\Debug/../03_MCU/MCU_drivers/gpio/gpio.c:98

	//根据port，给局部变量gpio_ptr赋值（GPIO基地址）
	gpio_ptr = GPIO_ARR[port];
    23d2:	197b      	adds	r3, r7, r5
    23d4:	781b      	ldrb	r3, [r3, #0]
    23d6:	001a      	movs	r2, r3
    23d8:	4b08      	ldr	r3, [pc, #32]	; (23fc <gpio_get+0x48>)
    23da:	0092      	lsls	r2, r2, #2
    23dc:	58d3      	ldr	r3, [r2, r3]
    23de:	60fb      	str	r3, [r7, #12]
E:\2017-2018\03_Graduation Project\04_Software\04_wangshi\03_UpdateSoftware-180625\01_UEBootloader\KL36_BootLoader-180621\Debug/../03_MCU/MCU_drivers/gpio/gpio.c:101

	//返回引脚的状态
	return (BGET(pin,GPIO_PDIR_REG(gpio_ptr)) >=1 ? 1:0);
    23e0:	68fb      	ldr	r3, [r7, #12]
    23e2:	691b      	ldr	r3, [r3, #16]
    23e4:	193a      	adds	r2, r7, r4
    23e6:	7812      	ldrb	r2, [r2, #0]
    23e8:	40d3      	lsrs	r3, r2
    23ea:	2201      	movs	r2, #1
    23ec:	4013      	ands	r3, r2
    23ee:	1e5a      	subs	r2, r3, #1
    23f0:	4193      	sbcs	r3, r2
    23f2:	b2db      	uxtb	r3, r3
E:\2017-2018\03_Graduation Project\04_Software\04_wangshi\03_UpdateSoftware-180625\01_UEBootloader\KL36_BootLoader-180621\Debug/../03_MCU/MCU_drivers/gpio/gpio.c:102
}
    23f4:	0018      	movs	r0, r3
    23f6:	46bd      	mov	sp, r7
    23f8:	b004      	add	sp, #16
    23fa:	bdb0      	pop	{r4, r5, r7, pc}
    23fc:	00002ca4 	.word	0x00002ca4

00002400 <gpio_reverse>:
gpio_reverse():
E:\2017-2018\03_Graduation Project\04_Software\04_wangshi\03_UpdateSoftware-180625\01_UEBootloader\KL36_BootLoader-180621\Debug/../03_MCU/MCU_drivers/gpio/gpio.c:111
//函数返回：无
//参数说明：port_pin：端口号|引脚号（如：(PTB_NUM)|(9) 表示为B口9号脚）
//功能概要：当指定端口引脚被定义为GPIO功能且为输出时，反转指定引脚输出状态。
//=====================================================================
void gpio_reverse(uint_16 port_pin)
{
    2400:	b5b0      	push	{r4, r5, r7, lr}
    2402:	b084      	sub	sp, #16
    2404:	af00      	add	r7, sp, #0
    2406:	0002      	movs	r2, r0
    2408:	1dbb      	adds	r3, r7, #6
    240a:	801a      	strh	r2, [r3, #0]
E:\2017-2018\03_Graduation Project\04_Software\04_wangshi\03_UpdateSoftware-180625\01_UEBootloader\KL36_BootLoader-180621\Debug/../03_MCU/MCU_drivers/gpio/gpio.c:116
	//局部变量声明
	GPIO_Type *gpio_ptr;                     //声明port_ptr为GPIO结构体类型指针（首地址）
	uint_8 port,pin;                         //声明端口port、引脚pin变量
	//根据带入参数port_pin，解析出端口与引脚分别赋给port,pin
	gpio_get_port_pin(port_pin,&port,&pin);
    240c:	240a      	movs	r4, #10
    240e:	193a      	adds	r2, r7, r4
    2410:	250b      	movs	r5, #11
    2412:	1979      	adds	r1, r7, r5
    2414:	1dbb      	adds	r3, r7, #6
    2416:	881b      	ldrh	r3, [r3, #0]
    2418:	0018      	movs	r0, r3
    241a:	f000 f9c5 	bl	27a8 <gpio_get_port_pin>
E:\2017-2018\03_Graduation Project\04_Software\04_wangshi\03_UpdateSoftware-180625\01_UEBootloader\KL36_BootLoader-180621\Debug/../03_MCU/MCU_drivers/gpio/gpio.c:119

	//根据port，给局部变量gpio_ptr赋值（GPIO基地址）
	gpio_ptr = GPIO_ARR[port];
    241e:	197b      	adds	r3, r7, r5
    2420:	781b      	ldrb	r3, [r3, #0]
    2422:	001a      	movs	r2, r3
    2424:	4b08      	ldr	r3, [pc, #32]	; (2448 <gpio_reverse+0x48>)
    2426:	0092      	lsls	r2, r2, #2
    2428:	58d3      	ldr	r3, [r2, r3]
    242a:	60fb      	str	r3, [r7, #12]
E:\2017-2018\03_Graduation Project\04_Software\04_wangshi\03_UpdateSoftware-180625\01_UEBootloader\KL36_BootLoader-180621\Debug/../03_MCU/MCU_drivers/gpio/gpio.c:122

	//写1反转指定引脚输出状态
	BSET(pin,GPIO_PTOR_REG(gpio_ptr));
    242c:	68fb      	ldr	r3, [r7, #12]
    242e:	68db      	ldr	r3, [r3, #12]
    2430:	193a      	adds	r2, r7, r4
    2432:	7812      	ldrb	r2, [r2, #0]
    2434:	0011      	movs	r1, r2
    2436:	2201      	movs	r2, #1
    2438:	408a      	lsls	r2, r1
    243a:	431a      	orrs	r2, r3
    243c:	68fb      	ldr	r3, [r7, #12]
    243e:	60da      	str	r2, [r3, #12]
E:\2017-2018\03_Graduation Project\04_Software\04_wangshi\03_UpdateSoftware-180625\01_UEBootloader\KL36_BootLoader-180621\Debug/../03_MCU/MCU_drivers/gpio/gpio.c:123
}
    2440:	46c0      	nop			; (mov r8, r8)
    2442:	46bd      	mov	sp, r7
    2444:	b004      	add	sp, #16
    2446:	bdb0      	pop	{r4, r5, r7, pc}
    2448:	00002ca4 	.word	0x00002ca4

0000244c <gpio_pull>:
gpio_pull():
E:\2017-2018\03_Graduation Project\04_Software\04_wangshi\03_UpdateSoftware-180625\01_UEBootloader\KL36_BootLoader-180621\Debug/../03_MCU/MCU_drivers/gpio/gpio.c:133
//参数说明：port_pin：端口号|引脚号（如：(PTB_NUM)|(9) 表示为B口9号脚）
//        pullselect：引脚拉高低电平（ 0=拉低电平，1=拉高电平）
//功能概要：使指定引脚上拉高电平或下拉低电平
//=====================================================================
void gpio_pull(uint_16 port_pin, uint_8 pullselect)
{
    244c:	b5b0      	push	{r4, r5, r7, lr}
    244e:	b084      	sub	sp, #16
    2450:	af00      	add	r7, sp, #0
    2452:	0002      	movs	r2, r0
    2454:	1dbb      	adds	r3, r7, #6
    2456:	801a      	strh	r2, [r3, #0]
    2458:	1d7b      	adds	r3, r7, #5
    245a:	1c0a      	adds	r2, r1, #0
    245c:	701a      	strb	r2, [r3, #0]
E:\2017-2018\03_Graduation Project\04_Software\04_wangshi\03_UpdateSoftware-180625\01_UEBootloader\KL36_BootLoader-180621\Debug/../03_MCU/MCU_drivers/gpio/gpio.c:138
	//局部变量声明
	PORT_Type *port_ptr;                     //声明port_ptr为PORT结构体类型指针
	uint_8 port,pin;                         //声明端口port、引脚pin变量
	//根据带入参数port_pin，解析出端口与引脚分别赋给port,pin
	gpio_get_port_pin(port_pin,&port,&pin);
    245e:	240a      	movs	r4, #10
    2460:	193a      	adds	r2, r7, r4
    2462:	250b      	movs	r5, #11
    2464:	1979      	adds	r1, r7, r5
    2466:	1dbb      	adds	r3, r7, #6
    2468:	881b      	ldrh	r3, [r3, #0]
    246a:	0018      	movs	r0, r3
    246c:	f000 f99c 	bl	27a8 <gpio_get_port_pin>
E:\2017-2018\03_Graduation Project\04_Software\04_wangshi\03_UpdateSoftware-180625\01_UEBootloader\KL36_BootLoader-180621\Debug/../03_MCU/MCU_drivers/gpio/gpio.c:141

	//根据port，给局部变量port_ptr赋值（获得基地址）
	port_ptr = PORT_ARR[port];               //获得PORT模块相应口基地址
    2470:	197b      	adds	r3, r7, r5
    2472:	781b      	ldrb	r3, [r3, #0]
    2474:	001a      	movs	r2, r3
    2476:	4b25      	ldr	r3, [pc, #148]	; (250c <gpio_pull+0xc0>)
    2478:	0092      	lsls	r2, r2, #2
    247a:	58d3      	ldr	r3, [r2, r3]
    247c:	60fb      	str	r3, [r7, #12]
E:\2017-2018\03_Graduation Project\04_Software\04_wangshi\03_UpdateSoftware-180625\01_UEBootloader\KL36_BootLoader-180621\Debug/../03_MCU/MCU_drivers/gpio/gpio.c:144

	//设定正常驱动能力（低驱动能力）（5mA）
	BCLR(PORT_PCR_DSE_SHIFT,PORT_PCR_REG(port_ptr,pin));
    247e:	193b      	adds	r3, r7, r4
    2480:	781b      	ldrb	r3, [r3, #0]
    2482:	001a      	movs	r2, r3
    2484:	68fb      	ldr	r3, [r7, #12]
    2486:	0092      	lsls	r2, r2, #2
    2488:	58d3      	ldr	r3, [r2, r3]
    248a:	193a      	adds	r2, r7, r4
    248c:	7812      	ldrb	r2, [r2, #0]
    248e:	0010      	movs	r0, r2
    2490:	2240      	movs	r2, #64	; 0x40
    2492:	4393      	bics	r3, r2
    2494:	0019      	movs	r1, r3
    2496:	68fb      	ldr	r3, [r7, #12]
    2498:	0082      	lsls	r2, r0, #2
    249a:	50d1      	str	r1, [r2, r3]
E:\2017-2018\03_Graduation Project\04_Software\04_wangshi\03_UpdateSoftware-180625\01_UEBootloader\KL36_BootLoader-180621\Debug/../03_MCU/MCU_drivers/gpio/gpio.c:146
	//将引脚上下拉使能
	BSET(PORT_PCR_PE_SHIFT,PORT_PCR_REG(port_ptr,pin));
    249c:	193b      	adds	r3, r7, r4
    249e:	781b      	ldrb	r3, [r3, #0]
    24a0:	001a      	movs	r2, r3
    24a2:	68fb      	ldr	r3, [r7, #12]
    24a4:	0092      	lsls	r2, r2, #2
    24a6:	58d3      	ldr	r3, [r2, r3]
    24a8:	193a      	adds	r2, r7, r4
    24aa:	7812      	ldrb	r2, [r2, #0]
    24ac:	0010      	movs	r0, r2
    24ae:	2202      	movs	r2, #2
    24b0:	431a      	orrs	r2, r3
    24b2:	0011      	movs	r1, r2
    24b4:	68fb      	ldr	r3, [r7, #12]
    24b6:	0082      	lsls	r2, r0, #2
    24b8:	50d1      	str	r1, [r2, r3]
E:\2017-2018\03_Graduation Project\04_Software\04_wangshi\03_UpdateSoftware-180625\01_UEBootloader\KL36_BootLoader-180621\Debug/../03_MCU/MCU_drivers/gpio/gpio.c:148
	//根据带入参数pullselect，决定引脚拉高还是拉低
	if(pullselect == 1)
    24ba:	1d7b      	adds	r3, r7, #5
    24bc:	781b      	ldrb	r3, [r3, #0]
    24be:	2b01      	cmp	r3, #1
    24c0:	d110      	bne.n	24e4 <gpio_pull+0x98>
E:\2017-2018\03_Graduation Project\04_Software\04_wangshi\03_UpdateSoftware-180625\01_UEBootloader\KL36_BootLoader-180621\Debug/../03_MCU/MCU_drivers/gpio/gpio.c:150
	{
		BSET(PORT_PCR_PS_SHIFT,PORT_PCR_REG(port_ptr,pin));
    24c2:	210a      	movs	r1, #10
    24c4:	187b      	adds	r3, r7, r1
    24c6:	781b      	ldrb	r3, [r3, #0]
    24c8:	001a      	movs	r2, r3
    24ca:	68fb      	ldr	r3, [r7, #12]
    24cc:	0092      	lsls	r2, r2, #2
    24ce:	58d3      	ldr	r3, [r2, r3]
    24d0:	187a      	adds	r2, r7, r1
    24d2:	7812      	ldrb	r2, [r2, #0]
    24d4:	0010      	movs	r0, r2
    24d6:	2201      	movs	r2, #1
    24d8:	431a      	orrs	r2, r3
    24da:	0011      	movs	r1, r2
    24dc:	68fb      	ldr	r3, [r7, #12]
    24de:	0082      	lsls	r2, r0, #2
    24e0:	50d1      	str	r1, [r2, r3]
E:\2017-2018\03_Graduation Project\04_Software\04_wangshi\03_UpdateSoftware-180625\01_UEBootloader\KL36_BootLoader-180621\Debug/../03_MCU/MCU_drivers/gpio/gpio.c:156
	}
	else
	{
		BCLR(PORT_PCR_PS_SHIFT,PORT_PCR_REG(port_ptr,pin));
	}
}
    24e2:	e00f      	b.n	2504 <gpio_pull+0xb8>
E:\2017-2018\03_Graduation Project\04_Software\04_wangshi\03_UpdateSoftware-180625\01_UEBootloader\KL36_BootLoader-180621\Debug/../03_MCU/MCU_drivers/gpio/gpio.c:154
		BCLR(PORT_PCR_PS_SHIFT,PORT_PCR_REG(port_ptr,pin));
    24e4:	210a      	movs	r1, #10
    24e6:	187b      	adds	r3, r7, r1
    24e8:	781b      	ldrb	r3, [r3, #0]
    24ea:	001a      	movs	r2, r3
    24ec:	68fb      	ldr	r3, [r7, #12]
    24ee:	0092      	lsls	r2, r2, #2
    24f0:	58d3      	ldr	r3, [r2, r3]
    24f2:	187a      	adds	r2, r7, r1
    24f4:	7812      	ldrb	r2, [r2, #0]
    24f6:	0010      	movs	r0, r2
    24f8:	2201      	movs	r2, #1
    24fa:	4393      	bics	r3, r2
    24fc:	0019      	movs	r1, r3
    24fe:	68fb      	ldr	r3, [r7, #12]
    2500:	0082      	lsls	r2, r0, #2
    2502:	50d1      	str	r1, [r2, r3]
E:\2017-2018\03_Graduation Project\04_Software\04_wangshi\03_UpdateSoftware-180625\01_UEBootloader\KL36_BootLoader-180621\Debug/../03_MCU/MCU_drivers/gpio/gpio.c:156
}
    2504:	46c0      	nop			; (mov r8, r8)
    2506:	46bd      	mov	sp, r7
    2508:	b004      	add	sp, #16
    250a:	bdb0      	pop	{r4, r5, r7, pc}
    250c:	00002c90 	.word	0x00002c90

00002510 <gpio_enable_int>:
gpio_enable_int():
E:\2017-2018\03_Graduation Project\04_Software\04_wangshi\03_UpdateSoftware-180625\01_UEBootloader\KL36_BootLoader-180621\Debug/../03_MCU/MCU_drivers/gpio/gpio.c:175
//注          意： KL25芯片，只有PORTA、PORTD口具有GPIO类中断功能
//          KW01芯片，只有PORTA、PORTC、PORTD口具有GPIO类中断功能
//          KL36芯片，只有PORTA、PORTC、PORTD口具有GPIO类中断功能
//=====================================================================
void gpio_enable_int(uint_16 port_pin,uint_8 irqtype)
{
    2510:	b5b0      	push	{r4, r5, r7, lr}
    2512:	b084      	sub	sp, #16
    2514:	af00      	add	r7, sp, #0
    2516:	0002      	movs	r2, r0
    2518:	1dbb      	adds	r3, r7, #6
    251a:	801a      	strh	r2, [r3, #0]
    251c:	1d7b      	adds	r3, r7, #5
    251e:	1c0a      	adds	r2, r1, #0
    2520:	701a      	strb	r2, [r3, #0]
E:\2017-2018\03_Graduation Project\04_Software\04_wangshi\03_UpdateSoftware-180625\01_UEBootloader\KL36_BootLoader-180621\Debug/../03_MCU/MCU_drivers/gpio/gpio.c:180
	//局部变量声明
	PORT_Type *port_ptr;                       //声明port_ptr为PORT结构体类型指针
	uint_8 port,pin;                           //声明端口port、引脚pin变量
	//根据带入参数port_pin，解析出端口与引脚分别赋给port,pin
	gpio_get_port_pin(port_pin,&port,&pin);
    2522:	240a      	movs	r4, #10
    2524:	193a      	adds	r2, r7, r4
    2526:	250b      	movs	r5, #11
    2528:	1979      	adds	r1, r7, r5
    252a:	1dbb      	adds	r3, r7, #6
    252c:	881b      	ldrh	r3, [r3, #0]
    252e:	0018      	movs	r0, r3
    2530:	f000 f93a 	bl	27a8 <gpio_get_port_pin>
E:\2017-2018\03_Graduation Project\04_Software\04_wangshi\03_UpdateSoftware-180625\01_UEBootloader\KL36_BootLoader-180621\Debug/../03_MCU/MCU_drivers/gpio/gpio.c:183

	//根据port，给局部变量port_ptr赋值（获得基地址）
	port_ptr = PORT_ARR[port];
    2534:	197b      	adds	r3, r7, r5
    2536:	781b      	ldrb	r3, [r3, #0]
    2538:	001a      	movs	r2, r3
    253a:	4b1f      	ldr	r3, [pc, #124]	; (25b8 <gpio_enable_int+0xa8>)
    253c:	0092      	lsls	r2, r2, #2
    253e:	58d3      	ldr	r3, [r2, r3]
    2540:	60fb      	str	r3, [r7, #12]
E:\2017-2018\03_Graduation Project\04_Software\04_wangshi\03_UpdateSoftware-180625\01_UEBootloader\KL36_BootLoader-180621\Debug/../03_MCU/MCU_drivers/gpio/gpio.c:185

	PORT_PCR_REG(port_ptr,pin) |= PORT_PCR_ISF_MASK;//清除引脚中断标志
    2542:	193b      	adds	r3, r7, r4
    2544:	781b      	ldrb	r3, [r3, #0]
    2546:	001a      	movs	r2, r3
    2548:	68fb      	ldr	r3, [r7, #12]
    254a:	0092      	lsls	r2, r2, #2
    254c:	58d3      	ldr	r3, [r2, r3]
    254e:	193a      	adds	r2, r7, r4
    2550:	7812      	ldrb	r2, [r2, #0]
    2552:	0010      	movs	r0, r2
    2554:	2280      	movs	r2, #128	; 0x80
    2556:	0452      	lsls	r2, r2, #17
    2558:	431a      	orrs	r2, r3
    255a:	0011      	movs	r1, r2
    255c:	68fb      	ldr	r3, [r7, #12]
    255e:	0082      	lsls	r2, r0, #2
    2560:	50d1      	str	r1, [r2, r3]
E:\2017-2018\03_Graduation Project\04_Software\04_wangshi\03_UpdateSoftware-180625\01_UEBootloader\KL36_BootLoader-180621\Debug/../03_MCU/MCU_drivers/gpio/gpio.c:186
	PORT_PCR_REG(port_ptr,pin) |= PORT_PCR_IRQC(irqtype);//使能引脚中断
    2562:	0020      	movs	r0, r4
    2564:	193b      	adds	r3, r7, r4
    2566:	781b      	ldrb	r3, [r3, #0]
    2568:	001a      	movs	r2, r3
    256a:	68fb      	ldr	r3, [r7, #12]
    256c:	0092      	lsls	r2, r2, #2
    256e:	58d2      	ldr	r2, [r2, r3]
    2570:	1d7b      	adds	r3, r7, #5
    2572:	781b      	ldrb	r3, [r3, #0]
    2574:	0419      	lsls	r1, r3, #16
    2576:	23f0      	movs	r3, #240	; 0xf0
    2578:	031b      	lsls	r3, r3, #12
    257a:	400b      	ands	r3, r1
    257c:	1839      	adds	r1, r7, r0
    257e:	7809      	ldrb	r1, [r1, #0]
    2580:	0008      	movs	r0, r1
    2582:	431a      	orrs	r2, r3
    2584:	0011      	movs	r1, r2
    2586:	68fb      	ldr	r3, [r7, #12]
    2588:	0082      	lsls	r2, r0, #2
    258a:	50d1      	str	r1, [r2, r3]
E:\2017-2018\03_Graduation Project\04_Software\04_wangshi\03_UpdateSoftware-180625\01_UEBootloader\KL36_BootLoader-180621\Debug/../03_MCU/MCU_drivers/gpio/gpio.c:188

	switch(port)
    258c:	197b      	adds	r3, r7, r5
    258e:	781b      	ldrb	r3, [r3, #0]
    2590:	2b00      	cmp	r3, #0
    2592:	d004      	beq.n	259e <gpio_enable_int+0x8e>
    2594:	db0b      	blt.n	25ae <gpio_enable_int+0x9e>
    2596:	3b02      	subs	r3, #2
    2598:	2b01      	cmp	r3, #1
    259a:	d808      	bhi.n	25ae <gpio_enable_int+0x9e>
    259c:	e003      	b.n	25a6 <gpio_enable_int+0x96>
E:\2017-2018\03_Graduation Project\04_Software\04_wangshi\03_UpdateSoftware-180625\01_UEBootloader\KL36_BootLoader-180621\Debug/../03_MCU/MCU_drivers/gpio/gpio.c:191
	{
	case 0:   //PTA
		NVIC_EnableIRQ(PORTA_IRQn);            //开中断控制器IRQ中断
    259e:	201e      	movs	r0, #30
    25a0:	f7ff fe28 	bl	21f4 <NVIC_EnableIRQ>
E:\2017-2018\03_Graduation Project\04_Software\04_wangshi\03_UpdateSoftware-180625\01_UEBootloader\KL36_BootLoader-180621\Debug/../03_MCU/MCU_drivers/gpio/gpio.c:192
		break;
    25a4:	e003      	b.n	25ae <gpio_enable_int+0x9e>
E:\2017-2018\03_Graduation Project\04_Software\04_wangshi\03_UpdateSoftware-180625\01_UEBootloader\KL36_BootLoader-180621\Debug/../03_MCU/MCU_drivers/gpio/gpio.c:195
	case 2:   //PTC
	case 3:   //PTD
		NVIC_EnableIRQ(PORTC_PORTD_IRQn);      //开中断控制器IRQ中断
    25a6:	201f      	movs	r0, #31
    25a8:	f7ff fe24 	bl	21f4 <NVIC_EnableIRQ>
E:\2017-2018\03_Graduation Project\04_Software\04_wangshi\03_UpdateSoftware-180625\01_UEBootloader\KL36_BootLoader-180621\Debug/../03_MCU/MCU_drivers/gpio/gpio.c:196
		break;
    25ac:	46c0      	nop			; (mov r8, r8)
E:\2017-2018\03_Graduation Project\04_Software\04_wangshi\03_UpdateSoftware-180625\01_UEBootloader\KL36_BootLoader-180621\Debug/../03_MCU/MCU_drivers/gpio/gpio.c:199
	default:;
	}
}
    25ae:	46c0      	nop			; (mov r8, r8)
    25b0:	46bd      	mov	sp, r7
    25b2:	b004      	add	sp, #16
    25b4:	bdb0      	pop	{r4, r5, r7, pc}
    25b6:	46c0      	nop			; (mov r8, r8)
    25b8:	00002c90 	.word	0x00002c90

000025bc <gpio_disable_int>:
gpio_disable_int():
E:\2017-2018\03_Graduation Project\04_Software\04_wangshi\03_UpdateSoftware-180625\01_UEBootloader\KL36_BootLoader-180621\Debug/../03_MCU/MCU_drivers/gpio/gpio.c:211
//注          意： KL25芯片，只有PORTA、PORTD口具有GPIO类中断功能
//           KW01芯片，只有PORTA、PORTC、PORTD口具有GPIO类中断功能
//           KL36芯片，只有PORTA、PORTC、PORTD口具有GPIO类中断功能
//=====================================================================
void gpio_disable_int(uint_16 port_pin)
{
    25bc:	b5b0      	push	{r4, r5, r7, lr}
    25be:	b084      	sub	sp, #16
    25c0:	af00      	add	r7, sp, #0
    25c2:	0002      	movs	r2, r0
    25c4:	1dbb      	adds	r3, r7, #6
    25c6:	801a      	strh	r2, [r3, #0]
E:\2017-2018\03_Graduation Project\04_Software\04_wangshi\03_UpdateSoftware-180625\01_UEBootloader\KL36_BootLoader-180621\Debug/../03_MCU/MCU_drivers/gpio/gpio.c:216
	//局部变量声明
	PORT_Type *port_ptr;                        //声明port_ptr为PORT结构体类型指针
	uint_8 port,pin;                            //声明端口port、引脚pin变量
	//根据带入参数port_pin，解析出端口与引脚分别赋给port,pin
	gpio_get_port_pin(port_pin,&port,&pin);
    25c8:	240a      	movs	r4, #10
    25ca:	193a      	adds	r2, r7, r4
    25cc:	250b      	movs	r5, #11
    25ce:	1979      	adds	r1, r7, r5
    25d0:	1dbb      	adds	r3, r7, #6
    25d2:	881b      	ldrh	r3, [r3, #0]
    25d4:	0018      	movs	r0, r3
    25d6:	f000 f8e7 	bl	27a8 <gpio_get_port_pin>
E:\2017-2018\03_Graduation Project\04_Software\04_wangshi\03_UpdateSoftware-180625\01_UEBootloader\KL36_BootLoader-180621\Debug/../03_MCU/MCU_drivers/gpio/gpio.c:219

	//根据port，给局部变量port_ptr赋值（获得基地址）
	port_ptr = PORT_ARR[port];
    25da:	197b      	adds	r3, r7, r5
    25dc:	781b      	ldrb	r3, [r3, #0]
    25de:	001a      	movs	r2, r3
    25e0:	4b13      	ldr	r3, [pc, #76]	; (2630 <gpio_disable_int+0x74>)
    25e2:	0092      	lsls	r2, r2, #2
    25e4:	58d3      	ldr	r3, [r2, r3]
    25e6:	60fb      	str	r3, [r7, #12]
E:\2017-2018\03_Graduation Project\04_Software\04_wangshi\03_UpdateSoftware-180625\01_UEBootloader\KL36_BootLoader-180621\Debug/../03_MCU/MCU_drivers/gpio/gpio.c:221

	PORT_PCR_REG(port_ptr,pin) &= ~PORT_PCR_IRQC_MASK;  //禁用引脚中断
    25e8:	193b      	adds	r3, r7, r4
    25ea:	781b      	ldrb	r3, [r3, #0]
    25ec:	001a      	movs	r2, r3
    25ee:	68fb      	ldr	r3, [r7, #12]
    25f0:	0092      	lsls	r2, r2, #2
    25f2:	58d3      	ldr	r3, [r2, r3]
    25f4:	193a      	adds	r2, r7, r4
    25f6:	7812      	ldrb	r2, [r2, #0]
    25f8:	0010      	movs	r0, r2
    25fa:	4a0e      	ldr	r2, [pc, #56]	; (2634 <gpio_disable_int+0x78>)
    25fc:	4013      	ands	r3, r2
    25fe:	0019      	movs	r1, r3
    2600:	68fb      	ldr	r3, [r7, #12]
    2602:	0082      	lsls	r2, r0, #2
    2604:	50d1      	str	r1, [r2, r3]
E:\2017-2018\03_Graduation Project\04_Software\04_wangshi\03_UpdateSoftware-180625\01_UEBootloader\KL36_BootLoader-180621\Debug/../03_MCU/MCU_drivers/gpio/gpio.c:223

	switch(port)
    2606:	197b      	adds	r3, r7, r5
    2608:	781b      	ldrb	r3, [r3, #0]
    260a:	2b00      	cmp	r3, #0
    260c:	d004      	beq.n	2618 <gpio_disable_int+0x5c>
    260e:	db0b      	blt.n	2628 <gpio_disable_int+0x6c>
    2610:	3b02      	subs	r3, #2
    2612:	2b01      	cmp	r3, #1
    2614:	d808      	bhi.n	2628 <gpio_disable_int+0x6c>
    2616:	e003      	b.n	2620 <gpio_disable_int+0x64>
E:\2017-2018\03_Graduation Project\04_Software\04_wangshi\03_UpdateSoftware-180625\01_UEBootloader\KL36_BootLoader-180621\Debug/../03_MCU/MCU_drivers/gpio/gpio.c:226
	{
	case 0:   //PTA
		NVIC_DisableIRQ(PORTA_IRQn);           //关中断控制器IRQ中断
    2618:	201e      	movs	r0, #30
    261a:	f7ff fe01 	bl	2220 <NVIC_DisableIRQ>
E:\2017-2018\03_Graduation Project\04_Software\04_wangshi\03_UpdateSoftware-180625\01_UEBootloader\KL36_BootLoader-180621\Debug/../03_MCU/MCU_drivers/gpio/gpio.c:227
		break;
    261e:	e003      	b.n	2628 <gpio_disable_int+0x6c>
E:\2017-2018\03_Graduation Project\04_Software\04_wangshi\03_UpdateSoftware-180625\01_UEBootloader\KL36_BootLoader-180621\Debug/../03_MCU/MCU_drivers/gpio/gpio.c:230
	case 2:   //PTC
	case 3:   //PTD
		NVIC_DisableIRQ(PORTC_PORTD_IRQn);     //关中断控制器IRQ中断
    2620:	201f      	movs	r0, #31
    2622:	f7ff fdfd 	bl	2220 <NVIC_DisableIRQ>
E:\2017-2018\03_Graduation Project\04_Software\04_wangshi\03_UpdateSoftware-180625\01_UEBootloader\KL36_BootLoader-180621\Debug/../03_MCU/MCU_drivers/gpio/gpio.c:231
		break;
    2626:	46c0      	nop			; (mov r8, r8)
E:\2017-2018\03_Graduation Project\04_Software\04_wangshi\03_UpdateSoftware-180625\01_UEBootloader\KL36_BootLoader-180621\Debug/../03_MCU/MCU_drivers/gpio/gpio.c:234
	default:;
	}
}
    2628:	46c0      	nop			; (mov r8, r8)
    262a:	46bd      	mov	sp, r7
    262c:	b004      	add	sp, #16
    262e:	bdb0      	pop	{r4, r5, r7, pc}
    2630:	00002c90 	.word	0x00002c90
    2634:	fff0ffff 	.word	0xfff0ffff

00002638 <gpio_get_int>:
gpio_get_int():
E:\2017-2018\03_Graduation Project\04_Software\04_wangshi\03_UpdateSoftware-180625\01_UEBootloader\KL36_BootLoader-180621\Debug/../03_MCU/MCU_drivers/gpio/gpio.c:246
//注          意： KL25芯片，只有PORTA、PORTD口具有GPIO类中断功能
//           KW01芯片，只有PORTA、PORTC、PORTD口具有GPIO类中断功能
//           KL36芯片，只有PORTA、PORTC、PORTD口具有GPIO类中断功能
//=====================================================================
uint_8 gpio_get_int(uint_16 port_pin)
{
    2638:	b5b0      	push	{r4, r5, r7, lr}
    263a:	b084      	sub	sp, #16
    263c:	af00      	add	r7, sp, #0
    263e:	0002      	movs	r2, r0
    2640:	1dbb      	adds	r3, r7, #6
    2642:	801a      	strh	r2, [r3, #0]
E:\2017-2018\03_Graduation Project\04_Software\04_wangshi\03_UpdateSoftware-180625\01_UEBootloader\KL36_BootLoader-180621\Debug/../03_MCU/MCU_drivers/gpio/gpio.c:251
	//局部变量声明
	PORT_Type *port_ptr;                            //声明port_ptr为PORT结构体类型指针
	uint_8 port,pin;                                //声明端口port、引脚pin变量
	//根据带入参数port_pin，解析出端口与引脚分别赋给port,pin
	gpio_get_port_pin(port_pin,&port,&pin);
    2644:	240a      	movs	r4, #10
    2646:	193a      	adds	r2, r7, r4
    2648:	250b      	movs	r5, #11
    264a:	1979      	adds	r1, r7, r5
    264c:	1dbb      	adds	r3, r7, #6
    264e:	881b      	ldrh	r3, [r3, #0]
    2650:	0018      	movs	r0, r3
    2652:	f000 f8a9 	bl	27a8 <gpio_get_port_pin>
E:\2017-2018\03_Graduation Project\04_Software\04_wangshi\03_UpdateSoftware-180625\01_UEBootloader\KL36_BootLoader-180621\Debug/../03_MCU/MCU_drivers/gpio/gpio.c:254

	//根据port，给局部变量port_ptr赋值（获得基地址）
	port_ptr = PORT_ARR[port];
    2656:	197b      	adds	r3, r7, r5
    2658:	781b      	ldrb	r3, [r3, #0]
    265a:	001a      	movs	r2, r3
    265c:	4b09      	ldr	r3, [pc, #36]	; (2684 <gpio_get_int+0x4c>)
    265e:	0092      	lsls	r2, r2, #2
    2660:	58d3      	ldr	r3, [r2, r3]
    2662:	60fb      	str	r3, [r7, #12]
E:\2017-2018\03_Graduation Project\04_Software\04_wangshi\03_UpdateSoftware-180625\01_UEBootloader\KL36_BootLoader-180621\Debug/../03_MCU/MCU_drivers/gpio/gpio.c:257

	//返回引脚GPIO中断标志（1或0）1表示引脚有GPIO中断，0表示引脚没有GPIO中断
	return (BGET(PORT_PCR_ISF_SHIFT,PORT_PCR_REG(port_ptr,pin)) >= 1 ? 1:0);
    2664:	193b      	adds	r3, r7, r4
    2666:	781b      	ldrb	r3, [r3, #0]
    2668:	001a      	movs	r2, r3
    266a:	68fb      	ldr	r3, [r7, #12]
    266c:	0092      	lsls	r2, r2, #2
    266e:	58d3      	ldr	r3, [r2, r3]
    2670:	0e1b      	lsrs	r3, r3, #24
    2672:	2201      	movs	r2, #1
    2674:	4013      	ands	r3, r2
    2676:	1e5a      	subs	r2, r3, #1
    2678:	4193      	sbcs	r3, r2
    267a:	b2db      	uxtb	r3, r3
E:\2017-2018\03_Graduation Project\04_Software\04_wangshi\03_UpdateSoftware-180625\01_UEBootloader\KL36_BootLoader-180621\Debug/../03_MCU/MCU_drivers/gpio/gpio.c:258
}
    267c:	0018      	movs	r0, r3
    267e:	46bd      	mov	sp, r7
    2680:	b004      	add	sp, #16
    2682:	bdb0      	pop	{r4, r5, r7, pc}
    2684:	00002c90 	.word	0x00002c90

00002688 <gpio_clear_int>:
gpio_clear_int():
E:\2017-2018\03_Graduation Project\04_Software\04_wangshi\03_UpdateSoftware-180625\01_UEBootloader\KL36_BootLoader-180621\Debug/../03_MCU/MCU_drivers/gpio/gpio.c:270
//注          意： KL25芯片，只有PORTA、PORTD口具有GPIO类中断功能
//           KW01芯片，只有PORTA、PORTC、PORTD口具有GPIO类中断功能
//           KL36芯片，只有PORTA、PORTC、PORTD口具有GPIO类中断功能
//=====================================================================
void gpio_clear_int(uint_16 port_pin)
{
    2688:	b5b0      	push	{r4, r5, r7, lr}
    268a:	b084      	sub	sp, #16
    268c:	af00      	add	r7, sp, #0
    268e:	0002      	movs	r2, r0
    2690:	1dbb      	adds	r3, r7, #6
    2692:	801a      	strh	r2, [r3, #0]
E:\2017-2018\03_Graduation Project\04_Software\04_wangshi\03_UpdateSoftware-180625\01_UEBootloader\KL36_BootLoader-180621\Debug/../03_MCU/MCU_drivers/gpio/gpio.c:275
	//局部变量声明
	PORT_Type *port_ptr;                          //声明port_ptr为PORT结构体类型指针
	uint_8 port,pin;                              //声明端口port、引脚pin变量
	//根据带入参数port_pin，解析出端口与引脚分别赋给port,pin
	gpio_get_port_pin(port_pin,&port,&pin);
    2694:	240a      	movs	r4, #10
    2696:	193a      	adds	r2, r7, r4
    2698:	250b      	movs	r5, #11
    269a:	1979      	adds	r1, r7, r5
    269c:	1dbb      	adds	r3, r7, #6
    269e:	881b      	ldrh	r3, [r3, #0]
    26a0:	0018      	movs	r0, r3
    26a2:	f000 f881 	bl	27a8 <gpio_get_port_pin>
E:\2017-2018\03_Graduation Project\04_Software\04_wangshi\03_UpdateSoftware-180625\01_UEBootloader\KL36_BootLoader-180621\Debug/../03_MCU/MCU_drivers/gpio/gpio.c:278

	//根据port，给局部变量port_ptr赋值（获得基地址）
	port_ptr = PORT_ARR[port];
    26a6:	197b      	adds	r3, r7, r5
    26a8:	781b      	ldrb	r3, [r3, #0]
    26aa:	001a      	movs	r2, r3
    26ac:	4b0b      	ldr	r3, [pc, #44]	; (26dc <gpio_clear_int+0x54>)
    26ae:	0092      	lsls	r2, r2, #2
    26b0:	58d3      	ldr	r3, [r2, r3]
    26b2:	60fb      	str	r3, [r7, #12]
E:\2017-2018\03_Graduation Project\04_Software\04_wangshi\03_UpdateSoftware-180625\01_UEBootloader\KL36_BootLoader-180621\Debug/../03_MCU/MCU_drivers/gpio/gpio.c:280
	//写1清除引脚中断标志
	PORT_PCR_REG(port_ptr,pin) |= PORT_PCR_ISF_MASK;
    26b4:	193b      	adds	r3, r7, r4
    26b6:	781b      	ldrb	r3, [r3, #0]
    26b8:	001a      	movs	r2, r3
    26ba:	68fb      	ldr	r3, [r7, #12]
    26bc:	0092      	lsls	r2, r2, #2
    26be:	58d3      	ldr	r3, [r2, r3]
    26c0:	193a      	adds	r2, r7, r4
    26c2:	7812      	ldrb	r2, [r2, #0]
    26c4:	0010      	movs	r0, r2
    26c6:	2280      	movs	r2, #128	; 0x80
    26c8:	0452      	lsls	r2, r2, #17
    26ca:	431a      	orrs	r2, r3
    26cc:	0011      	movs	r1, r2
    26ce:	68fb      	ldr	r3, [r7, #12]
    26d0:	0082      	lsls	r2, r0, #2
    26d2:	50d1      	str	r1, [r2, r3]
E:\2017-2018\03_Graduation Project\04_Software\04_wangshi\03_UpdateSoftware-180625\01_UEBootloader\KL36_BootLoader-180621\Debug/../03_MCU/MCU_drivers/gpio/gpio.c:281
}
    26d4:	46c0      	nop			; (mov r8, r8)
    26d6:	46bd      	mov	sp, r7
    26d8:	b004      	add	sp, #16
    26da:	bdb0      	pop	{r4, r5, r7, pc}
    26dc:	00002c90 	.word	0x00002c90

000026e0 <gpio_clear_allint>:
gpio_clear_allint():
E:\2017-2018\03_Graduation Project\04_Software\04_wangshi\03_UpdateSoftware-180625\01_UEBootloader\KL36_BootLoader-180621\Debug/../03_MCU/MCU_drivers/gpio/gpio.c:293
//注          意： KL25芯片，只有PORTA、PORTD口具有GPIO类中断功能
//           KW01芯片，只有PORTA、PORTC、PORTD口具有GPIO类中断功能
//           KL36芯片，只有PORTA、PORTC、PORTD口具有GPIO类中断功能
//=====================================================================
void gpio_clear_allint(void)
{
    26e0:	b580      	push	{r7, lr}
    26e2:	b082      	sub	sp, #8
    26e4:	af00      	add	r7, sp, #0
E:\2017-2018\03_Graduation Project\04_Software\04_wangshi\03_UpdateSoftware-180625\01_UEBootloader\KL36_BootLoader-180621\Debug/../03_MCU/MCU_drivers/gpio/gpio.c:296
	uint_8 i;

	for(i = 0;i < 5;i++)
    26e6:	1dfb      	adds	r3, r7, #7
    26e8:	2200      	movs	r2, #0
    26ea:	701a      	strb	r2, [r3, #0]
    26ec:	e00d      	b.n	270a <gpio_clear_allint+0x2a>
E:\2017-2018\03_Graduation Project\04_Software\04_wangshi\03_UpdateSoftware-180625\01_UEBootloader\KL36_BootLoader-180621\Debug/../03_MCU/MCU_drivers/gpio/gpio.c:299 (discriminator 3)
	{
		//各位写1清零
		PORT_ISFR_REG(PORT_ARR[i]) = PORT_ISFR_ISF_MASK;
    26ee:	1dfb      	adds	r3, r7, #7
    26f0:	781a      	ldrb	r2, [r3, #0]
    26f2:	4b0a      	ldr	r3, [pc, #40]	; (271c <gpio_clear_allint+0x3c>)
    26f4:	0092      	lsls	r2, r2, #2
    26f6:	58d3      	ldr	r3, [r2, r3]
    26f8:	21a0      	movs	r1, #160	; 0xa0
    26fa:	2201      	movs	r2, #1
    26fc:	4252      	negs	r2, r2
    26fe:	505a      	str	r2, [r3, r1]
E:\2017-2018\03_Graduation Project\04_Software\04_wangshi\03_UpdateSoftware-180625\01_UEBootloader\KL36_BootLoader-180621\Debug/../03_MCU/MCU_drivers/gpio/gpio.c:296 (discriminator 3)
	for(i = 0;i < 5;i++)
    2700:	1dfb      	adds	r3, r7, #7
    2702:	781a      	ldrb	r2, [r3, #0]
    2704:	1dfb      	adds	r3, r7, #7
    2706:	3201      	adds	r2, #1
    2708:	701a      	strb	r2, [r3, #0]
E:\2017-2018\03_Graduation Project\04_Software\04_wangshi\03_UpdateSoftware-180625\01_UEBootloader\KL36_BootLoader-180621\Debug/../03_MCU/MCU_drivers/gpio/gpio.c:296 (discriminator 1)
    270a:	1dfb      	adds	r3, r7, #7
    270c:	781b      	ldrb	r3, [r3, #0]
    270e:	2b04      	cmp	r3, #4
    2710:	d9ed      	bls.n	26ee <gpio_clear_allint+0xe>
E:\2017-2018\03_Graduation Project\04_Software\04_wangshi\03_UpdateSoftware-180625\01_UEBootloader\KL36_BootLoader-180621\Debug/../03_MCU/MCU_drivers/gpio/gpio.c:301
	}
}
    2712:	46c0      	nop			; (mov r8, r8)
    2714:	46bd      	mov	sp, r7
    2716:	b002      	add	sp, #8
    2718:	bd80      	pop	{r7, pc}
    271a:	46c0      	nop			; (mov r8, r8)
    271c:	00002c90 	.word	0x00002c90

00002720 <gpio_drive_strength>:
gpio_drive_strength():
E:\2017-2018\03_Graduation Project\04_Software\04_wangshi\03_UpdateSoftware-180625\01_UEBootloader\KL36_BootLoader-180621\Debug/../03_MCU/MCU_drivers/gpio/gpio.c:316
//            对引脚的驱动能力进行设置，只有PTB0,PTB1,PTD6,PTD7同时具有高驱
//            动能力和正常驱动能力,这些引脚可用于直接驱动LED或给MOSFET（金氧
//            半场效晶体管）供电，该函数只适用于上述4个引脚。
//=====================================================================
void gpio_drive_strength(uint_16 port_pin, uint_8 control)
{
    2720:	b590      	push	{r4, r7, lr}
    2722:	b085      	sub	sp, #20
    2724:	af00      	add	r7, sp, #0
    2726:	0002      	movs	r2, r0
    2728:	1dbb      	adds	r3, r7, #6
    272a:	801a      	strh	r2, [r3, #0]
    272c:	1d7b      	adds	r3, r7, #5
    272e:	1c0a      	adds	r2, r1, #0
    2730:	701a      	strb	r2, [r3, #0]
E:\2017-2018\03_Graduation Project\04_Software\04_wangshi\03_UpdateSoftware-180625\01_UEBootloader\KL36_BootLoader-180621\Debug/../03_MCU/MCU_drivers/gpio/gpio.c:321
	//局部变量声明
	PORT_Type *port_ptr;                           //声明port_ptr为PORT结构体类型指针
	uint_8 port,pin;                               //声明端口port、引脚pin变量
	//根据带入参数port_pin，解析出端口与引脚分别赋给port,pin
	gpio_get_port_pin(port_pin,&port,&pin);
    2732:	230a      	movs	r3, #10
    2734:	18fa      	adds	r2, r7, r3
    2736:	240b      	movs	r4, #11
    2738:	1939      	adds	r1, r7, r4
    273a:	1dbb      	adds	r3, r7, #6
    273c:	881b      	ldrh	r3, [r3, #0]
    273e:	0018      	movs	r0, r3
    2740:	f000 f832 	bl	27a8 <gpio_get_port_pin>
E:\2017-2018\03_Graduation Project\04_Software\04_wangshi\03_UpdateSoftware-180625\01_UEBootloader\KL36_BootLoader-180621\Debug/../03_MCU/MCU_drivers/gpio/gpio.c:324

	//根据port，给局部变量port_ptr赋值（获得基地址）
	port_ptr = PORT_ARR[port];
    2744:	193b      	adds	r3, r7, r4
    2746:	781b      	ldrb	r3, [r3, #0]
    2748:	001a      	movs	r2, r3
    274a:	4b16      	ldr	r3, [pc, #88]	; (27a4 <gpio_drive_strength+0x84>)
    274c:	0092      	lsls	r2, r2, #2
    274e:	58d3      	ldr	r3, [r2, r3]
    2750:	60fb      	str	r3, [r7, #12]
E:\2017-2018\03_Graduation Project\04_Software\04_wangshi\03_UpdateSoftware-180625\01_UEBootloader\KL36_BootLoader-180621\Debug/../03_MCU/MCU_drivers/gpio/gpio.c:327

	//根据带入参数control，决定引脚为输出高电流还是正常电流
	if(control == 1)
    2752:	1d7b      	adds	r3, r7, #5
    2754:	781b      	ldrb	r3, [r3, #0]
    2756:	2b01      	cmp	r3, #1
    2758:	d110      	bne.n	277c <gpio_drive_strength+0x5c>
E:\2017-2018\03_Graduation Project\04_Software\04_wangshi\03_UpdateSoftware-180625\01_UEBootloader\KL36_BootLoader-180621\Debug/../03_MCU/MCU_drivers/gpio/gpio.c:329
	{
		BSET(PORT_PCR_DSE_SHIFT,PORT_PCR_REG(port_ptr,pin));
    275a:	210a      	movs	r1, #10
    275c:	187b      	adds	r3, r7, r1
    275e:	781b      	ldrb	r3, [r3, #0]
    2760:	001a      	movs	r2, r3
    2762:	68fb      	ldr	r3, [r7, #12]
    2764:	0092      	lsls	r2, r2, #2
    2766:	58d3      	ldr	r3, [r2, r3]
    2768:	187a      	adds	r2, r7, r1
    276a:	7812      	ldrb	r2, [r2, #0]
    276c:	0010      	movs	r0, r2
    276e:	2240      	movs	r2, #64	; 0x40
    2770:	431a      	orrs	r2, r3
    2772:	0011      	movs	r1, r2
    2774:	68fb      	ldr	r3, [r7, #12]
    2776:	0082      	lsls	r2, r0, #2
    2778:	50d1      	str	r1, [r2, r3]
E:\2017-2018\03_Graduation Project\04_Software\04_wangshi\03_UpdateSoftware-180625\01_UEBootloader\KL36_BootLoader-180621\Debug/../03_MCU/MCU_drivers/gpio/gpio.c:335
	}
	else
	{
		BCLR(PORT_PCR_DSE_SHIFT,PORT_PCR_REG(port_ptr,pin));
	}
}
    277a:	e00f      	b.n	279c <gpio_drive_strength+0x7c>
E:\2017-2018\03_Graduation Project\04_Software\04_wangshi\03_UpdateSoftware-180625\01_UEBootloader\KL36_BootLoader-180621\Debug/../03_MCU/MCU_drivers/gpio/gpio.c:333
		BCLR(PORT_PCR_DSE_SHIFT,PORT_PCR_REG(port_ptr,pin));
    277c:	210a      	movs	r1, #10
    277e:	187b      	adds	r3, r7, r1
    2780:	781b      	ldrb	r3, [r3, #0]
    2782:	001a      	movs	r2, r3
    2784:	68fb      	ldr	r3, [r7, #12]
    2786:	0092      	lsls	r2, r2, #2
    2788:	58d3      	ldr	r3, [r2, r3]
    278a:	187a      	adds	r2, r7, r1
    278c:	7812      	ldrb	r2, [r2, #0]
    278e:	0010      	movs	r0, r2
    2790:	2240      	movs	r2, #64	; 0x40
    2792:	4393      	bics	r3, r2
    2794:	0019      	movs	r1, r3
    2796:	68fb      	ldr	r3, [r7, #12]
    2798:	0082      	lsls	r2, r0, #2
    279a:	50d1      	str	r1, [r2, r3]
E:\2017-2018\03_Graduation Project\04_Software\04_wangshi\03_UpdateSoftware-180625\01_UEBootloader\KL36_BootLoader-180621\Debug/../03_MCU/MCU_drivers/gpio/gpio.c:335
}
    279c:	46c0      	nop			; (mov r8, r8)
    279e:	46bd      	mov	sp, r7
    27a0:	b005      	add	sp, #20
    27a2:	bd90      	pop	{r4, r7, pc}
    27a4:	00002c90 	.word	0x00002c90

000027a8 <gpio_get_port_pin>:
gpio_get_port_pin():
E:\2017-2018\03_Graduation Project\04_Software\04_wangshi\03_UpdateSoftware-180625\01_UEBootloader\KL36_BootLoader-180621\Debug/../03_MCU/MCU_drivers/gpio/gpio.c:348
//       pin:引脚号（0~31，实际取值由芯片的物理引脚决定）（传指带出参数）
//功能概要：将传进参数port_pin进行解析，得出具体端口号与引脚号，分别赋值给port与pin,返回。
//       （例：(PTB_NUM)|(9)解析为PORTB与9，并将其分别赋值给port与pin）。
//=====================================================================
void gpio_get_port_pin(uint_16 port_pin,uint_8* port,uint_8* pin)
{
    27a8:	b580      	push	{r7, lr}
    27aa:	b084      	sub	sp, #16
    27ac:	af00      	add	r7, sp, #0
    27ae:	60b9      	str	r1, [r7, #8]
    27b0:	607a      	str	r2, [r7, #4]
    27b2:	210e      	movs	r1, #14
    27b4:	187b      	adds	r3, r7, r1
    27b6:	1c02      	adds	r2, r0, #0
    27b8:	801a      	strh	r2, [r3, #0]
E:\2017-2018\03_Graduation Project\04_Software\04_wangshi\03_UpdateSoftware-180625\01_UEBootloader\KL36_BootLoader-180621\Debug/../03_MCU/MCU_drivers/gpio/gpio.c:349
	*port = (port_pin>>8);
    27ba:	187b      	adds	r3, r7, r1
    27bc:	881b      	ldrh	r3, [r3, #0]
    27be:	0a1b      	lsrs	r3, r3, #8
    27c0:	b29b      	uxth	r3, r3
    27c2:	b2da      	uxtb	r2, r3
    27c4:	68bb      	ldr	r3, [r7, #8]
    27c6:	701a      	strb	r2, [r3, #0]
E:\2017-2018\03_Graduation Project\04_Software\04_wangshi\03_UpdateSoftware-180625\01_UEBootloader\KL36_BootLoader-180621\Debug/../03_MCU/MCU_drivers/gpio/gpio.c:350
	*pin = port_pin;
    27c8:	187b      	adds	r3, r7, r1
    27ca:	881b      	ldrh	r3, [r3, #0]
    27cc:	b2da      	uxtb	r2, r3
    27ce:	687b      	ldr	r3, [r7, #4]
    27d0:	701a      	strb	r2, [r3, #0]
E:\2017-2018\03_Graduation Project\04_Software\04_wangshi\03_UpdateSoftware-180625\01_UEBootloader\KL36_BootLoader-180621\Debug/../03_MCU/MCU_drivers/gpio/gpio.c:351
}
    27d2:	46c0      	nop			; (mov r8, r8)
    27d4:	46bd      	mov	sp, r7
    27d6:	b004      	add	sp, #16
    27d8:	bd80      	pop	{r7, pc}
	...

000027dc <flash_init>:
flash_init():
E:\2017-2018\03_Graduation Project\04_Software\04_wangshi\03_UpdateSoftware-180625\01_UEBootloader\KL36_BootLoader-180621\Debug/../03_MCU/MCU_drivers/flash/flash.c:23
//函数返回：无
//参数说明：无
//功能概要：初始化flash模块
//======================================================================
void flash_init(void)
{   
    27dc:	b580      	push	{r7, lr}
    27de:	af00      	add	r7, sp, #0
E:\2017-2018\03_Graduation Project\04_Software\04_wangshi\03_UpdateSoftware-180625\01_UEBootloader\KL36_BootLoader-180621\Debug/../03_MCU/MCU_drivers/flash/flash.c:25
    // 等待命令完成
    while(!(FTFA_FSTAT & CCIF));
    27e0:	46c0      	nop			; (mov r8, r8)
E:\2017-2018\03_Graduation Project\04_Software\04_wangshi\03_UpdateSoftware-180625\01_UEBootloader\KL36_BootLoader-180621\Debug/../03_MCU/MCU_drivers/flash/flash.c:25 (discriminator 1)
    27e2:	4b09      	ldr	r3, [pc, #36]	; (2808 <flash_init+0x2c>)
    27e4:	781b      	ldrb	r3, [r3, #0]
    27e6:	b2db      	uxtb	r3, r3
    27e8:	b25b      	sxtb	r3, r3
    27ea:	2b00      	cmp	r3, #0
    27ec:	daf9      	bge.n	27e2 <flash_init+0x6>
E:\2017-2018\03_Graduation Project\04_Software\04_wangshi\03_UpdateSoftware-180625\01_UEBootloader\KL36_BootLoader-180621\Debug/../03_MCU/MCU_drivers/flash/flash.c:28
    
  // 清除访问出错标志位
    FTFA_FSTAT = ACCERR | FPVIOL;
    27ee:	4b06      	ldr	r3, [pc, #24]	; (2808 <flash_init+0x2c>)
    27f0:	2230      	movs	r2, #48	; 0x30
    27f2:	701a      	strb	r2, [r3, #0]
E:\2017-2018\03_Graduation Project\04_Software\04_wangshi\03_UpdateSoftware-180625\01_UEBootloader\KL36_BootLoader-180621\Debug/../03_MCU/MCU_drivers/flash/flash.c:30
    //置杂项模块中平台控制寄存器的PLACR_ESFC，Flash模块擦写保护
    BSET(MCM_PLACR_ESFC_SHIFT,MCM_PLACR);
    27f4:	4b05      	ldr	r3, [pc, #20]	; (280c <flash_init+0x30>)
    27f6:	68da      	ldr	r2, [r3, #12]
    27f8:	4b04      	ldr	r3, [pc, #16]	; (280c <flash_init+0x30>)
    27fa:	2180      	movs	r1, #128	; 0x80
    27fc:	0249      	lsls	r1, r1, #9
    27fe:	430a      	orrs	r2, r1
    2800:	60da      	str	r2, [r3, #12]
E:\2017-2018\03_Graduation Project\04_Software\04_wangshi\03_UpdateSoftware-180625\01_UEBootloader\KL36_BootLoader-180621\Debug/../03_MCU/MCU_drivers/flash/flash.c:35
    /*
    //清杂项模块中平台控制寄存器的PLACR_ESFC，Flash模块擦写不保护
    BCLR(MCM_PLACR_ESFC_SHIFT,MCM_PLACR);   //（实验观察现象用）
    */
}
    2802:	46c0      	nop			; (mov r8, r8)
    2804:	46bd      	mov	sp, r7
    2806:	bd80      	pop	{r7, pc}
    2808:	40020000 	.word	0x40020000
    280c:	f0003000 	.word	0xf0003000

00002810 <flash_erase>:
flash_erase():
E:\2017-2018\03_Graduation Project\04_Software\04_wangshi\03_UpdateSoftware-180625\01_UEBootloader\KL36_BootLoader-180621\Debug/../03_MCU/MCU_drivers/flash/flash.c:43
//函数返回：函数执行执行状态：0=正常；1=异常。
//参数说明：sect：目标扇区号（范围取决于实际芯片，例如KL36：0~63，每扇区1KB）
//功能概要：擦除flash存储器的sect扇区（每扇区1KB）
//======================================================================
uint_8 flash_erase(uint_16 sect)
{
    2810:	b580      	push	{r7, lr}
    2812:	b084      	sub	sp, #16
    2814:	af00      	add	r7, sp, #0
    2816:	0002      	movs	r2, r0
    2818:	1dbb      	adds	r3, r7, #6
    281a:	801a      	strh	r2, [r3, #0]
E:\2017-2018\03_Graduation Project\04_Software\04_wangshi\03_UpdateSoftware-180625\01_UEBootloader\KL36_BootLoader-180621\Debug/../03_MCU/MCU_drivers/flash/flash.c:50
    {
        uint_32  word;
        uint_8   byte[4];
    } dest;
    
    dest.word    = (uint_32)(sect*(1<<10));
    281c:	1dbb      	adds	r3, r7, #6
    281e:	881b      	ldrh	r3, [r3, #0]
    2820:	029b      	lsls	r3, r3, #10
    2822:	60fb      	str	r3, [r7, #12]
E:\2017-2018\03_Graduation Project\04_Software\04_wangshi\03_UpdateSoftware-180625\01_UEBootloader\KL36_BootLoader-180621\Debug/../03_MCU/MCU_drivers/flash/flash.c:53

    // 设置擦除命令
    FTFA_FCCOB0 = ERSSCR; // 擦除扇区命令
    2824:	4b1f      	ldr	r3, [pc, #124]	; (28a4 <flash_erase+0x94>)
    2826:	2209      	movs	r2, #9
    2828:	71da      	strb	r2, [r3, #7]
E:\2017-2018\03_Graduation Project\04_Software\04_wangshi\03_UpdateSoftware-180625\01_UEBootloader\KL36_BootLoader-180621\Debug/../03_MCU/MCU_drivers/flash/flash.c:56
    
    // 设置目标地址
    FTFA_FCCOB1 = dest.byte[2];
    282a:	4a1e      	ldr	r2, [pc, #120]	; (28a4 <flash_erase+0x94>)
    282c:	210c      	movs	r1, #12
    282e:	187b      	adds	r3, r7, r1
    2830:	789b      	ldrb	r3, [r3, #2]
    2832:	7193      	strb	r3, [r2, #6]
E:\2017-2018\03_Graduation Project\04_Software\04_wangshi\03_UpdateSoftware-180625\01_UEBootloader\KL36_BootLoader-180621\Debug/../03_MCU/MCU_drivers/flash/flash.c:57
    FTFA_FCCOB2 = dest.byte[1];
    2834:	4a1b      	ldr	r2, [pc, #108]	; (28a4 <flash_erase+0x94>)
    2836:	187b      	adds	r3, r7, r1
    2838:	785b      	ldrb	r3, [r3, #1]
    283a:	7153      	strb	r3, [r2, #5]
E:\2017-2018\03_Graduation Project\04_Software\04_wangshi\03_UpdateSoftware-180625\01_UEBootloader\KL36_BootLoader-180621\Debug/../03_MCU/MCU_drivers/flash/flash.c:58
    FTFA_FCCOB3 = dest.byte[0];
    283c:	4a19      	ldr	r2, [pc, #100]	; (28a4 <flash_erase+0x94>)
    283e:	187b      	adds	r3, r7, r1
    2840:	781b      	ldrb	r3, [r3, #0]
    2842:	7113      	strb	r3, [r2, #4]
E:\2017-2018\03_Graduation Project\04_Software\04_wangshi\03_UpdateSoftware-180625\01_UEBootloader\KL36_BootLoader-180621\Debug/../03_MCU/MCU_drivers/flash/flash.c:61
    
    // 执行命令序列
    if(1 == flash_cmd_launch())    //若执行命令出现错误
    2844:	f000 f986 	bl	2b54 <flash_cmd_launch>
    2848:	0003      	movs	r3, r0
    284a:	2b01      	cmp	r3, #1
    284c:	d101      	bne.n	2852 <flash_erase+0x42>
E:\2017-2018\03_Graduation Project\04_Software\04_wangshi\03_UpdateSoftware-180625\01_UEBootloader\KL36_BootLoader-180621\Debug/../03_MCU/MCU_drivers/flash/flash.c:62
        return 1;     //擦除命令错误
    284e:	2301      	movs	r3, #1
    2850:	e023      	b.n	289a <flash_erase+0x8a>
E:\2017-2018\03_Graduation Project\04_Software\04_wangshi\03_UpdateSoftware-180625\01_UEBootloader\KL36_BootLoader-180621\Debug/../03_MCU/MCU_drivers/flash/flash.c:66
   
    // 若擦除sector0时，则解锁设备
//    if(dest.word <= 0x800)
    if(dest.word < 0x400)
    2852:	68fb      	ldr	r3, [r7, #12]
    2854:	4a14      	ldr	r2, [pc, #80]	; (28a8 <flash_erase+0x98>)
    2856:	4293      	cmp	r3, r2
    2858:	d81e      	bhi.n	2898 <flash_erase+0x88>
E:\2017-2018\03_Graduation Project\04_Software\04_wangshi\03_UpdateSoftware-180625\01_UEBootloader\KL36_BootLoader-180621\Debug/../03_MCU/MCU_drivers/flash/flash.c:69
    {
        // 写入4字节
        FTFA_FCCOB0 = PGM4; 
    285a:	4b12      	ldr	r3, [pc, #72]	; (28a4 <flash_erase+0x94>)
    285c:	2206      	movs	r2, #6
    285e:	71da      	strb	r2, [r3, #7]
E:\2017-2018\03_Graduation Project\04_Software\04_wangshi\03_UpdateSoftware-180625\01_UEBootloader\KL36_BootLoader-180621\Debug/../03_MCU/MCU_drivers/flash/flash.c:71
        // 设置目标地址
        FTFA_FCCOB1 = 0x00;
    2860:	4b10      	ldr	r3, [pc, #64]	; (28a4 <flash_erase+0x94>)
    2862:	2200      	movs	r2, #0
    2864:	719a      	strb	r2, [r3, #6]
E:\2017-2018\03_Graduation Project\04_Software\04_wangshi\03_UpdateSoftware-180625\01_UEBootloader\KL36_BootLoader-180621\Debug/../03_MCU/MCU_drivers/flash/flash.c:72
        FTFA_FCCOB2 = 0x04;
    2866:	4b0f      	ldr	r3, [pc, #60]	; (28a4 <flash_erase+0x94>)
    2868:	2204      	movs	r2, #4
    286a:	715a      	strb	r2, [r3, #5]
E:\2017-2018\03_Graduation Project\04_Software\04_wangshi\03_UpdateSoftware-180625\01_UEBootloader\KL36_BootLoader-180621\Debug/../03_MCU/MCU_drivers/flash/flash.c:73
        FTFA_FCCOB3 = 0x0C;
    286c:	4b0d      	ldr	r3, [pc, #52]	; (28a4 <flash_erase+0x94>)
    286e:	220c      	movs	r2, #12
    2870:	711a      	strb	r2, [r3, #4]
E:\2017-2018\03_Graduation Project\04_Software\04_wangshi\03_UpdateSoftware-180625\01_UEBootloader\KL36_BootLoader-180621\Debug/../03_MCU/MCU_drivers/flash/flash.c:75
        // 数据
        FTFA_FCCOB4 = 0xFF;
    2872:	4b0c      	ldr	r3, [pc, #48]	; (28a4 <flash_erase+0x94>)
    2874:	22ff      	movs	r2, #255	; 0xff
    2876:	72da      	strb	r2, [r3, #11]
E:\2017-2018\03_Graduation Project\04_Software\04_wangshi\03_UpdateSoftware-180625\01_UEBootloader\KL36_BootLoader-180621\Debug/../03_MCU/MCU_drivers/flash/flash.c:76
        FTFA_FCCOB5 = 0xFF;
    2878:	4b0a      	ldr	r3, [pc, #40]	; (28a4 <flash_erase+0x94>)
    287a:	22ff      	movs	r2, #255	; 0xff
    287c:	729a      	strb	r2, [r3, #10]
E:\2017-2018\03_Graduation Project\04_Software\04_wangshi\03_UpdateSoftware-180625\01_UEBootloader\KL36_BootLoader-180621\Debug/../03_MCU/MCU_drivers/flash/flash.c:77
        FTFA_FCCOB6 = 0xFF;
    287e:	4b09      	ldr	r3, [pc, #36]	; (28a4 <flash_erase+0x94>)
    2880:	22ff      	movs	r2, #255	; 0xff
    2882:	725a      	strb	r2, [r3, #9]
E:\2017-2018\03_Graduation Project\04_Software\04_wangshi\03_UpdateSoftware-180625\01_UEBootloader\KL36_BootLoader-180621\Debug/../03_MCU/MCU_drivers/flash/flash.c:78
        FTFA_FCCOB7 = 0xFE;
    2884:	4b07      	ldr	r3, [pc, #28]	; (28a4 <flash_erase+0x94>)
    2886:	22fe      	movs	r2, #254	; 0xfe
    2888:	721a      	strb	r2, [r3, #8]
E:\2017-2018\03_Graduation Project\04_Software\04_wangshi\03_UpdateSoftware-180625\01_UEBootloader\KL36_BootLoader-180621\Debug/../03_MCU/MCU_drivers/flash/flash.c:80
        // 执行命令序列
        if(1 == flash_cmd_launch())  //若执行命令出现错误
    288a:	f000 f963 	bl	2b54 <flash_cmd_launch>
    288e:	0003      	movs	r3, r0
    2890:	2b01      	cmp	r3, #1
    2892:	d101      	bne.n	2898 <flash_erase+0x88>
E:\2017-2018\03_Graduation Project\04_Software\04_wangshi\03_UpdateSoftware-180625\01_UEBootloader\KL36_BootLoader-180621\Debug/../03_MCU/MCU_drivers/flash/flash.c:81
            return 2;   //解锁命令错误
    2894:	2302      	movs	r3, #2
    2896:	e000      	b.n	289a <flash_erase+0x8a>
E:\2017-2018\03_Graduation Project\04_Software\04_wangshi\03_UpdateSoftware-180625\01_UEBootloader\KL36_BootLoader-180621\Debug/../03_MCU/MCU_drivers/flash/flash.c:84
    }  
    
    return 0;  //成功返回
    2898:	2300      	movs	r3, #0
E:\2017-2018\03_Graduation Project\04_Software\04_wangshi\03_UpdateSoftware-180625\01_UEBootloader\KL36_BootLoader-180621\Debug/../03_MCU/MCU_drivers/flash/flash.c:85 (discriminator 1)
}
    289a:	0018      	movs	r0, r3
    289c:	46bd      	mov	sp, r7
    289e:	b004      	add	sp, #16
    28a0:	bd80      	pop	{r7, pc}
    28a2:	46c0      	nop			; (mov r8, r8)
    28a4:	40020000 	.word	0x40020000
    28a8:	000003ff 	.word	0x000003ff

000028ac <flash_write>:
flash_write():
E:\2017-2018\03_Graduation Project\04_Software\04_wangshi\03_UpdateSoftware-180625\01_UEBootloader\KL36_BootLoader-180621\Debug/../03_MCU/MCU_drivers/flash/flash.c:96
//        N：写入字节数目（4~1024,要求为4，8,12,......）
//        buf：源数据缓冲区首地址
//功能概要：将buf开始的N字节写入到flash存储器的sect扇区的 offset处
//=======================================================================
uint_8 flash_write(uint_16 sect,uint_16 offset,uint_16 N,uint_8 *buf)
{
    28ac:	b590      	push	{r4, r7, lr}
    28ae:	b089      	sub	sp, #36	; 0x24
    28b0:	af00      	add	r7, sp, #0
    28b2:	0004      	movs	r4, r0
    28b4:	0008      	movs	r0, r1
    28b6:	0011      	movs	r1, r2
    28b8:	607b      	str	r3, [r7, #4]
    28ba:	230e      	movs	r3, #14
    28bc:	18fb      	adds	r3, r7, r3
    28be:	1c22      	adds	r2, r4, #0
    28c0:	801a      	strh	r2, [r3, #0]
    28c2:	240c      	movs	r4, #12
    28c4:	193b      	adds	r3, r7, r4
    28c6:	1c02      	adds	r2, r0, #0
    28c8:	801a      	strh	r2, [r3, #0]
    28ca:	230a      	movs	r3, #10
    28cc:	18fb      	adds	r3, r7, r3
    28ce:	1c0a      	adds	r2, r1, #0
    28d0:	801a      	strh	r2, [r3, #0]
E:\2017-2018\03_Graduation Project\04_Software\04_wangshi\03_UpdateSoftware-180625\01_UEBootloader\KL36_BootLoader-180621\Debug/../03_MCU/MCU_drivers/flash/flash.c:106
    {
        uint_32   word;
        uint_8  byte[4];
    } dest;
    
    if(offset%4 != 0)
    28d2:	193b      	adds	r3, r7, r4
    28d4:	881b      	ldrh	r3, [r3, #0]
    28d6:	2203      	movs	r2, #3
    28d8:	4013      	ands	r3, r2
    28da:	b29b      	uxth	r3, r3
    28dc:	2b00      	cmp	r3, #0
    28de:	d001      	beq.n	28e4 <flash_write+0x38>
E:\2017-2018\03_Graduation Project\04_Software\04_wangshi\03_UpdateSoftware-180625\01_UEBootloader\KL36_BootLoader-180621\Debug/../03_MCU/MCU_drivers/flash/flash.c:107
        return 1;   //参数设定错误，偏移量未对齐（4字节对齐）
    28e0:	2301      	movs	r3, #1
    28e2:	e044      	b.n	296e <flash_write+0xc2>
E:\2017-2018\03_Graduation Project\04_Software\04_wangshi\03_UpdateSoftware-180625\01_UEBootloader\KL36_BootLoader-180621\Debug/../03_MCU/MCU_drivers/flash/flash.c:110
    
    // 设置写入命令
    FTFA_FCCOB0 = PGM4;
    28e4:	4b24      	ldr	r3, [pc, #144]	; (2978 <flash_write+0xcc>)
    28e6:	2206      	movs	r2, #6
    28e8:	71da      	strb	r2, [r3, #7]
E:\2017-2018\03_Graduation Project\04_Software\04_wangshi\03_UpdateSoftware-180625\01_UEBootloader\KL36_BootLoader-180621\Debug/../03_MCU/MCU_drivers/flash/flash.c:111
    destaddr = (uint_32)(sect*(1<<10) + offset);//计算地址
    28ea:	230e      	movs	r3, #14
    28ec:	18fb      	adds	r3, r7, r3
    28ee:	881b      	ldrh	r3, [r3, #0]
    28f0:	029a      	lsls	r2, r3, #10
    28f2:	230c      	movs	r3, #12
    28f4:	18fb      	adds	r3, r7, r3
    28f6:	881b      	ldrh	r3, [r3, #0]
    28f8:	18d3      	adds	r3, r2, r3
    28fa:	61bb      	str	r3, [r7, #24]
E:\2017-2018\03_Graduation Project\04_Software\04_wangshi\03_UpdateSoftware-180625\01_UEBootloader\KL36_BootLoader-180621\Debug/../03_MCU/MCU_drivers/flash/flash.c:112
    dest.word = destaddr;
    28fc:	69bb      	ldr	r3, [r7, #24]
    28fe:	617b      	str	r3, [r7, #20]
E:\2017-2018\03_Graduation Project\04_Software\04_wangshi\03_UpdateSoftware-180625\01_UEBootloader\KL36_BootLoader-180621\Debug/../03_MCU/MCU_drivers/flash/flash.c:113
    for(size=0; size<N; size+=4, dest.word+=4, buf+=4)
    2900:	2300      	movs	r3, #0
    2902:	61fb      	str	r3, [r7, #28]
    2904:	e02c      	b.n	2960 <flash_write+0xb4>
E:\2017-2018\03_Graduation Project\04_Software\04_wangshi\03_UpdateSoftware-180625\01_UEBootloader\KL36_BootLoader-180621\Debug/../03_MCU/MCU_drivers/flash/flash.c:116
    {
        // 设置目标地址
        FTFA_FCCOB1 = dest.byte[2];
    2906:	4a1c      	ldr	r2, [pc, #112]	; (2978 <flash_write+0xcc>)
    2908:	2114      	movs	r1, #20
    290a:	187b      	adds	r3, r7, r1
    290c:	789b      	ldrb	r3, [r3, #2]
    290e:	7193      	strb	r3, [r2, #6]
E:\2017-2018\03_Graduation Project\04_Software\04_wangshi\03_UpdateSoftware-180625\01_UEBootloader\KL36_BootLoader-180621\Debug/../03_MCU/MCU_drivers/flash/flash.c:117
        FTFA_FCCOB2 = dest.byte[1];
    2910:	4a19      	ldr	r2, [pc, #100]	; (2978 <flash_write+0xcc>)
    2912:	187b      	adds	r3, r7, r1
    2914:	785b      	ldrb	r3, [r3, #1]
    2916:	7153      	strb	r3, [r2, #5]
E:\2017-2018\03_Graduation Project\04_Software\04_wangshi\03_UpdateSoftware-180625\01_UEBootloader\KL36_BootLoader-180621\Debug/../03_MCU/MCU_drivers/flash/flash.c:118
        FTFA_FCCOB3 = dest.byte[0];
    2918:	4a17      	ldr	r2, [pc, #92]	; (2978 <flash_write+0xcc>)
    291a:	187b      	adds	r3, r7, r1
    291c:	781b      	ldrb	r3, [r3, #0]
    291e:	7113      	strb	r3, [r2, #4]
E:\2017-2018\03_Graduation Project\04_Software\04_wangshi\03_UpdateSoftware-180625\01_UEBootloader\KL36_BootLoader-180621\Debug/../03_MCU/MCU_drivers/flash/flash.c:121
 
        // 拷贝数据
        FTFA_FCCOB4 = buf[3];//大端寻址
    2920:	4a15      	ldr	r2, [pc, #84]	; (2978 <flash_write+0xcc>)
    2922:	687b      	ldr	r3, [r7, #4]
    2924:	78db      	ldrb	r3, [r3, #3]
    2926:	72d3      	strb	r3, [r2, #11]
E:\2017-2018\03_Graduation Project\04_Software\04_wangshi\03_UpdateSoftware-180625\01_UEBootloader\KL36_BootLoader-180621\Debug/../03_MCU/MCU_drivers/flash/flash.c:122
        FTFA_FCCOB5 = buf[2];
    2928:	4a13      	ldr	r2, [pc, #76]	; (2978 <flash_write+0xcc>)
    292a:	687b      	ldr	r3, [r7, #4]
    292c:	789b      	ldrb	r3, [r3, #2]
    292e:	7293      	strb	r3, [r2, #10]
E:\2017-2018\03_Graduation Project\04_Software\04_wangshi\03_UpdateSoftware-180625\01_UEBootloader\KL36_BootLoader-180621\Debug/../03_MCU/MCU_drivers/flash/flash.c:123
        FTFA_FCCOB6 = buf[1];
    2930:	4a11      	ldr	r2, [pc, #68]	; (2978 <flash_write+0xcc>)
    2932:	687b      	ldr	r3, [r7, #4]
    2934:	785b      	ldrb	r3, [r3, #1]
    2936:	7253      	strb	r3, [r2, #9]
E:\2017-2018\03_Graduation Project\04_Software\04_wangshi\03_UpdateSoftware-180625\01_UEBootloader\KL36_BootLoader-180621\Debug/../03_MCU/MCU_drivers/flash/flash.c:124
        FTFA_FCCOB7 = buf[0];
    2938:	4a0f      	ldr	r2, [pc, #60]	; (2978 <flash_write+0xcc>)
    293a:	687b      	ldr	r3, [r7, #4]
    293c:	781b      	ldrb	r3, [r3, #0]
    293e:	7213      	strb	r3, [r2, #8]
E:\2017-2018\03_Graduation Project\04_Software\04_wangshi\03_UpdateSoftware-180625\01_UEBootloader\KL36_BootLoader-180621\Debug/../03_MCU/MCU_drivers/flash/flash.c:126
        
        if(1 == flash_cmd_launch()) 
    2940:	f000 f908 	bl	2b54 <flash_cmd_launch>
    2944:	0003      	movs	r3, r0
    2946:	2b01      	cmp	r3, #1
    2948:	d101      	bne.n	294e <flash_write+0xa2>
E:\2017-2018\03_Graduation Project\04_Software\04_wangshi\03_UpdateSoftware-180625\01_UEBootloader\KL36_BootLoader-180621\Debug/../03_MCU/MCU_drivers/flash/flash.c:127
            return 2;  //写入命令错误
    294a:	2302      	movs	r3, #2
    294c:	e00f      	b.n	296e <flash_write+0xc2>
E:\2017-2018\03_Graduation Project\04_Software\04_wangshi\03_UpdateSoftware-180625\01_UEBootloader\KL36_BootLoader-180621\Debug/../03_MCU/MCU_drivers/flash/flash.c:113 (discriminator 2)
    for(size=0; size<N; size+=4, dest.word+=4, buf+=4)
    294e:	69fb      	ldr	r3, [r7, #28]
    2950:	3304      	adds	r3, #4
    2952:	61fb      	str	r3, [r7, #28]
    2954:	697b      	ldr	r3, [r7, #20]
    2956:	3304      	adds	r3, #4
    2958:	617b      	str	r3, [r7, #20]
    295a:	687b      	ldr	r3, [r7, #4]
    295c:	3304      	adds	r3, #4
    295e:	607b      	str	r3, [r7, #4]
E:\2017-2018\03_Graduation Project\04_Software\04_wangshi\03_UpdateSoftware-180625\01_UEBootloader\KL36_BootLoader-180621\Debug/../03_MCU/MCU_drivers/flash/flash.c:113 (discriminator 1)
    2960:	230a      	movs	r3, #10
    2962:	18fb      	adds	r3, r7, r3
    2964:	881b      	ldrh	r3, [r3, #0]
    2966:	69fa      	ldr	r2, [r7, #28]
    2968:	429a      	cmp	r2, r3
    296a:	d3cc      	bcc.n	2906 <flash_write+0x5a>
E:\2017-2018\03_Graduation Project\04_Software\04_wangshi\03_UpdateSoftware-180625\01_UEBootloader\KL36_BootLoader-180621\Debug/../03_MCU/MCU_drivers/flash/flash.c:130
    }
    
    return 0;  //成功执行
    296c:	2300      	movs	r3, #0
E:\2017-2018\03_Graduation Project\04_Software\04_wangshi\03_UpdateSoftware-180625\01_UEBootloader\KL36_BootLoader-180621\Debug/../03_MCU/MCU_drivers/flash/flash.c:131 (discriminator 1)
}
    296e:	0018      	movs	r0, r3
    2970:	46bd      	mov	sp, r7
    2972:	b009      	add	sp, #36	; 0x24
    2974:	bd90      	pop	{r4, r7, pc}
    2976:	46c0      	nop			; (mov r8, r8)
    2978:	40020000 	.word	0x40020000

0000297c <flash_read_logic>:
flash_read_logic():
E:\2017-2018\03_Graduation Project\04_Software\04_wangshi\03_UpdateSoftware-180625\01_UEBootloader\KL36_BootLoader-180621\Debug/../03_MCU/MCU_drivers/flash/flash.c:143
//       offset:扇区内部偏移地址（0~1020，要求为0,4，8,12，......）
//       N：读字节数目（4~1024,要求为4，8,12,......）//
//功能概要：读取flash存储器的sect扇区的 offset处开始的N字节，到RAM区dest处
//========================================================================
void flash_read_logic(uint_8 *dest,uint_16 sect,uint_16 offset,uint_16 N)
{
    297c:	b5b0      	push	{r4, r5, r7, lr}
    297e:	b086      	sub	sp, #24
    2980:	af00      	add	r7, sp, #0
    2982:	60f8      	str	r0, [r7, #12]
    2984:	000c      	movs	r4, r1
    2986:	0010      	movs	r0, r2
    2988:	0019      	movs	r1, r3
    298a:	250a      	movs	r5, #10
    298c:	197b      	adds	r3, r7, r5
    298e:	1c22      	adds	r2, r4, #0
    2990:	801a      	strh	r2, [r3, #0]
    2992:	2408      	movs	r4, #8
    2994:	193b      	adds	r3, r7, r4
    2996:	1c02      	adds	r2, r0, #0
    2998:	801a      	strh	r2, [r3, #0]
    299a:	1dbb      	adds	r3, r7, #6
    299c:	1c0a      	adds	r2, r1, #0
    299e:	801a      	strh	r2, [r3, #0]
E:\2017-2018\03_Graduation Project\04_Software\04_wangshi\03_UpdateSoftware-180625\01_UEBootloader\KL36_BootLoader-180621\Debug/../03_MCU/MCU_drivers/flash/flash.c:145
	uint_8 *src;
	src=(uint_8 *)(sect*1024+offset);
    29a0:	197b      	adds	r3, r7, r5
    29a2:	881b      	ldrh	r3, [r3, #0]
    29a4:	029a      	lsls	r2, r3, #10
    29a6:	193b      	adds	r3, r7, r4
    29a8:	881b      	ldrh	r3, [r3, #0]
    29aa:	18d3      	adds	r3, r2, r3
    29ac:	617b      	str	r3, [r7, #20]
E:\2017-2018\03_Graduation Project\04_Software\04_wangshi\03_UpdateSoftware-180625\01_UEBootloader\KL36_BootLoader-180621\Debug/../03_MCU/MCU_drivers/flash/flash.c:146
	memcpy(dest,src,N);
    29ae:	1dbb      	adds	r3, r7, #6
    29b0:	881a      	ldrh	r2, [r3, #0]
    29b2:	6979      	ldr	r1, [r7, #20]
    29b4:	68fb      	ldr	r3, [r7, #12]
    29b6:	0018      	movs	r0, r3
    29b8:	f000 f926 	bl	2c08 <memcpy>
E:\2017-2018\03_Graduation Project\04_Software\04_wangshi\03_UpdateSoftware-180625\01_UEBootloader\KL36_BootLoader-180621\Debug/../03_MCU/MCU_drivers/flash/flash.c:147
}
    29bc:	46c0      	nop			; (mov r8, r8)
    29be:	46bd      	mov	sp, r7
    29c0:	b006      	add	sp, #24
    29c2:	bdb0      	pop	{r4, r5, r7, pc}

000029c4 <flash_read_physical>:
flash_read_physical():
E:\2017-2018\03_Graduation Project\04_Software\04_wangshi\03_UpdateSoftware-180625\01_UEBootloader\KL36_BootLoader-180621\Debug/../03_MCU/MCU_drivers/flash/flash.c:159
//       addr：目标地址，要求为4的倍数（例如：0x00000004）
//       N：读字节数目（0~1020,要求为4，8,12,......）
//功能概要：读取flash指定地址的内容
//======================================================================
void flash_read_physical(uint_8 *dest,uint_32 addr,uint_16 N)
{	uint_8 *src;
    29c4:	b580      	push	{r7, lr}
    29c6:	b086      	sub	sp, #24
    29c8:	af00      	add	r7, sp, #0
    29ca:	60f8      	str	r0, [r7, #12]
    29cc:	60b9      	str	r1, [r7, #8]
    29ce:	1dbb      	adds	r3, r7, #6
    29d0:	801a      	strh	r2, [r3, #0]
E:\2017-2018\03_Graduation Project\04_Software\04_wangshi\03_UpdateSoftware-180625\01_UEBootloader\KL36_BootLoader-180621\Debug/../03_MCU/MCU_drivers/flash/flash.c:160
	src=(uint_8 *)addr;
    29d2:	68bb      	ldr	r3, [r7, #8]
    29d4:	617b      	str	r3, [r7, #20]
E:\2017-2018\03_Graduation Project\04_Software\04_wangshi\03_UpdateSoftware-180625\01_UEBootloader\KL36_BootLoader-180621\Debug/../03_MCU/MCU_drivers/flash/flash.c:161
	memcpy(dest,src,N);
    29d6:	1dbb      	adds	r3, r7, #6
    29d8:	881a      	ldrh	r2, [r3, #0]
    29da:	6979      	ldr	r1, [r7, #20]
    29dc:	68fb      	ldr	r3, [r7, #12]
    29de:	0018      	movs	r0, r3
    29e0:	f000 f912 	bl	2c08 <memcpy>
E:\2017-2018\03_Graduation Project\04_Software\04_wangshi\03_UpdateSoftware-180625\01_UEBootloader\KL36_BootLoader-180621\Debug/../03_MCU/MCU_drivers/flash/flash.c:162
}
    29e4:	46c0      	nop			; (mov r8, r8)
    29e6:	46bd      	mov	sp, r7
    29e8:	b006      	add	sp, #24
    29ea:	bd80      	pop	{r7, pc}

000029ec <flash_protect>:
flash_protect():
E:\2017-2018\03_Graduation Project\04_Software\04_wangshi\03_UpdateSoftware-180625\01_UEBootloader\KL36_BootLoader-180621\Debug/../03_MCU/MCU_drivers/flash/flash.c:174
//功能概要：flash保护操作
//说        明：KL25(128)每调用本函数一次，保护4个扇区（M~M+3）128/32=4
//       KL36(64)每调用本函数一次，保护2个扇区（M~M+1） 63/32=2
//======================================================================
void flash_protect(uint_8 M)
{
    29ec:	b580      	push	{r7, lr}
    29ee:	b084      	sub	sp, #16
    29f0:	af00      	add	r7, sp, #0
    29f2:	0002      	movs	r2, r0
    29f4:	1dfb      	adds	r3, r7, #7
    29f6:	701a      	strb	r2, [r3, #0]
E:\2017-2018\03_Graduation Project\04_Software\04_wangshi\03_UpdateSoftware-180625\01_UEBootloader\KL36_BootLoader-180621\Debug/../03_MCU/MCU_drivers/flash/flash.c:177
    uint_8 regionNO;
    //regionNO=M/4;
    regionNO=M/2;
    29f8:	210f      	movs	r1, #15
    29fa:	187b      	adds	r3, r7, r1
    29fc:	1dfa      	adds	r2, r7, #7
    29fe:	7812      	ldrb	r2, [r2, #0]
    2a00:	0852      	lsrs	r2, r2, #1
    2a02:	701a      	strb	r2, [r3, #0]
E:\2017-2018\03_Graduation Project\04_Software\04_wangshi\03_UpdateSoftware-180625\01_UEBootloader\KL36_BootLoader-180621\Debug/../03_MCU/MCU_drivers/flash/flash.c:179
    uint_8 offset;
    offset=regionNO%8;//获得偏移，即保护位号
    2a04:	230e      	movs	r3, #14
    2a06:	18fb      	adds	r3, r7, r3
    2a08:	0008      	movs	r0, r1
    2a0a:	187a      	adds	r2, r7, r1
    2a0c:	7812      	ldrb	r2, [r2, #0]
    2a0e:	2107      	movs	r1, #7
    2a10:	400a      	ands	r2, r1
    2a12:	701a      	strb	r2, [r3, #0]
E:\2017-2018\03_Graduation Project\04_Software\04_wangshi\03_UpdateSoftware-180625\01_UEBootloader\KL36_BootLoader-180621\Debug/../03_MCU/MCU_drivers/flash/flash.c:181
    uint_8 regionCounter;
    regionCounter=3-regionNO/8;//获得应置位的寄存器号
    2a14:	0001      	movs	r1, r0
    2a16:	187b      	adds	r3, r7, r1
    2a18:	781b      	ldrb	r3, [r3, #0]
    2a1a:	08db      	lsrs	r3, r3, #3
    2a1c:	b2da      	uxtb	r2, r3
    2a1e:	200d      	movs	r0, #13
    2a20:	183b      	adds	r3, r7, r0
    2a22:	2103      	movs	r1, #3
    2a24:	1a8a      	subs	r2, r1, r2
    2a26:	701a      	strb	r2, [r3, #0]
E:\2017-2018\03_Graduation Project\04_Software\04_wangshi\03_UpdateSoftware-180625\01_UEBootloader\KL36_BootLoader-180621\Debug/../03_MCU/MCU_drivers/flash/flash.c:182
    switch(regionCounter)
    2a28:	183b      	adds	r3, r7, r0
    2a2a:	781b      	ldrb	r3, [r3, #0]
    2a2c:	2b01      	cmp	r3, #1
    2a2e:	d02e      	beq.n	2a8e <flash_protect+0xa2>
    2a30:	dc02      	bgt.n	2a38 <flash_protect+0x4c>
    2a32:	2b00      	cmp	r3, #0
    2a34:	d03e      	beq.n	2ab4 <flash_protect+0xc8>
E:\2017-2018\03_Graduation Project\04_Software\04_wangshi\03_UpdateSoftware-180625\01_UEBootloader\KL36_BootLoader-180621\Debug/../03_MCU/MCU_drivers/flash/flash.c:197
        break;
    case 0:     //保护区域[31:24]中某区域（对应[124:96]开始的4个扇区，4扇区对齐）
    	BCLR(offset,FTFA_FPROT0);
        break;
    default:
        break;
    2a36:	e050      	b.n	2ada <flash_protect+0xee>
E:\2017-2018\03_Graduation Project\04_Software\04_wangshi\03_UpdateSoftware-180625\01_UEBootloader\KL36_BootLoader-180621\Debug/../03_MCU/MCU_drivers/flash/flash.c:182
    switch(regionCounter)
    2a38:	2b02      	cmp	r3, #2
    2a3a:	d015      	beq.n	2a68 <flash_protect+0x7c>
    2a3c:	2b03      	cmp	r3, #3
    2a3e:	d000      	beq.n	2a42 <flash_protect+0x56>
E:\2017-2018\03_Graduation Project\04_Software\04_wangshi\03_UpdateSoftware-180625\01_UEBootloader\KL36_BootLoader-180621\Debug/../03_MCU/MCU_drivers/flash/flash.c:197
        break;
    2a40:	e04b      	b.n	2ada <flash_protect+0xee>
E:\2017-2018\03_Graduation Project\04_Software\04_wangshi\03_UpdateSoftware-180625\01_UEBootloader\KL36_BootLoader-180621\Debug/../03_MCU/MCU_drivers/flash/flash.c:185
    	BCLR(offset,FTFA_FPROT3);
    2a42:	4b28      	ldr	r3, [pc, #160]	; (2ae4 <flash_protect+0xf8>)
    2a44:	7c1b      	ldrb	r3, [r3, #16]
    2a46:	b2db      	uxtb	r3, r3
    2a48:	b25b      	sxtb	r3, r3
    2a4a:	220e      	movs	r2, #14
    2a4c:	18ba      	adds	r2, r7, r2
    2a4e:	7812      	ldrb	r2, [r2, #0]
    2a50:	2101      	movs	r1, #1
    2a52:	4091      	lsls	r1, r2
    2a54:	000a      	movs	r2, r1
    2a56:	b252      	sxtb	r2, r2
    2a58:	43d2      	mvns	r2, r2
    2a5a:	b252      	sxtb	r2, r2
    2a5c:	4013      	ands	r3, r2
    2a5e:	b25a      	sxtb	r2, r3
    2a60:	4b20      	ldr	r3, [pc, #128]	; (2ae4 <flash_protect+0xf8>)
    2a62:	b2d2      	uxtb	r2, r2
    2a64:	741a      	strb	r2, [r3, #16]
E:\2017-2018\03_Graduation Project\04_Software\04_wangshi\03_UpdateSoftware-180625\01_UEBootloader\KL36_BootLoader-180621\Debug/../03_MCU/MCU_drivers/flash/flash.c:186
        break;
    2a66:	e038      	b.n	2ada <flash_protect+0xee>
E:\2017-2018\03_Graduation Project\04_Software\04_wangshi\03_UpdateSoftware-180625\01_UEBootloader\KL36_BootLoader-180621\Debug/../03_MCU/MCU_drivers/flash/flash.c:188
    	BCLR(offset,FTFA_FPROT2);
    2a68:	4b1e      	ldr	r3, [pc, #120]	; (2ae4 <flash_protect+0xf8>)
    2a6a:	7c5b      	ldrb	r3, [r3, #17]
    2a6c:	b2db      	uxtb	r3, r3
    2a6e:	b25b      	sxtb	r3, r3
    2a70:	220e      	movs	r2, #14
    2a72:	18ba      	adds	r2, r7, r2
    2a74:	7812      	ldrb	r2, [r2, #0]
    2a76:	2101      	movs	r1, #1
    2a78:	4091      	lsls	r1, r2
    2a7a:	000a      	movs	r2, r1
    2a7c:	b252      	sxtb	r2, r2
    2a7e:	43d2      	mvns	r2, r2
    2a80:	b252      	sxtb	r2, r2
    2a82:	4013      	ands	r3, r2
    2a84:	b25a      	sxtb	r2, r3
    2a86:	4b17      	ldr	r3, [pc, #92]	; (2ae4 <flash_protect+0xf8>)
    2a88:	b2d2      	uxtb	r2, r2
    2a8a:	745a      	strb	r2, [r3, #17]
E:\2017-2018\03_Graduation Project\04_Software\04_wangshi\03_UpdateSoftware-180625\01_UEBootloader\KL36_BootLoader-180621\Debug/../03_MCU/MCU_drivers/flash/flash.c:189
        break;
    2a8c:	e025      	b.n	2ada <flash_protect+0xee>
E:\2017-2018\03_Graduation Project\04_Software\04_wangshi\03_UpdateSoftware-180625\01_UEBootloader\KL36_BootLoader-180621\Debug/../03_MCU/MCU_drivers/flash/flash.c:191
    	BCLR(offset,FTFA_FPROT1);
    2a8e:	4b15      	ldr	r3, [pc, #84]	; (2ae4 <flash_protect+0xf8>)
    2a90:	7c9b      	ldrb	r3, [r3, #18]
    2a92:	b2db      	uxtb	r3, r3
    2a94:	b25b      	sxtb	r3, r3
    2a96:	220e      	movs	r2, #14
    2a98:	18ba      	adds	r2, r7, r2
    2a9a:	7812      	ldrb	r2, [r2, #0]
    2a9c:	2101      	movs	r1, #1
    2a9e:	4091      	lsls	r1, r2
    2aa0:	000a      	movs	r2, r1
    2aa2:	b252      	sxtb	r2, r2
    2aa4:	43d2      	mvns	r2, r2
    2aa6:	b252      	sxtb	r2, r2
    2aa8:	4013      	ands	r3, r2
    2aaa:	b25a      	sxtb	r2, r3
    2aac:	4b0d      	ldr	r3, [pc, #52]	; (2ae4 <flash_protect+0xf8>)
    2aae:	b2d2      	uxtb	r2, r2
    2ab0:	749a      	strb	r2, [r3, #18]
E:\2017-2018\03_Graduation Project\04_Software\04_wangshi\03_UpdateSoftware-180625\01_UEBootloader\KL36_BootLoader-180621\Debug/../03_MCU/MCU_drivers/flash/flash.c:192
        break;
    2ab2:	e012      	b.n	2ada <flash_protect+0xee>
E:\2017-2018\03_Graduation Project\04_Software\04_wangshi\03_UpdateSoftware-180625\01_UEBootloader\KL36_BootLoader-180621\Debug/../03_MCU/MCU_drivers/flash/flash.c:194
    	BCLR(offset,FTFA_FPROT0);
    2ab4:	4b0b      	ldr	r3, [pc, #44]	; (2ae4 <flash_protect+0xf8>)
    2ab6:	7cdb      	ldrb	r3, [r3, #19]
    2ab8:	b2db      	uxtb	r3, r3
    2aba:	b25b      	sxtb	r3, r3
    2abc:	220e      	movs	r2, #14
    2abe:	18ba      	adds	r2, r7, r2
    2ac0:	7812      	ldrb	r2, [r2, #0]
    2ac2:	2101      	movs	r1, #1
    2ac4:	4091      	lsls	r1, r2
    2ac6:	000a      	movs	r2, r1
    2ac8:	b252      	sxtb	r2, r2
    2aca:	43d2      	mvns	r2, r2
    2acc:	b252      	sxtb	r2, r2
    2ace:	4013      	ands	r3, r2
    2ad0:	b25a      	sxtb	r2, r3
    2ad2:	4b04      	ldr	r3, [pc, #16]	; (2ae4 <flash_protect+0xf8>)
    2ad4:	b2d2      	uxtb	r2, r2
    2ad6:	74da      	strb	r2, [r3, #19]
E:\2017-2018\03_Graduation Project\04_Software\04_wangshi\03_UpdateSoftware-180625\01_UEBootloader\KL36_BootLoader-180621\Debug/../03_MCU/MCU_drivers/flash/flash.c:195
        break;
    2ad8:	46c0      	nop			; (mov r8, r8)
E:\2017-2018\03_Graduation Project\04_Software\04_wangshi\03_UpdateSoftware-180625\01_UEBootloader\KL36_BootLoader-180621\Debug/../03_MCU/MCU_drivers/flash/flash.c:199
    }
}
    2ada:	46c0      	nop			; (mov r8, r8)
    2adc:	46bd      	mov	sp, r7
    2ade:	b004      	add	sp, #16
    2ae0:	bd80      	pop	{r7, pc}
    2ae2:	46c0      	nop			; (mov r8, r8)
    2ae4:	40020000 	.word	0x40020000

00002ae8 <flash_isempty>:
flash_isempty():
E:\2017-2018\03_Graduation Project\04_Software\04_wangshi\03_UpdateSoftware-180625\01_UEBootloader\KL36_BootLoader-180621\Debug/../03_MCU/MCU_drivers/flash/flash.c:208
//函数返回：1=目标区域为空；0=目标区域非空。
//参数说明：所要探测的flash区域初始地址
//功能概要：flash判空操作
//======================================================================
uint_8 flash_isempty(uint_8 *buff,uint_16 N)
{
    2ae8:	b580      	push	{r7, lr}
    2aea:	b084      	sub	sp, #16
    2aec:	af00      	add	r7, sp, #0
    2aee:	6078      	str	r0, [r7, #4]
    2af0:	000a      	movs	r2, r1
    2af2:	1cbb      	adds	r3, r7, #2
    2af4:	801a      	strh	r2, [r3, #0]
E:\2017-2018\03_Graduation Project\04_Software\04_wangshi\03_UpdateSoftware-180625\01_UEBootloader\KL36_BootLoader-180621\Debug/../03_MCU/MCU_drivers/flash/flash.c:210
   uint_16 i,flag;
   i = 0;
    2af6:	210e      	movs	r1, #14
    2af8:	187b      	adds	r3, r7, r1
    2afa:	2200      	movs	r2, #0
    2afc:	801a      	strh	r2, [r3, #0]
E:\2017-2018\03_Graduation Project\04_Software\04_wangshi\03_UpdateSoftware-180625\01_UEBootloader\KL36_BootLoader-180621\Debug/../03_MCU/MCU_drivers/flash/flash.c:211
   flag = 1;
    2afe:	230c      	movs	r3, #12
    2b00:	18fb      	adds	r3, r7, r3
    2b02:	2201      	movs	r2, #1
    2b04:	801a      	strh	r2, [r3, #0]
E:\2017-2018\03_Graduation Project\04_Software\04_wangshi\03_UpdateSoftware-180625\01_UEBootloader\KL36_BootLoader-180621\Debug/../03_MCU/MCU_drivers/flash/flash.c:212
   for(i = 0; i<N; i++)   //遍历区域内字节
    2b06:	187b      	adds	r3, r7, r1
    2b08:	2200      	movs	r2, #0
    2b0a:	801a      	strh	r2, [r3, #0]
    2b0c:	e012      	b.n	2b34 <flash_isempty+0x4c>
E:\2017-2018\03_Graduation Project\04_Software\04_wangshi\03_UpdateSoftware-180625\01_UEBootloader\KL36_BootLoader-180621\Debug/../03_MCU/MCU_drivers/flash/flash.c:214
   {
      if(buff[i]!=0xff)   //非空
    2b0e:	230e      	movs	r3, #14
    2b10:	18fb      	adds	r3, r7, r3
    2b12:	881b      	ldrh	r3, [r3, #0]
    2b14:	687a      	ldr	r2, [r7, #4]
    2b16:	18d3      	adds	r3, r2, r3
    2b18:	781b      	ldrb	r3, [r3, #0]
    2b1a:	2bff      	cmp	r3, #255	; 0xff
    2b1c:	d004      	beq.n	2b28 <flash_isempty+0x40>
E:\2017-2018\03_Graduation Project\04_Software\04_wangshi\03_UpdateSoftware-180625\01_UEBootloader\KL36_BootLoader-180621\Debug/../03_MCU/MCU_drivers/flash/flash.c:216
      {
      	  flag=0;
    2b1e:	230c      	movs	r3, #12
    2b20:	18fb      	adds	r3, r7, r3
    2b22:	2200      	movs	r2, #0
    2b24:	801a      	strh	r2, [r3, #0]
E:\2017-2018\03_Graduation Project\04_Software\04_wangshi\03_UpdateSoftware-180625\01_UEBootloader\KL36_BootLoader-180621\Debug/../03_MCU/MCU_drivers/flash/flash.c:217
          break;
    2b26:	e00c      	b.n	2b42 <flash_isempty+0x5a>
E:\2017-2018\03_Graduation Project\04_Software\04_wangshi\03_UpdateSoftware-180625\01_UEBootloader\KL36_BootLoader-180621\Debug/../03_MCU/MCU_drivers/flash/flash.c:212 (discriminator 2)
   for(i = 0; i<N; i++)   //遍历区域内字节
    2b28:	210e      	movs	r1, #14
    2b2a:	187b      	adds	r3, r7, r1
    2b2c:	881a      	ldrh	r2, [r3, #0]
    2b2e:	187b      	adds	r3, r7, r1
    2b30:	3201      	adds	r2, #1
    2b32:	801a      	strh	r2, [r3, #0]
E:\2017-2018\03_Graduation Project\04_Software\04_wangshi\03_UpdateSoftware-180625\01_UEBootloader\KL36_BootLoader-180621\Debug/../03_MCU/MCU_drivers/flash/flash.c:212 (discriminator 1)
    2b34:	230e      	movs	r3, #14
    2b36:	18fa      	adds	r2, r7, r3
    2b38:	1cbb      	adds	r3, r7, #2
    2b3a:	8812      	ldrh	r2, [r2, #0]
    2b3c:	881b      	ldrh	r3, [r3, #0]
    2b3e:	429a      	cmp	r2, r3
    2b40:	d3e5      	bcc.n	2b0e <flash_isempty+0x26>
E:\2017-2018\03_Graduation Project\04_Software\04_wangshi\03_UpdateSoftware-180625\01_UEBootloader\KL36_BootLoader-180621\Debug/../03_MCU/MCU_drivers/flash/flash.c:220
       }
   }
   return flag;
    2b42:	230c      	movs	r3, #12
    2b44:	18fb      	adds	r3, r7, r3
    2b46:	881b      	ldrh	r3, [r3, #0]
    2b48:	b2db      	uxtb	r3, r3
E:\2017-2018\03_Graduation Project\04_Software\04_wangshi\03_UpdateSoftware-180625\01_UEBootloader\KL36_BootLoader-180621\Debug/../03_MCU/MCU_drivers/flash/flash.c:221
}
    2b4a:	0018      	movs	r0, r3
    2b4c:	46bd      	mov	sp, r7
    2b4e:	b004      	add	sp, #16
    2b50:	bd80      	pop	{r7, pc}
	...

00002b54 <flash_cmd_launch>:
flash_cmd_launch():
E:\2017-2018\03_Graduation Project\04_Software\04_wangshi\03_UpdateSoftware-180625\01_UEBootloader\KL36_BootLoader-180621\Debug/../03_MCU/MCU_drivers/flash/flash.c:231
//函数返回：0-成功 1-失败
//参数说明：无
//功能概要：启动Flash命令
//======================================================================
static uint_32 flash_cmd_launch(void)
{
    2b54:	b580      	push	{r7, lr}
    2b56:	af00      	add	r7, sp, #0
E:\2017-2018\03_Graduation Project\04_Software\04_wangshi\03_UpdateSoftware-180625\01_UEBootloader\KL36_BootLoader-180621\Debug/../03_MCU/MCU_drivers/flash/flash.c:233
    // 清除访问错误标志位和非法访问标志位
    FTFA_FSTAT = ACCERR | FPVIOL;
    2b58:	4b0d      	ldr	r3, [pc, #52]	; (2b90 <flash_cmd_launch+0x3c>)
    2b5a:	2230      	movs	r2, #48	; 0x30
    2b5c:	701a      	strb	r2, [r3, #0]
__disable_irq():
E:\2017-2018\03_Graduation Project\04_Software\04_wangshi\03_UpdateSoftware-180625\01_UEBootloader\KL36_BootLoader-180621\02_Core/core_cmFunc.h:344
  __ASM volatile ("cpsid i" : : : "memory");
    2b5e:	b672      	cpsid	i
flash_cmd_launch():
E:\2017-2018\03_Graduation Project\04_Software\04_wangshi\03_UpdateSoftware-180625\01_UEBootloader\KL36_BootLoader-180621\Debug/../03_MCU/MCU_drivers/flash/flash.c:238
    
    __disable_irq();  //关总中断

    // 启动命令
    FTFA_FSTAT = CCIF;
    2b60:	4b0b      	ldr	r3, [pc, #44]	; (2b90 <flash_cmd_launch+0x3c>)
    2b62:	2280      	movs	r2, #128	; 0x80
    2b64:	701a      	strb	r2, [r3, #0]
E:\2017-2018\03_Graduation Project\04_Software\04_wangshi\03_UpdateSoftware-180625\01_UEBootloader\KL36_BootLoader-180621\Debug/../03_MCU/MCU_drivers/flash/flash.c:241

    // 等待命令结束
    while(!(FTFA_FSTAT & CCIF));
    2b66:	46c0      	nop			; (mov r8, r8)
E:\2017-2018\03_Graduation Project\04_Software\04_wangshi\03_UpdateSoftware-180625\01_UEBootloader\KL36_BootLoader-180621\Debug/../03_MCU/MCU_drivers/flash/flash.c:241 (discriminator 1)
    2b68:	4b09      	ldr	r3, [pc, #36]	; (2b90 <flash_cmd_launch+0x3c>)
    2b6a:	781b      	ldrb	r3, [r3, #0]
    2b6c:	b2db      	uxtb	r3, r3
    2b6e:	b25b      	sxtb	r3, r3
    2b70:	2b00      	cmp	r3, #0
    2b72:	daf9      	bge.n	2b68 <flash_cmd_launch+0x14>
__enable_irq():
E:\2017-2018\03_Graduation Project\04_Software\04_wangshi\03_UpdateSoftware-180625\01_UEBootloader\KL36_BootLoader-180621\02_Core/core_cmFunc.h:333
  __ASM volatile ("cpsie i" : : : "memory");
    2b74:	b662      	cpsie	i
flash_cmd_launch():
E:\2017-2018\03_Graduation Project\04_Software\04_wangshi\03_UpdateSoftware-180625\01_UEBootloader\KL36_BootLoader-180621\Debug/../03_MCU/MCU_drivers/flash/flash.c:246

    __enable_irq();  //开总中断

    // 检查错误标志
    if(FTFA_FSTAT & (ACCERR | FPVIOL | MGSTAT0))
    2b76:	4b06      	ldr	r3, [pc, #24]	; (2b90 <flash_cmd_launch+0x3c>)
    2b78:	781b      	ldrb	r3, [r3, #0]
    2b7a:	b2db      	uxtb	r3, r3
    2b7c:	001a      	movs	r2, r3
    2b7e:	2331      	movs	r3, #49	; 0x31
    2b80:	4013      	ands	r3, r2
    2b82:	d001      	beq.n	2b88 <flash_cmd_launch+0x34>
E:\2017-2018\03_Graduation Project\04_Software\04_wangshi\03_UpdateSoftware-180625\01_UEBootloader\KL36_BootLoader-180621\Debug/../03_MCU/MCU_drivers/flash/flash.c:247
        return 1 ; //执行命令出错
    2b84:	2301      	movs	r3, #1
    2b86:	e000      	b.n	2b8a <flash_cmd_launch+0x36>
E:\2017-2018\03_Graduation Project\04_Software\04_wangshi\03_UpdateSoftware-180625\01_UEBootloader\KL36_BootLoader-180621\Debug/../03_MCU/MCU_drivers/flash/flash.c:248
    return 0; //执行命令成功
    2b88:	2300      	movs	r3, #0
E:\2017-2018\03_Graduation Project\04_Software\04_wangshi\03_UpdateSoftware-180625\01_UEBootloader\KL36_BootLoader-180621\Debug/../03_MCU/MCU_drivers/flash/flash.c:249
}
    2b8a:	0018      	movs	r0, r3
    2b8c:	46bd      	mov	sp, r7
    2b8e:	bd80      	pop	{r7, pc}
    2b90:	40020000 	.word	0x40020000

00002b94 <exit>:
exit():
    2b94:	4b08      	ldr	r3, [pc, #32]	; (2bb8 <exit+0x24>)
    2b96:	b510      	push	{r4, lr}
    2b98:	0004      	movs	r4, r0
    2b9a:	2b00      	cmp	r3, #0
    2b9c:	d002      	beq.n	2ba4 <exit+0x10>
    2b9e:	2100      	movs	r1, #0
    2ba0:	e000      	b.n	2ba4 <exit+0x10>
    2ba2:	bf00      	nop
    2ba4:	4b05      	ldr	r3, [pc, #20]	; (2bbc <exit+0x28>)
    2ba6:	6818      	ldr	r0, [r3, #0]
    2ba8:	6a83      	ldr	r3, [r0, #40]	; 0x28
    2baa:	2b00      	cmp	r3, #0
    2bac:	d000      	beq.n	2bb0 <exit+0x1c>
    2bae:	4798      	blx	r3
    2bb0:	0020      	movs	r0, r4
    2bb2:	f000 f84b 	bl	2c4c <_exit>
    2bb6:	46c0      	nop			; (mov r8, r8)
    2bb8:	00000000 	.word	0x00000000
    2bbc:	00002cb8 	.word	0x00002cb8

00002bc0 <__libc_init_array>:
__libc_init_array():
    2bc0:	b570      	push	{r4, r5, r6, lr}
    2bc2:	2600      	movs	r6, #0
    2bc4:	4d0c      	ldr	r5, [pc, #48]	; (2bf8 <__libc_init_array+0x38>)
    2bc6:	4c0d      	ldr	r4, [pc, #52]	; (2bfc <__libc_init_array+0x3c>)
    2bc8:	1b64      	subs	r4, r4, r5
    2bca:	10a4      	asrs	r4, r4, #2
    2bcc:	42a6      	cmp	r6, r4
    2bce:	d109      	bne.n	2be4 <__libc_init_array+0x24>
    2bd0:	2600      	movs	r6, #0
    2bd2:	f000 f873 	bl	2cbc <_init>
    2bd6:	4d0a      	ldr	r5, [pc, #40]	; (2c00 <__libc_init_array+0x40>)
    2bd8:	4c0a      	ldr	r4, [pc, #40]	; (2c04 <__libc_init_array+0x44>)
    2bda:	1b64      	subs	r4, r4, r5
    2bdc:	10a4      	asrs	r4, r4, #2
    2bde:	42a6      	cmp	r6, r4
    2be0:	d105      	bne.n	2bee <__libc_init_array+0x2e>
    2be2:	bd70      	pop	{r4, r5, r6, pc}
    2be4:	00b3      	lsls	r3, r6, #2
    2be6:	58eb      	ldr	r3, [r5, r3]
    2be8:	4798      	blx	r3
    2bea:	3601      	adds	r6, #1
    2bec:	e7ee      	b.n	2bcc <__libc_init_array+0xc>
    2bee:	00b3      	lsls	r3, r6, #2
    2bf0:	58eb      	ldr	r3, [r5, r3]
    2bf2:	4798      	blx	r3
    2bf4:	3601      	adds	r6, #1
    2bf6:	e7f2      	b.n	2bde <__libc_init_array+0x1e>
    2bf8:	00002cdc 	.word	0x00002cdc
    2bfc:	00002cdc 	.word	0x00002cdc
    2c00:	00002cdc 	.word	0x00002cdc
    2c04:	00002ce0 	.word	0x00002ce0

00002c08 <memcpy>:
memcpy():
    2c08:	2300      	movs	r3, #0
    2c0a:	b510      	push	{r4, lr}
    2c0c:	429a      	cmp	r2, r3
    2c0e:	d100      	bne.n	2c12 <memcpy+0xa>
    2c10:	bd10      	pop	{r4, pc}
    2c12:	5ccc      	ldrb	r4, [r1, r3]
    2c14:	54c4      	strb	r4, [r0, r3]
    2c16:	3301      	adds	r3, #1
    2c18:	e7f8      	b.n	2c0c <memcpy+0x4>

00002c1a <memset>:
memset():
    2c1a:	0003      	movs	r3, r0
    2c1c:	1812      	adds	r2, r2, r0
    2c1e:	4293      	cmp	r3, r2
    2c20:	d100      	bne.n	2c24 <memset+0xa>
    2c22:	4770      	bx	lr
    2c24:	7019      	strb	r1, [r3, #0]
    2c26:	3301      	adds	r3, #1
    2c28:	e7f9      	b.n	2c1e <memset+0x4>

00002c2a <strncmp>:
strncmp():
    2c2a:	2300      	movs	r3, #0
    2c2c:	b530      	push	{r4, r5, lr}
    2c2e:	429a      	cmp	r2, r3
    2c30:	d00a      	beq.n	2c48 <strncmp+0x1e>
    2c32:	3a01      	subs	r2, #1
    2c34:	5cc4      	ldrb	r4, [r0, r3]
    2c36:	5ccd      	ldrb	r5, [r1, r3]
    2c38:	42ac      	cmp	r4, r5
    2c3a:	d104      	bne.n	2c46 <strncmp+0x1c>
    2c3c:	4293      	cmp	r3, r2
    2c3e:	d002      	beq.n	2c46 <strncmp+0x1c>
    2c40:	3301      	adds	r3, #1
    2c42:	2c00      	cmp	r4, #0
    2c44:	d1f6      	bne.n	2c34 <strncmp+0xa>
    2c46:	1b63      	subs	r3, r4, r5
    2c48:	0018      	movs	r0, r3
    2c4a:	bd30      	pop	{r4, r5, pc}

00002c4c <_exit>:
_exit():
    2c4c:	e7fe      	b.n	2c4c <_exit>
    2c4e:	46c0      	nop			; (mov r8, r8)
    2c50:	68616b65 	.word	0x68616b65
    2c54:	00000073 	.word	0x00000073
    2c58:	6b616873 	.word	0x6b616873
    2c5c:	00000065 	.word	0x00000065
    2c60:	64617465 	.word	0x64617465
    2c64:	00007570 	.word	0x00007570
    2c68:	61647075 	.word	0x61647075
    2c6c:	00006574 	.word	0x00006574
    2c70:	72617453 	.word	0x72617453
    2c74:	70552074 	.word	0x70552074
    2c78:	65746164 	.word	0x65746164
    2c7c:	00000000 	.word	0x00000000
    2c80:	61647075 	.word	0x61647075
    2c84:	00006574 	.word	0x00006574

00002c88 <UART_ARR>:
    2c88:	4006b000 4006c000                       ...@...@

00002c90 <PORT_ARR>:
    2c90:	40049000 4004a000 4004b000 4004c000     ...@...@...@...@
    2ca0:	4004d000                                ...@

00002ca4 <GPIO_ARR>:
    2ca4:	400ff000 400ff040 400ff080 400ff0c0     ...@@..@...@...@
    2cb4:	400ff100                                ...@

00002cb8 <_global_impure_ptr>:
    2cb8:	1ffff808                                ....

00002cbc <_init>:
_init():
    2cbc:	b5f8      	push	{r3, r4, r5, r6, r7, lr}
    2cbe:	46c0      	nop			; (mov r8, r8)
    2cc0:	bcf8      	pop	{r3, r4, r5, r6, r7}
    2cc2:	bc08      	pop	{r3}
    2cc4:	469e      	mov	lr, r3
    2cc6:	4770      	bx	lr

00002cc8 <_fini>:
_fini():
    2cc8:	b5f8      	push	{r3, r4, r5, r6, r7, lr}
    2cca:	46c0      	nop			; (mov r8, r8)
    2ccc:	bcf8      	pop	{r3, r4, r5, r6, r7}
    2cce:	bc08      	pop	{r3}
    2cd0:	469e      	mov	lr, r3
    2cd2:	4770      	bx	lr
